
D:/Nirman/Nirman5.0/Chetak/firmware_riscv/build/secure_iot.elf:     file format elf32-littleriscv

Sections:
Idx Name          Size      VMA       LMA       File off  Algn
  0 .text         000077a0  10000000  10000000  00001000  2**2
                  CONTENTS, ALLOC, LOAD, READONLY, CODE
  1 .rodata       000012ec  100077a0  100077a0  000087a0  2**3
                  CONTENTS, ALLOC, LOAD, READONLY, DATA
  2 .binary_info  00000020  10008a8c  10008a8c  00009a8c  2**2
                  CONTENTS, ALLOC, LOAD, READONLY, DATA
  3 .uninitialized_data 00000000  20000000  20000000  0000e2ec  2**0
                  CONTENTS
  4 .data         0000382c  20000000  10008aac  0000a000  2**6
                  CONTENTS, ALLOC, LOAD, CODE
  5 .tdata        00000000  2000382c  2000382c  0000e2ec  2**0
                  CONTENTS, ALLOC, LOAD, DATA, THREAD_LOCAL
  6 .tbss         00000000  2000382c  2000382c  00000000  2**0
                  ALLOC, THREAD_LOCAL
  7 .bss          00000dd0  20003830  1000c2d8  0000e830  2**3
                  ALLOC
  8 .heap         00000800  20004600  20004600  0000e2ec  2**2
                  CONTENTS, READONLY
  9 .scratch_x    00000000  20080000  20080000  0000eaec  2**0
                  CONTENTS
 10 .scratch_y    00000000  20081000  20081000  0000eaec  2**0
                  CONTENTS
 11 .stack_dummy  00000800  20081000  20081000  0000eb00  2**5
                  CONTENTS, READONLY
 12 .flash_end    00000014  1000c2d8  1000c2d8  0000e2d8  2**2
                  CONTENTS, ALLOC, LOAD, READONLY, DATA
 13 .comment      00000033  00000000  00000000  0000f300  2**0
                  CONTENTS, READONLY
 14 .riscv.attributes 00000089  00000000  00000000  0000f333  2**0
                  CONTENTS, READONLY
 15 .debug_info   0002d7e9  00000000  00000000  0000f3bc  2**0
                  CONTENTS, READONLY, DEBUGGING, OCTETS
 16 .debug_abbrev 00009455  00000000  00000000  0003cba5  2**0
                  CONTENTS, READONLY, DEBUGGING, OCTETS
 17 .debug_loclists 0001b86f  00000000  00000000  00045ffa  2**0
                  CONTENTS, READONLY, DEBUGGING, OCTETS
 18 .debug_aranges 000014d0  00000000  00000000  00061870  2**3
                  CONTENTS, READONLY, DEBUGGING, OCTETS
 19 .debug_rnglists 00002610  00000000  00000000  00062d40  2**0
                  CONTENTS, READONLY, DEBUGGING, OCTETS
 20 .debug_line   00029ae8  00000000  00000000  00065350  2**0
                  CONTENTS, READONLY, DEBUGGING, OCTETS
 21 .debug_str    00007f27  00000000  00000000  0008ee38  2**0
                  CONTENTS, READONLY, DEBUGGING, OCTETS
 22 .debug_line_str 00002e88  00000000  00000000  00096d5f  2**0
                  CONTENTS, READONLY, DEBUGGING, OCTETS
 23 .debug_frame  0000431c  00000000  00000000  00099be8  2**2
                  CONTENTS, READONLY, DEBUGGING, OCTETS

D:/Nirman/Nirman5.0/Chetak/firmware_riscv/build/secure_iot.elf:     file format elf32-littleriscv


Disassembly of section .text:

10000000 <__flash_binary_start>:
10000000:	ebf2                	.insn	2, 0xebf2
10000002:	7188                	.insn	2, 0x7188
10000004:	8a8c                	.insn	2, 0x8a8c
10000006:	1000                	addi	s0,sp,32
10000008:	8aac                	.insn	2, 0x8aac
1000000a:	1000                	addi	s0,sp,32
1000000c:	00a8                	addi	a0,sp,72
1000000e:	1000                	addi	s0,sp,32
10000010:	a390                	.insn	2, 0xa390
10000012:	e71a                	.insn	2, 0xe71a

10000014 <__binary_info_header_end>:
10000014:	ffffded3          	.insn	4, 0xffffded3
10000018:	0142                	slli	sp,sp,0x10
1000001a:	1101                	addi	sp,sp,-32
1000001c:	0344                	addi	s1,sp,388
1000001e:	0000                	unimp
10000020:	0036                	c.slli	zero,0xd
10000022:	1000                	addi	s0,sp,32
10000024:	2000                	.insn	2, 0x2000
10000026:	2008                	.insn	2, 0x2008
10000028:	04ff 0000 c2c4 0000 	.insn	10, 0x35790000c2c4000004ff
10000030:	3579 
10000032:	ab12                	.insn	2, 0xab12

10000034 <__embedded_block_end>:
10000034:	a879                	j	100000d2 <reenter_bootrom>

10000036 <_reset_handler>:
10000036:	10005197          	auipc	gp,0x10005
1000003a:	d3f18193          	addi	gp,gp,-705 # 20004d75 <__global_pointer$>
1000003e:	10082117          	auipc	sp,0x10082
10000042:	fc210113          	addi	sp,sp,-62 # 20082000 <__StackTop>
10000046:	10003517          	auipc	a0,0x10003
1000004a:	5fb50513          	addi	a0,a0,1531 # 20003641 <__VECTOR_TABLE+0x1>
1000004e:	30551073          	csrw	mtvec,a0
10000052:	f1402573          	csrr	a0,mhartid
10000056:	ed35                	bnez	a0,100000d2 <reenter_bootrom>
10000058:	00000717          	auipc	a4,0x0
1000005c:	05070713          	addi	a4,a4,80 # 100000a8 <data_cpy_table>
10000060:	430c                	lw	a1,0(a4)
10000062:	c591                	beqz	a1,1000006e <_reset_handler+0x38>
10000064:	4350                	lw	a2,4(a4)
10000066:	4714                	lw	a3,8(a4)
10000068:	0731                	addi	a4,a4,12
1000006a:	281d                	jal	100000a0 <data_cpy>
1000006c:	bfd5                	j	10000060 <_reset_handler+0x2a>
1000006e:	10003597          	auipc	a1,0x10003
10000072:	7be58593          	addi	a1,a1,1982 # 2000382c <__bss_start__>
10000076:	10004617          	auipc	a2,0x10004
1000007a:	58a60613          	addi	a2,a2,1418 # 20004600 <__bss_end__>
1000007e:	a021                	j	10000086 <bss_fill_test>

10000080 <bss_fill_loop>:
10000080:	0005a023          	sw	zero,0(a1)
10000084:	0591                	addi	a1,a1,4

10000086 <bss_fill_test>:
10000086:	fec59de3          	bne	a1,a2,10000080 <bss_fill_loop>

1000008a <platform_entry>:
1000008a:	57c030ef          	jal	10003606 <runtime_init>
1000008e:	2a6d                	jal	10000248 <main>
10000090:	53e030ef          	jal	100035ce <exit>
10000094:	9002                	ebreak
10000096:	bffd                	j	10000094 <platform_entry+0xa>

10000098 <data_cpy_loop>:
10000098:	4188                	lw	a0,0(a1)
1000009a:	c208                	sw	a0,0(a2)
1000009c:	0591                	addi	a1,a1,4
1000009e:	0611                	addi	a2,a2,4

100000a0 <data_cpy>:
100000a0:	fed66ce3          	bltu	a2,a3,10000098 <data_cpy_loop>
100000a4:	8082                	ret
100000a6:	0001                	nop

100000a8 <data_cpy_table>:
100000a8:	10008aac          	.word	0x10008aac
100000ac:	20000000          	.word	0x20000000
100000b0:	2000382c          	.word	0x2000382c
100000b4:	1000c2d8          	.word	0x1000c2d8
100000b8:	20080000          	.word	0x20080000
100000bc:	20080000          	.word	0x20080000
100000c0:	1000c2d8          	.word	0x1000c2d8
100000c4:	20081000          	.word	0x20081000
100000c8:	20081000          	.word	0x20081000
100000cc:	00000000          	.word	0x00000000
100000d0:	8082                	ret

100000d2 <reenter_bootrom>:
100000d2:	6521                	lui	a0,0x8
100000d4:	dfc50513          	addi	a0,a0,-516 # 7dfc <HeapSize+0x75fc>
100000d8:	8502                	jr	a0

100000da <frame_dummy>:
100000da:	00000793          	li	a5,0
100000de:	cf89                	beqz	a5,100000f8 <frame_dummy+0x1e>
100000e0:	10004597          	auipc	a1,0x10004
100000e4:	44c58593          	addi	a1,a1,1100 # 2000452c <object.0>
100000e8:	00007517          	auipc	a0,0x7
100000ec:	6b850513          	addi	a0,a0,1720 # 100077a0 <__EH_FRAME_BEGIN__>
100000f0:	00000317          	auipc	t1,0x0
100000f4:	00000067          	jr	zero # 0 <next_slot_number-0x5>
100000f8:	8082                	ret

100000fa <kernel_crypto_engine>:
100000fa:	7155                	addi	sp,sp,-208
100000fc:	c786                	sw	ra,204(sp)
100000fe:	c5a2                	sw	s0,200(sp)
10000100:	c3a6                	sw	s1,196(sp)
10000102:	c1ca                	sw	s2,192(sp)
10000104:	892a                	mv	s2,a0
10000106:	84ae                	mv	s1,a1
10000108:	200035b7          	lui	a1,0x20003
1000010c:	5bc58593          	addi	a1,a1,1468 # 200035bc <SECRET_KEY>
10000110:	850a                	mv	a0,sp
10000112:	2521                	jal	1000071a <AES_init_ctx>
10000114:	4401                	li	s0,0
10000116:	a031                	j	10000122 <kernel_crypto_engine+0x28>
10000118:	008905b3          	add	a1,s2,s0
1000011c:	850a                	mv	a0,sp
1000011e:	2521                	jal	10000726 <AES_ECB_encrypt>
10000120:	0441                	addi	s0,s0,16
10000122:	fe944be3          	blt	s0,s1,10000118 <kernel_crypto_engine+0x1e>
10000126:	40be                	lw	ra,204(sp)
10000128:	442e                	lw	s0,200(sp)
1000012a:	449e                	lw	s1,196(sp)
1000012c:	490e                	lw	s2,192(sp)
1000012e:	6169                	addi	sp,sp,208
10000130:	8082                	ret

10000132 <machine_exception_handler>:
10000132:	715d                	addi	sp,sp,-80
10000134:	c686                	sw	ra,76(sp)
10000136:	c496                	sw	t0,72(sp)
10000138:	c29a                	sw	t1,68(sp)
1000013a:	c09e                	sw	t2,64(sp)
1000013c:	de22                	sw	s0,60(sp)
1000013e:	dc2a                	sw	a0,56(sp)
10000140:	da2e                	sw	a1,52(sp)
10000142:	d832                	sw	a2,48(sp)
10000144:	d636                	sw	a3,44(sp)
10000146:	d43a                	sw	a4,40(sp)
10000148:	d23e                	sw	a5,36(sp)
1000014a:	d042                	sw	a6,32(sp)
1000014c:	ce46                	sw	a7,28(sp)
1000014e:	cc72                	sw	t3,24(sp)
10000150:	ca76                	sw	t4,20(sp)
10000152:	c87a                	sw	t5,16(sp)
10000154:	c67e                	sw	t6,12(sp)
10000156:	34202773          	csrr	a4,mcause
1000015a:	34102473          	csrr	s0,mepc
1000015e:	47a1                	li	a5,8
10000160:	04f70663          	beq	a4,a5,100001ac <machine_exception_handler+0x7a>
10000164:	ffb70793          	addi	a5,a4,-5
10000168:	0017b793          	seqz	a5,a5
1000016c:	ff970693          	addi	a3,a4,-7
10000170:	0016b693          	seqz	a3,a3
10000174:	8fd5                	or	a5,a5,a3
10000176:	cbd1                	beqz	a5,1000020a <machine_exception_handler+0xd8>
10000178:	10008537          	lui	a0,0x10008
1000017c:	80050513          	addi	a0,a0,-2048 # 10007800 <__EH_FRAME_BEGIN__+0x60>
10000180:	764030ef          	jal	100038e4 <__wrap_puts>
10000184:	10008537          	lui	a0,0x10008
10000188:	83c50513          	addi	a0,a0,-1988 # 1000783c <__EH_FRAME_BEGIN__+0x9c>
1000018c:	758030ef          	jal	100038e4 <__wrap_puts>
10000190:	85a2                	mv	a1,s0
10000192:	10008537          	lui	a0,0x10008
10000196:	86450513          	addi	a0,a0,-1948 # 10007864 <__EH_FRAME_BEGIN__+0xc4>
1000019a:	7b8030ef          	jal	10003952 <__wrap_printf>
1000019e:	10008537          	lui	a0,0x10008
100001a2:	88850513          	addi	a0,a0,-1912 # 10007888 <__EH_FRAME_BEGIN__+0xe8>
100001a6:	73e030ef          	jal	100038e4 <__wrap_puts>
100001aa:	a001                	j	100001aa <machine_exception_handler+0x78>
100001ac:	4785                	li	a5,1
100001ae:	02f50d63          	beq	a0,a5,100001e8 <machine_exception_handler+0xb6>
100001b2:	06300793          	li	a5,99
100001b6:	04f50363          	beq	a0,a5,100001fc <machine_exception_handler+0xca>
100001ba:	0411                	addi	s0,s0,4
100001bc:	34141073          	csrw	mepc,s0
100001c0:	40b6                	lw	ra,76(sp)
100001c2:	42a6                	lw	t0,72(sp)
100001c4:	4316                	lw	t1,68(sp)
100001c6:	4386                	lw	t2,64(sp)
100001c8:	5472                	lw	s0,60(sp)
100001ca:	5562                	lw	a0,56(sp)
100001cc:	55d2                	lw	a1,52(sp)
100001ce:	5642                	lw	a2,48(sp)
100001d0:	56b2                	lw	a3,44(sp)
100001d2:	5722                	lw	a4,40(sp)
100001d4:	5792                	lw	a5,36(sp)
100001d6:	5802                	lw	a6,32(sp)
100001d8:	48f2                	lw	a7,28(sp)
100001da:	4e62                	lw	t3,24(sp)
100001dc:	4ed2                	lw	t4,20(sp)
100001de:	4f42                	lw	t5,16(sp)
100001e0:	4fb2                	lw	t6,12(sp)
100001e2:	6161                	addi	sp,sp,80
100001e4:	30200073          	mret
100001e8:	852e                	mv	a0,a1
100001ea:	45c1                	li	a1,16
100001ec:	3739                	jal	100000fa <kernel_crypto_engine>
100001ee:	10007537          	lui	a0,0x10007
100001f2:	7a050513          	addi	a0,a0,1952 # 100077a0 <__EH_FRAME_BEGIN__>
100001f6:	6ee030ef          	jal	100038e4 <__wrap_puts>
100001fa:	b7c1                	j	100001ba <machine_exception_handler+0x88>
100001fc:	10007537          	lui	a0,0x10007
10000200:	7d450513          	addi	a0,a0,2004 # 100077d4 <__EH_FRAME_BEGIN__+0x34>
10000204:	6e0030ef          	jal	100038e4 <__wrap_puts>
10000208:	a001                	j	10000208 <machine_exception_handler+0xd6>
1000020a:	85ba                	mv	a1,a4
1000020c:	10008537          	lui	a0,0x10008
10000210:	8c050513          	addi	a0,a0,-1856 # 100078c0 <__EH_FRAME_BEGIN__+0x120>
10000214:	73e030ef          	jal	10003952 <__wrap_printf>
10000218:	a001                	j	10000218 <machine_exception_handler+0xe6>

1000021a <switch_to_user_mode>:
1000021a:	1141                	addi	sp,sp,-16
1000021c:	c606                	sw	ra,12(sp)
1000021e:	300027f3          	csrr	a5,mstatus
10000222:	48b79793          	bclri	a5,a5,0xb
10000226:	48c79793          	bclri	a5,a5,0xc
1000022a:	30079073          	csrw	mstatus,a5
1000022e:	34151073          	csrw	mepc,a0
10000232:	10008537          	lui	a0,0x10008
10000236:	8ec50513          	addi	a0,a0,-1812 # 100078ec <__EH_FRAME_BEGIN__+0x14c>
1000023a:	6aa030ef          	jal	100038e4 <__wrap_puts>
1000023e:	30200073          	mret
10000242:	40b2                	lw	ra,12(sp)
10000244:	0141                	addi	sp,sp,16
10000246:	8082                	ret

10000248 <main>:
10000248:	1141                	addi	sp,sp,-16
1000024a:	c606                	sw	ra,12(sp)
1000024c:	66a030ef          	jal	100038b6 <stdio_init_all>
10000250:	6505                	lui	a0,0x1
10000252:	bb850513          	addi	a0,a0,-1096 # bb8 <HeapSize+0x3b8>
10000256:	6e2010ef          	jal	10001938 <sleep_ms>
1000025a:	10008537          	lui	a0,0x10008
1000025e:	92050513          	addi	a0,a0,-1760 # 10007920 <__EH_FRAME_BEGIN__+0x180>
10000262:	682030ef          	jal	100038e4 <__wrap_puts>
10000266:	10008537          	lui	a0,0x10008
1000026a:	94c50513          	addi	a0,a0,-1716 # 1000794c <__EH_FRAME_BEGIN__+0x1ac>
1000026e:	676030ef          	jal	100038e4 <__wrap_puts>
10000272:	10008537          	lui	a0,0x10008
10000276:	97850513          	addi	a0,a0,-1672 # 10007978 <__EH_FRAME_BEGIN__+0x1d8>
1000027a:	66a030ef          	jal	100038e4 <__wrap_puts>
1000027e:	100007b7          	lui	a5,0x10000
10000282:	13278793          	addi	a5,a5,306 # 10000132 <machine_exception_handler>
10000286:	30579073          	csrw	mtvec,a5
1000028a:	10000537          	lui	a0,0x10000
1000028e:	2a050513          	addi	a0,a0,672 # 100002a0 <sandbox_main>
10000292:	3761                	jal	1000021a <switch_to_user_mode>
10000294:	a001                	j	10000294 <main+0x4c>

10000296 <syscall_encrypt_data>:
10000296:	85aa                	mv	a1,a0
10000298:	4505                	li	a0,1
1000029a:	00000073          	ecall
1000029e:	8082                	ret

100002a0 <sandbox_main>:
100002a0:	7179                	addi	sp,sp,-48
100002a2:	d606                	sw	ra,44(sp)
100002a4:	d422                	sw	s0,40(sp)
100002a6:	d226                	sw	s1,36(sp)
100002a8:	100087b7          	lui	a5,0x10008
100002ac:	aec78793          	addi	a5,a5,-1300 # 10007aec <__EH_FRAME_BEGIN__+0x34c>
100002b0:	4390                	lw	a2,0(a5)
100002b2:	43d4                	lw	a3,4(a5)
100002b4:	4798                	lw	a4,8(a5)
100002b6:	c632                	sw	a2,12(sp)
100002b8:	c836                	sw	a3,16(sp)
100002ba:	ca3a                	sw	a4,20(sp)
100002bc:	47d8                	lw	a4,12(a5)
100002be:	cc3a                	sw	a4,24(sp)
100002c0:	0107c783          	lbu	a5,16(a5)
100002c4:	00f10e23          	sb	a5,28(sp)
100002c8:	4481                	li	s1,0
100002ca:	a835                	j	10000306 <sandbox_main+0x66>
100002cc:	02040793          	addi	a5,s0,32
100002d0:	978a                	add	a5,a5,sp
100002d2:	fec7c583          	lbu	a1,-20(a5)
100002d6:	10008537          	lui	a0,0x10008
100002da:	a5850513          	addi	a0,a0,-1448 # 10007a58 <__EH_FRAME_BEGIN__+0x2b8>
100002de:	674030ef          	jal	10003952 <__wrap_printf>
100002e2:	0405                	addi	s0,s0,1
100002e4:	47bd                	li	a5,15
100002e6:	fe87d3e3          	bge	a5,s0,100002cc <sandbox_main+0x2c>
100002ea:	4529                	li	a0,10
100002ec:	5d6030ef          	jal	100038c2 <__wrap_putchar>
100002f0:	478d                	li	a5,3
100002f2:	08f48163          	beq	s1,a5,10000374 <sandbox_main+0xd4>
100002f6:	c402                	sw	zero,8(sp)
100002f8:	4722                	lw	a4,8(sp)
100002fa:	004c57b7          	lui	a5,0x4c5
100002fe:	b3f78793          	addi	a5,a5,-1217 # 4c4b3f <HeapSize+0x4c433f>
10000302:	0ae7d663          	bge	a5,a4,100003ae <sandbox_main+0x10e>
10000306:	85a6                	mv	a1,s1
10000308:	0485                	addi	s1,s1,1
1000030a:	10008537          	lui	a0,0x10008
1000030e:	9a450513          	addi	a0,a0,-1628 # 100079a4 <__EH_FRAME_BEGIN__+0x204>
10000312:	640030ef          	jal	10003952 <__wrap_printf>
10000316:	66666637          	lui	a2,0x66666
1000031a:	66760613          	addi	a2,a2,1639 # 66666667 <__StackTop+0x465e4667>
1000031e:	02c49633          	mulh	a2,s1,a2
10000322:	8609                	srai	a2,a2,0x2
10000324:	41f4d793          	srai	a5,s1,0x1f
10000328:	8e1d                	sub	a2,a2,a5
1000032a:	20c64633          	sh2add	a2,a2,a2
1000032e:	0606                	slli	a2,a2,0x1
10000330:	40c48633          	sub	a2,s1,a2
10000334:	0060                	addi	s0,sp,12
10000336:	0651                	addi	a2,a2,20
10000338:	100085b7          	lui	a1,0x10008
1000033c:	9c458593          	addi	a1,a1,-1596 # 100079c4 <__EH_FRAME_BEGIN__+0x224>
10000340:	8522                	mv	a0,s0
10000342:	21a030ef          	jal	1000355c <__wrap_sprintf>
10000346:	85a2                	mv	a1,s0
10000348:	10008537          	lui	a0,0x10008
1000034c:	9d850513          	addi	a0,a0,-1576 # 100079d8 <__EH_FRAME_BEGIN__+0x238>
10000350:	602030ef          	jal	10003952 <__wrap_printf>
10000354:	10008537          	lui	a0,0x10008
10000358:	a0050513          	addi	a0,a0,-1536 # 10007a00 <__EH_FRAME_BEGIN__+0x260>
1000035c:	588030ef          	jal	100038e4 <__wrap_puts>
10000360:	8522                	mv	a0,s0
10000362:	3f15                	jal	10000296 <syscall_encrypt_data>
10000364:	10008537          	lui	a0,0x10008
10000368:	a3450513          	addi	a0,a0,-1484 # 10007a34 <__EH_FRAME_BEGIN__+0x294>
1000036c:	5e6030ef          	jal	10003952 <__wrap_printf>
10000370:	4401                	li	s0,0
10000372:	bf8d                	j	100002e4 <sandbox_main+0x44>
10000374:	10008537          	lui	a0,0x10008
10000378:	a6050513          	addi	a0,a0,-1440 # 10007a60 <__EH_FRAME_BEGIN__+0x2c0>
1000037c:	568030ef          	jal	100038e4 <__wrap_puts>
10000380:	10008537          	lui	a0,0x10008
10000384:	a8c50513          	addi	a0,a0,-1396 # 10007a8c <__EH_FRAME_BEGIN__+0x2ec>
10000388:	55c030ef          	jal	100038e4 <__wrap_puts>
1000038c:	200037b7          	lui	a5,0x20003
10000390:	5bc7c783          	lbu	a5,1468(a5) # 200035bc <SECRET_KEY>
10000394:	0ff7f793          	zext.b	a5,a5
10000398:	00f103a3          	sb	a5,7(sp)
1000039c:	00714583          	lbu	a1,7(sp)
100003a0:	10008537          	lui	a0,0x10008
100003a4:	ac050513          	addi	a0,a0,-1344 # 10007ac0 <__EH_FRAME_BEGIN__+0x320>
100003a8:	5aa030ef          	jal	10003952 <__wrap_printf>
100003ac:	b7a9                	j	100002f6 <sandbox_main+0x56>
100003ae:	47a2                	lw	a5,8(sp)
100003b0:	0785                	addi	a5,a5,1
100003b2:	c43e                	sw	a5,8(sp)
100003b4:	b791                	j	100002f8 <sandbox_main+0x58>

100003b6 <KeyExpansion>:
100003b6:	4701                	li	a4,0
100003b8:	a0b1                	j	10000404 <KeyExpansion+0x4e>
100003ba:	00271793          	slli	a5,a4,0x2
100003be:	20a746b3          	sh2add	a3,a4,a0
100003c2:	20b74633          	sh2add	a2,a4,a1
100003c6:	00064603          	lbu	a2,0(a2)
100003ca:	00c68023          	sb	a2,0(a3)
100003ce:	00178693          	addi	a3,a5,1
100003d2:	00d50633          	add	a2,a0,a3
100003d6:	96ae                	add	a3,a3,a1
100003d8:	0006c683          	lbu	a3,0(a3)
100003dc:	00d60023          	sb	a3,0(a2)
100003e0:	00278693          	addi	a3,a5,2
100003e4:	00d50633          	add	a2,a0,a3
100003e8:	96ae                	add	a3,a3,a1
100003ea:	0006c683          	lbu	a3,0(a3)
100003ee:	00d60023          	sb	a3,0(a2)
100003f2:	078d                	addi	a5,a5,3
100003f4:	00f506b3          	add	a3,a0,a5
100003f8:	97ae                	add	a5,a5,a1
100003fa:	0007c783          	lbu	a5,0(a5)
100003fe:	00f68023          	sb	a5,0(a3)
10000402:	0705                	addi	a4,a4,1
10000404:	478d                	li	a5,3
10000406:	fae7fae3          	bgeu	a5,a4,100003ba <KeyExpansion+0x4>
1000040a:	4791                	li	a5,4
1000040c:	02b00713          	li	a4,43
10000410:	12f76263          	bltu	a4,a5,10000534 <KeyExpansion+0x17e>
10000414:	1141                	addi	sp,sp,-16
10000416:	a8bd                	j	10000494 <KeyExpansion+0xde>
10000418:	00279713          	slli	a4,a5,0x2
1000041c:	ffc78613          	addi	a2,a5,-4
10000420:	00261693          	slli	a3,a2,0x2
10000424:	20a64633          	sh2add	a2,a2,a0
10000428:	00064603          	lbu	a2,0(a2)
1000042c:	00c14803          	lbu	a6,12(sp)
10000430:	20a7c5b3          	sh2add	a1,a5,a0
10000434:	01064633          	xor	a2,a2,a6
10000438:	00c58023          	sb	a2,0(a1)
1000043c:	00168613          	addi	a2,a3,1
10000440:	962a                	add	a2,a2,a0
10000442:	00064583          	lbu	a1,0(a2)
10000446:	00d14803          	lbu	a6,13(sp)
1000044a:	00170613          	addi	a2,a4,1
1000044e:	962a                	add	a2,a2,a0
10000450:	0105c5b3          	xor	a1,a1,a6
10000454:	00b60023          	sb	a1,0(a2)
10000458:	00268613          	addi	a2,a3,2
1000045c:	962a                	add	a2,a2,a0
1000045e:	00064583          	lbu	a1,0(a2)
10000462:	00e14803          	lbu	a6,14(sp)
10000466:	00270613          	addi	a2,a4,2
1000046a:	962a                	add	a2,a2,a0
1000046c:	0105c5b3          	xor	a1,a1,a6
10000470:	00b60023          	sb	a1,0(a2)
10000474:	068d                	addi	a3,a3,3
10000476:	96aa                	add	a3,a3,a0
10000478:	0006c683          	lbu	a3,0(a3)
1000047c:	00f14603          	lbu	a2,15(sp)
10000480:	070d                	addi	a4,a4,3
10000482:	972a                	add	a4,a4,a0
10000484:	8eb1                	xor	a3,a3,a2
10000486:	00d70023          	sb	a3,0(a4)
1000048a:	0785                	addi	a5,a5,1
1000048c:	02b00713          	li	a4,43
10000490:	0af76063          	bltu	a4,a5,10000530 <KeyExpansion+0x17a>
10000494:	fff78693          	addi	a3,a5,-1
10000498:	00269713          	slli	a4,a3,0x2
1000049c:	20a6c6b3          	sh2add	a3,a3,a0
100004a0:	0006c803          	lbu	a6,0(a3)
100004a4:	01010623          	sb	a6,12(sp)
100004a8:	00170693          	addi	a3,a4,1
100004ac:	96aa                	add	a3,a3,a0
100004ae:	0006c583          	lbu	a1,0(a3)
100004b2:	00b106a3          	sb	a1,13(sp)
100004b6:	00270693          	addi	a3,a4,2
100004ba:	96aa                	add	a3,a3,a0
100004bc:	0006c603          	lbu	a2,0(a3)
100004c0:	00c10723          	sb	a2,14(sp)
100004c4:	070d                	addi	a4,a4,3
100004c6:	972a                	add	a4,a4,a0
100004c8:	00074683          	lbu	a3,0(a4)
100004cc:	00d107a3          	sb	a3,15(sp)
100004d0:	0037f713          	andi	a4,a5,3
100004d4:	f331                	bnez	a4,10000418 <KeyExpansion+0x62>
100004d6:	00b10623          	sb	a1,12(sp)
100004da:	00c106a3          	sb	a2,13(sp)
100004de:	00d10723          	sb	a3,14(sp)
100004e2:	010107a3          	sb	a6,15(sp)
100004e6:	10008737          	lui	a4,0x10008
100004ea:	36c70713          	addi	a4,a4,876 # 1000836c <sbox>
100004ee:	95ba                	add	a1,a1,a4
100004f0:	0005c583          	lbu	a1,0(a1)
100004f4:	00b10623          	sb	a1,12(sp)
100004f8:	963a                	add	a2,a2,a4
100004fa:	00064603          	lbu	a2,0(a2)
100004fe:	00c106a3          	sb	a2,13(sp)
10000502:	96ba                	add	a3,a3,a4
10000504:	0006c683          	lbu	a3,0(a3)
10000508:	00d10723          	sb	a3,14(sp)
1000050c:	9742                	add	a4,a4,a6
1000050e:	00074703          	lbu	a4,0(a4)
10000512:	00e107a3          	sb	a4,15(sp)
10000516:	0027d693          	srli	a3,a5,0x2
1000051a:	10008737          	lui	a4,0x10008
1000051e:	36070713          	addi	a4,a4,864 # 10008360 <Rcon>
10000522:	9736                	add	a4,a4,a3
10000524:	00074703          	lbu	a4,0(a4)
10000528:	8db9                	xor	a1,a1,a4
1000052a:	00b10623          	sb	a1,12(sp)
1000052e:	b5ed                	j	10000418 <KeyExpansion+0x62>
10000530:	0141                	addi	sp,sp,16
10000532:	8082                	ret
10000534:	8082                	ret

10000536 <AddRoundKey>:
10000536:	4881                	li	a7,0
10000538:	a815                	j	1000056c <AddRoundKey+0x36>
1000053a:	20b8c6b3          	sh2add	a3,a7,a1
1000053e:	96be                	add	a3,a3,a5
10000540:	0006c803          	lbu	a6,0(a3)
10000544:	21154733          	sh2add	a4,a0,a7
10000548:	20f74733          	sh2add	a4,a4,a5
1000054c:	9732                	add	a4,a4,a2
1000054e:	00074703          	lbu	a4,0(a4)
10000552:	00e84733          	xor	a4,a6,a4
10000556:	00e68023          	sb	a4,0(a3)
1000055a:	0785                	addi	a5,a5,1
1000055c:	0ff7f793          	zext.b	a5,a5
10000560:	470d                	li	a4,3
10000562:	fcf77ce3          	bgeu	a4,a5,1000053a <AddRoundKey+0x4>
10000566:	0885                	addi	a7,a7,1
10000568:	0ff8f893          	zext.b	a7,a7
1000056c:	478d                	li	a5,3
1000056e:	0117e463          	bltu	a5,a7,10000576 <AddRoundKey+0x40>
10000572:	4781                	li	a5,0
10000574:	b7f5                	j	10000560 <AddRoundKey+0x2a>
10000576:	8082                	ret

10000578 <SubBytes>:
10000578:	4601                	li	a2,0
1000057a:	a805                	j	100005aa <SubBytes+0x32>
1000057c:	20a7c6b3          	sh2add	a3,a5,a0
10000580:	96b2                	add	a3,a3,a2
10000582:	0006c583          	lbu	a1,0(a3)
10000586:	10008737          	lui	a4,0x10008
1000058a:	36c70713          	addi	a4,a4,876 # 1000836c <sbox>
1000058e:	972e                	add	a4,a4,a1
10000590:	00074703          	lbu	a4,0(a4)
10000594:	00e68023          	sb	a4,0(a3)
10000598:	0785                	addi	a5,a5,1
1000059a:	0ff7f793          	zext.b	a5,a5
1000059e:	470d                	li	a4,3
100005a0:	fcf77ee3          	bgeu	a4,a5,1000057c <SubBytes+0x4>
100005a4:	0605                	addi	a2,a2,1
100005a6:	0ff67613          	zext.b	a2,a2
100005aa:	478d                	li	a5,3
100005ac:	00c7e463          	bltu	a5,a2,100005b4 <SubBytes+0x3c>
100005b0:	4781                	li	a5,0
100005b2:	b7f5                	j	1000059e <SubBytes+0x26>
100005b4:	8082                	ret

100005b6 <ShiftRows>:
100005b6:	00154783          	lbu	a5,1(a0)
100005ba:	00554703          	lbu	a4,5(a0)
100005be:	00e500a3          	sb	a4,1(a0)
100005c2:	00954703          	lbu	a4,9(a0)
100005c6:	00e502a3          	sb	a4,5(a0)
100005ca:	00d54703          	lbu	a4,13(a0)
100005ce:	00e504a3          	sb	a4,9(a0)
100005d2:	00f506a3          	sb	a5,13(a0)
100005d6:	00254783          	lbu	a5,2(a0)
100005da:	00a54703          	lbu	a4,10(a0)
100005de:	00e50123          	sb	a4,2(a0)
100005e2:	00f50523          	sb	a5,10(a0)
100005e6:	00654783          	lbu	a5,6(a0)
100005ea:	00e54703          	lbu	a4,14(a0)
100005ee:	00e50323          	sb	a4,6(a0)
100005f2:	00f50723          	sb	a5,14(a0)
100005f6:	00354783          	lbu	a5,3(a0)
100005fa:	00f54703          	lbu	a4,15(a0)
100005fe:	00e501a3          	sb	a4,3(a0)
10000602:	00b54703          	lbu	a4,11(a0)
10000606:	00e507a3          	sb	a4,15(a0)
1000060a:	00754703          	lbu	a4,7(a0)
1000060e:	00e505a3          	sb	a4,11(a0)
10000612:	00f503a3          	sb	a5,7(a0)
10000616:	8082                	ret

10000618 <xtime>:
10000618:	00755713          	srli	a4,a0,0x7
1000061c:	00371793          	slli	a5,a4,0x3
10000620:	8f99                	sub	a5,a5,a4
10000622:	078a                	slli	a5,a5,0x2
10000624:	8f99                	sub	a5,a5,a4
10000626:	0506                	slli	a0,a0,0x1
10000628:	8d3d                	xor	a0,a0,a5
1000062a:	0ff57513          	zext.b	a0,a0
1000062e:	8082                	ret

10000630 <MixColumns>:
10000630:	7179                	addi	sp,sp,-48
10000632:	d606                	sw	ra,44(sp)
10000634:	d422                	sw	s0,40(sp)
10000636:	d226                	sw	s1,36(sp)
10000638:	d04a                	sw	s2,32(sp)
1000063a:	ce4e                	sw	s3,28(sp)
1000063c:	cc52                	sw	s4,24(sp)
1000063e:	ca56                	sw	s5,20(sp)
10000640:	c85a                	sw	s6,16(sp)
10000642:	c65e                	sw	s7,12(sp)
10000644:	8b2a                	mv	s6,a0
10000646:	4a01                	li	s4,0
10000648:	a0a5                	j	100006b0 <MixColumns+0x80>
1000064a:	216a4433          	sh2add	s0,s4,s6
1000064e:	00044b83          	lbu	s7,0(s0)
10000652:	00144a83          	lbu	s5,1(s0)
10000656:	017ac533          	xor	a0,s5,s7
1000065a:	00244983          	lbu	s3,2(s0)
1000065e:	00344903          	lbu	s2,3(s0)
10000662:	013544b3          	xor	s1,a0,s3
10000666:	009944b3          	xor	s1,s2,s1
1000066a:	377d                	jal	10000618 <xtime>
1000066c:	00a4c7b3          	xor	a5,s1,a0
10000670:	00fbc7b3          	xor	a5,s7,a5
10000674:	00f40023          	sb	a5,0(s0)
10000678:	013ac533          	xor	a0,s5,s3
1000067c:	3f71                	jal	10000618 <xtime>
1000067e:	8d25                	xor	a0,a0,s1
10000680:	00aacab3          	xor	s5,s5,a0
10000684:	015400a3          	sb	s5,1(s0)
10000688:	0129c533          	xor	a0,s3,s2
1000068c:	3771                	jal	10000618 <xtime>
1000068e:	8d25                	xor	a0,a0,s1
10000690:	00a9c9b3          	xor	s3,s3,a0
10000694:	01340123          	sb	s3,2(s0)
10000698:	01794533          	xor	a0,s2,s7
1000069c:	3fb5                	jal	10000618 <xtime>
1000069e:	00a4c7b3          	xor	a5,s1,a0
100006a2:	00f944b3          	xor	s1,s2,a5
100006a6:	009401a3          	sb	s1,3(s0)
100006aa:	0a05                	addi	s4,s4,1
100006ac:	0ffa7a13          	zext.b	s4,s4
100006b0:	478d                	li	a5,3
100006b2:	f947fce3          	bgeu	a5,s4,1000064a <MixColumns+0x1a>
100006b6:	50b2                	lw	ra,44(sp)
100006b8:	5422                	lw	s0,40(sp)
100006ba:	5492                	lw	s1,36(sp)
100006bc:	5902                	lw	s2,32(sp)
100006be:	49f2                	lw	s3,28(sp)
100006c0:	4a62                	lw	s4,24(sp)
100006c2:	4ad2                	lw	s5,20(sp)
100006c4:	4b42                	lw	s6,16(sp)
100006c6:	4bb2                	lw	s7,12(sp)
100006c8:	6145                	addi	sp,sp,48
100006ca:	8082                	ret

100006cc <Cipher>:
100006cc:	1141                	addi	sp,sp,-16
100006ce:	c606                	sw	ra,12(sp)
100006d0:	c422                	sw	s0,8(sp)
100006d2:	c226                	sw	s1,4(sp)
100006d4:	c04a                	sw	s2,0(sp)
100006d6:	84aa                	mv	s1,a0
100006d8:	892e                	mv	s2,a1
100006da:	862e                	mv	a2,a1
100006dc:	85aa                	mv	a1,a0
100006de:	4501                	li	a0,0
100006e0:	3d99                	jal	10000536 <AddRoundKey>
100006e2:	4405                	li	s0,1
100006e4:	8526                	mv	a0,s1
100006e6:	3d49                	jal	10000578 <SubBytes>
100006e8:	8526                	mv	a0,s1
100006ea:	35f1                	jal	100005b6 <ShiftRows>
100006ec:	47a9                	li	a5,10
100006ee:	00f40c63          	beq	s0,a5,10000706 <Cipher+0x3a>
100006f2:	8526                	mv	a0,s1
100006f4:	3f35                	jal	10000630 <MixColumns>
100006f6:	864a                	mv	a2,s2
100006f8:	85a6                	mv	a1,s1
100006fa:	8522                	mv	a0,s0
100006fc:	3d2d                	jal	10000536 <AddRoundKey>
100006fe:	0405                	addi	s0,s0,1
10000700:	0ff47413          	zext.b	s0,s0
10000704:	b7c5                	j	100006e4 <Cipher+0x18>
10000706:	864a                	mv	a2,s2
10000708:	85a6                	mv	a1,s1
1000070a:	4529                	li	a0,10
1000070c:	352d                	jal	10000536 <AddRoundKey>
1000070e:	40b2                	lw	ra,12(sp)
10000710:	4422                	lw	s0,8(sp)
10000712:	4492                	lw	s1,4(sp)
10000714:	4902                	lw	s2,0(sp)
10000716:	0141                	addi	sp,sp,16
10000718:	8082                	ret

1000071a <AES_init_ctx>:
1000071a:	1141                	addi	sp,sp,-16
1000071c:	c606                	sw	ra,12(sp)
1000071e:	3961                	jal	100003b6 <KeyExpansion>
10000720:	40b2                	lw	ra,12(sp)
10000722:	0141                	addi	sp,sp,16
10000724:	8082                	ret

10000726 <AES_ECB_encrypt>:
10000726:	1141                	addi	sp,sp,-16
10000728:	c606                	sw	ra,12(sp)
1000072a:	87ae                	mv	a5,a1
1000072c:	85aa                	mv	a1,a0
1000072e:	853e                	mv	a0,a5
10000730:	3f71                	jal	100006cc <Cipher>
10000732:	40b2                	lw	ra,12(sp)
10000734:	0141                	addi	sp,sp,16
10000736:	8082                	ret

10000738 <panic>:
10000738:	7139                	addi	sp,sp,-64
1000073a:	ce06                	sw	ra,28(sp)
1000073c:	cc22                	sw	s0,24(sp)
1000073e:	842a                	mv	s0,a0
10000740:	d22e                	sw	a1,36(sp)
10000742:	d432                	sw	a2,40(sp)
10000744:	d636                	sw	a3,44(sp)
10000746:	d83a                	sw	a4,48(sp)
10000748:	da3e                	sw	a5,52(sp)
1000074a:	dc42                	sw	a6,56(sp)
1000074c:	de46                	sw	a7,60(sp)
1000074e:	10008537          	lui	a0,0x10008
10000752:	b0050513          	addi	a0,a0,-1280 # 10007b00 <__EH_FRAME_BEGIN__+0x360>
10000756:	18e030ef          	jal	100038e4 <__wrap_puts>
1000075a:	cc01                	beqz	s0,10000772 <panic+0x3a>
1000075c:	104c                	addi	a1,sp,36
1000075e:	c62e                	sw	a1,12(sp)
10000760:	8522                	mv	a0,s0
10000762:	1aa030ef          	jal	1000390c <__wrap_vprintf>
10000766:	10008537          	lui	a0,0x10008
1000076a:	8e850513          	addi	a0,a0,-1816 # 100078e8 <__EH_FRAME_BEGIN__+0x148>
1000076e:	176030ef          	jal	100038e4 <__wrap_puts>
10000772:	4505                	li	a0,1
10000774:	657020ef          	jal	100035ca <_exit>

10000778 <hw_claim_lock>:
10000778:	30047573          	csrrci	a0,mstatus,8
1000077c:	200047b7          	lui	a5,0x20004
10000780:	ce778793          	addi	a5,a5,-793 # 20003ce7 <_sw_spin_locks+0xb>
10000784:	00379713          	slli	a4,a5,0x3
10000788:	28e01733          	bset	a4,zero,a4
1000078c:	9bf1                	andi	a5,a5,-4
1000078e:	44e7a6af          	amoor.w.aq	a3,a4,(a5)
10000792:	8ef9                	and	a3,a3,a4
10000794:	feed                	bnez	a3,1000078e <hw_claim_lock+0x16>
10000796:	0330000f          	fence	rw,rw
1000079a:	8082                	ret

1000079c <hw_claim_unlock>:
1000079c:	0330000f          	fence	rw,rw
100007a0:	200047b7          	lui	a5,0x20004
100007a4:	cdc78793          	addi	a5,a5,-804 # 20003cdc <_sw_spin_locks>
100007a8:	000785a3          	sb	zero,11(a5)
100007ac:	8921                	andi	a0,a0,8
100007ae:	30052073          	csrs	mstatus,a0
100007b2:	8082                	ret

100007b4 <hw_claim_or_assert>:
100007b4:	1141                	addi	sp,sp,-16
100007b6:	c606                	sw	ra,12(sp)
100007b8:	c422                	sw	s0,8(sp)
100007ba:	c226                	sw	s1,4(sp)
100007bc:	c04a                	sw	s2,0(sp)
100007be:	84aa                	mv	s1,a0
100007c0:	842e                	mv	s0,a1
100007c2:	8932                	mv	s2,a2
100007c4:	3f55                	jal	10000778 <hw_claim_lock>
100007c6:	00345793          	srli	a5,s0,0x3
100007ca:	00f48733          	add	a4,s1,a5
100007ce:	00074683          	lbu	a3,0(a4)
100007d2:	00747793          	andi	a5,s0,7
100007d6:	28f017b3          	bset	a5,zero,a5
100007da:	00f6f633          	and	a2,a3,a5
100007de:	ee09                	bnez	a2,100007f8 <hw_claim_or_assert+0x44>
100007e0:	0ff7f793          	zext.b	a5,a5
100007e4:	8fd5                	or	a5,a5,a3
100007e6:	00f70023          	sb	a5,0(a4)
100007ea:	3f4d                	jal	1000079c <hw_claim_unlock>
100007ec:	40b2                	lw	ra,12(sp)
100007ee:	4422                	lw	s0,8(sp)
100007f0:	4492                	lw	s1,4(sp)
100007f2:	4902                	lw	s2,0(sp)
100007f4:	0141                	addi	sp,sp,16
100007f6:	8082                	ret
100007f8:	85a2                	mv	a1,s0
100007fa:	854a                	mv	a0,s2
100007fc:	3f35                	jal	10000738 <panic>

100007fe <hw_claim_unused_from_range>:
100007fe:	1101                	addi	sp,sp,-32
10000800:	ce06                	sw	ra,28(sp)
10000802:	cc22                	sw	s0,24(sp)
10000804:	ca26                	sw	s1,20(sp)
10000806:	c84a                	sw	s2,16(sp)
10000808:	c64e                	sw	s3,12(sp)
1000080a:	c452                	sw	s4,8(sp)
1000080c:	892a                	mv	s2,a0
1000080e:	89ae                	mv	s3,a1
10000810:	8432                	mv	s0,a2
10000812:	84b6                	mv	s1,a3
10000814:	8a3a                	mv	s4,a4
10000816:	378d                	jal	10000778 <hw_claim_lock>
10000818:	a011                	j	1000081c <hw_claim_unused_from_range+0x1e>
1000081a:	0405                	addi	s0,s0,1
1000081c:	0284e663          	bltu	s1,s0,10000848 <hw_claim_unused_from_range+0x4a>
10000820:	00345613          	srli	a2,s0,0x3
10000824:	964a                	add	a2,a2,s2
10000826:	00064803          	lbu	a6,0(a2)
1000082a:	00747793          	andi	a5,s0,7
1000082e:	28f017b3          	bset	a5,zero,a5
10000832:	00f878b3          	and	a7,a6,a5
10000836:	fe0892e3          	bnez	a7,1000081a <hw_claim_unused_from_range+0x1c>
1000083a:	0ff7f793          	zext.b	a5,a5
1000083e:	0107e7b3          	or	a5,a5,a6
10000842:	00f60023          	sb	a5,0(a2)
10000846:	a011                	j	1000084a <hw_claim_unused_from_range+0x4c>
10000848:	547d                	li	s0,-1
1000084a:	3f89                	jal	1000079c <hw_claim_unlock>
1000084c:	01f45793          	srli	a5,s0,0x1f
10000850:	0137f7b3          	and	a5,a5,s3
10000854:	eb91                	bnez	a5,10000868 <hw_claim_unused_from_range+0x6a>
10000856:	8522                	mv	a0,s0
10000858:	40f2                	lw	ra,28(sp)
1000085a:	4462                	lw	s0,24(sp)
1000085c:	44d2                	lw	s1,20(sp)
1000085e:	4942                	lw	s2,16(sp)
10000860:	49b2                	lw	s3,12(sp)
10000862:	4a22                	lw	s4,8(sp)
10000864:	6105                	addi	sp,sp,32
10000866:	8082                	ret
10000868:	8552                	mv	a0,s4
1000086a:	35f9                	jal	10000738 <panic>

1000086c <next_striped_spin_lock_num>:
1000086c:	20004737          	lui	a4,0x20004
10000870:	81c74503          	lbu	a0,-2020(a4) # 2000381c <striped_spin_lock_num>
10000874:	00150793          	addi	a5,a0,1
10000878:	0ff7f793          	zext.b	a5,a5
1000087c:	80f70e23          	sb	a5,-2020(a4)
10000880:	475d                	li	a4,23
10000882:	00f77763          	bgeu	a4,a5,10000890 <next_striped_spin_lock_num+0x24>
10000886:	200047b7          	lui	a5,0x20004
1000088a:	4741                	li	a4,16
1000088c:	80e78e23          	sb	a4,-2020(a5) # 2000381c <striped_spin_lock_num>
10000890:	8082                	ret

10000892 <spin_lock_claim_unused>:
10000892:	1141                	addi	sp,sp,-16
10000894:	c606                	sw	ra,12(sp)
10000896:	85aa                	mv	a1,a0
10000898:	10008737          	lui	a4,0x10008
1000089c:	b1070713          	addi	a4,a4,-1264 # 10007b10 <__EH_FRAME_BEGIN__+0x370>
100008a0:	46fd                	li	a3,31
100008a2:	4661                	li	a2,24
100008a4:	20004537          	lui	a0,0x20004
100008a8:	57850513          	addi	a0,a0,1400 # 20004578 <claimed>
100008ac:	3f89                	jal	100007fe <hw_claim_unused_from_range>
100008ae:	40b2                	lw	ra,12(sp)
100008b0:	0141                	addi	sp,sp,16
100008b2:	8082                	ret

100008b4 <spin_locks_reset>:
100008b4:	4701                	li	a4,0
100008b6:	a819                	j	100008cc <spin_locks_reset+0x18>
100008b8:	0330000f          	fence	rw,rw
100008bc:	200047b7          	lui	a5,0x20004
100008c0:	cdc78793          	addi	a5,a5,-804 # 20003cdc <_sw_spin_locks>
100008c4:	97ba                	add	a5,a5,a4
100008c6:	00078023          	sb	zero,0(a5)
100008ca:	0705                	addi	a4,a4,1
100008cc:	47fd                	li	a5,31
100008ce:	fee7f5e3          	bgeu	a5,a4,100008b8 <spin_locks_reset+0x4>
100008d2:	8082                	ret

100008d4 <riscv_encode_imm_j>:
100008d4:	01455793          	srli	a5,a0,0x14
100008d8:	07fe                	slli	a5,a5,0x1f
100008da:	00155713          	srli	a4,a0,0x1
100008de:	0756                	slli	a4,a4,0x15
100008e0:	7fe006b7          	lui	a3,0x7fe00
100008e4:	8f75                	and	a4,a4,a3
100008e6:	8fd9                	or	a5,a5,a4
100008e8:	00b55713          	srli	a4,a0,0xb
100008ec:	0752                	slli	a4,a4,0x14
100008ee:	001006b7          	lui	a3,0x100
100008f2:	8f75                	and	a4,a4,a3
100008f4:	8fd9                	or	a5,a5,a4
100008f6:	000ff737          	lui	a4,0xff
100008fa:	8d79                	and	a0,a0,a4
100008fc:	8d5d                	or	a0,a0,a5
100008fe:	8082                	ret

10000900 <riscv_encode_imm_cj>:
10000900:	00b55793          	srli	a5,a0,0xb
10000904:	07b2                	slli	a5,a5,0xc
10000906:	6705                	lui	a4,0x1
10000908:	8ff9                	and	a5,a5,a4
1000090a:	00455713          	srli	a4,a0,0x4
1000090e:	072e                	slli	a4,a4,0xb
10000910:	28b01693          	bseti	a3,zero,0xb
10000914:	8f75                	and	a4,a4,a3
10000916:	8fd9                	or	a5,a5,a4
10000918:	00855713          	srli	a4,a0,0x8
1000091c:	0726                	slli	a4,a4,0x9
1000091e:	60077713          	andi	a4,a4,1536
10000922:	8fd9                	or	a5,a5,a4
10000924:	00a55713          	srli	a4,a0,0xa
10000928:	0722                	slli	a4,a4,0x8
1000092a:	10077713          	andi	a4,a4,256
1000092e:	8fd9                	or	a5,a5,a4
10000930:	00655713          	srli	a4,a0,0x6
10000934:	071e                	slli	a4,a4,0x7
10000936:	08077713          	andi	a4,a4,128
1000093a:	8fd9                	or	a5,a5,a4
1000093c:	00755713          	srli	a4,a0,0x7
10000940:	071a                	slli	a4,a4,0x6
10000942:	04077713          	andi	a4,a4,64
10000946:	8fd9                	or	a5,a5,a4
10000948:	00155713          	srli	a4,a0,0x1
1000094c:	070e                	slli	a4,a4,0x3
1000094e:	03877713          	andi	a4,a4,56
10000952:	8fd9                	or	a5,a5,a4
10000954:	8115                	srli	a0,a0,0x5
10000956:	050a                	slli	a0,a0,0x2
10000958:	8911                	andi	a0,a0,4
1000095a:	8d5d                	or	a0,a0,a5
1000095c:	8082                	ret

1000095e <resolve_j_16>:
1000095e:	00055703          	lhu	a4,0(a0)
10000962:	00275693          	srli	a3,a4,0x2
10000966:	00e6f793          	andi	a5,a3,14
1000096a:	00775613          	srli	a2,a4,0x7
1000096e:	8a41                	andi	a2,a2,16
10000970:	8fd1                	or	a5,a5,a2
10000972:	00371613          	slli	a2,a4,0x3
10000976:	02067613          	andi	a2,a2,32
1000097a:	97b2                	add	a5,a5,a2
1000097c:	00175613          	srli	a2,a4,0x1
10000980:	04067593          	andi	a1,a2,64
10000984:	97ae                	add	a5,a5,a1
10000986:	00171593          	slli	a1,a4,0x1
1000098a:	0805f593          	andi	a1,a1,128
1000098e:	97ae                	add	a5,a5,a1
10000990:	30067613          	andi	a2,a2,768
10000994:	97b2                	add	a5,a5,a2
10000996:	070a                	slli	a4,a4,0x2
10000998:	40077713          	andi	a4,a4,1024
1000099c:	97ba                	add	a5,a5,a4
1000099e:	28b01713          	bseti	a4,zero,0xb
100009a2:	8ef9                	and	a3,a3,a4
100009a4:	8f95                	sub	a5,a5,a3
100009a6:	953e                	add	a0,a0,a5
100009a8:	8082                	ret

100009aa <irq_set_mask_n_enabled_internal>:
100009aa:	c215                	beqz	a2,100009ce <irq_set_mask_n_enabled_internal+0x24>
100009ac:	0506                	slli	a0,a0,0x1
100009ae:	01059793          	slli	a5,a1,0x10
100009b2:	8fc9                	or	a5,a5,a0
100009b4:	be27b073          	csrc	0xbe2,a5
100009b8:	0505                	addi	a0,a0,1
100009ba:	7741                	lui	a4,0xffff0
100009bc:	8df9                	and	a1,a1,a4
100009be:	8d4d                	or	a0,a0,a1
100009c0:	be253073          	csrc	0xbe2,a0
100009c4:	be07a073          	csrs	0xbe0,a5
100009c8:	be052073          	csrs	0xbe0,a0
100009cc:	8082                	ret
100009ce:	0506                	slli	a0,a0,0x1
100009d0:	01059793          	slli	a5,a1,0x10
100009d4:	8fc9                	or	a5,a5,a0
100009d6:	be07b073          	csrc	0xbe0,a5
100009da:	0505                	addi	a0,a0,1
100009dc:	77c1                	lui	a5,0xffff0
100009de:	8dfd                	and	a1,a1,a5
100009e0:	8d4d                	or	a0,a0,a1
100009e2:	be053073          	csrc	0xbe0,a0
100009e6:	8082                	ret

100009e8 <set_raw_irq_handler_and_unlock>:
100009e8:	305027f3          	csrr	a5,mtvec
100009ec:	9bf1                	andi	a5,a5,-4
100009ee:	03450513          	addi	a0,a0,52
100009f2:	20f54533          	sh2add	a0,a0,a5
100009f6:	c10c                	sw	a1,0(a0)
100009f8:	0330000f          	fence	rw,rw
100009fc:	0330000f          	fence	rw,rw
10000a00:	200047b7          	lui	a5,0x20004
10000a04:	cdc78793          	addi	a5,a5,-804 # 20003cdc <_sw_spin_locks>
10000a08:	000784a3          	sb	zero,9(a5)
10000a0c:	8a21                	andi	a2,a2,8
10000a0e:	30062073          	csrs	mstatus,a2
10000a12:	8082                	ret

10000a14 <make_jal_16>:
10000a14:	1141                	addi	sp,sp,-16
10000a16:	c606                	sw	ra,12(sp)
10000a18:	40a58533          	sub	a0,a1,a0
10000a1c:	7ff50713          	addi	a4,a0,2047
10000a20:	0705                	addi	a4,a4,1 # ffff0001 <__StackTop+0xdff6e001>
10000a22:	6785                	lui	a5,0x1
10000a24:	17f9                	addi	a5,a5,-2 # ffe <HeapSize+0x7fe>
10000a26:	00e7ef63          	bltu	a5,a4,10000a44 <make_jal_16+0x30>
10000a2a:	00157793          	andi	a5,a0,1
10000a2e:	eb99                	bnez	a5,10000a44 <make_jal_16+0x30>
10000a30:	3dc1                	jal	10000900 <riscv_encode_imm_cj>
10000a32:	00156513          	ori	a0,a0,1
10000a36:	28d51513          	bseti	a0,a0,0xd
10000a3a:	08054533          	zext.h	a0,a0
10000a3e:	40b2                	lw	ra,12(sp)
10000a40:	0141                	addi	sp,sp,16
10000a42:	8082                	ret
10000a44:	100086b7          	lui	a3,0x10008
10000a48:	b2c68693          	addi	a3,a3,-1236 # 10007b2c <__EH_FRAME_BEGIN__+0x38c>
10000a4c:	10008637          	lui	a2,0x10008
10000a50:	48860613          	addi	a2,a2,1160 # 10008488 <__func__.2>
10000a54:	12800593          	li	a1,296
10000a58:	10008537          	lui	a0,0x10008
10000a5c:	b5c50513          	addi	a0,a0,-1188 # 10007b5c <__EH_FRAME_BEGIN__+0x3bc>
10000a60:	375020ef          	jal	100035d4 <__assert_func>

10000a64 <make_j_16>:
10000a64:	1141                	addi	sp,sp,-16
10000a66:	c606                	sw	ra,12(sp)
10000a68:	3775                	jal	10000a14 <make_jal_16>
10000a6a:	77e1                	lui	a5,0xffff8
10000a6c:	8d5d                	or	a0,a0,a5
10000a6e:	08054533          	zext.h	a0,a0
10000a72:	40b2                	lw	ra,12(sp)
10000a74:	0141                	addi	sp,sp,16
10000a76:	8082                	ret

10000a78 <irq_is_enabled>:
10000a78:	00455793          	srli	a5,a0,0x4
10000a7c:	be07a7f3          	csrrs	a5,0xbe0,a5
10000a80:	83c1                	srli	a5,a5,0x10
10000a82:	893d                	andi	a0,a0,15
10000a84:	28a01533          	bset	a0,zero,a0
10000a88:	8d7d                	and	a0,a0,a5
10000a8a:	00a03533          	snez	a0,a0
10000a8e:	8082                	ret

10000a90 <irq_set_mask_n_enabled>:
10000a90:	1141                	addi	sp,sp,-16
10000a92:	c606                	sw	ra,12(sp)
10000a94:	3f19                	jal	100009aa <irq_set_mask_n_enabled_internal>
10000a96:	40b2                	lw	ra,12(sp)
10000a98:	0141                	addi	sp,sp,16
10000a9a:	8082                	ret

10000a9c <irq_set_enabled>:
10000a9c:	1141                	addi	sp,sp,-16
10000a9e:	c606                	sw	ra,12(sp)
10000aa0:	862e                	mv	a2,a1
10000aa2:	28a015b3          	bset	a1,zero,a0
10000aa6:	8115                	srli	a0,a0,0x5
10000aa8:	37e5                	jal	10000a90 <irq_set_mask_n_enabled>
10000aaa:	40b2                	lw	ra,12(sp)
10000aac:	0141                	addi	sp,sp,16
10000aae:	8082                	ret

10000ab0 <irq_set_pending>:
10000ab0:	00455793          	srli	a5,a0,0x4
10000ab4:	893d                	andi	a0,a0,15
10000ab6:	28a01533          	bset	a0,zero,a0
10000aba:	0542                	slli	a0,a0,0x10
10000abc:	8fc9                	or	a5,a5,a0
10000abe:	be27a073          	csrs	0xbe2,a5
10000ac2:	8082                	ret

10000ac4 <irq_get_vtable_handler>:
10000ac4:	305027f3          	csrr	a5,mtvec
10000ac8:	9bf1                	andi	a5,a5,-4
10000aca:	03450513          	addi	a0,a0,52
10000ace:	20f54533          	sh2add	a0,a0,a5
10000ad2:	4108                	lw	a0,0(a0)
10000ad4:	8082                	ret

10000ad6 <irq_has_shared_handler>:
10000ad6:	1141                	addi	sp,sp,-16
10000ad8:	c606                	sw	ra,12(sp)
10000ada:	37ed                	jal	10000ac4 <irq_get_vtable_handler>
10000adc:	200037b7          	lui	a5,0x20003
10000ae0:	5cc78793          	addi	a5,a5,1484 # 200035cc <irq_handler_chain_slots>
10000ae4:	8d1d                	sub	a0,a0,a5
10000ae6:	03053513          	sltiu	a0,a0,48
10000aea:	40b2                	lw	ra,12(sp)
10000aec:	0141                	addi	sp,sp,16
10000aee:	8082                	ret

10000af0 <irq_set_exclusive_handler>:
10000af0:	1141                	addi	sp,sp,-16
10000af2:	c606                	sw	ra,12(sp)
10000af4:	c422                	sw	s0,8(sp)
10000af6:	c226                	sw	s1,4(sp)
10000af8:	c04a                	sw	s2,0(sp)
10000afa:	84aa                	mv	s1,a0
10000afc:	842e                	mv	s0,a1
10000afe:	30047773          	csrrci	a4,mstatus,8
10000b02:	893a                	mv	s2,a4
10000b04:	200047b7          	lui	a5,0x20004
10000b08:	ce578793          	addi	a5,a5,-795 # 20003ce5 <_sw_spin_locks+0x9>
10000b0c:	00379713          	slli	a4,a5,0x3
10000b10:	28e01733          	bset	a4,zero,a4
10000b14:	9bf1                	andi	a5,a5,-4
10000b16:	44e7a6af          	amoor.w.aq	a3,a4,(a5)
10000b1a:	8ef9                	and	a3,a3,a4
10000b1c:	feed                	bnez	a3,10000b16 <irq_set_exclusive_handler+0x26>
10000b1e:	0330000f          	fence	rw,rw
10000b22:	374d                	jal	10000ac4 <irq_get_vtable_handler>
10000b24:	200037b7          	lui	a5,0x20003
10000b28:	7e478793          	addi	a5,a5,2020 # 200037e4 <__unhandled_user_irq>
10000b2c:	00f50463          	beq	a0,a5,10000b34 <irq_set_exclusive_handler+0x44>
10000b30:	00851c63          	bne	a0,s0,10000b48 <irq_set_exclusive_handler+0x58>
10000b34:	864a                	mv	a2,s2
10000b36:	85a2                	mv	a1,s0
10000b38:	8526                	mv	a0,s1
10000b3a:	357d                	jal	100009e8 <set_raw_irq_handler_and_unlock>
10000b3c:	40b2                	lw	ra,12(sp)
10000b3e:	4422                	lw	s0,8(sp)
10000b40:	4492                	lw	s1,4(sp)
10000b42:	4902                	lw	s2,0(sp)
10000b44:	0141                	addi	sp,sp,16
10000b46:	8082                	ret
10000b48:	100086b7          	lui	a3,0x10008
10000b4c:	ba468693          	addi	a3,a3,-1116 # 10007ba4 <__EH_FRAME_BEGIN__+0x404>
10000b50:	10008637          	lui	a2,0x10008
10000b54:	4ac60613          	addi	a2,a2,1196 # 100084ac <__func__.4>
10000b58:	0ed00593          	li	a1,237
10000b5c:	10008537          	lui	a0,0x10008
10000b60:	b5c50513          	addi	a0,a0,-1188 # 10007b5c <__EH_FRAME_BEGIN__+0x3bc>
10000b64:	271020ef          	jal	100035d4 <__assert_func>

10000b68 <irq_add_shared_handler>:
10000b68:	7139                	addi	sp,sp,-64
10000b6a:	de06                	sw	ra,60(sp)
10000b6c:	dc22                	sw	s0,56(sp)
10000b6e:	ce5e                	sw	s7,28(sp)
10000b70:	300477f3          	csrrci	a5,mstatus,8
10000b74:	8bbe                	mv	s7,a5
10000b76:	200047b7          	lui	a5,0x20004
10000b7a:	ce578793          	addi	a5,a5,-795 # 20003ce5 <_sw_spin_locks+0x9>
10000b7e:	00379713          	slli	a4,a5,0x3
10000b82:	28e01733          	bset	a4,zero,a4
10000b86:	9bf1                	andi	a5,a5,-4
10000b88:	44e7a6af          	amoor.w.aq	a3,a4,(a5)
10000b8c:	8ef9                	and	a3,a3,a4
10000b8e:	feed                	bnez	a3,10000b88 <irq_add_shared_handler+0x20>
10000b90:	0330000f          	fence	rw,rw
10000b94:	200047b7          	lui	a5,0x20004
10000b98:	57c78403          	lb	s0,1404(a5) # 2000457c <irq_handler_chain_free_slot_head>
10000b9c:	0c044563          	bltz	s0,10000c66 <irq_add_shared_handler+0xfe>
10000ba0:	da26                	sw	s1,52(sp)
10000ba2:	d84a                	sw	s2,48(sp)
10000ba4:	d64e                	sw	s3,44(sp)
10000ba6:	d452                	sw	s4,40(sp)
10000ba8:	d256                	sw	s5,36(sp)
10000baa:	8aaa                	mv	s5,a0
10000bac:	892e                	mv	s2,a1
10000bae:	84b2                	mv	s1,a2
10000bb0:	208429b3          	sh1add	s3,s0,s0
10000bb4:	200037b7          	lui	a5,0x20003
10000bb8:	5cc78793          	addi	a5,a5,1484 # 200035cc <irq_handler_chain_slots>
10000bbc:	20f9c9b3          	sh2add	s3,s3,a5
10000bc0:	00a98683          	lb	a3,10(s3)
10000bc4:	20004737          	lui	a4,0x20004
10000bc8:	56d70e23          	sb	a3,1404(a4) # 2000457c <irq_handler_chain_free_slot_head>
10000bcc:	305026f3          	csrr	a3,mtvec
10000bd0:	9af1                	andi	a3,a3,-4
10000bd2:	03450713          	addi	a4,a0,52
10000bd6:	20d74733          	sh2add	a4,a4,a3
10000bda:	00072a03          	lw	s4,0(a4)
10000bde:	40fa07b3          	sub	a5,s4,a5
10000be2:	02f00713          	li	a4,47
10000be6:	0cf77d63          	bgeu	a4,a5,10000cc0 <irq_add_shared_handler+0x158>
10000bea:	200037b7          	lui	a5,0x20003
10000bee:	7e478793          	addi	a5,a5,2020 # 200037e4 <__unhandled_user_irq>
10000bf2:	0afa1363          	bne	s4,a5,10000c98 <irq_add_shared_handler+0x130>
10000bf6:	d05a                	sw	s6,32(sp)
10000bf8:	00141a13          	slli	s4,s0,0x1
10000bfc:	208427b3          	sh1add	a5,s0,s0
10000c00:	20003b37          	lui	s6,0x20003
10000c04:	5ccb0b13          	addi	s6,s6,1484 # 200035cc <irq_handler_chain_slots>
10000c08:	2167c7b3          	sh2add	a5,a5,s6
10000c0c:	20003537          	lui	a0,0x20003
10000c10:	5fc50513          	addi	a0,a0,1532 # 200035fc <irq_handler_chain_first_slot>
10000c14:	8d1d                	sub	a0,a0,a5
10000c16:	397d                	jal	100008d4 <riscv_encode_imm_j>
10000c18:	2ef56513          	ori	a0,a0,751
10000c1c:	c22a                	sw	a0,4(sp)
10000c1e:	c44a                	sw	s2,8(sp)
10000c20:	77f1                	lui	a5,0xffffc
10000c22:	e4278793          	addi	a5,a5,-446 # ffffbe42 <__StackTop+0xdff79e42>
10000c26:	00f11623          	sh	a5,12(sp)
10000c2a:	57fd                	li	a5,-1
10000c2c:	00f10723          	sb	a5,14(sp)
10000c30:	009107a3          	sb	s1,15(sp)
10000c34:	008a07b3          	add	a5,s4,s0
10000c38:	2167c7b3          	sh2add	a5,a5,s6
10000c3c:	c388                	sw	a0,0(a5)
10000c3e:	0127a223          	sw	s2,4(a5)
10000c42:	4732                	lw	a4,12(sp)
10000c44:	c798                	sw	a4,8(a5)
10000c46:	8a4e                	mv	s4,s3
10000c48:	865e                	mv	a2,s7
10000c4a:	85d2                	mv	a1,s4
10000c4c:	8556                	mv	a0,s5
10000c4e:	3b69                	jal	100009e8 <set_raw_irq_handler_and_unlock>
10000c50:	54d2                	lw	s1,52(sp)
10000c52:	5942                	lw	s2,48(sp)
10000c54:	59b2                	lw	s3,44(sp)
10000c56:	5a22                	lw	s4,40(sp)
10000c58:	5a92                	lw	s5,36(sp)
10000c5a:	5b02                	lw	s6,32(sp)
10000c5c:	50f2                	lw	ra,60(sp)
10000c5e:	5462                	lw	s0,56(sp)
10000c60:	4bf2                	lw	s7,28(sp)
10000c62:	6121                	addi	sp,sp,64
10000c64:	8082                	ret
10000c66:	da26                	sw	s1,52(sp)
10000c68:	d84a                	sw	s2,48(sp)
10000c6a:	d64e                	sw	s3,44(sp)
10000c6c:	d452                	sw	s4,40(sp)
10000c6e:	d256                	sw	s5,36(sp)
10000c70:	d05a                	sw	s6,32(sp)
10000c72:	cc62                	sw	s8,24(sp)
10000c74:	ca66                	sw	s9,20(sp)
10000c76:	c86a                	sw	s10,16(sp)
10000c78:	100086b7          	lui	a3,0x10008
10000c7c:	bdc68693          	addi	a3,a3,-1060 # 10007bdc <__EH_FRAME_BEGIN__+0x43c>
10000c80:	10008637          	lui	a2,0x10008
10000c84:	49460613          	addi	a2,a2,1172 # 10008494 <__func__.3>
10000c88:	17c00593          	li	a1,380
10000c8c:	10008537          	lui	a0,0x10008
10000c90:	b5c50513          	addi	a0,a0,-1188 # 10007b5c <__EH_FRAME_BEGIN__+0x3bc>
10000c94:	141020ef          	jal	100035d4 <__assert_func>
10000c98:	d05a                	sw	s6,32(sp)
10000c9a:	cc62                	sw	s8,24(sp)
10000c9c:	ca66                	sw	s9,20(sp)
10000c9e:	c86a                	sw	s10,16(sp)
10000ca0:	100086b7          	lui	a3,0x10008
10000ca4:	c0468693          	addi	a3,a3,-1020 # 10007c04 <__EH_FRAME_BEGIN__+0x464>
10000ca8:	10008637          	lui	a2,0x10008
10000cac:	49460613          	addi	a2,a2,1172 # 10008494 <__func__.3>
10000cb0:	18300593          	li	a1,387
10000cb4:	10008537          	lui	a0,0x10008
10000cb8:	b5c50513          	addi	a0,a0,-1188 # 10007b5c <__EH_FRAME_BEGIN__+0x3bc>
10000cbc:	119020ef          	jal	100035d4 <__assert_func>
10000cc0:	aaaab737          	lui	a4,0xaaaab
10000cc4:	aab70713          	addi	a4,a4,-1365 # aaaaaaab <__StackTop+0x8aa28aab>
10000cc8:	02e7b733          	mulhu	a4,a5,a4
10000ccc:	830d                	srli	a4,a4,0x3
10000cce:	20e72733          	sh1add	a4,a4,a4
10000cd2:	070a                	slli	a4,a4,0x2
10000cd4:	02e79763          	bne	a5,a4,10000d02 <irq_add_shared_handler+0x19a>
10000cd8:	d05a                	sw	s6,32(sp)
10000cda:	87d2                	mv	a5,s4
10000cdc:	4b01                	li	s6,0
10000cde:	00b7c703          	lbu	a4,11(a5)
10000ce2:	04e4f563          	bgeu	s1,a4,10000d2c <irq_add_shared_handler+0x1c4>
10000ce6:	00a78703          	lb	a4,10(a5)
10000cea:	04074063          	bltz	a4,10000d2a <irq_add_shared_handler+0x1c2>
10000cee:	20e72733          	sh1add	a4,a4,a4
10000cf2:	8b3e                	mv	s6,a5
10000cf4:	200037b7          	lui	a5,0x20003
10000cf8:	5cc78793          	addi	a5,a5,1484 # 200035cc <irq_handler_chain_slots>
10000cfc:	20f747b3          	sh2add	a5,a4,a5
10000d00:	bff9                	j	10000cde <irq_add_shared_handler+0x176>
10000d02:	d05a                	sw	s6,32(sp)
10000d04:	cc62                	sw	s8,24(sp)
10000d06:	ca66                	sw	s9,20(sp)
10000d08:	c86a                	sw	s10,16(sp)
10000d0a:	100086b7          	lui	a3,0x10008
10000d0e:	c2c68693          	addi	a3,a3,-980 # 10007c2c <__EH_FRAME_BEGIN__+0x48c>
10000d12:	10008637          	lui	a2,0x10008
10000d16:	49460613          	addi	a2,a2,1172 # 10008494 <__func__.3>
10000d1a:	19400593          	li	a1,404
10000d1e:	10008537          	lui	a0,0x10008
10000d22:	b5c50513          	addi	a0,a0,-1188 # 10007b5c <__EH_FRAME_BEGIN__+0x3bc>
10000d26:	0af020ef          	jal	100035d4 <__assert_func>
10000d2a:	8b3e                	mv	s6,a5
10000d2c:	080b0863          	beqz	s6,10000dbc <irq_add_shared_handler+0x254>
10000d30:	00191793          	slli	a5,s2,0x1
10000d34:	6705                	lui	a4,0x1
10000d36:	8ff9                	and	a5,a5,a4
10000d38:	97ca                	add	a5,a5,s2
10000d3a:	8007f793          	andi	a5,a5,-2048
10000d3e:	48b79793          	bclri	a5,a5,0xb
10000d42:	0b77e793          	ori	a5,a5,183
10000d46:	c23e                	sw	a5,4(sp)
10000d48:	0952                	slli	s2,s2,0x14
10000d4a:	0e796913          	ori	s2,s2,231
10000d4e:	28f91913          	bseti	s2,s2,0xf
10000d52:	c44a                	sw	s2,8(sp)
10000d54:	00ab0903          	lb	s2,10(s6)
10000d58:	04095263          	bgez	s2,10000d9c <irq_add_shared_handler+0x234>
10000d5c:	6531                	lui	a0,0xc
10000d5e:	e4250513          	addi	a0,a0,-446 # be42 <HeapSize+0xb642>
10000d62:	00a11623          	sh	a0,12(sp)
10000d66:	01210723          	sb	s2,14(sp)
10000d6a:	009107a3          	sb	s1,15(sp)
10000d6e:	85ce                	mv	a1,s3
10000d70:	008b0513          	addi	a0,s6,8
10000d74:	39c5                	jal	10000a64 <make_j_16>
10000d76:	00ab1423          	sh	a0,8(s6)
10000d7a:	008b0523          	sb	s0,10(s6)
10000d7e:	200037b7          	lui	a5,0x20003
10000d82:	20842433          	sh1add	s0,s0,s0
10000d86:	5cc78793          	addi	a5,a5,1484 # 200035cc <irq_handler_chain_slots>
10000d8a:	20f44433          	sh2add	s0,s0,a5
10000d8e:	4792                	lw	a5,4(sp)
10000d90:	c01c                	sw	a5,0(s0)
10000d92:	47a2                	lw	a5,8(sp)
10000d94:	c05c                	sw	a5,4(s0)
10000d96:	47b2                	lw	a5,12(sp)
10000d98:	c41c                	sw	a5,8(s0)
10000d9a:	b57d                	j	10000c48 <irq_add_shared_handler+0xe0>
10000d9c:	008b0513          	addi	a0,s6,8
10000da0:	3e7d                	jal	1000095e <resolve_j_16>
10000da2:	85aa                	mv	a1,a0
10000da4:	208427b3          	sh1add	a5,s0,s0
10000da8:	20003737          	lui	a4,0x20003
10000dac:	5cc70713          	addi	a4,a4,1484 # 200035cc <irq_handler_chain_slots>
10000db0:	20e7c7b3          	sh2add	a5,a5,a4
10000db4:	00878513          	addi	a0,a5,8
10000db8:	3175                	jal	10000a64 <make_j_16>
10000dba:	b765                	j	10000d62 <irq_add_shared_handler+0x1fa>
10000dbc:	cc62                	sw	s8,24(sp)
10000dbe:	ca66                	sw	s9,20(sp)
10000dc0:	c86a                	sw	s10,16(sp)
10000dc2:	208427b3          	sh1add	a5,s0,s0
10000dc6:	20003737          	lui	a4,0x20003
10000dca:	5cc70b13          	addi	s6,a4,1484 # 200035cc <irq_handler_chain_slots>
10000dce:	2167c7b3          	sh2add	a5,a5,s6
10000dd2:	8c3e                	mv	s8,a5
10000dd4:	20003537          	lui	a0,0x20003
10000dd8:	5fc50513          	addi	a0,a0,1532 # 200035fc <irq_handler_chain_first_slot>
10000ddc:	8d1d                	sub	a0,a0,a5
10000dde:	3cdd                	jal	100008d4 <riscv_encode_imm_j>
10000de0:	2ef56793          	ori	a5,a0,751
10000de4:	8cbe                	mv	s9,a5
10000de6:	c23e                	sw	a5,4(sp)
10000de8:	c44a                	sw	s2,8(sp)
10000dea:	85d2                	mv	a1,s4
10000dec:	008c0513          	addi	a0,s8,8
10000df0:	3995                	jal	10000a64 <make_j_16>
10000df2:	00a11623          	sh	a0,12(sp)
10000df6:	416a07b3          	sub	a5,s4,s6
10000dfa:	8789                	srai	a5,a5,0x2
10000dfc:	aaaab737          	lui	a4,0xaaaab
10000e00:	aab70713          	addi	a4,a4,-1365 # aaaaaaab <__StackTop+0x8aa28aab>
10000e04:	02e787b3          	mul	a5,a5,a4
10000e08:	00f10723          	sb	a5,14(sp)
10000e0c:	009107a3          	sb	s1,15(sp)
10000e10:	019c2023          	sw	s9,0(s8)
10000e14:	012c2223          	sw	s2,4(s8)
10000e18:	4732                	lw	a4,12(sp)
10000e1a:	00ec2423          	sw	a4,8(s8)
10000e1e:	004a2703          	lw	a4,4(s4)
10000e22:	00171793          	slli	a5,a4,0x1
10000e26:	6685                	lui	a3,0x1
10000e28:	8ff5                	and	a5,a5,a3
10000e2a:	97ba                	add	a5,a5,a4
10000e2c:	8007f793          	andi	a5,a5,-2048
10000e30:	48b79793          	bclri	a5,a5,0xb
10000e34:	0b77e793          	ori	a5,a5,183
10000e38:	00fa2023          	sw	a5,0(s4)
10000e3c:	0752                	slli	a4,a4,0x14
10000e3e:	0e776713          	ori	a4,a4,231
10000e42:	28f71713          	bseti	a4,a4,0xf
10000e46:	00ea2223          	sw	a4,4(s4)
10000e4a:	8a4e                	mv	s4,s3
10000e4c:	4c62                	lw	s8,24(sp)
10000e4e:	4cd2                	lw	s9,20(sp)
10000e50:	4d42                	lw	s10,16(sp)
10000e52:	bbdd                	j	10000c48 <irq_add_shared_handler+0xe0>

10000e54 <irq_set_priority>:
10000e54:	0045d793          	srli	a5,a1,0x4
10000e58:	00f7c793          	xori	a5,a5,15
10000e5c:	00255693          	srli	a3,a0,0x2
10000e60:	890d                	andi	a0,a0,3
10000e62:	050a                	slli	a0,a0,0x2
10000e64:	473d                	li	a4,15
10000e66:	00a71733          	sll	a4,a4,a0
10000e6a:	0742                	slli	a4,a4,0x10
10000e6c:	8f55                	or	a4,a4,a3
10000e6e:	be373073          	csrc	0xbe3,a4
10000e72:	00a797b3          	sll	a5,a5,a0
10000e76:	07c2                	slli	a5,a5,0x10
10000e78:	8edd                	or	a3,a3,a5
10000e7a:	be36a073          	csrs	0xbe3,a3
10000e7e:	8082                	ret

10000e80 <runtime_init_per_core_irq_priorities>:
10000e80:	1141                	addi	sp,sp,-16
10000e82:	c606                	sw	ra,12(sp)
10000e84:	c422                	sw	s0,8(sp)
10000e86:	4401                	li	s0,0
10000e88:	a031                	j	10000e94 <runtime_init_per_core_irq_priorities+0x14>
10000e8a:	08000593          	li	a1,128
10000e8e:	8522                	mv	a0,s0
10000e90:	37d1                	jal	10000e54 <irq_set_priority>
10000e92:	0405                	addi	s0,s0,1
10000e94:	03300793          	li	a5,51
10000e98:	fe87f9e3          	bgeu	a5,s0,10000e8a <runtime_init_per_core_irq_priorities+0xa>
10000e9c:	30046073          	csrsi	mstatus,8
10000ea0:	40b2                	lw	ra,12(sp)
10000ea2:	4422                	lw	s0,8(sp)
10000ea4:	0141                	addi	sp,sp,16
10000ea6:	8082                	ret

10000ea8 <irq_add_tail_to_free_list>:
10000ea8:	1141                	addi	sp,sp,-16
10000eaa:	c606                	sw	ra,12(sp)
10000eac:	200037b7          	lui	a5,0x20003
10000eb0:	5cc78793          	addi	a5,a5,1484 # 200035cc <irq_handler_chain_slots>
10000eb4:	40f507b3          	sub	a5,a0,a5
10000eb8:	02f00713          	li	a4,47
10000ebc:	02f76763          	bltu	a4,a5,10000eea <irq_add_tail_to_free_list+0x42>
10000ec0:	be502773          	csrr	a4,0xbe5
10000ec4:	67a1                	lui	a5,0x8
10000ec6:	8ff9                	and	a5,a5,a4
10000ec8:	c3a9                	beqz	a5,10000f0a <irq_add_tail_to_free_list+0x62>
10000eca:	100086b7          	lui	a3,0x10008
10000ece:	cd868693          	addi	a3,a3,-808 # 10007cd8 <__EH_FRAME_BEGIN__+0x538>
10000ed2:	10008637          	lui	a2,0x10008
10000ed6:	46c60613          	addi	a2,a2,1132 # 1000846c <__func__.0>
10000eda:	28200593          	li	a1,642
10000ede:	10008537          	lui	a0,0x10008
10000ee2:	b5c50513          	addi	a0,a0,-1188 # 10007b5c <__EH_FRAME_BEGIN__+0x3bc>
10000ee6:	6ee020ef          	jal	100035d4 <__assert_func>
10000eea:	100086b7          	lui	a3,0x10008
10000eee:	cb068693          	addi	a3,a3,-848 # 10007cb0 <__EH_FRAME_BEGIN__+0x510>
10000ef2:	10008637          	lui	a2,0x10008
10000ef6:	46c60613          	addi	a2,a2,1132 # 1000846c <__func__.0>
10000efa:	27f00593          	li	a1,639
10000efe:	10008537          	lui	a0,0x10008
10000f02:	b5c50513          	addi	a0,a0,-1188 # 10007b5c <__EH_FRAME_BEGIN__+0x3bc>
10000f06:	6ce020ef          	jal	100035d4 <__assert_func>
10000f0a:	8311                	srli	a4,a4,0x4
10000f0c:	1ff77713          	andi	a4,a4,511
10000f10:	03470713          	addi	a4,a4,52
10000f14:	30047873          	csrrci	a6,mstatus,8
10000f18:	200046b7          	lui	a3,0x20004
10000f1c:	ce568693          	addi	a3,a3,-795 # 20003ce5 <_sw_spin_locks+0x9>
10000f20:	00369613          	slli	a2,a3,0x3
10000f24:	28c01633          	bset	a2,zero,a2
10000f28:	9af1                	andi	a3,a3,-4
10000f2a:	44c6a8af          	amoor.w.aq	a7,a2,(a3)
10000f2e:	00c8f8b3          	and	a7,a7,a2
10000f32:	fe089ce3          	bnez	a7,10000f2a <irq_add_tail_to_free_list+0x82>
10000f36:	0330000f          	fence	rw,rw
10000f3a:	200036b7          	lui	a3,0x20003
10000f3e:	5cc68693          	addi	a3,a3,1484 # 200035cc <irq_handler_chain_slots>
10000f42:	40d506b3          	sub	a3,a0,a3
10000f46:	8689                	srai	a3,a3,0x2
10000f48:	aaaab637          	lui	a2,0xaaaab
10000f4c:	aab60613          	addi	a2,a2,-1365 # aaaaaaab <__StackTop+0x8aa28aab>
10000f50:	02c686b3          	mul	a3,a3,a2
10000f54:	60469693          	sext.b	a3,a3
10000f58:	30502673          	csrr	a2,mtvec
10000f5c:	9a71                	andi	a2,a2,-4
10000f5e:	00271893          	slli	a7,a4,0x2
10000f62:	20c74733          	sh2add	a4,a4,a2
10000f66:	4318                	lw	a4,0(a4)
10000f68:	04a71363          	bne	a4,a0,10000fae <irq_add_tail_to_free_list+0x106>
10000f6c:	305027f3          	csrr	a5,mtvec
10000f70:	9bf1                	andi	a5,a5,-4
10000f72:	97c6                	add	a5,a5,a7
10000f74:	20003737          	lui	a4,0x20003
10000f78:	7e470713          	addi	a4,a4,2020 # 200037e4 <__unhandled_user_irq>
10000f7c:	c398                	sw	a4,0(a5)
10000f7e:	200047b7          	lui	a5,0x20004
10000f82:	57c7c703          	lbu	a4,1404(a5) # 2000457c <irq_handler_chain_free_slot_head>
10000f86:	00e50523          	sb	a4,10(a0)
10000f8a:	56d78e23          	sb	a3,1404(a5)
10000f8e:	0330000f          	fence	rw,rw
10000f92:	200047b7          	lui	a5,0x20004
10000f96:	cdc78793          	addi	a5,a5,-804 # 20003cdc <_sw_spin_locks>
10000f9a:	000784a3          	sb	zero,9(a5)
10000f9e:	00887813          	andi	a6,a6,8
10000fa2:	30082073          	csrs	mstatus,a6
10000fa6:	40b2                	lw	ra,12(sp)
10000fa8:	0141                	addi	sp,sp,16
10000faa:	8082                	ret
10000fac:	0785                	addi	a5,a5,1
10000fae:	470d                	li	a4,3
10000fb0:	02f76c63          	bltu	a4,a5,10000fe8 <irq_add_tail_to_free_list+0x140>
10000fb4:	20003637          	lui	a2,0x20003
10000fb8:	20f7a733          	sh1add	a4,a5,a5
10000fbc:	5cc60613          	addi	a2,a2,1484 # 200035cc <irq_handler_chain_slots>
10000fc0:	20c74733          	sh2add	a4,a4,a2
10000fc4:	00a70703          	lb	a4,10(a4)
10000fc8:	fed712e3          	bne	a4,a3,10000fac <irq_add_tail_to_free_list+0x104>
10000fcc:	8732                	mv	a4,a2
10000fce:	20f7a633          	sh1add	a2,a5,a5
10000fd2:	20e64633          	sh2add	a2,a2,a4
10000fd6:	55fd                	li	a1,-1
10000fd8:	00b60523          	sb	a1,10(a2)
10000fdc:	7771                	lui	a4,0xffffc
10000fde:	e4270713          	addi	a4,a4,-446 # ffffbe42 <__StackTop+0xdff79e42>
10000fe2:	00e61423          	sh	a4,8(a2)
10000fe6:	bf61                	j	10000f7e <irq_add_tail_to_free_list+0xd6>
10000fe8:	100086b7          	lui	a3,0x10008
10000fec:	ce468693          	addi	a3,a3,-796 # 10007ce4 <__EH_FRAME_BEGIN__+0x544>
10000ff0:	10008637          	lui	a2,0x10008
10000ff4:	46c60613          	addi	a2,a2,1132 # 1000846c <__func__.0>
10000ff8:	29300593          	li	a1,659
10000ffc:	10008537          	lui	a0,0x10008
10001000:	b5c50513          	addi	a0,a0,-1188 # 10007b5c <__EH_FRAME_BEGIN__+0x3bc>
10001004:	5d0020ef          	jal	100035d4 <__assert_func>

10001008 <user_irq_claim_unused>:
10001008:	1141                	addi	sp,sp,-16
1000100a:	c606                	sw	ra,12(sp)
1000100c:	85aa                	mv	a1,a0
1000100e:	10008737          	lui	a4,0x10008
10001012:	cec70713          	addi	a4,a4,-788 # 10007cec <__EH_FRAME_BEGIN__+0x54c>
10001016:	4695                	li	a3,5
10001018:	4601                	li	a2,0
1000101a:	20004537          	lui	a0,0x20004
1000101e:	57d50513          	addi	a0,a0,1405 # 2000457d <user_irq_claimed>
10001022:	fdcff0ef          	jal	100007fe <hw_claim_unused_from_range>
10001026:	00054663          	bltz	a0,10001032 <user_irq_claim_unused+0x2a>
1000102a:	03300793          	li	a5,51
1000102e:	40a78533          	sub	a0,a5,a0
10001032:	40b2                	lw	ra,12(sp)
10001034:	0141                	addi	sp,sp,16
10001036:	8082                	ret

10001038 <lock_init>:
10001038:	200047b7          	lui	a5,0x20004
1000103c:	cdc78793          	addi	a5,a5,-804 # 20003cdc <_sw_spin_locks>
10001040:	97ae                	add	a5,a5,a1
10001042:	c11c                	sw	a5,0(a0)
10001044:	8082                	ret

10001046 <mutex_init>:
10001046:	1141                	addi	sp,sp,-16
10001048:	c606                	sw	ra,12(sp)
1000104a:	c422                	sw	s0,8(sp)
1000104c:	842a                	mv	s0,a0
1000104e:	81fff0ef          	jal	1000086c <next_striped_spin_lock_num>
10001052:	85aa                	mv	a1,a0
10001054:	8522                	mv	a0,s0
10001056:	37cd                	jal	10001038 <lock_init>
10001058:	57fd                	li	a5,-1
1000105a:	00f40223          	sb	a5,4(s0)
1000105e:	0330000f          	fence	rw,rw
10001062:	40b2                	lw	ra,12(sp)
10001064:	4422                	lw	s0,8(sp)
10001066:	0141                	addi	sp,sp,16
10001068:	8082                	ret

1000106a <recursive_mutex_init>:
1000106a:	1141                	addi	sp,sp,-16
1000106c:	c606                	sw	ra,12(sp)
1000106e:	c422                	sw	s0,8(sp)
10001070:	842a                	mv	s0,a0
10001072:	ffaff0ef          	jal	1000086c <next_striped_spin_lock_num>
10001076:	85aa                	mv	a1,a0
10001078:	8522                	mv	a0,s0
1000107a:	3f7d                	jal	10001038 <lock_init>
1000107c:	57fd                	li	a5,-1
1000107e:	00f40223          	sb	a5,4(s0)
10001082:	000402a3          	sb	zero,5(s0)
10001086:	0330000f          	fence	rw,rw
1000108a:	40b2                	lw	ra,12(sp)
1000108c:	4422                	lw	s0,8(sp)
1000108e:	0141                	addi	sp,sp,16
10001090:	8082                	ret

10001092 <runtime_init_mutex>:
10001092:	1141                	addi	sp,sp,-16
10001094:	c606                	sw	ra,12(sp)
10001096:	c422                	sw	s0,8(sp)
10001098:	20004437          	lui	s0,0x20004
1000109c:	82440413          	addi	s0,s0,-2012 # 20003824 <print_mutex>
100010a0:	a01d                	j	100010c6 <runtime_init_mutex+0x34>
100010a2:	100086b7          	lui	a3,0x10008
100010a6:	d0868693          	addi	a3,a3,-760 # 10007d08 <__EH_FRAME_BEGIN__+0x568>
100010aa:	10008637          	lui	a2,0x10008
100010ae:	4ec60613          	addi	a2,a2,1260 # 100084ec <__func__.6>
100010b2:	45e9                	li	a1,26
100010b4:	10008537          	lui	a0,0x10008
100010b8:	d2850513          	addi	a0,a0,-728 # 10007d28 <__EH_FRAME_BEGIN__+0x588>
100010bc:	518020ef          	jal	100035d4 <__assert_func>
100010c0:	8522                	mv	a0,s0
100010c2:	3751                	jal	10001046 <mutex_init>
100010c4:	0421                	addi	s0,s0,8
100010c6:	200047b7          	lui	a5,0x20004
100010ca:	82c78793          	addi	a5,a5,-2004 # 2000382c <__bss_start__>
100010ce:	00f47b63          	bgeu	s0,a5,100010e4 <runtime_init_mutex+0x52>
100010d2:	401c                	lw	a5,0(s0)
100010d4:	d7f5                	beqz	a5,100010c0 <runtime_init_mutex+0x2e>
100010d6:	4705                	li	a4,1
100010d8:	fce795e3          	bne	a5,a4,100010a2 <runtime_init_mutex+0x10>
100010dc:	8522                	mv	a0,s0
100010de:	3771                	jal	1000106a <recursive_mutex_init>
100010e0:	0421                	addi	s0,s0,8
100010e2:	b7d5                	j	100010c6 <runtime_init_mutex+0x34>
100010e4:	40b2                	lw	ra,12(sp)
100010e6:	4422                	lw	s0,8(sp)
100010e8:	0141                	addi	sp,sp,16
100010ea:	8082                	ret

100010ec <critical_section_init_with_lock_num>:
100010ec:	200047b7          	lui	a5,0x20004
100010f0:	cdc78793          	addi	a5,a5,-804 # 20003cdc <_sw_spin_locks>
100010f4:	97ae                	add	a5,a5,a1
100010f6:	c11c                	sw	a5,0(a0)
100010f8:	0330000f          	fence	rw,rw
100010fc:	8082                	ret

100010fe <critical_section_init>:
100010fe:	1141                	addi	sp,sp,-16
10001100:	c606                	sw	ra,12(sp)
10001102:	c422                	sw	s0,8(sp)
10001104:	842a                	mv	s0,a0
10001106:	4505                	li	a0,1
10001108:	f8aff0ef          	jal	10000892 <spin_lock_claim_unused>
1000110c:	85aa                	mv	a1,a0
1000110e:	8522                	mv	a0,s0
10001110:	3ff1                	jal	100010ec <critical_section_init_with_lock_num>
10001112:	40b2                	lw	ra,12(sp)
10001114:	4422                	lw	s0,8(sp)
10001116:	0141                	addi	sp,sp,16
10001118:	8082                	ret

1000111a <ta_from_current_irq>:
1000111a:	872a                	mv	a4,a0
1000111c:	be5027f3          	csrr	a5,0xbe5
10001120:	01079693          	slli	a3,a5,0x10
10001124:	0206c163          	bltz	a3,10001146 <ta_from_current_irq+0x2c>
10001128:	8391                	srli	a5,a5,0x4
1000112a:	1ff7f793          	andi	a5,a5,511
1000112e:	03478793          	addi	a5,a5,52
10001132:	fcc78793          	addi	a5,a5,-52
10001136:	0027d693          	srli	a3,a5,0x2
1000113a:	ca81                	beqz	a3,1000114a <ta_from_current_irq+0x30>
1000113c:	400b8537          	lui	a0,0x400b8
10001140:	8b8d                	andi	a5,a5,3
10001142:	c31c                	sw	a5,0(a4)
10001144:	8082                	ret
10001146:	4781                	li	a5,0
10001148:	b7ed                	j	10001132 <ta_from_current_irq+0x18>
1000114a:	400b0537          	lui	a0,0x400b0
1000114e:	bfcd                	j	10001140 <ta_from_current_irq+0x26>

10001150 <ta_set_timeout>:
10001150:	5518                	lw	a4,40(a0)
10001152:	40e606b3          	sub	a3,a2,a4
10001156:	00458793          	addi	a5,a1,4
1000115a:	20a7c7b3          	sh2add	a5,a5,a0
1000115e:	439c                	lw	a5,0(a5)
10001160:	8f99                	sub	a5,a5,a4
10001162:	00f6e763          	bltu	a3,a5,10001170 <ta_set_timeout+0x20>
10001166:	511c                	lw	a5,32(a0)
10001168:	28b01733          	bset	a4,zero,a1
1000116c:	8ff9                	and	a5,a5,a4
1000116e:	e789                	bnez	a5,10001178 <ta_set_timeout+0x28>
10001170:	0591                	addi	a1,a1,4
10001172:	20a5c533          	sh2add	a0,a1,a0
10001176:	c110                	sw	a2,0(a0)
10001178:	8082                	ret

1000117a <make_alarm_id>:
1000117a:	0542                	slli	a0,a0,0x10
1000117c:	8d4d                	or	a0,a0,a1
1000117e:	8082                	ret

10001180 <sleep_until_callback>:
10001180:	200046b7          	lui	a3,0x20004
10001184:	5806a783          	lw	a5,1408(a3) # 20004580 <sleep_notifier>
10001188:	30047773          	csrrci	a4,mstatus,8
1000118c:	00379613          	slli	a2,a5,0x3
10001190:	28c01633          	bset	a2,zero,a2
10001194:	9bf1                	andi	a5,a5,-4
10001196:	44c7a5af          	amoor.w.aq	a1,a2,(a5)
1000119a:	8df1                	and	a1,a1,a2
1000119c:	fded                	bnez	a1,10001196 <sleep_until_callback+0x16>
1000119e:	0330000f          	fence	rw,rw
100011a2:	5806a783          	lw	a5,1408(a3)
100011a6:	0330000f          	fence	rw,rw
100011aa:	00078023          	sb	zero,0(a5)
100011ae:	00877793          	andi	a5,a4,8
100011b2:	3007a073          	csrs	mstatus,a5
100011b6:	00102033          	sgtz	zero,ra
100011ba:	4501                	li	a0,0
100011bc:	4581                	li	a1,0
100011be:	8082                	ret

100011c0 <alarm_pool_irq_handler>:
100011c0:	7139                	addi	sp,sp,-64
100011c2:	de06                	sw	ra,60(sp)
100011c4:	dc22                	sw	s0,56(sp)
100011c6:	da26                	sw	s1,52(sp)
100011c8:	d84a                	sw	s2,48(sp)
100011ca:	d64e                	sw	s3,44(sp)
100011cc:	d452                	sw	s4,40(sp)
100011ce:	d256                	sw	s5,36(sp)
100011d0:	d05a                	sw	s6,32(sp)
100011d2:	ce5e                	sw	s7,28(sp)
100011d4:	0068                	addi	a0,sp,12
100011d6:	3791                	jal	1000111a <ta_from_current_irq>
100011d8:	bff487b7          	lui	a5,0xbff48
100011dc:	97aa                	add	a5,a5,a0
100011de:	0017b793          	seqz	a5,a5
100011e2:	4732                	lw	a4,12(sp)
100011e4:	200046b7          	lui	a3,0x20004
100011e8:	20e7c7b3          	sh2add	a5,a5,a4
100011ec:	54468693          	addi	a3,a3,1348 # 20004544 <pools>
100011f0:	20d7c7b3          	sh2add	a5,a5,a3
100011f4:	4380                	lw	s0,0(a5)
100011f6:	00044783          	lbu	a5,0(s0)
100011fa:	00f71b63          	bne	a4,a5,10001210 <alarm_pool_irq_handler+0x50>
100011fe:	84aa                	mv	s1,a0
10001200:	04450793          	addi	a5,a0,68 # 400b0044 <__StackTop+0x2002e044>
10001204:	28e01733          	bset	a4,zero,a4
10001208:	668d                	lui	a3,0x3
1000120a:	97b6                	add	a5,a5,a3
1000120c:	c398                	sw	a4,0(a5)
1000120e:	a459                	j	10001494 <alarm_pool_irq_handler+0x2d4>
10001210:	100086b7          	lui	a3,0x10008
10001214:	dbc68693          	addi	a3,a3,-580 # 10007dbc <__EH_FRAME_BEGIN__+0x61c>
10001218:	10008637          	lui	a2,0x10008
1000121c:	51860613          	addi	a2,a2,1304 # 10008518 <__func__.2>
10001220:	09200593          	li	a1,146
10001224:	10008537          	lui	a0,0x10008
10001228:	de850513          	addi	a0,a0,-536 # 10007de8 <__EH_FRAME_BEGIN__+0x648>
1000122c:	3a8020ef          	jal	100035d4 <__assert_func>
10001230:	485c                	lw	a5,20(s0)
10001232:	212929b3          	sh1add	s3,s2,s2
10001236:	20f9e9b3          	sh3add	s3,s3,a5
1000123a:	0089aa83          	lw	s5,8(s3)
1000123e:	00c9aa03          	lw	s4,12(s3)
10001242:	8526                	mv	a0,s1
10001244:	0e5000ef          	jal	10001b28 <timer_time_us_64>
10001248:	41550733          	sub	a4,a0,s5
1000124c:	00e53733          	sltu	a4,a0,a4
10001250:	414587b3          	sub	a5,a1,s4
10001254:	8f99                	sub	a5,a5,a4
10001256:	2407c763          	bltz	a5,100014a4 <alarm_pool_irq_handler+0x2e4>
1000125a:	0e0a4063          	bltz	s4,1000133a <alarm_pool_irq_handler+0x17a>
1000125e:	0109ab03          	lw	s6,16(s3)
10001262:	100017b7          	lui	a5,0x10001
10001266:	1c078793          	addi	a5,a5,448 # 100011c0 <alarm_pool_irq_handler>
1000126a:	06fb0763          	beq	s6,a5,100012d8 <alarm_pool_irq_handler+0x118>
1000126e:	0029d583          	lhu	a1,2(s3)
10001272:	00841503          	lh	a0,8(s0)
10001276:	3711                	jal	1000117a <make_alarm_id>
10001278:	0149a583          	lw	a1,20(s3)
1000127c:	9b02                	jalr	s6
1000127e:	8b2a                	mv	s6,a0
10001280:	8bae                	mv	s7,a1
10001282:	017b67b3          	or	a5,s6,s7
10001286:	cbd5                	beqz	a5,1000133a <alarm_pool_irq_handler+0x17a>
10001288:	060bd463          	bgez	s7,100012f0 <alarm_pool_irq_handler+0x130>
1000128c:	416a86b3          	sub	a3,s5,s6
10001290:	00dabab3          	sltu	s5,s5,a3
10001294:	417a07b3          	sub	a5,s4,s7
10001298:	415787b3          	sub	a5,a5,s5
1000129c:	00d9a423          	sw	a3,8(s3)
100012a0:	00f9a623          	sw	a5,12(s3)
100012a4:	00099503          	lh	a0,0(s3)
100012a8:	1e054e63          	bltz	a0,100014a4 <alarm_pool_irq_handler+0x2e4>
100012ac:	01442883          	lw	a7,20(s0)
100012b0:	20a52733          	sh1add	a4,a0,a0
100012b4:	21176733          	sh3add	a4,a4,a7
100012b8:	4710                	lw	a2,8(a4)
100012ba:	4758                	lw	a4,12(a4)
100012bc:	40c68633          	sub	a2,a3,a2
100012c0:	00c6b633          	sltu	a2,a3,a2
100012c4:	40e78733          	sub	a4,a5,a4
100012c8:	8f11                	sub	a4,a4,a2
100012ca:	1c074d63          	bltz	a4,100014a4 <alarm_pool_irq_handler+0x2e4>
100012ce:	00a41423          	sh	a0,8(s0)
100012d2:	00840813          	addi	a6,s0,8
100012d6:	a815                	j	1000130a <alarm_pool_irq_handler+0x14a>
100012d8:	0149ab83          	lw	s7,20(s3)
100012dc:	010ba783          	lw	a5,16(s7)
100012e0:	855e                	mv	a0,s7
100012e2:	9782                	jalr	a5
100012e4:	c939                	beqz	a0,1000133a <alarm_pool_irq_handler+0x17a>
100012e6:	000bab03          	lw	s6,0(s7)
100012ea:	004bab83          	lw	s7,4(s7)
100012ee:	bf51                	j	10001282 <alarm_pool_irq_handler+0xc2>
100012f0:	8526                	mv	a0,s1
100012f2:	037000ef          	jal	10001b28 <timer_time_us_64>
100012f6:	00ab06b3          	add	a3,s6,a0
100012fa:	00a6b7b3          	sltu	a5,a3,a0
100012fe:	9bae                	add	s7,s7,a1
10001300:	97de                	add	a5,a5,s7
10001302:	bf69                	j	1000129c <alarm_pool_irq_handler+0xdc>
10001304:	883a                	mv	a6,a4
10001306:	00071503          	lh	a0,0(a4)
1000130a:	02054363          	bltz	a0,10001330 <alarm_pool_irq_handler+0x170>
1000130e:	00081703          	lh	a4,0(a6)
10001312:	20e72733          	sh1add	a4,a4,a4
10001316:	21176733          	sh3add	a4,a4,a7
1000131a:	470c                	lw	a1,8(a4)
1000131c:	4750                	lw	a2,12(a4)
1000131e:	40b685b3          	sub	a1,a3,a1
10001322:	00b6b5b3          	sltu	a1,a3,a1
10001326:	40c78633          	sub	a2,a5,a2
1000132a:	8e0d                	sub	a2,a2,a1
1000132c:	fc065ce3          	bgez	a2,10001304 <alarm_pool_irq_handler+0x144>
10001330:	00a99023          	sh	a0,0(s3)
10001334:	01281023          	sh	s2,0(a6)
10001338:	a2b5                	j	100014a4 <alarm_pool_irq_handler+0x2e4>
1000133a:	00099783          	lh	a5,0(s3)
1000133e:	00f41423          	sh	a5,8(s0)
10001342:	481c                	lw	a5,16(s0)
10001344:	30047773          	csrrci	a4,mstatus,8
10001348:	00379693          	slli	a3,a5,0x3
1000134c:	28d016b3          	bset	a3,zero,a3
10001350:	9bf1                	andi	a5,a5,-4
10001352:	44d7a62f          	amoor.w.aq	a2,a3,(a5)
10001356:	8e75                	and	a2,a2,a3
10001358:	fe6d                	bnez	a2,10001352 <alarm_pool_irq_handler+0x192>
1000135a:	0330000f          	fence	rw,rw
1000135e:	00241783          	lh	a5,2(s0)
10001362:	00f99023          	sh	a5,0(s3)
10001366:	01241123          	sh	s2,2(s0)
1000136a:	481c                	lw	a5,16(s0)
1000136c:	0330000f          	fence	rw,rw
10001370:	00078023          	sb	zero,0(a5)
10001374:	00877793          	andi	a5,a4,8
10001378:	3007a073          	csrs	mstatus,a5
1000137c:	a225                	j	100014a4 <alarm_pool_irq_handler+0x2e4>
1000137e:	481c                	lw	a5,16(s0)
10001380:	30047773          	csrrci	a4,mstatus,8
10001384:	00379693          	slli	a3,a5,0x3
10001388:	28d016b3          	bset	a3,zero,a3
1000138c:	9bf1                	andi	a5,a5,-4
1000138e:	44d7a62f          	amoor.w.aq	a2,a3,(a5)
10001392:	8e75                	and	a2,a2,a3
10001394:	fe6d                	bnez	a2,1000138e <alarm_pool_irq_handler+0x1ce>
10001396:	0330000f          	fence	rw,rw
1000139a:	00445e03          	lhu	t3,4(s0)
1000139e:	605e1e13          	sext.h	t3,t3
100013a2:	57fd                	li	a5,-1
100013a4:	00f41223          	sh	a5,4(s0)
100013a8:	481c                	lw	a5,16(s0)
100013aa:	0330000f          	fence	rw,rw
100013ae:	00078023          	sb	zero,0(a5)
100013b2:	00877793          	andi	a5,a4,8
100013b6:	3007a073          	csrs	mstatus,a5
100013ba:	a82d                	j	100013f4 <alarm_pool_irq_handler+0x234>
100013bc:	85be                	mv	a1,a5
100013be:	00079603          	lh	a2,0(a5)
100013c2:	02064363          	bltz	a2,100013e8 <alarm_pool_irq_handler+0x228>
100013c6:	00059783          	lh	a5,0(a1)
100013ca:	20f7a7b3          	sh1add	a5,a5,a5
100013ce:	2107e7b3          	sh3add	a5,a5,a6
100013d2:	4794                	lw	a3,8(a5)
100013d4:	47d8                	lw	a4,12(a5)
100013d6:	40d506b3          	sub	a3,a0,a3
100013da:	00d536b3          	sltu	a3,a0,a3
100013de:	40e88733          	sub	a4,a7,a4
100013e2:	8f15                	sub	a4,a4,a3
100013e4:	fc075ce3          	bgez	a4,100013bc <alarm_pool_irq_handler+0x1fc>
100013e8:	01c59023          	sh	t3,0(a1)
100013ec:	00031e03          	lh	t3,0(t1) # 100000f0 <frame_dummy+0x16>
100013f0:	00c31023          	sh	a2,0(t1)
100013f4:	0a0e4e63          	bltz	t3,100014b0 <alarm_pool_irq_handler+0x2f0>
100013f8:	01442803          	lw	a6,20(s0)
100013fc:	21ce2333          	sh1add	t1,t3,t3
10001400:	21036333          	sh3add	t1,t1,a6
10001404:	00832503          	lw	a0,8(t1)
10001408:	00c32883          	lw	a7,12(t1)
1000140c:	00840593          	addi	a1,s0,8
10001410:	00841603          	lh	a2,8(s0)
10001414:	b77d                	j	100013c2 <alarm_pool_irq_handler+0x202>
10001416:	00040323          	sb	zero,6(s0)
1000141a:	00840593          	addi	a1,s0,8
1000141e:	00841703          	lh	a4,8(s0)
10001422:	a025                	j	1000144a <alarm_pool_irq_handler+0x28a>
10001424:	587d                	li	a6,-1
10001426:	58fd                	li	a7,-1
10001428:	0107a423          	sw	a6,8(a5)
1000142c:	0117a623          	sw	a7,12(a5)
10001430:	00841683          	lh	a3,8(s0)
10001434:	00e68a63          	beq	a3,a4,10001448 <alarm_pool_irq_handler+0x288>
10001438:	00c59023          	sh	a2,0(a1)
1000143c:	00841683          	lh	a3,8(s0)
10001440:	00d79023          	sh	a3,0(a5)
10001444:	00e41423          	sh	a4,8(s0)
10001448:	8732                	mv	a4,a2
1000144a:	57fd                	li	a5,-1
1000144c:	06f70563          	beq	a4,a5,100014b6 <alarm_pool_irq_handler+0x2f6>
10001450:	4854                	lw	a3,20(s0)
10001452:	20e727b3          	sh1add	a5,a4,a4
10001456:	20d7e7b3          	sh3add	a5,a5,a3
1000145a:	00079603          	lh	a2,0(a5)
1000145e:	0027d683          	lhu	a3,2(a5)
10001462:	60569693          	sext.h	a3,a3
10001466:	fa06cfe3          	bltz	a3,10001424 <alarm_pool_irq_handler+0x264>
1000146a:	85be                	mv	a1,a5
1000146c:	bff1                	j	10001448 <alarm_pool_irq_handler+0x288>
1000146e:	864e                	mv	a2,s3
10001470:	86ca                	mv	a3,s2
10001472:	45b2                	lw	a1,12(sp)
10001474:	8526                	mv	a0,s1
10001476:	39e9                	jal	10001150 <ta_set_timeout>
10001478:	8526                	mv	a0,s1
1000147a:	257d                	jal	10001b28 <timer_time_us_64>
1000147c:	40a987b3          	sub	a5,s3,a0
10001480:	00f9b9b3          	sltu	s3,s3,a5
10001484:	40b90933          	sub	s2,s2,a1
10001488:	41390933          	sub	s2,s2,s3
1000148c:	05204963          	bgtz	s2,100014de <alarm_pool_irq_handler+0x31e>
10001490:	04090663          	beqz	s2,100014dc <alarm_pool_irq_handler+0x31c>
10001494:	47b2                	lw	a5,12(sp)
10001496:	28f017b3          	bset	a5,zero,a5
1000149a:	dcdc                	sw	a5,60(s1)
1000149c:	00841903          	lh	s2,8(s0)
100014a0:	d80958e3          	bgez	s2,10001230 <alarm_pool_irq_handler+0x70>
100014a4:	00445783          	lhu	a5,4(s0)
100014a8:	60579793          	sext.h	a5,a5
100014ac:	ec07d9e3          	bgez	a5,1000137e <alarm_pool_irq_handler+0x1be>
100014b0:	00644783          	lbu	a5,6(s0)
100014b4:	f3ad                	bnez	a5,10001416 <alarm_pool_irq_handler+0x256>
100014b6:	00841783          	lh	a5,8(s0)
100014ba:	0207c263          	bltz	a5,100014de <alarm_pool_irq_handler+0x31e>
100014be:	4858                	lw	a4,20(s0)
100014c0:	20f7a7b3          	sh1add	a5,a5,a5
100014c4:	20e7e7b3          	sh3add	a5,a5,a4
100014c8:	0087a983          	lw	s3,8(a5)
100014cc:	00c7a903          	lw	s2,12(a5)
100014d0:	57fd                	li	a5,-1
100014d2:	f8f99ee3          	bne	s3,a5,1000146e <alarm_pool_irq_handler+0x2ae>
100014d6:	fb3901e3          	beq	s2,s3,10001478 <alarm_pool_irq_handler+0x2b8>
100014da:	bf51                	j	1000146e <alarm_pool_irq_handler+0x2ae>
100014dc:	dfc5                	beqz	a5,10001494 <alarm_pool_irq_handler+0x2d4>
100014de:	00102033          	sgtz	zero,ra
100014e2:	50f2                	lw	ra,60(sp)
100014e4:	5462                	lw	s0,56(sp)
100014e6:	54d2                	lw	s1,52(sp)
100014e8:	5942                	lw	s2,48(sp)
100014ea:	59b2                	lw	s3,44(sp)
100014ec:	5a22                	lw	s4,40(sp)
100014ee:	5a92                	lw	s5,36(sp)
100014f0:	5b02                	lw	s6,32(sp)
100014f2:	4bf2                	lw	s7,28(sp)
100014f4:	6121                	addi	sp,sp,64
100014f6:	8082                	ret

100014f8 <ta_enable_irq_handler>:
100014f8:	1141                	addi	sp,sp,-16
100014fa:	c606                	sw	ra,12(sp)
100014fc:	c422                	sw	s0,8(sp)
100014fe:	c226                	sw	s1,4(sp)
10001500:	c04a                	sw	s2,0(sp)
10001502:	842a                	mv	s0,a0
10001504:	84ae                	mv	s1,a1
10001506:	85b2                	mv	a1,a2
10001508:	400b87b7          	lui	a5,0x400b8
1000150c:	02f50963          	beq	a0,a5,1000153e <ta_enable_irq_handler+0x46>
10001510:	4901                	li	s2,0
10001512:	9926                	add	s2,s2,s1
10001514:	289014b3          	bset	s1,zero,s1
10001518:	d004                	sw	s1,32(s0)
1000151a:	854a                	mv	a0,s2
1000151c:	dd4ff0ef          	jal	10000af0 <irq_set_exclusive_handler>
10001520:	4585                	li	a1,1
10001522:	854a                	mv	a0,s2
10001524:	d78ff0ef          	jal	10000a9c <irq_set_enabled>
10001528:	04040413          	addi	s0,s0,64
1000152c:	6789                	lui	a5,0x2
1000152e:	943e                	add	s0,s0,a5
10001530:	c004                	sw	s1,0(s0)
10001532:	40b2                	lw	ra,12(sp)
10001534:	4422                	lw	s0,8(sp)
10001536:	4492                	lw	s1,4(sp)
10001538:	4902                	lw	s2,0(sp)
1000153a:	0141                	addi	sp,sp,16
1000153c:	8082                	ret
1000153e:	4911                	li	s2,4
10001540:	bfc9                	j	10001512 <ta_enable_irq_handler+0x1a>

10001542 <alarm_pool_post_alloc_init>:
10001542:	1101                	addi	sp,sp,-32
10001544:	ce06                	sw	ra,28(sp)
10001546:	cc22                	sw	s0,24(sp)
10001548:	ca26                	sw	s1,20(sp)
1000154a:	c84a                	sw	s2,16(sp)
1000154c:	c64e                	sw	s3,12(sp)
1000154e:	842a                	mv	s0,a0
10001550:	892e                	mv	s2,a1
10001552:	89b2                	mv	s3,a2
10001554:	84b6                	mv	s1,a3
10001556:	c54c                	sw	a1,12(a0)
10001558:	b14ff0ef          	jal	1000086c <next_striped_spin_lock_num>
1000155c:	200047b7          	lui	a5,0x20004
10001560:	cdc78793          	addi	a5,a5,-804 # 20003cdc <_sw_spin_locks>
10001564:	97aa                	add	a5,a5,a0
10001566:	c81c                	sw	a5,16(s0)
10001568:	01340023          	sb	s3,0(s0)
1000156c:	0804c7b3          	zext.h	a5,s1
10001570:	00f41523          	sh	a5,10(s0)
10001574:	d0000737          	lui	a4,0xd0000
10001578:	00074703          	lbu	a4,0(a4) # d0000000 <__StackTop+0xaff7e000>
1000157c:	00e400a3          	sb	a4,1(s0)
10001580:	577d                	li	a4,-1
10001582:	00e41423          	sh	a4,8(s0)
10001586:	00e41223          	sh	a4,4(s0)
1000158a:	97ba                	add	a5,a5,a4
1000158c:	00f41123          	sh	a5,2(s0)
10001590:	4781                	li	a5,0
10001592:	a821                	j	100015aa <alarm_pool_post_alloc_init+0x68>
10001594:	fff78813          	addi	a6,a5,-1
10001598:	01442883          	lw	a7,20(s0)
1000159c:	20f7a733          	sh1add	a4,a5,a5
100015a0:	21176733          	sh3add	a4,a4,a7
100015a4:	01071023          	sh	a6,0(a4)
100015a8:	0785                	addi	a5,a5,1
100015aa:	fe97e5e3          	bltu	a5,s1,10001594 <alarm_pool_post_alloc_init+0x52>
100015ae:	bff487b7          	lui	a5,0xbff48
100015b2:	97ca                	add	a5,a5,s2
100015b4:	0017b793          	seqz	a5,a5
100015b8:	20004737          	lui	a4,0x20004
100015bc:	2137c7b3          	sh2add	a5,a5,s3
100015c0:	54470713          	addi	a4,a4,1348 # 20004544 <pools>
100015c4:	20e7c7b3          	sh2add	a5,a5,a4
100015c8:	c380                	sw	s0,0(a5)
100015ca:	10001637          	lui	a2,0x10001
100015ce:	1c060613          	addi	a2,a2,448 # 100011c0 <alarm_pool_irq_handler>
100015d2:	85ce                	mv	a1,s3
100015d4:	854a                	mv	a0,s2
100015d6:	370d                	jal	100014f8 <ta_enable_irq_handler>
100015d8:	40f2                	lw	ra,28(sp)
100015da:	4462                	lw	s0,24(sp)
100015dc:	44d2                	lw	s1,20(sp)
100015de:	4942                	lw	s2,16(sp)
100015e0:	49b2                	lw	s3,12(sp)
100015e2:	6105                	addi	sp,sp,32
100015e4:	8082                	ret

100015e6 <alarm_pool_get_default>:
100015e6:	200037b7          	lui	a5,0x20003
100015ea:	61878793          	addi	a5,a5,1560 # 20003618 <default_alarm_pool>
100015ee:	4b9c                	lw	a5,16(a5)
100015f0:	c791                	beqz	a5,100015fc <alarm_pool_get_default+0x16>
100015f2:	20003537          	lui	a0,0x20003
100015f6:	61850513          	addi	a0,a0,1560 # 20003618 <default_alarm_pool>
100015fa:	8082                	ret
100015fc:	1141                	addi	sp,sp,-16
100015fe:	c606                	sw	ra,12(sp)
10001600:	100086b7          	lui	a3,0x10008
10001604:	e2868693          	addi	a3,a3,-472 # 10007e28 <__EH_FRAME_BEGIN__+0x688>
10001608:	10008637          	lui	a2,0x10008
1000160c:	50060613          	addi	a2,a2,1280 # 10008500 <__func__.1>
10001610:	06500593          	li	a1,101
10001614:	10008537          	lui	a0,0x10008
10001618:	de850513          	addi	a0,a0,-536 # 10007de8 <__EH_FRAME_BEGIN__+0x648>
1000161c:	7b9010ef          	jal	100035d4 <__assert_func>

10001620 <alarm_pool_add_alarm_at_force_in_context>:
10001620:	1141                	addi	sp,sp,-16
10001622:	c606                	sw	ra,12(sp)
10001624:	c422                	sw	s0,8(sp)
10001626:	c226                	sw	s1,4(sp)
10001628:	c04a                	sw	s2,0(sp)
1000162a:	842a                	mv	s0,a0
1000162c:	491c                	lw	a5,16(a0)
1000162e:	30047573          	csrrci	a0,mstatus,8
10001632:	00379813          	slli	a6,a5,0x3
10001636:	29001833          	bset	a6,zero,a6
1000163a:	9bf1                	andi	a5,a5,-4
1000163c:	4507a8af          	amoor.w.aq	a7,a6,(a5)
10001640:	0108f8b3          	and	a7,a7,a6
10001644:	fe089ce3          	bnez	a7,1000163c <alarm_pool_add_alarm_at_force_in_context+0x1c>
10001648:	0330000f          	fence	rw,rw
1000164c:	00241903          	lh	s2,2(s0)
10001650:	485c                	lw	a5,20(s0)
10001652:	212924b3          	sh1add	s1,s2,s2
10001656:	20f4e4b3          	sh3add	s1,s1,a5
1000165a:	00094663          	bltz	s2,10001666 <alarm_pool_add_alarm_at_force_in_context+0x46>
1000165e:	00049783          	lh	a5,0(s1)
10001662:	00f41123          	sh	a5,2(s0)
10001666:	481c                	lw	a5,16(s0)
10001668:	0330000f          	fence	rw,rw
1000166c:	00078023          	sb	zero,0(a5)
10001670:	00857793          	andi	a5,a0,8
10001674:	3007a073          	csrs	mstatus,a5
10001678:	08094163          	bltz	s2,100016fa <alarm_pool_add_alarm_at_force_in_context+0xda>
1000167c:	c894                	sw	a3,16(s1)
1000167e:	c8d8                	sw	a4,20(s1)
10001680:	c48c                	sw	a1,8(s1)
10001682:	c4d0                	sw	a2,12(s1)
10001684:	0024d583          	lhu	a1,2(s1)
10001688:	0585                	addi	a1,a1,1
1000168a:	0805c5b3          	zext.h	a1,a1
1000168e:	67a1                	lui	a5,0x8
10001690:	17fd                	addi	a5,a5,-1 # 7fff <HeapSize+0x77ff>
10001692:	8dfd                	and	a1,a1,a5
10001694:	e191                	bnez	a1,10001698 <alarm_pool_add_alarm_at_force_in_context+0x78>
10001696:	4585                	li	a1,1
10001698:	00b49123          	sh	a1,2(s1)
1000169c:	854a                	mv	a0,s2
1000169e:	3cf1                	jal	1000117a <make_alarm_id>
100016a0:	481c                	lw	a5,16(s0)
100016a2:	30047773          	csrrci	a4,mstatus,8
100016a6:	00379693          	slli	a3,a5,0x3
100016aa:	28d016b3          	bset	a3,zero,a3
100016ae:	9bf1                	andi	a5,a5,-4
100016b0:	44d7a62f          	amoor.w.aq	a2,a3,(a5)
100016b4:	8e75                	and	a2,a2,a3
100016b6:	fe6d                	bnez	a2,100016b0 <alarm_pool_add_alarm_at_force_in_context+0x90>
100016b8:	0330000f          	fence	rw,rw
100016bc:	00445783          	lhu	a5,4(s0)
100016c0:	00f49023          	sh	a5,0(s1)
100016c4:	01241223          	sh	s2,4(s0)
100016c8:	481c                	lw	a5,16(s0)
100016ca:	0330000f          	fence	rw,rw
100016ce:	00078023          	sb	zero,0(a5)
100016d2:	00877793          	andi	a5,a4,8
100016d6:	3007a073          	csrs	mstatus,a5
100016da:	445c                	lw	a5,12(s0)
100016dc:	00044703          	lbu	a4,0(s0)
100016e0:	04478793          	addi	a5,a5,68
100016e4:	28e01733          	bset	a4,zero,a4
100016e8:	6689                	lui	a3,0x2
100016ea:	97b6                	add	a5,a5,a3
100016ec:	c398                	sw	a4,0(a5)
100016ee:	40b2                	lw	ra,12(sp)
100016f0:	4422                	lw	s0,8(sp)
100016f2:	4492                	lw	s1,4(sp)
100016f4:	4902                	lw	s2,0(sp)
100016f6:	0141                	addi	sp,sp,16
100016f8:	8082                	ret
100016fa:	557d                	li	a0,-1
100016fc:	bfcd                	j	100016ee <alarm_pool_add_alarm_at_force_in_context+0xce>

100016fe <alarm_pool_add_alarm_at>:
100016fe:	1101                	addi	sp,sp,-32
10001700:	ce06                	sw	ra,28(sp)
10001702:	cc22                	sw	s0,24(sp)
10001704:	ca26                	sw	s1,20(sp)
10001706:	c84a                	sw	s2,16(sp)
10001708:	c64e                	sw	s3,12(sp)
1000170a:	c452                	sw	s4,8(sp)
1000170c:	892a                	mv	s2,a0
1000170e:	842e                	mv	s0,a1
10001710:	84b2                	mv	s1,a2
10001712:	89b6                	mv	s3,a3
10001714:	8a3a                	mv	s4,a4
10001716:	eb99                	bnez	a5,1000172c <alarm_pool_add_alarm_at+0x2e>
10001718:	292d                	jal	10001b52 <time_us_64>
1000171a:	40a40533          	sub	a0,s0,a0
1000171e:	00a43533          	sltu	a0,s0,a0
10001722:	40b485b3          	sub	a1,s1,a1
10001726:	8d89                	sub	a1,a1,a0
10001728:	0205c063          	bltz	a1,10001748 <alarm_pool_add_alarm_at+0x4a>
1000172c:	8752                	mv	a4,s4
1000172e:	86ce                	mv	a3,s3
10001730:	85a2                	mv	a1,s0
10001732:	8626                	mv	a2,s1
10001734:	854a                	mv	a0,s2
10001736:	35ed                	jal	10001620 <alarm_pool_add_alarm_at_force_in_context>
10001738:	40f2                	lw	ra,28(sp)
1000173a:	4462                	lw	s0,24(sp)
1000173c:	44d2                	lw	s1,20(sp)
1000173e:	4942                	lw	s2,16(sp)
10001740:	49b2                	lw	s3,12(sp)
10001742:	4a22                	lw	s4,8(sp)
10001744:	6105                	addi	sp,sp,32
10001746:	8082                	ret
10001748:	4501                	li	a0,0
1000174a:	b7fd                	j	10001738 <alarm_pool_add_alarm_at+0x3a>

1000174c <add_alarm_at>:
1000174c:	1101                	addi	sp,sp,-32
1000174e:	ce06                	sw	ra,28(sp)
10001750:	cc22                	sw	s0,24(sp)
10001752:	ca26                	sw	s1,20(sp)
10001754:	c84a                	sw	s2,16(sp)
10001756:	c64e                	sw	s3,12(sp)
10001758:	c452                	sw	s4,8(sp)
1000175a:	8a2a                	mv	s4,a0
1000175c:	89ae                	mv	s3,a1
1000175e:	8932                	mv	s2,a2
10001760:	84b6                	mv	s1,a3
10001762:	843a                	mv	s0,a4
10001764:	3549                	jal	100015e6 <alarm_pool_get_default>
10001766:	87a2                	mv	a5,s0
10001768:	8726                	mv	a4,s1
1000176a:	86ca                	mv	a3,s2
1000176c:	85d2                	mv	a1,s4
1000176e:	864e                	mv	a2,s3
10001770:	3779                	jal	100016fe <alarm_pool_add_alarm_at>
10001772:	40f2                	lw	ra,28(sp)
10001774:	4462                	lw	s0,24(sp)
10001776:	44d2                	lw	s1,20(sp)
10001778:	4942                	lw	s2,16(sp)
1000177a:	49b2                	lw	s3,12(sp)
1000177c:	4a22                	lw	s4,8(sp)
1000177e:	6105                	addi	sp,sp,32
10001780:	8082                	ret

10001782 <alarm_pool_cancel_alarm>:
10001782:	87aa                	mv	a5,a0
10001784:	4105d713          	srai	a4,a1,0x10
10001788:	00a55683          	lhu	a3,10(a0)
1000178c:	06d75e63          	bge	a4,a3,10001808 <alarm_pool_cancel_alarm+0x86>
10001790:	4954                	lw	a3,20(a0)
10001792:	20e72733          	sh1add	a4,a4,a4
10001796:	20d76733          	sh3add	a4,a4,a3
1000179a:	4914                	lw	a3,16(a0)
1000179c:	30047673          	csrrci	a2,mstatus,8
100017a0:	00369513          	slli	a0,a3,0x3
100017a4:	28a01533          	bset	a0,zero,a0
100017a8:	9af1                	andi	a3,a3,-4
100017aa:	44a6a82f          	amoor.w.aq	a6,a0,(a3)
100017ae:	00a87833          	and	a6,a6,a0
100017b2:	fe081ce3          	bnez	a6,100017aa <alarm_pool_cancel_alarm+0x28>
100017b6:	0330000f          	fence	rw,rw
100017ba:	00275683          	lhu	a3,2(a4)
100017be:	0806c533          	zext.h	a0,a3
100017c2:	0805c5b3          	zext.h	a1,a1
100017c6:	02b68863          	beq	a3,a1,100017f6 <alarm_pool_cancel_alarm+0x74>
100017ca:	4501                	li	a0,0
100017cc:	4b98                	lw	a4,16(a5)
100017ce:	0330000f          	fence	rw,rw
100017d2:	00070023          	sb	zero,0(a4)
100017d6:	00867713          	andi	a4,a2,8
100017da:	30072073          	csrs	mstatus,a4
100017de:	c515                	beqz	a0,1000180a <alarm_pool_cancel_alarm+0x88>
100017e0:	47d8                	lw	a4,12(a5)
100017e2:	0007c683          	lbu	a3,0(a5)
100017e6:	04470793          	addi	a5,a4,68
100017ea:	28d01733          	bset	a4,zero,a3
100017ee:	6689                	lui	a3,0x2
100017f0:	97b6                	add	a5,a5,a3
100017f2:	c398                	sw	a4,0(a5)
100017f4:	8082                	ret
100017f6:	28f51513          	bseti	a0,a0,0xf
100017fa:	00a71123          	sh	a0,2(a4)
100017fe:	4705                	li	a4,1
10001800:	00e78323          	sb	a4,6(a5)
10001804:	853a                	mv	a0,a4
10001806:	b7d9                	j	100017cc <alarm_pool_cancel_alarm+0x4a>
10001808:	4501                	li	a0,0
1000180a:	8082                	ret

1000180c <cancel_alarm>:
1000180c:	1141                	addi	sp,sp,-16
1000180e:	c606                	sw	ra,12(sp)
10001810:	c422                	sw	s0,8(sp)
10001812:	842a                	mv	s0,a0
10001814:	3bc9                	jal	100015e6 <alarm_pool_get_default>
10001816:	85a2                	mv	a1,s0
10001818:	37ad                	jal	10001782 <alarm_pool_cancel_alarm>
1000181a:	40b2                	lw	ra,12(sp)
1000181c:	4422                	lw	s0,8(sp)
1000181e:	0141                	addi	sp,sp,16
10001820:	8082                	ret

10001822 <alarm_pool_core_num>:
10001822:	00154503          	lbu	a0,1(a0)
10001826:	8082                	ret

10001828 <sleep_until>:
10001828:	1101                	addi	sp,sp,-32
1000182a:	ce06                	sw	ra,28(sp)
1000182c:	cc22                	sw	s0,24(sp)
1000182e:	ca26                	sw	s1,20(sp)
10001830:	c84a                	sw	s2,16(sp)
10001832:	c64e                	sw	s3,12(sp)
10001834:	be5027f3          	csrr	a5,0xbe5
10001838:	01079713          	slli	a4,a5,0x10
1000183c:	04075863          	bgez	a4,1000188c <sleep_until+0x64>
10001840:	84aa                	mv	s1,a0
10001842:	842e                	mv	s0,a1
10001844:	ffa50993          	addi	s3,a0,-6
10001848:	00a9b933          	sltu	s2,s3,a0
1000184c:	fff58793          	addi	a5,a1,-1
10001850:	993e                	add	s2,s2,a5
10001852:	0125e663          	bltu	a1,s2,1000185e <sleep_until+0x36>
10001856:	00b91663          	bne	s2,a1,10001862 <sleep_until+0x3a>
1000185a:	01357463          	bgeu	a0,s3,10001862 <sleep_until+0x3a>
1000185e:	4981                	li	s3,0
10001860:	4901                	li	s2,0
10001862:	2cc5                	jal	10001b52 <time_us_64>
10001864:	40a98533          	sub	a0,s3,a0
10001868:	00a9b7b3          	sltu	a5,s3,a0
1000186c:	40b905b3          	sub	a1,s2,a1
10001870:	8d9d                	sub	a1,a1,a5
10001872:	02b04463          	bgtz	a1,1000189a <sleep_until+0x72>
10001876:	c18d                	beqz	a1,10001898 <sleep_until+0x70>
10001878:	8526                	mv	a0,s1
1000187a:	85a2                	mv	a1,s0
1000187c:	24dd                	jal	10001b62 <busy_wait_until>
1000187e:	40f2                	lw	ra,28(sp)
10001880:	4462                	lw	s0,24(sp)
10001882:	44d2                	lw	s1,20(sp)
10001884:	4942                	lw	s2,16(sp)
10001886:	49b2                	lw	s3,12(sp)
10001888:	6105                	addi	sp,sp,32
1000188a:	8082                	ret
1000188c:	10008537          	lui	a0,0x10008
10001890:	e4c50513          	addi	a0,a0,-436 # 10007e4c <__EH_FRAME_BEGIN__+0x6ac>
10001894:	ea5fe0ef          	jal	10000738 <panic>
10001898:	d165                	beqz	a0,10001878 <sleep_until+0x50>
1000189a:	4701                	li	a4,0
1000189c:	4681                	li	a3,0
1000189e:	10001637          	lui	a2,0x10001
100018a2:	18060613          	addi	a2,a2,384 # 10001180 <sleep_until_callback>
100018a6:	854e                	mv	a0,s3
100018a8:	85ca                	mv	a1,s2
100018aa:	354d                	jal	1000174c <add_alarm_at>
100018ac:	04055063          	bgez	a0,100018ec <sleep_until+0xc4>
100018b0:	b7e1                	j	10001878 <sleep_until+0x50>
100018b2:	200046b7          	lui	a3,0x20004
100018b6:	5806a783          	lw	a5,1408(a3) # 20004580 <sleep_notifier>
100018ba:	30047773          	csrrci	a4,mstatus,8
100018be:	00379613          	slli	a2,a5,0x3
100018c2:	28c01633          	bset	a2,zero,a2
100018c6:	9bf1                	andi	a5,a5,-4
100018c8:	44c7a5af          	amoor.w.aq	a1,a2,(a5)
100018cc:	8df1                	and	a1,a1,a2
100018ce:	fded                	bnez	a1,100018c8 <sleep_until+0xa0>
100018d0:	0330000f          	fence	rw,rw
100018d4:	5806a783          	lw	a5,1408(a3)
100018d8:	0330000f          	fence	rw,rw
100018dc:	00078023          	sb	zero,0(a5)
100018e0:	00877793          	andi	a5,a4,8
100018e4:	3007a073          	csrs	mstatus,a5
100018e8:	00002033          	sltz	zero,zero
100018ec:	400b07b7          	lui	a5,0x400b0
100018f0:	53dc                	lw	a5,36(a5)
100018f2:	fd27e0e3          	bltu	a5,s2,100018b2 <sleep_until+0x8a>
100018f6:	400b06b7          	lui	a3,0x400b0
100018fa:	5694                	lw	a3,40(a3)
100018fc:	f736fee3          	bgeu	a3,s3,10001878 <sleep_until+0x50>
10001900:	f6f91ce3          	bne	s2,a5,10001878 <sleep_until+0x50>
10001904:	b77d                	j	100018b2 <sleep_until+0x8a>

10001906 <sleep_us>:
10001906:	1141                	addi	sp,sp,-16
10001908:	c606                	sw	ra,12(sp)
1000190a:	c422                	sw	s0,8(sp)
1000190c:	c226                	sw	s1,4(sp)
1000190e:	842a                	mv	s0,a0
10001910:	84ae                	mv	s1,a1
10001912:	2481                	jal	10001b52 <time_us_64>
10001914:	9522                	add	a0,a0,s0
10001916:	00853433          	sltu	s0,a0,s0
1000191a:	95a6                	add	a1,a1,s1
1000191c:	95a2                	add	a1,a1,s0
1000191e:	0005c863          	bltz	a1,1000192e <sleep_us+0x28>
10001922:	3719                	jal	10001828 <sleep_until>
10001924:	40b2                	lw	ra,12(sp)
10001926:	4422                	lw	s0,8(sp)
10001928:	4492                	lw	s1,4(sp)
1000192a:	0141                	addi	sp,sp,16
1000192c:	8082                	ret
1000192e:	557d                	li	a0,-1
10001930:	800005b7          	lui	a1,0x80000
10001934:	95aa                	add	a1,a1,a0
10001936:	b7f5                	j	10001922 <sleep_us+0x1c>

10001938 <sleep_ms>:
10001938:	1141                	addi	sp,sp,-16
1000193a:	c606                	sw	ra,12(sp)
1000193c:	3e800793          	li	a5,1000
10001940:	02f535b3          	mulhu	a1,a0,a5
10001944:	02f50533          	mul	a0,a0,a5
10001948:	3f7d                	jal	10001906 <sleep_us>
1000194a:	40b2                	lw	ra,12(sp)
1000194c:	0141                	addi	sp,sp,16
1000194e:	8082                	ret

10001950 <best_effort_wfe_or_timeout>:
10001950:	1101                	addi	sp,sp,-32
10001952:	ce06                	sw	ra,28(sp)
10001954:	cc22                	sw	s0,24(sp)
10001956:	ca26                	sw	s1,20(sp)
10001958:	842a                	mv	s0,a0
1000195a:	84ae                	mv	s1,a1
1000195c:	be5027f3          	csrr	a5,0xbe5
10001960:	01079713          	slli	a4,a5,0x10
10001964:	0a075e63          	bgez	a4,10001a20 <best_effort_wfe_or_timeout+0xd0>
10001968:	c84a                	sw	s2,16(sp)
1000196a:	c64e                	sw	s3,12(sp)
1000196c:	39ad                	jal	100015e6 <alarm_pool_get_default>
1000196e:	455c                	lw	a5,12(a0)
10001970:	873e                	mv	a4,a5
10001972:	00054783          	lbu	a5,0(a0)
10001976:	89be                	mv	s3,a5
10001978:	893a                	mv	s2,a4
1000197a:	853a                	mv	a0,a4
1000197c:	2275                	jal	10001b28 <timer_time_us_64>
1000197e:	40a407b3          	sub	a5,s0,a0
10001982:	00f436b3          	sltu	a3,s0,a5
10001986:	40b485b3          	sub	a1,s1,a1
1000198a:	873e                	mv	a4,a5
1000198c:	8d95                	sub	a1,a1,a3
1000198e:	00498793          	addi	a5,s3,4
10001992:	2127c7b3          	sh2add	a5,a5,s2
10001996:	439c                	lw	a5,0(a5)
10001998:	8f89                	sub	a5,a5,a0
1000199a:	4681                	li	a3,0
1000199c:	02d5c863          	blt	a1,a3,100019cc <best_effort_wfe_or_timeout+0x7c>
100019a0:	02b68463          	beq	a3,a1,100019c8 <best_effort_wfe_or_timeout+0x78>
100019a4:	00002033          	sltz	zero,zero
100019a8:	400b07b7          	lui	a5,0x400b0
100019ac:	53dc                	lw	a5,36(a5)
100019ae:	0a97e563          	bltu	a5,s1,10001a58 <best_effort_wfe_or_timeout+0x108>
100019b2:	400b06b7          	lui	a3,0x400b0
100019b6:	5694                	lw	a3,40(a3)
100019b8:	0a86f463          	bgeu	a3,s0,10001a60 <best_effort_wfe_or_timeout+0x110>
100019bc:	08f48a63          	beq	s1,a5,10001a50 <best_effort_wfe_or_timeout+0x100>
100019c0:	4505                	li	a0,1
100019c2:	4942                	lw	s2,16(sp)
100019c4:	49b2                	lw	s3,12(sp)
100019c6:	a8b5                	j	10001a42 <best_effort_wfe_or_timeout+0xf2>
100019c8:	fcf77ee3          	bgeu	a4,a5,100019a4 <best_effort_wfe_or_timeout+0x54>
100019cc:	4701                	li	a4,0
100019ce:	4681                	li	a3,0
100019d0:	10001637          	lui	a2,0x10001
100019d4:	18060613          	addi	a2,a2,384 # 10001180 <sleep_until_callback>
100019d8:	8522                	mv	a0,s0
100019da:	85a6                	mv	a1,s1
100019dc:	3b85                	jal	1000174c <add_alarm_at>
100019de:	08a05563          	blez	a0,10001a68 <best_effort_wfe_or_timeout+0x118>
100019e2:	400b07b7          	lui	a5,0x400b0
100019e6:	53dc                	lw	a5,36(a5)
100019e8:	0097e963          	bltu	a5,s1,100019fa <best_effort_wfe_or_timeout+0xaa>
100019ec:	400b0737          	lui	a4,0x400b0
100019f0:	5718                	lw	a4,40(a4)
100019f2:	00877663          	bgeu	a4,s0,100019fe <best_effort_wfe_or_timeout+0xae>
100019f6:	00f49463          	bne	s1,a5,100019fe <best_effort_wfe_or_timeout+0xae>
100019fa:	00002033          	sltz	zero,zero
100019fe:	3539                	jal	1000180c <cancel_alarm>
10001a00:	400b07b7          	lui	a5,0x400b0
10001a04:	53dc                	lw	a5,36(a5)
10001a06:	0a97e163          	bltu	a5,s1,10001aa8 <best_effort_wfe_or_timeout+0x158>
10001a0a:	400b0737          	lui	a4,0x400b0
10001a0e:	5718                	lw	a4,40(a4)
10001a10:	0a877063          	bgeu	a4,s0,10001ab0 <best_effort_wfe_or_timeout+0x160>
10001a14:	08f48663          	beq	s1,a5,10001aa0 <best_effort_wfe_or_timeout+0x150>
10001a18:	4505                	li	a0,1
10001a1a:	4942                	lw	s2,16(sp)
10001a1c:	49b2                	lw	s3,12(sp)
10001a1e:	a015                	j	10001a42 <best_effort_wfe_or_timeout+0xf2>
10001a20:	400b07b7          	lui	a5,0x400b0
10001a24:	53dc                	lw	a5,36(a5)
10001a26:	00b7ed63          	bltu	a5,a1,10001a40 <best_effort_wfe_or_timeout+0xf0>
10001a2a:	400b06b7          	lui	a3,0x400b0
10001a2e:	5694                	lw	a3,40(a3)
10001a30:	00a6fe63          	bgeu	a3,a0,10001a4c <best_effort_wfe_or_timeout+0xfc>
10001a34:	00f58463          	beq	a1,a5,10001a3c <best_effort_wfe_or_timeout+0xec>
10001a38:	4505                	li	a0,1
10001a3a:	a021                	j	10001a42 <best_effort_wfe_or_timeout+0xf2>
10001a3c:	4501                	li	a0,0
10001a3e:	a011                	j	10001a42 <best_effort_wfe_or_timeout+0xf2>
10001a40:	4501                	li	a0,0
10001a42:	40f2                	lw	ra,28(sp)
10001a44:	4462                	lw	s0,24(sp)
10001a46:	44d2                	lw	s1,20(sp)
10001a48:	6105                	addi	sp,sp,32
10001a4a:	8082                	ret
10001a4c:	4505                	li	a0,1
10001a4e:	bfd5                	j	10001a42 <best_effort_wfe_or_timeout+0xf2>
10001a50:	4501                	li	a0,0
10001a52:	4942                	lw	s2,16(sp)
10001a54:	49b2                	lw	s3,12(sp)
10001a56:	b7f5                	j	10001a42 <best_effort_wfe_or_timeout+0xf2>
10001a58:	4501                	li	a0,0
10001a5a:	4942                	lw	s2,16(sp)
10001a5c:	49b2                	lw	s3,12(sp)
10001a5e:	b7d5                	j	10001a42 <best_effort_wfe_or_timeout+0xf2>
10001a60:	4505                	li	a0,1
10001a62:	4942                	lw	s2,16(sp)
10001a64:	49b2                	lw	s3,12(sp)
10001a66:	bff1                	j	10001a42 <best_effort_wfe_or_timeout+0xf2>
10001a68:	400b07b7          	lui	a5,0x400b0
10001a6c:	53dc                	lw	a5,36(a5)
10001a6e:	0297e163          	bltu	a5,s1,10001a90 <best_effort_wfe_or_timeout+0x140>
10001a72:	400b06b7          	lui	a3,0x400b0
10001a76:	5694                	lw	a3,40(a3)
10001a78:	0286f063          	bgeu	a3,s0,10001a98 <best_effort_wfe_or_timeout+0x148>
10001a7c:	00f48663          	beq	s1,a5,10001a88 <best_effort_wfe_or_timeout+0x138>
10001a80:	4505                	li	a0,1
10001a82:	4942                	lw	s2,16(sp)
10001a84:	49b2                	lw	s3,12(sp)
10001a86:	bf75                	j	10001a42 <best_effort_wfe_or_timeout+0xf2>
10001a88:	4501                	li	a0,0
10001a8a:	4942                	lw	s2,16(sp)
10001a8c:	49b2                	lw	s3,12(sp)
10001a8e:	bf55                	j	10001a42 <best_effort_wfe_or_timeout+0xf2>
10001a90:	4501                	li	a0,0
10001a92:	4942                	lw	s2,16(sp)
10001a94:	49b2                	lw	s3,12(sp)
10001a96:	b775                	j	10001a42 <best_effort_wfe_or_timeout+0xf2>
10001a98:	4505                	li	a0,1
10001a9a:	4942                	lw	s2,16(sp)
10001a9c:	49b2                	lw	s3,12(sp)
10001a9e:	b755                	j	10001a42 <best_effort_wfe_or_timeout+0xf2>
10001aa0:	4501                	li	a0,0
10001aa2:	4942                	lw	s2,16(sp)
10001aa4:	49b2                	lw	s3,12(sp)
10001aa6:	bf71                	j	10001a42 <best_effort_wfe_or_timeout+0xf2>
10001aa8:	4501                	li	a0,0
10001aaa:	4942                	lw	s2,16(sp)
10001aac:	49b2                	lw	s3,12(sp)
10001aae:	bf51                	j	10001a42 <best_effort_wfe_or_timeout+0xf2>
10001ab0:	4505                	li	a0,1
10001ab2:	4942                	lw	s2,16(sp)
10001ab4:	49b2                	lw	s3,12(sp)
10001ab6:	b771                	j	10001a42 <best_effort_wfe_or_timeout+0xf2>

10001ab8 <alarm_pool_get_default_timer>:
10001ab8:	400b0537          	lui	a0,0x400b0
10001abc:	8082                	ret

10001abe <runtime_init_default_alarm_pool>:
10001abe:	1141                	addi	sp,sp,-16
10001ac0:	c606                	sw	ra,12(sp)
10001ac2:	200037b7          	lui	a5,0x20003
10001ac6:	61878793          	addi	a5,a5,1560 # 20003618 <default_alarm_pool>
10001aca:	4b9c                	lw	a5,16(a5)
10001acc:	cb99                	beqz	a5,10001ae2 <runtime_init_default_alarm_pool+0x24>
10001ace:	45a9                	li	a1,10
10001ad0:	20004537          	lui	a0,0x20004
10001ad4:	58050513          	addi	a0,a0,1408 # 20004580 <sleep_notifier>
10001ad8:	d60ff0ef          	jal	10001038 <lock_init>
10001adc:	40b2                	lw	ra,12(sp)
10001ade:	0141                	addi	sp,sp,16
10001ae0:	8082                	ret
10001ae2:	c422                	sw	s0,8(sp)
10001ae4:	3fd1                	jal	10001ab8 <alarm_pool_get_default_timer>
10001ae6:	842a                	mv	s0,a0
10001ae8:	458d                	li	a1,3
10001aea:	2821                	jal	10001b02 <timer_hardware_alarm_claim>
10001aec:	46c1                	li	a3,16
10001aee:	460d                	li	a2,3
10001af0:	85a2                	mv	a1,s0
10001af2:	20003537          	lui	a0,0x20003
10001af6:	61850513          	addi	a0,a0,1560 # 20003618 <default_alarm_pool>
10001afa:	a49ff0ef          	jal	10001542 <alarm_pool_post_alloc_init>
10001afe:	4422                	lw	s0,8(sp)
10001b00:	b7f9                	j	10001ace <runtime_init_default_alarm_pool+0x10>

10001b02 <timer_hardware_alarm_claim>:
10001b02:	1141                	addi	sp,sp,-16
10001b04:	c606                	sw	ra,12(sp)
10001b06:	bff487b7          	lui	a5,0xbff48
10001b0a:	97aa                	add	a5,a5,a0
10001b0c:	0017b793          	seqz	a5,a5
10001b10:	10008637          	lui	a2,0x10008
10001b14:	e9c60613          	addi	a2,a2,-356 # 10007e9c <__EH_FRAME_BEGIN__+0x6fc>
10001b18:	80f18513          	addi	a0,gp,-2033 # 20004584 <claimed>
10001b1c:	953e                	add	a0,a0,a5
10001b1e:	c97fe0ef          	jal	100007b4 <hw_claim_or_assert>
10001b22:	40b2                	lw	ra,12(sp)
10001b24:	0141                	addi	sp,sp,16
10001b26:	8082                	ret

10001b28 <timer_time_us_64>:
10001b28:	872a                	mv	a4,a0
10001b2a:	515c                	lw	a5,36(a0)
10001b2c:	5708                	lw	a0,40(a4)
10001b2e:	85be                	mv	a1,a5
10001b30:	535c                	lw	a5,36(a4)
10001b32:	fef59de3          	bne	a1,a5,10001b2c <timer_time_us_64+0x4>
10001b36:	8082                	ret

10001b38 <timer_busy_wait_until>:
10001b38:	515c                	lw	a5,36(a0)
10001b3a:	a011                	j	10001b3e <timer_busy_wait_until+0x6>
10001b3c:	515c                	lw	a5,36(a0)
10001b3e:	fec7efe3          	bltu	a5,a2,10001b3c <timer_busy_wait_until+0x4>
10001b42:	a011                	j	10001b46 <timer_busy_wait_until+0xe>
10001b44:	515c                	lw	a5,36(a0)
10001b46:	00c79563          	bne	a5,a2,10001b50 <timer_busy_wait_until+0x18>
10001b4a:	551c                	lw	a5,40(a0)
10001b4c:	feb7ece3          	bltu	a5,a1,10001b44 <timer_busy_wait_until+0xc>
10001b50:	8082                	ret

10001b52 <time_us_64>:
10001b52:	1141                	addi	sp,sp,-16
10001b54:	c606                	sw	ra,12(sp)
10001b56:	400b0537          	lui	a0,0x400b0
10001b5a:	37f9                	jal	10001b28 <timer_time_us_64>
10001b5c:	40b2                	lw	ra,12(sp)
10001b5e:	0141                	addi	sp,sp,16
10001b60:	8082                	ret

10001b62 <busy_wait_until>:
10001b62:	1141                	addi	sp,sp,-16
10001b64:	c606                	sw	ra,12(sp)
10001b66:	862e                	mv	a2,a1
10001b68:	85aa                	mv	a1,a0
10001b6a:	400b0537          	lui	a0,0x400b0
10001b6e:	37e9                	jal	10001b38 <timer_busy_wait_until>
10001b70:	40b2                	lw	ra,12(sp)
10001b72:	0141                	addi	sp,sp,16
10001b74:	8082                	ret
	...

10001b78 <clock_configure_internal>:
10001b78:	20a52833          	sh1add	a6,a0,a0
10001b7c:	400107b7          	lui	a5,0x40010
10001b80:	20f84833          	sh2add	a6,a6,a5
10001b84:	00482783          	lw	a5,4(a6)
10001b88:	00e7f463          	bgeu	a5,a4,10001b90 <clock_configure_internal+0x18>
10001b8c:	00e82223          	sw	a4,4(a6)
10001b90:	ffc50893          	addi	a7,a0,-4 # 400afffc <__StackTop+0x2002dffc>
10001b94:	4785                	li	a5,1
10001b96:	0717fc63          	bgeu	a5,a7,10001c0e <clock_configure_internal+0x96>
10001b9a:	678d                	lui	a5,0x3
10001b9c:	97c2                	add	a5,a5,a6
10001b9e:	28b01313          	bseti	t1,zero,0xb
10001ba2:	0067a023          	sw	t1,0(a5) # 3000 <HeapSize+0x2800>
10001ba6:	200047b7          	lui	a5,0x20004
10001baa:	0dc78793          	addi	a5,a5,220 # 200040dc <configured_freq>
10001bae:	20f547b3          	sh2add	a5,a0,a5
10001bb2:	0007a303          	lw	t1,0(a5)
10001bb6:	02030163          	beqz	t1,10001bd8 <clock_configure_internal+0x60>
10001bba:	200047b7          	lui	a5,0x20004
10001bbe:	0dc78793          	addi	a5,a5,220 # 200040dc <configured_freq>
10001bc2:	4bdc                	lw	a5,20(a5)
10001bc4:	0267d7b3          	divu	a5,a5,t1
10001bc8:	0785                	addi	a5,a5,1
10001bca:	20f7a7b3          	sh1add	a5,a5,a5
10001bce:	0001                	nop
10001bd0:	ffe78793          	addi	a5,a5,-2
10001bd4:	fe07dee3          	bgez	a5,10001bd0 <clock_configure_internal+0x58>
10001bd8:	0616                	slli	a2,a2,0x5
10001bda:	00082783          	lw	a5,0(a6)
10001bde:	8e3d                	xor	a2,a2,a5
10001be0:	0e067613          	andi	a2,a2,224
10001be4:	6785                	lui	a5,0x1
10001be6:	97c2                	add	a5,a5,a6
10001be8:	c390                	sw	a2,0(a5)
10001bea:	4605                	li	a2,1
10001bec:	03167d63          	bgeu	a2,a7,10001c26 <clock_configure_internal+0xae>
10001bf0:	6789                	lui	a5,0x2
10001bf2:	97c2                	add	a5,a5,a6
10001bf4:	28b01613          	bseti	a2,zero,0xb
10001bf8:	c390                	sw	a2,0(a5)
10001bfa:	00e82223          	sw	a4,4(a6)
10001bfe:	200047b7          	lui	a5,0x20004
10001c02:	0dc78793          	addi	a5,a5,220 # 200040dc <configured_freq>
10001c06:	20f54533          	sh2add	a0,a0,a5
10001c0a:	c114                	sw	a3,0(a0)
10001c0c:	8082                	ret
10001c0e:	f8f596e3          	bne	a1,a5,10001b9a <clock_configure_internal+0x22>
10001c12:	678d                	lui	a5,0x3
10001c14:	97c2                	add	a5,a5,a6
10001c16:	430d                	li	t1,3
10001c18:	0067a023          	sw	t1,0(a5) # 3000 <HeapSize+0x2800>
10001c1c:	00882783          	lw	a5,8(a6)
10001c20:	8b85                	andi	a5,a5,1
10001c22:	dfed                	beqz	a5,10001c1c <clock_configure_internal+0xa4>
10001c24:	bf55                	j	10001bd8 <clock_configure_internal+0x60>
10001c26:	00082603          	lw	a2,0(a6)
10001c2a:	8e2d                	xor	a2,a2,a1
10001c2c:	8a0d                	andi	a2,a2,3
10001c2e:	c390                	sw	a2,0(a5)
10001c30:	00882783          	lw	a5,8(a6)
10001c34:	28b01633          	bset	a2,zero,a1
10001c38:	8ff1                	and	a5,a5,a2
10001c3a:	dbfd                	beqz	a5,10001c30 <clock_configure_internal+0xb8>
10001c3c:	bf55                	j	10001bf0 <clock_configure_internal+0x78>
10001c3e:	0001                	nop

10001c40 <clock_configure_undivided>:
10001c40:	1141                	addi	sp,sp,-16
10001c42:	c606                	sw	ra,12(sp)
10001c44:	6741                	lui	a4,0x10
10001c46:	3f0d                	jal	10001b78 <clock_configure_internal>
10001c48:	40b2                	lw	ra,12(sp)
10001c4a:	0141                	addi	sp,sp,16
10001c4c:	8082                	ret

10001c4e <clock_get_hz>:
10001c4e:	200047b7          	lui	a5,0x20004
10001c52:	0dc78793          	addi	a5,a5,220 # 200040dc <configured_freq>
10001c56:	20f54533          	sh2add	a0,a0,a5
10001c5a:	4108                	lw	a0,0(a0)
10001c5c:	8082                	ret

10001c5e <pll_init>:
10001c5e:	1141                	addi	sp,sp,-16
10001c60:	c606                	sw	ra,12(sp)
10001c62:	00b727b7          	lui	a5,0xb72
10001c66:	b0078793          	addi	a5,a5,-1280 # b71b00 <HeapSize+0xb71300>
10001c6a:	02b7d7b3          	divu	a5,a5,a1
10001c6e:	d34bf837          	lui	a6,0xd34bf
10001c72:	88080813          	addi	a6,a6,-1920 # d34be880 <__StackTop+0xb343c880>
10001c76:	9832                	add	a6,a6,a2
10001c78:	32aa08b7          	lui	a7,0x32aa0
10001c7c:	88088893          	addi	a7,a7,-1920 # 32a9f880 <__StackTop+0x12a1d880>
10001c80:	0908e263          	bltu	a7,a6,10001d04 <pll_init+0xa6>
10001c84:	02f658b3          	divu	a7,a2,a5
10001c88:	ff088313          	addi	t1,a7,-16
10001c8c:	13000813          	li	a6,304
10001c90:	08686963          	bltu	a6,t1,10001d22 <pll_init+0xc4>
10001c94:	fff68813          	addi	a6,a3,-1 # 400affff <__StackTop+0x2002dfff>
10001c98:	4319                	li	t1,6
10001c9a:	0b036363          	bltu	t1,a6,10001d40 <pll_init+0xe2>
10001c9e:	fff70813          	addi	a6,a4,-1 # ffff <HeapSize+0xf7ff>
10001ca2:	09036f63          	bltu	t1,a6,10001d40 <pll_init+0xe2>
10001ca6:	8211                	srli	a2,a2,0x4
10001ca8:	0af66b63          	bltu	a2,a5,10001d5e <pll_init+0x100>
10001cac:	06c2                	slli	a3,a3,0x10
10001cae:	0732                	slli	a4,a4,0xc
10001cb0:	8ed9                	or	a3,a3,a4
10001cb2:	411c                	lw	a5,0(a0)
10001cb4:	0c07c563          	bltz	a5,10001d7e <pll_init+0x120>
10001cb8:	400587b7          	lui	a5,0x40058
10001cbc:	0ef50363          	beq	a0,a5,10001da2 <pll_init+0x144>
10001cc0:	4739                	li	a4,14
10001cc2:	28e01733          	bset	a4,zero,a4
10001cc6:	400227b7          	lui	a5,0x40022
10001cca:	c398                	sw	a4,0(a5)
10001ccc:	400237b7          	lui	a5,0x40023
10001cd0:	c398                	sw	a4,0(a5)
10001cd2:	400207b7          	lui	a5,0x40020
10001cd6:	479c                	lw	a5,8(a5)
10001cd8:	40f777b3          	andn	a5,a4,a5
10001cdc:	fbfd                	bnez	a5,10001cd2 <pll_init+0x74>
10001cde:	c10c                	sw	a1,0(a0)
10001ce0:	01152423          	sw	a7,8(a0)
10001ce4:	00450713          	addi	a4,a0,4
10001ce8:	678d                	lui	a5,0x3
10001cea:	973e                	add	a4,a4,a5
10001cec:	02100793          	li	a5,33
10001cf0:	c31c                	sw	a5,0(a4)
10001cf2:	411c                	lw	a5,0(a0)
10001cf4:	fe07dfe3          	bgez	a5,10001cf2 <pll_init+0x94>
10001cf8:	c554                	sw	a3,12(a0)
10001cfa:	47a1                	li	a5,8
10001cfc:	c31c                	sw	a5,0(a4)
10001cfe:	40b2                	lw	ra,12(sp)
10001d00:	0141                	addi	sp,sp,16
10001d02:	8082                	ret
10001d04:	100086b7          	lui	a3,0x10008
10001d08:	ec068693          	addi	a3,a3,-320 # 10007ec0 <__EH_FRAME_BEGIN__+0x720>
10001d0c:	10008637          	lui	a2,0x10008
10001d10:	53060613          	addi	a2,a2,1328 # 10008530 <__func__.0>
10001d14:	45c5                	li	a1,17
10001d16:	10008537          	lui	a0,0x10008
10001d1a:	f1050513          	addi	a0,a0,-240 # 10007f10 <__EH_FRAME_BEGIN__+0x770>
10001d1e:	0b7010ef          	jal	100035d4 <__assert_func>
10001d22:	100086b7          	lui	a3,0x10008
10001d26:	f5868693          	addi	a3,a3,-168 # 10007f58 <__EH_FRAME_BEGIN__+0x7b8>
10001d2a:	10008637          	lui	a2,0x10008
10001d2e:	53060613          	addi	a2,a2,1328 # 10008530 <__func__.0>
10001d32:	45e5                	li	a1,25
10001d34:	10008537          	lui	a0,0x10008
10001d38:	f1050513          	addi	a0,a0,-240 # 10007f10 <__EH_FRAME_BEGIN__+0x770>
10001d3c:	099010ef          	jal	100035d4 <__assert_func>
10001d40:	100086b7          	lui	a3,0x10008
10001d44:	f7468693          	addi	a3,a3,-140 # 10007f74 <__EH_FRAME_BEGIN__+0x7d4>
10001d48:	10008637          	lui	a2,0x10008
10001d4c:	53060613          	addi	a2,a2,1328 # 10008530 <__func__.0>
10001d50:	45f1                	li	a1,28
10001d52:	10008537          	lui	a0,0x10008
10001d56:	f1050513          	addi	a0,a0,-240 # 10007f10 <__EH_FRAME_BEGIN__+0x770>
10001d5a:	07b010ef          	jal	100035d4 <__assert_func>
10001d5e:	100086b7          	lui	a3,0x10008
10001d62:	fc068693          	addi	a3,a3,-64 # 10007fc0 <__EH_FRAME_BEGIN__+0x820>
10001d66:	10008637          	lui	a2,0x10008
10001d6a:	53060613          	addi	a2,a2,1328 # 10008530 <__func__.0>
10001d6e:	02300593          	li	a1,35
10001d72:	10008537          	lui	a0,0x10008
10001d76:	f1050513          	addi	a0,a0,-240 # 10007f10 <__EH_FRAME_BEGIN__+0x770>
10001d7a:	05b010ef          	jal	100035d4 <__assert_func>
10001d7e:	411c                	lw	a5,0(a0)
10001d80:	03f7f793          	andi	a5,a5,63
10001d84:	f2b79ae3          	bne	a5,a1,10001cb8 <pll_init+0x5a>
10001d88:	451c                	lw	a5,8(a0)
10001d8a:	6705                	lui	a4,0x1
10001d8c:	177d                	addi	a4,a4,-1 # fff <HeapSize+0x7ff>
10001d8e:	8ff9                	and	a5,a5,a4
10001d90:	f31794e3          	bne	a5,a7,10001cb8 <pll_init+0x5a>
10001d94:	455c                	lw	a5,12(a0)
10001d96:	00077737          	lui	a4,0x77
10001d9a:	8ff9                	and	a5,a5,a4
10001d9c:	f0d79ee3          	bne	a5,a3,10001cb8 <pll_init+0x5a>
10001da0:	bfb9                	j	10001cfe <pll_init+0xa0>
10001da2:	473d                	li	a4,15
10001da4:	bf39                	j	10001cc2 <pll_init+0x64>

10001da6 <watchdog_update>:
10001da6:	8131a703          	lw	a4,-2029(gp) # 20004588 <load_value>
10001daa:	400d87b7          	lui	a5,0x400d8
10001dae:	c3d8                	sw	a4,4(a5)
10001db0:	8082                	ret

10001db2 <_watchdog_enable>:
10001db2:	400db7b7          	lui	a5,0x400db
10001db6:	40000737          	lui	a4,0x40000
10001dba:	c398                	sw	a4,0(a5)
10001dbc:	4001a737          	lui	a4,0x4001a
10001dc0:	020007b7          	lui	a5,0x2000
10001dc4:	17cd                	addi	a5,a5,-13 # 1fffff3 <HeapSize+0x1fff7f3>
10001dc6:	c71c                	sw	a5,8(a4)
10001dc8:	cd89                	beqz	a1,10001de2 <_watchdog_enable+0x30>
10001dca:	400da7b7          	lui	a5,0x400da
10001dce:	07000737          	lui	a4,0x7000
10001dd2:	c398                	sw	a4,0(a5)
10001dd4:	ed09                	bnez	a0,10001dee <_watchdog_enable+0x3c>
10001dd6:	400da7b7          	lui	a5,0x400da
10001dda:	80000737          	lui	a4,0x80000
10001dde:	c398                	sw	a4,0(a5)
10001de0:	8082                	ret
10001de2:	400db7b7          	lui	a5,0x400db
10001de6:	07000737          	lui	a4,0x7000
10001dea:	c398                	sw	a4,0(a5)
10001dec:	b7e5                	j	10001dd4 <_watchdog_enable+0x22>
10001dee:	1141                	addi	sp,sp,-16
10001df0:	c606                	sw	ra,12(sp)
10001df2:	20a54533          	sh2add	a0,a0,a0
10001df6:	20a54533          	sh2add	a0,a0,a0
10001dfa:	20a54533          	sh2add	a0,a0,a0
10001dfe:	050e                	slli	a0,a0,0x3
10001e00:	80a1a9a3          	sw	a0,-2029(gp) # 20004588 <load_value>
10001e04:	010007b7          	lui	a5,0x1000
10001e08:	00f56563          	bltu	a0,a5,10001e12 <_watchdog_enable+0x60>
10001e0c:	17fd                	addi	a5,a5,-1 # ffffff <HeapSize+0xfff7ff>
10001e0e:	80f1a9a3          	sw	a5,-2029(gp) # 20004588 <load_value>
10001e12:	3f51                	jal	10001da6 <watchdog_update>
10001e14:	400da7b7          	lui	a5,0x400da
10001e18:	40000737          	lui	a4,0x40000
10001e1c:	c398                	sw	a4,0(a5)
10001e1e:	40b2                	lw	ra,12(sp)
10001e20:	0141                	addi	sp,sp,16
10001e22:	8082                	ret

10001e24 <watchdog_reboot>:
10001e24:	1141                	addi	sp,sp,-16
10001e26:	c606                	sw	ra,12(sp)
10001e28:	87aa                	mv	a5,a0
10001e2a:	8532                	mv	a0,a2
10001e2c:	400db737          	lui	a4,0x400db
10001e30:	400006b7          	lui	a3,0x40000
10001e34:	c314                	sw	a3,0(a4)
10001e36:	c78d                	beqz	a5,10001e60 <watchdog_reboot+0x3c>
10001e38:	400d86b7          	lui	a3,0x400d8
10001e3c:	b007c737          	lui	a4,0xb007c
10001e40:	0d370713          	addi	a4,a4,211 # b007c0d3 <__StackTop+0x8fffa0d3>
10001e44:	ced8                	sw	a4,28(a3)
10001e46:	4ff84737          	lui	a4,0x4ff84
10001e4a:	f2d70713          	addi	a4,a4,-211 # 4ff83f2d <__StackTop+0x2ff01f2d>
10001e4e:	8f3d                	xor	a4,a4,a5
10001e50:	d298                	sw	a4,32(a3)
10001e52:	d2cc                	sw	a1,36(a3)
10001e54:	d69c                	sw	a5,40(a3)
10001e56:	4581                	li	a1,0
10001e58:	3fa9                	jal	10001db2 <_watchdog_enable>
10001e5a:	40b2                	lw	ra,12(sp)
10001e5c:	0141                	addi	sp,sp,16
10001e5e:	8082                	ret
10001e60:	400d87b7          	lui	a5,0x400d8
10001e64:	0007ae23          	sw	zero,28(a5) # 400d801c <__StackTop+0x2005601c>
10001e68:	b7fd                	j	10001e56 <watchdog_reboot+0x32>

10001e6a <tick_start>:
10001e6a:	40108737          	lui	a4,0x40108
10001e6e:	20a527b3          	sh1add	a5,a0,a0
10001e72:	20e7c7b3          	sh2add	a5,a5,a4
10001e76:	c3cc                	sw	a1,4(a5)
10001e78:	853e                	mv	a0,a5
10001e7a:	4785                	li	a5,1
10001e7c:	c11c                	sw	a5,0(a0)
10001e7e:	8082                	ret

10001e80 <rom_reboot>:
10001e80:	1101                	addi	sp,sp,-32
10001e82:	ce06                	sw	ra,28(sp)
10001e84:	cc22                	sw	s0,24(sp)
10001e86:	ca26                	sw	s1,20(sp)
10001e88:	c84a                	sw	s2,16(sp)
10001e8a:	c64e                	sw	s3,12(sp)
10001e8c:	89aa                	mv	s3,a0
10001e8e:	892e                	mv	s2,a1
10001e90:	84b2                	mv	s1,a2
10001e92:	8436                	mv	s0,a3
10001e94:	67a1                	lui	a5,0x8
10001e96:	dfa7d783          	lhu	a5,-518(a5) # 7dfa <HeapSize+0x75fa>
10001e9a:	4585                	li	a1,1
10001e9c:	6511                	lui	a0,0x4
10001e9e:	25250513          	addi	a0,a0,594 # 4252 <HeapSize+0x3a52>
10001ea2:	9782                	jalr	a5
10001ea4:	87aa                	mv	a5,a0
10001ea6:	86a2                	mv	a3,s0
10001ea8:	8626                	mv	a2,s1
10001eaa:	85ca                	mv	a1,s2
10001eac:	854e                	mv	a0,s3
10001eae:	9782                	jalr	a5
10001eb0:	40f2                	lw	ra,28(sp)
10001eb2:	4462                	lw	s0,24(sp)
10001eb4:	44d2                	lw	s1,20(sp)
10001eb6:	4942                	lw	s2,16(sp)
10001eb8:	49b2                	lw	s3,12(sp)
10001eba:	6105                	addi	sp,sp,32
10001ebc:	8082                	ret

10001ebe <rom_func_lookup>:
10001ebe:	1141                	addi	sp,sp,-16
10001ec0:	c606                	sw	ra,12(sp)
10001ec2:	67a1                	lui	a5,0x8
10001ec4:	dfa7d783          	lhu	a5,-518(a5) # 7dfa <HeapSize+0x75fa>
10001ec8:	4585                	li	a1,1
10001eca:	9782                	jalr	a5
10001ecc:	40b2                	lw	ra,12(sp)
10001ece:	0141                	addi	sp,sp,16
10001ed0:	8082                	ret

10001ed2 <rom_reset_usb_boot_extra>:
10001ed2:	1141                	addi	sp,sp,-16
10001ed4:	c606                	sw	ra,12(sp)
10001ed6:	86aa                	mv	a3,a0
10001ed8:	00054763          	bltz	a0,10001ee6 <rom_reset_usb_boot_extra+0x14>
10001edc:	0205e793          	ori	a5,a1,32
10001ee0:	ca01                	beqz	a2,10001ef0 <rom_reset_usb_boot_extra+0x1e>
10001ee2:	0305e593          	ori	a1,a1,48
10001ee6:	862e                	mv	a2,a1
10001ee8:	45a9                	li	a1,10
10001eea:	10200513          	li	a0,258
10001eee:	3f49                	jal	10001e80 <rom_reboot>
10001ef0:	85be                	mv	a1,a5
10001ef2:	bfd5                	j	10001ee6 <rom_reset_usb_boot_extra+0x14>

10001ef4 <runtime_init_bootrom_locking_enable>:
10001ef4:	400e17b7          	lui	a5,0x400e1
10001ef8:	8287a783          	lw	a5,-2008(a5) # 400e0828 <__StackTop+0x2005e828>
10001efc:	dfe5                	beqz	a5,10001ef4 <runtime_init_bootrom_locking_enable>
10001efe:	0330000f          	fence	rw,rw
10001f02:	8082                	ret

10001f04 <boot_locks_reset>:
10001f04:	4701                	li	a4,0
10001f06:	a821                	j	10001f1e <boot_locks_reset+0x1a>
10001f08:	100387b7          	lui	a5,0x10038
10001f0c:	20378793          	addi	a5,a5,515 # 10038203 <__flash_binary_end+0x2bf17>
10001f10:	97ba                	add	a5,a5,a4
10001f12:	078a                	slli	a5,a5,0x2
10001f14:	0330000f          	fence	rw,rw
10001f18:	0007a023          	sw	zero,0(a5)
10001f1c:	0705                	addi	a4,a4,1 # 40108001 <__StackTop+0x20086001>
10001f1e:	479d                	li	a5,7
10001f20:	fee7f4e3          	bgeu	a5,a4,10001f08 <boot_locks_reset+0x4>
10001f24:	8082                	ret

10001f26 <runtime_init_boot_locks_reset>:
10001f26:	1141                	addi	sp,sp,-16
10001f28:	c606                	sw	ra,12(sp)
10001f2a:	3fe9                	jal	10001f04 <boot_locks_reset>
10001f2c:	40b2                	lw	ra,12(sp)
10001f2e:	0141                	addi	sp,sp,16
10001f30:	8082                	ret

10001f32 <xosc_init>:
10001f32:	40048737          	lui	a4,0x40048
10001f36:	6785                	lui	a5,0x1
10001f38:	aa078793          	addi	a5,a5,-1376 # aa0 <HeapSize+0x2a0>
10001f3c:	c31c                	sw	a5,0(a4)
10001f3e:	11a00793          	li	a5,282
10001f42:	c75c                	sw	a5,12(a4)
10001f44:	4004a7b7          	lui	a5,0x4004a
10001f48:	00fab737          	lui	a4,0xfab
10001f4c:	c398                	sw	a4,0(a5)
10001f4e:	400487b7          	lui	a5,0x40048
10001f52:	43dc                	lw	a5,4(a5)
10001f54:	fe07dde3          	bgez	a5,10001f4e <xosc_init+0x1c>
10001f58:	8082                	ret

10001f5a <runtime_run_initializers_from>:
10001f5a:	1141                	addi	sp,sp,-16
10001f5c:	c606                	sw	ra,12(sp)
10001f5e:	c422                	sw	s0,8(sp)
10001f60:	842a                	mv	s0,a0
10001f62:	a021                	j	10001f6a <runtime_run_initializers_from+0x10>
10001f64:	401c                	lw	a5,0(s0)
10001f66:	9782                	jalr	a5
10001f68:	0411                	addi	s0,s0,4
10001f6a:	100077b7          	lui	a5,0x10007
10001f6e:	79478793          	addi	a5,a5,1940 # 10007794 <__init_array_start>
10001f72:	fef469e3          	bltu	s0,a5,10001f64 <runtime_run_initializers_from+0xa>
10001f76:	40b2                	lw	ra,12(sp)
10001f78:	4422                	lw	s0,8(sp)
10001f7a:	0141                	addi	sp,sp,16
10001f7c:	8082                	ret

10001f7e <first_per_core_initializer>:
10001f7e:	8082                	ret

10001f80 <runtime_run_initializers>:
10001f80:	1141                	addi	sp,sp,-16
10001f82:	c606                	sw	ra,12(sp)
10001f84:	10007537          	lui	a0,0x10007
10001f88:	75c50513          	addi	a0,a0,1884 # 1000775c <__pre_init_runtime_init_bootrom_reset>
10001f8c:	37f9                	jal	10001f5a <runtime_run_initializers_from>
10001f8e:	40b2                	lw	ra,12(sp)
10001f90:	0141                	addi	sp,sp,16
10001f92:	8082                	ret

10001f94 <runtime_init_early_resets>:
10001f94:	40022737          	lui	a4,0x40022
10001f98:	efef47b7          	lui	a5,0xefef4
10001f9c:	b7f78793          	addi	a5,a5,-1153 # efef3b7f <__StackTop+0xcfe71b7f>
10001fa0:	c31c                	sw	a5,0(a4)
10001fa2:	40023737          	lui	a4,0x40023
10001fa6:	03f407b7          	lui	a5,0x3f40
10001faa:	17d9                	addi	a5,a5,-10 # 3f3fff6 <HeapSize+0x3f3f7f6>
10001fac:	c31c                	sw	a5,0(a4)
10001fae:	400207b7          	lui	a5,0x40020
10001fb2:	479c                	lw	a5,8(a5)
10001fb4:	03f40737          	lui	a4,0x3f40
10001fb8:	1759                	addi	a4,a4,-10 # 3f3fff6 <HeapSize+0x3f3f7f6>
10001fba:	40f777b3          	andn	a5,a4,a5
10001fbe:	fbe5                	bnez	a5,10001fae <runtime_init_early_resets+0x1a>
10001fc0:	8082                	ret

10001fc2 <runtime_init_usb_power_down>:
10001fc2:	501107b7          	lui	a5,0x50110
10001fc6:	47f8                	lw	a4,76(a5)
10001fc8:	67a1                	lui	a5,0x8
10001fca:	00f70363          	beq	a4,a5,10001fd0 <runtime_init_usb_power_down+0xe>
10001fce:	8082                	ret
10001fd0:	501127b7          	lui	a5,0x50112
10001fd4:	00040737          	lui	a4,0x40
10001fd8:	c7f8                	sw	a4,76(a5)
10001fda:	8082                	ret

10001fdc <runtime_init_post_clock_resets>:
10001fdc:	40023737          	lui	a4,0x40023
10001fe0:	200007b7          	lui	a5,0x20000
10001fe4:	17fd                	addi	a5,a5,-1 # 1fffffff <__flash_binary_end+0xfff3d13>
10001fe6:	c31c                	sw	a5,0(a4)
10001fe8:	400207b7          	lui	a5,0x40020
10001fec:	479c                	lw	a5,8(a5)
10001fee:	20000737          	lui	a4,0x20000
10001ff2:	177d                	addi	a4,a4,-1 # 1fffffff <__flash_binary_end+0xfff3d13>
10001ff4:	40f777b3          	andn	a5,a4,a5
10001ff8:	fbe5                	bnez	a5,10001fe8 <runtime_init_post_clock_resets+0xc>
10001ffa:	8082                	ret

10001ffc <runtime_init_bootrom_reset>:
10001ffc:	1141                	addi	sp,sp,-16
10001ffe:	c606                	sw	ra,12(sp)
10002000:	6515                	lui	a0,0x5
10002002:	25350513          	addi	a0,a0,595 # 5253 <HeapSize+0x4a53>
10002006:	3d65                	jal	10001ebe <rom_func_lookup>
10002008:	87aa                	mv	a5,a0
1000200a:	4511                	li	a0,4
1000200c:	9782                	jalr	a5
1000200e:	40b2                	lw	ra,12(sp)
10002010:	0141                	addi	sp,sp,16
10002012:	8082                	ret

10002014 <runtime_init_per_core_bootrom_reset>:
10002014:	1141                	addi	sp,sp,-16
10002016:	c606                	sw	ra,12(sp)
10002018:	6515                	lui	a0,0x5
1000201a:	25350513          	addi	a0,a0,595 # 5253 <HeapSize+0x4a53>
1000201e:	3545                	jal	10001ebe <rom_func_lookup>
10002020:	87aa                	mv	a5,a0
10002022:	4505                	li	a0,1
10002024:	9782                	jalr	a5
10002026:	40b2                	lw	ra,12(sp)
10002028:	0141                	addi	sp,sp,16
1000202a:	8082                	ret

1000202c <runtime_init_spin_locks_reset>:
1000202c:	1141                	addi	sp,sp,-16
1000202e:	c606                	sw	ra,12(sp)
10002030:	885fe0ef          	jal	100008b4 <spin_locks_reset>
10002034:	40b2                	lw	ra,12(sp)
10002036:	0141                	addi	sp,sp,16
10002038:	8082                	ret

1000203a <start_all_ticks>:
1000203a:	1141                	addi	sp,sp,-16
1000203c:	c606                	sw	ra,12(sp)
1000203e:	c422                	sw	s0,8(sp)
10002040:	c226                	sw	s1,4(sp)
10002042:	4511                	li	a0,4
10002044:	3129                	jal	10001c4e <clock_get_hz>
10002046:	431be7b7          	lui	a5,0x431be
1000204a:	e8378793          	addi	a5,a5,-381 # 431bde83 <__StackTop+0x2313be83>
1000204e:	02f534b3          	mulhu	s1,a0,a5
10002052:	80c9                	srli	s1,s1,0x12
10002054:	4401                	li	s0,0
10002056:	a029                	j	10002060 <start_all_ticks+0x26>
10002058:	85a6                	mv	a1,s1
1000205a:	8522                	mv	a0,s0
1000205c:	3539                	jal	10001e6a <tick_start>
1000205e:	0405                	addi	s0,s0,1
10002060:	4795                	li	a5,5
10002062:	fe87dbe3          	bge	a5,s0,10002058 <start_all_ticks+0x1e>
10002066:	40b2                	lw	ra,12(sp)
10002068:	4422                	lw	s0,8(sp)
1000206a:	4492                	lw	s1,4(sp)
1000206c:	0141                	addi	sp,sp,16
1000206e:	8082                	ret

10002070 <runtime_init_clocks>:
10002070:	1141                	addi	sp,sp,-16
10002072:	c606                	sw	ra,12(sp)
10002074:	400107b7          	lui	a5,0x40010
10002078:	0807a223          	sw	zero,132(a5) # 40010084 <__StackTop+0x1ff8e084>
1000207c:	3d5d                	jal	10001f32 <xosc_init>
1000207e:	400137b7          	lui	a5,0x40013
10002082:	4705                	li	a4,1
10002084:	dfd8                	sw	a4,60(a5)
10002086:	400107b7          	lui	a5,0x40010
1000208a:	43f8                	lw	a4,68(a5)
1000208c:	4785                	li	a5,1
1000208e:	fef71ce3          	bne	a4,a5,10002086 <runtime_init_clocks+0x16>
10002092:	400137b7          	lui	a5,0x40013
10002096:	470d                	li	a4,3
10002098:	db98                	sw	a4,48(a5)
1000209a:	400107b7          	lui	a5,0x40010
1000209e:	5f98                	lw	a4,56(a5)
100020a0:	4785                	li	a5,1
100020a2:	fef71ce3          	bne	a4,a5,1000209a <runtime_init_clocks+0x2a>
100020a6:	4709                	li	a4,2
100020a8:	4695                	li	a3,5
100020aa:	59683637          	lui	a2,0x59683
100020ae:	f0060613          	addi	a2,a2,-256 # 59682f00 <__StackTop+0x39600f00>
100020b2:	85be                	mv	a1,a5
100020b4:	40050537          	lui	a0,0x40050
100020b8:	365d                	jal	10001c5e <pll_init>
100020ba:	4715                	li	a4,5
100020bc:	86ba                	mv	a3,a4
100020be:	47869637          	lui	a2,0x47869
100020c2:	c0060613          	addi	a2,a2,-1024 # 47868c00 <__StackTop+0x277e6c00>
100020c6:	4585                	li	a1,1
100020c8:	40058537          	lui	a0,0x40058
100020cc:	3e49                	jal	10001c5e <pll_init>
100020ce:	00b726b7          	lui	a3,0xb72
100020d2:	b0068693          	addi	a3,a3,-1280 # b71b00 <HeapSize+0xb71300>
100020d6:	4601                	li	a2,0
100020d8:	4589                	li	a1,2
100020da:	4511                	li	a0,4
100020dc:	3695                	jal	10001c40 <clock_configure_undivided>
100020de:	08f0d6b7          	lui	a3,0x8f0d
100020e2:	18068693          	addi	a3,a3,384 # 8f0d180 <HeapSize+0x8f0c980>
100020e6:	4601                	li	a2,0
100020e8:	4585                	li	a1,1
100020ea:	4515                	li	a0,5
100020ec:	3e91                	jal	10001c40 <clock_configure_undivided>
100020ee:	02dc76b7          	lui	a3,0x2dc7
100020f2:	c0068693          	addi	a3,a3,-1024 # 2dc6c00 <HeapSize+0x2dc6400>
100020f6:	4601                	li	a2,0
100020f8:	4581                	li	a1,0
100020fa:	4521                	li	a0,8
100020fc:	3691                	jal	10001c40 <clock_configure_undivided>
100020fe:	02dc76b7          	lui	a3,0x2dc7
10002102:	c0068693          	addi	a3,a3,-1024 # 2dc6c00 <HeapSize+0x2dc6400>
10002106:	4601                	li	a2,0
10002108:	4581                	li	a1,0
1000210a:	4525                	li	a0,9
1000210c:	3e15                	jal	10001c40 <clock_configure_undivided>
1000210e:	08f0d6b7          	lui	a3,0x8f0d
10002112:	18068693          	addi	a3,a3,384 # 8f0d180 <HeapSize+0x8f0c980>
10002116:	4601                	li	a2,0
10002118:	4581                	li	a1,0
1000211a:	4519                	li	a0,6
1000211c:	3615                	jal	10001c40 <clock_configure_undivided>
1000211e:	08f0d6b7          	lui	a3,0x8f0d
10002122:	18068693          	addi	a3,a3,384 # 8f0d180 <HeapSize+0x8f0c980>
10002126:	4601                	li	a2,0
10002128:	4581                	li	a1,0
1000212a:	451d                	li	a0,7
1000212c:	3e11                	jal	10001c40 <clock_configure_undivided>
1000212e:	3731                	jal	1000203a <start_all_ticks>
10002130:	40b2                	lw	ra,12(sp)
10002132:	0141                	addi	sp,sp,16
10002134:	8082                	ret

10002136 <_out_buffer>:
10002136:	00d67563          	bgeu	a2,a3,10002140 <_out_buffer+0xa>
1000213a:	95b2                	add	a1,a1,a2
1000213c:	00a58023          	sb	a0,0(a1) # 80000000 <__StackTop+0x5ff7e000>
10002140:	8082                	ret

10002142 <_out_null>:
10002142:	8082                	ret

10002144 <_out_fct>:
10002144:	c909                	beqz	a0,10002156 <_out_fct+0x12>
10002146:	1141                	addi	sp,sp,-16
10002148:	c606                	sw	ra,12(sp)
1000214a:	419c                	lw	a5,0(a1)
1000214c:	41cc                	lw	a1,4(a1)
1000214e:	9782                	jalr	a5
10002150:	40b2                	lw	ra,12(sp)
10002152:	0141                	addi	sp,sp,16
10002154:	8082                	ret
10002156:	8082                	ret

10002158 <_atoi>:
10002158:	86aa                	mv	a3,a0
1000215a:	4501                	li	a0,0
1000215c:	a821                	j	10002174 <_atoi+0x1c>
1000215e:	20a54533          	sh2add	a0,a0,a0
10002162:	00170793          	addi	a5,a4,1
10002166:	c29c                	sw	a5,0(a3)
10002168:	00074783          	lbu	a5,0(a4)
1000216c:	20f52533          	sh1add	a0,a0,a5
10002170:	fd050513          	addi	a0,a0,-48 # 40057fd0 <__StackTop+0x1ffd5fd0>
10002174:	4298                	lw	a4,0(a3)
10002176:	00074783          	lbu	a5,0(a4)
1000217a:	fd078793          	addi	a5,a5,-48 # 4000ffd0 <__StackTop+0x1ff8dfd0>
1000217e:	0ff7f793          	zext.b	a5,a5
10002182:	4625                	li	a2,9
10002184:	fcf67de3          	bgeu	a2,a5,1000215e <_atoi+0x6>
10002188:	8082                	ret

1000218a <_out_rev>:
1000218a:	7179                	addi	sp,sp,-48
1000218c:	d606                	sw	ra,44(sp)
1000218e:	d422                	sw	s0,40(sp)
10002190:	d226                	sw	s1,36(sp)
10002192:	d04a                	sw	s2,32(sp)
10002194:	ce4e                	sw	s3,28(sp)
10002196:	cc52                	sw	s4,24(sp)
10002198:	ca56                	sw	s5,20(sp)
1000219a:	c85a                	sw	s6,16(sp)
1000219c:	c65e                	sw	s7,12(sp)
1000219e:	c462                	sw	s8,8(sp)
100021a0:	84aa                	mv	s1,a0
100021a2:	892e                	mv	s2,a1
100021a4:	8bb2                	mv	s7,a2
100021a6:	89b6                	mv	s3,a3
100021a8:	8aba                	mv	s5,a4
100021aa:	843e                	mv	s0,a5
100021ac:	8b42                	mv	s6,a6
100021ae:	0028fc13          	andi	s8,a7,2
100021b2:	040c1163          	bnez	s8,100021f4 <_out_rev+0x6a>
100021b6:	0018f893          	andi	a7,a7,1
100021ba:	02089d63          	bnez	a7,100021f4 <_out_rev+0x6a>
100021be:	c266                	sw	s9,4(sp)
100021c0:	8a3e                	mv	s4,a5
100021c2:	a811                	j	100021d6 <_out_rev+0x4c>
100021c4:	00160c93          	addi	s9,a2,1
100021c8:	86ce                	mv	a3,s3
100021ca:	85ca                	mv	a1,s2
100021cc:	02000513          	li	a0,32
100021d0:	9482                	jalr	s1
100021d2:	0a05                	addi	s4,s4,1
100021d4:	8666                	mv	a2,s9
100021d6:	ff6a67e3          	bltu	s4,s6,100021c4 <_out_rev+0x3a>
100021da:	4c92                	lw	s9,4(sp)
100021dc:	a821                	j	100021f4 <_out_rev+0x6a>
100021de:	147d                	addi	s0,s0,-1
100021e0:	008a87b3          	add	a5,s5,s0
100021e4:	00160a13          	addi	s4,a2,1
100021e8:	86ce                	mv	a3,s3
100021ea:	85ca                	mv	a1,s2
100021ec:	0007c503          	lbu	a0,0(a5)
100021f0:	9482                	jalr	s1
100021f2:	8652                	mv	a2,s4
100021f4:	f46d                	bnez	s0,100021de <_out_rev+0x54>
100021f6:	020c1763          	bnez	s8,10002224 <_out_rev+0x9a>
100021fa:	8532                	mv	a0,a2
100021fc:	50b2                	lw	ra,44(sp)
100021fe:	5422                	lw	s0,40(sp)
10002200:	5492                	lw	s1,36(sp)
10002202:	5902                	lw	s2,32(sp)
10002204:	49f2                	lw	s3,28(sp)
10002206:	4a62                	lw	s4,24(sp)
10002208:	4ad2                	lw	s5,20(sp)
1000220a:	4b42                	lw	s6,16(sp)
1000220c:	4bb2                	lw	s7,12(sp)
1000220e:	4c22                	lw	s8,8(sp)
10002210:	6145                	addi	sp,sp,48
10002212:	8082                	ret
10002214:	00160413          	addi	s0,a2,1
10002218:	86ce                	mv	a3,s3
1000221a:	85ca                	mv	a1,s2
1000221c:	02000513          	li	a0,32
10002220:	9482                	jalr	s1
10002222:	8622                	mv	a2,s0
10002224:	417607b3          	sub	a5,a2,s7
10002228:	ff67e6e3          	bltu	a5,s6,10002214 <_out_rev+0x8a>
1000222c:	b7f9                	j	100021fa <_out_rev+0x70>

1000222e <_ntoa_format>:
1000222e:	1141                	addi	sp,sp,-16
10002230:	c606                	sw	ra,12(sp)
10002232:	8fc2                	mv	t6,a6
10002234:	8ec6                	mv	t4,a7
10002236:	4f42                	lw	t5,16(sp)
10002238:	4852                	lw	a6,20(sp)
1000223a:	48e2                	lw	a7,24(sp)
1000223c:	0028f313          	andi	t1,a7,2
10002240:	04031f63          	bnez	t1,1000229e <_ntoa_format+0x70>
10002244:	02080563          	beqz	a6,1000226e <_ntoa_format+0x40>
10002248:	0018f313          	andi	t1,a7,1
1000224c:	02030163          	beqz	t1,1000226e <_ntoa_format+0x40>
10002250:	000f9663          	bnez	t6,1000225c <_ntoa_format+0x2e>
10002254:	00c8f313          	andi	t1,a7,12
10002258:	00030b63          	beqz	t1,1000226e <_ntoa_format+0x40>
1000225c:	187d                	addi	a6,a6,-1
1000225e:	a801                	j	1000226e <_ntoa_format+0x40>
10002260:	00f70333          	add	t1,a4,a5
10002264:	03000e13          	li	t3,48
10002268:	01c30023          	sb	t3,0(t1)
1000226c:	0785                	addi	a5,a5,1
1000226e:	0207b313          	sltiu	t1,a5,32
10002272:	01e7f463          	bgeu	a5,t5,1000227a <_ntoa_format+0x4c>
10002276:	fe0315e3          	bnez	t1,10002260 <_ntoa_format+0x32>
1000227a:	0018f313          	andi	t1,a7,1
1000227e:	02030063          	beqz	t1,1000229e <_ntoa_format+0x70>
10002282:	0207b313          	sltiu	t1,a5,32
10002286:	0107fc63          	bgeu	a5,a6,1000229e <_ntoa_format+0x70>
1000228a:	00030a63          	beqz	t1,1000229e <_ntoa_format+0x70>
1000228e:	00f70333          	add	t1,a4,a5
10002292:	03000e13          	li	t3,48
10002296:	01c30023          	sb	t3,0(t1)
1000229a:	0785                	addi	a5,a5,1
1000229c:	bff9                	j	1000227a <_ntoa_format+0x4c>
1000229e:	0108f313          	andi	t1,a7,16
100022a2:	08030d63          	beqz	t1,1000233c <_ntoa_format+0x10e>
100022a6:	4008f313          	andi	t1,a7,1024
100022aa:	04031c63          	bnez	t1,10002302 <_ntoa_format+0xd4>
100022ae:	cbb1                	beqz	a5,10002302 <_ntoa_format+0xd4>
100022b0:	41e78333          	sub	t1,a5,t5
100022b4:	00133313          	seqz	t1,t1
100022b8:	41078e33          	sub	t3,a5,a6
100022bc:	001e3e13          	seqz	t3,t3
100022c0:	01c36333          	or	t1,t1,t3
100022c4:	02030f63          	beqz	t1,10002302 <_ntoa_format+0xd4>
100022c8:	fff78f13          	addi	t5,a5,-1
100022cc:	01e03333          	snez	t1,t5
100022d0:	ff0e8e13          	addi	t3,t4,-16
100022d4:	001e3e13          	seqz	t3,t3
100022d8:	01c37333          	and	t1,t1,t3
100022dc:	02030263          	beqz	t1,10002300 <_ntoa_format+0xd2>
100022e0:	17f9                	addi	a5,a5,-2
100022e2:	0208f313          	andi	t1,a7,32
100022e6:	06031b63          	bnez	t1,1000235c <_ntoa_format+0x12e>
100022ea:	4e7d                	li	t3,31
100022ec:	06fe6863          	bltu	t3,a5,1000235c <_ntoa_format+0x12e>
100022f0:	00f70333          	add	t1,a4,a5
100022f4:	07800e13          	li	t3,120
100022f8:	01c30023          	sb	t3,0(t1)
100022fc:	0785                	addi	a5,a5,1
100022fe:	a02d                	j	10002328 <_ntoa_format+0xfa>
10002300:	87fa                	mv	a5,t5
10002302:	4341                	li	t1,16
10002304:	fc6e8fe3          	beq	t4,t1,100022e2 <_ntoa_format+0xb4>
10002308:	1ef9                	addi	t4,t4,-2
1000230a:	001ebe93          	seqz	t4,t4
1000230e:	0207b313          	sltiu	t1,a5,32
10002312:	006efeb3          	and	t4,t4,t1
10002316:	000e8963          	beqz	t4,10002328 <_ntoa_format+0xfa>
1000231a:	00f70333          	add	t1,a4,a5
1000231e:	06200e13          	li	t3,98
10002322:	01c30023          	sb	t3,0(t1)
10002326:	0785                	addi	a5,a5,1
10002328:	437d                	li	t1,31
1000232a:	02f36563          	bltu	t1,a5,10002354 <_ntoa_format+0x126>
1000232e:	00f70333          	add	t1,a4,a5
10002332:	03000e13          	li	t3,48
10002336:	01c30023          	sb	t3,0(t1)
1000233a:	0785                	addi	a5,a5,1
1000233c:	437d                	li	t1,31
1000233e:	00f36b63          	bltu	t1,a5,10002354 <_ntoa_format+0x126>
10002342:	020f8d63          	beqz	t6,1000237c <_ntoa_format+0x14e>
10002346:	00f70333          	add	t1,a4,a5
1000234a:	02d00e13          	li	t3,45
1000234e:	01c30023          	sb	t3,0(t1)
10002352:	0785                	addi	a5,a5,1
10002354:	3d1d                	jal	1000218a <_out_rev>
10002356:	40b2                	lw	ra,12(sp)
10002358:	0141                	addi	sp,sp,16
1000235a:	8082                	ret
1000235c:	4e41                	li	t3,16
1000235e:	fbce95e3          	bne	t4,t3,10002308 <_ntoa_format+0xda>
10002362:	fa0303e3          	beqz	t1,10002308 <_ntoa_format+0xda>
10002366:	437d                	li	t1,31
10002368:	faf360e3          	bltu	t1,a5,10002308 <_ntoa_format+0xda>
1000236c:	00f70333          	add	t1,a4,a5
10002370:	05800e13          	li	t3,88
10002374:	01c30023          	sb	t3,0(t1)
10002378:	0785                	addi	a5,a5,1
1000237a:	b77d                	j	10002328 <_ntoa_format+0xfa>
1000237c:	0048f313          	andi	t1,a7,4
10002380:	00030a63          	beqz	t1,10002394 <_ntoa_format+0x166>
10002384:	00f70333          	add	t1,a4,a5
10002388:	02b00e13          	li	t3,43
1000238c:	01c30023          	sb	t3,0(t1)
10002390:	0785                	addi	a5,a5,1
10002392:	b7c9                	j	10002354 <_ntoa_format+0x126>
10002394:	0088f313          	andi	t1,a7,8
10002398:	fa030ee3          	beqz	t1,10002354 <_ntoa_format+0x126>
1000239c:	00f70333          	add	t1,a4,a5
100023a0:	02000e13          	li	t3,32
100023a4:	01c30023          	sb	t3,0(t1)
100023a8:	0785                	addi	a5,a5,1
100023aa:	b76d                	j	10002354 <_ntoa_format+0x126>

100023ac <_ntoa_long>:
100023ac:	7139                	addi	sp,sp,-64
100023ae:	de06                	sw	ra,60(sp)
100023b0:	8fbe                	mv	t6,a5
100023b2:	4f16                	lw	t5,68(sp)
100023b4:	e319                	bnez	a4,100023ba <_ntoa_long+0xe>
100023b6:	feff7f13          	andi	t5,t5,-17
100023ba:	400f7e93          	andi	t4,t5,1024
100023be:	040e8363          	beqz	t4,10002404 <_ntoa_long+0x58>
100023c2:	c325                	beqz	a4,10002422 <_ntoa_long+0x76>
100023c4:	4e81                	li	t4,0
100023c6:	a83d                	j	10002404 <_ntoa_long+0x58>
100023c8:	020f7313          	andi	t1,t5,32
100023cc:	04030863          	beqz	t1,1000241c <_ntoa_long+0x70>
100023d0:	04100313          	li	t1,65
100023d4:	9372                	add	t1,t1,t3
100023d6:	0ff37313          	zext.b	t1,t1
100023da:	1359                	addi	t1,t1,-10
100023dc:	0ff37313          	zext.b	t1,t1
100023e0:	001e8793          	addi	a5,t4,1
100023e4:	030e8e13          	addi	t3,t4,48
100023e8:	002e0eb3          	add	t4,t3,sp
100023ec:	fe6e8023          	sb	t1,-32(t4)
100023f0:	03075e33          	divu	t3,a4,a6
100023f4:	0207b313          	sltiu	t1,a5,32
100023f8:	03076663          	bltu	a4,a6,10002424 <_ntoa_long+0x78>
100023fc:	02030463          	beqz	t1,10002424 <_ntoa_long+0x78>
10002400:	8ebe                	mv	t4,a5
10002402:	8772                	mv	a4,t3
10002404:	03077e33          	remu	t3,a4,a6
10002408:	0ffe7e13          	zext.b	t3,t3
1000240c:	4325                	li	t1,9
1000240e:	fbc36de3          	bltu	t1,t3,100023c8 <_ntoa_long+0x1c>
10002412:	030e0e13          	addi	t3,t3,48
10002416:	0ffe7313          	zext.b	t1,t3
1000241a:	b7d9                	j	100023e0 <_ntoa_long+0x34>
1000241c:	06100313          	li	t1,97
10002420:	bf55                	j	100023d4 <_ntoa_long+0x28>
10002422:	87ba                	mv	a5,a4
10002424:	c47a                	sw	t5,8(sp)
10002426:	4706                	lw	a4,64(sp)
10002428:	c23a                	sw	a4,4(sp)
1000242a:	c046                	sw	a7,0(sp)
1000242c:	88c2                	mv	a7,a6
1000242e:	887e                	mv	a6,t6
10002430:	0818                	addi	a4,sp,16
10002432:	3bf5                	jal	1000222e <_ntoa_format>
10002434:	50f2                	lw	ra,60(sp)
10002436:	6121                	addi	sp,sp,64
10002438:	8082                	ret

1000243a <_ntoa_long_long>:
1000243a:	7119                	addi	sp,sp,-128
1000243c:	d686                	sw	ra,108(sp)
1000243e:	d4a2                	sw	s0,104(sp)
10002440:	d2a6                	sw	s1,100(sp)
10002442:	d0ca                	sw	s2,96(sp)
10002444:	cece                	sw	s3,92(sp)
10002446:	ccd2                	sw	s4,88(sp)
10002448:	cad6                	sw	s5,84(sp)
1000244a:	c8da                	sw	s6,80(sp)
1000244c:	c6de                	sw	s7,76(sp)
1000244e:	c4e2                	sw	s8,72(sp)
10002450:	c2e6                	sw	s9,68(sp)
10002452:	c0ea                	sw	s10,64(sp)
10002454:	de6e                	sw	s11,60(sp)
10002456:	8baa                	mv	s7,a0
10002458:	8c2e                	mv	s8,a1
1000245a:	8cb2                	mv	s9,a2
1000245c:	8d36                	mv	s10,a3
1000245e:	893a                	mv	s2,a4
10002460:	84be                	mv	s1,a5
10002462:	8dc2                	mv	s11,a6
10002464:	dec6                	sw	a7,124(sp)
10002466:	8ac6                	mv	s5,a7
10002468:	498a                	lw	s3,128(sp)
1000246a:	4b3a                	lw	s6,140(sp)
1000246c:	8fd9                	or	a5,a5,a4
1000246e:	e399                	bnez	a5,10002474 <_ntoa_long_long+0x3a>
10002470:	fefb7b13          	andi	s6,s6,-17
10002474:	400b7413          	andi	s0,s6,1024
10002478:	cc1d                	beqz	s0,100024b6 <_ntoa_long_long+0x7c>
1000247a:	009967b3          	or	a5,s2,s1
1000247e:	c7c9                	beqz	a5,10002508 <_ntoa_long_long+0xce>
10002480:	4401                	li	s0,0
10002482:	a815                	j	100024b6 <_ntoa_long_long+0x7c>
10002484:	020b7793          	andi	a5,s6,32
10002488:	cb91                	beqz	a5,1000249c <_ntoa_long_long+0x62>
1000248a:	04100793          	li	a5,65
1000248e:	97aa                	add	a5,a5,a0
10002490:	0ff7f793          	zext.b	a5,a5
10002494:	17d9                	addi	a5,a5,-10
10002496:	0ff7f793          	zext.b	a5,a5
1000249a:	a83d                	j	100024d8 <_ntoa_long_long+0x9e>
1000249c:	06100793          	li	a5,97
100024a0:	b7fd                	j	1000248e <_ntoa_long_long+0x54>
100024a2:	4781                	li	a5,0
100024a4:	0ff7f793          	zext.b	a5,a5
100024a8:	020a3713          	sltiu	a4,s4,32
100024ac:	cfb9                	beqz	a5,1000250a <_ntoa_long_long+0xd0>
100024ae:	cf31                	beqz	a4,1000250a <_ntoa_long_long+0xd0>
100024b0:	8452                	mv	s0,s4
100024b2:	892a                	mv	s2,a0
100024b4:	84ae                	mv	s1,a1
100024b6:	8656                	mv	a2,s5
100024b8:	86ce                	mv	a3,s3
100024ba:	854a                	mv	a0,s2
100024bc:	85a6                	mv	a1,s1
100024be:	0ffff097          	auipc	ra,0xffff
100024c2:	9a0080e7          	jalr	-1632(ra) # 20000e5e <__umoddi3>
100024c6:	0ff57513          	zext.b	a0,a0
100024ca:	47a5                	li	a5,9
100024cc:	faa7ece3          	bltu	a5,a0,10002484 <_ntoa_long_long+0x4a>
100024d0:	03050513          	addi	a0,a0,48
100024d4:	0ff57793          	zext.b	a5,a0
100024d8:	00140a13          	addi	s4,s0,1
100024dc:	03040713          	addi	a4,s0,48
100024e0:	00270433          	add	s0,a4,sp
100024e4:	fef40023          	sb	a5,-32(s0)
100024e8:	8656                	mv	a2,s5
100024ea:	86ce                	mv	a3,s3
100024ec:	854a                	mv	a0,s2
100024ee:	85a6                	mv	a1,s1
100024f0:	0fffe097          	auipc	ra,0xfffe
100024f4:	600080e7          	jalr	1536(ra) # 20000af0 <__udivdi3>
100024f8:	4785                	li	a5,1
100024fa:	fb34e4e3          	bltu	s1,s3,100024a2 <_ntoa_long_long+0x68>
100024fe:	fa9993e3          	bne	s3,s1,100024a4 <_ntoa_long_long+0x6a>
10002502:	fb5971e3          	bgeu	s2,s5,100024a4 <_ntoa_long_long+0x6a>
10002506:	bf71                	j	100024a2 <_ntoa_long_long+0x68>
10002508:	4a01                	li	s4,0
1000250a:	c45a                	sw	s6,8(sp)
1000250c:	47aa                	lw	a5,136(sp)
1000250e:	c23e                	sw	a5,4(sp)
10002510:	479a                	lw	a5,132(sp)
10002512:	c03e                	sw	a5,0(sp)
10002514:	88d6                	mv	a7,s5
10002516:	886e                	mv	a6,s11
10002518:	87d2                	mv	a5,s4
1000251a:	0818                	addi	a4,sp,16
1000251c:	86ea                	mv	a3,s10
1000251e:	8666                	mv	a2,s9
10002520:	85e2                	mv	a1,s8
10002522:	855e                	mv	a0,s7
10002524:	3329                	jal	1000222e <_ntoa_format>
10002526:	50b6                	lw	ra,108(sp)
10002528:	5426                	lw	s0,104(sp)
1000252a:	5496                	lw	s1,100(sp)
1000252c:	5906                	lw	s2,96(sp)
1000252e:	49f6                	lw	s3,92(sp)
10002530:	4a66                	lw	s4,88(sp)
10002532:	4ad6                	lw	s5,84(sp)
10002534:	4b46                	lw	s6,80(sp)
10002536:	4bb6                	lw	s7,76(sp)
10002538:	4c26                	lw	s8,72(sp)
1000253a:	4c96                	lw	s9,68(sp)
1000253c:	4d06                	lw	s10,64(sp)
1000253e:	5df2                	lw	s11,60(sp)
10002540:	6109                	addi	sp,sp,128
10002542:	8082                	ret

10002544 <_etoa>:
10002544:	7159                	addi	sp,sp,-112
10002546:	d686                	sw	ra,108(sp)
10002548:	d4a2                	sw	s0,104(sp)
1000254a:	d2a6                	sw	s1,100(sp)
1000254c:	d0ca                	sw	s2,96(sp)
1000254e:	cece                	sw	s3,92(sp)
10002550:	842a                	mv	s0,a0
10002552:	ca2e                	sw	a1,20(sp)
10002554:	ce32                	sw	a2,28(sp)
10002556:	cc36                	sw	a3,24(sp)
10002558:	89ba                	mv	s3,a4
1000255a:	d03a                	sw	a4,32(sp)
1000255c:	893e                	mv	s2,a5
1000255e:	d23e                	sw	a5,36(sp)
10002560:	d442                	sw	a6,40(sp)
10002562:	84c6                	mv	s1,a7
10002564:	864e                	mv	a2,s3
10002566:	86ca                	mv	a3,s2
10002568:	854e                	mv	a0,s3
1000256a:	85ca                	mv	a1,s2
1000256c:	10001097          	auipc	ra,0x10001
10002570:	cc2080e7          	jalr	-830(ra) # 2000322e <__unorddf2>
10002574:	2c051f63          	bnez	a0,10002852 <_etoa+0x30e>
10002578:	100097b7          	lui	a5,0x10009
1000257c:	9f07a603          	lw	a2,-1552(a5) # 100089f0 <__func__.5+0x14>
10002580:	9f47a683          	lw	a3,-1548(a5)
10002584:	854e                	mv	a0,s3
10002586:	85ca                	mv	a1,s2
10002588:	10000097          	auipc	ra,0x10000
1000258c:	c22080e7          	jalr	-990(ra) # 200021aa <__gedf2>
10002590:	2ca04163          	bgtz	a0,10002852 <_etoa+0x30e>
10002594:	100097b7          	lui	a5,0x10009
10002598:	9f87a603          	lw	a2,-1544(a5) # 100089f8 <__func__.5+0x1c>
1000259c:	9fc7a683          	lw	a3,-1540(a5)
100025a0:	854e                	mv	a0,s3
100025a2:	85ca                	mv	a1,s2
100025a4:	10000097          	auipc	ra,0x10000
100025a8:	cde080e7          	jalr	-802(ra) # 20002282 <__ledf2>
100025ac:	2a054363          	bltz	a0,10002852 <_etoa+0x30e>
100025b0:	ccd2                	sw	s4,88(sp)
100025b2:	cad6                	sw	s5,84(sp)
100025b4:	c8da                	sw	s6,80(sp)
100025b6:	c6de                	sw	s7,76(sp)
100025b8:	c4e2                	sw	s8,72(sp)
100025ba:	c2e6                	sw	s9,68(sp)
100025bc:	de6e                	sw	s11,60(sp)
100025be:	4601                	li	a2,0
100025c0:	4681                	li	a3,0
100025c2:	5902                	lw	s2,32(sp)
100025c4:	5992                	lw	s3,36(sp)
100025c6:	854a                	mv	a0,s2
100025c8:	85ce                	mv	a1,s3
100025ca:	10000097          	auipc	ra,0x10000
100025ce:	cb8080e7          	jalr	-840(ra) # 20002282 <__ledf2>
100025d2:	2a054463          	bltz	a0,1000287a <_etoa+0x336>
100025d6:	5782                	lw	a5,32(sp)
100025d8:	8bbe                	mv	s7,a5
100025da:	5792                	lw	a5,36(sp)
100025dc:	8dbe                	mv	s11,a5
100025de:	57c6                	lw	a5,112(sp)
100025e0:	4007f793          	andi	a5,a5,1024
100025e4:	d63e                	sw	a5,44(sp)
100025e6:	e399                	bnez	a5,100025ec <_etoa+0xa8>
100025e8:	4799                	li	a5,6
100025ea:	d43e                	sw	a5,40(sp)
100025ec:	8ade                	mv	s5,s7
100025ee:	8b6e                	mv	s6,s11
100025f0:	01bbe7b3          	or	a5,s7,s11
100025f4:	28078863          	beqz	a5,10002884 <_etoa+0x340>
100025f8:	c0ea                	sw	s10,64(sp)
100025fa:	014dd513          	srli	a0,s11,0x14
100025fe:	7ff57513          	andi	a0,a0,2047
10002602:	001007b7          	lui	a5,0x100
10002606:	17fd                	addi	a5,a5,-1 # fffff <HeapSize+0xff7ff>
10002608:	00fdf7b3          	and	a5,s11,a5
1000260c:	3ff00737          	lui	a4,0x3ff00
10002610:	00e7e933          	or	s2,a5,a4
10002614:	c0150513          	addi	a0,a0,-1023
10002618:	10001097          	auipc	ra,0x10001
1000261c:	d0a080e7          	jalr	-758(ra) # 20003322 <__floatsidf>
10002620:	100097b7          	lui	a5,0x10009
10002624:	a007a603          	lw	a2,-1536(a5) # 10008a00 <__func__.5+0x24>
10002628:	a047a683          	lw	a3,-1532(a5)
1000262c:	10000097          	auipc	ra,0x10000
10002630:	d34080e7          	jalr	-716(ra) # 20002360 <__muldf3>
10002634:	100097b7          	lui	a5,0x10009
10002638:	a087a603          	lw	a2,-1528(a5) # 10008a08 <__func__.5+0x2c>
1000263c:	a0c7a683          	lw	a3,-1524(a5)
10002640:	0ffff097          	auipc	ra,0xffff
10002644:	bd8080e7          	jalr	-1064(ra) # 20001218 <__adddf3>
10002648:	8a2a                	mv	s4,a0
1000264a:	89ae                	mv	s3,a1
1000264c:	100097b7          	lui	a5,0x10009
10002650:	a107a603          	lw	a2,-1520(a5) # 10008a10 <__func__.5+0x34>
10002654:	a147a683          	lw	a3,-1516(a5)
10002658:	855e                	mv	a0,s7
1000265a:	85ca                	mv	a1,s2
1000265c:	10000097          	auipc	ra,0x10000
10002660:	2a8080e7          	jalr	680(ra) # 20002904 <__subdf3>
10002664:	100097b7          	lui	a5,0x10009
10002668:	a187a603          	lw	a2,-1512(a5) # 10008a18 <__func__.5+0x3c>
1000266c:	a1c7a683          	lw	a3,-1508(a5)
10002670:	10000097          	auipc	ra,0x10000
10002674:	cf0080e7          	jalr	-784(ra) # 20002360 <__muldf3>
10002678:	862a                	mv	a2,a0
1000267a:	86ae                	mv	a3,a1
1000267c:	8552                	mv	a0,s4
1000267e:	85ce                	mv	a1,s3
10002680:	0ffff097          	auipc	ra,0xffff
10002684:	b98080e7          	jalr	-1128(ra) # 20001218 <__adddf3>
10002688:	10001097          	auipc	ra,0x10001
1000268c:	be2080e7          	jalr	-1054(ra) # 2000326a <__fixdfsi>
10002690:	8c2a                	mv	s8,a0
10002692:	10001097          	auipc	ra,0x10001
10002696:	c90080e7          	jalr	-880(ra) # 20003322 <__floatsidf>
1000269a:	8a2a                	mv	s4,a0
1000269c:	89ae                	mv	s3,a1
1000269e:	100097b7          	lui	a5,0x10009
100026a2:	a207a603          	lw	a2,-1504(a5) # 10008a20 <__func__.5+0x44>
100026a6:	a247a683          	lw	a3,-1500(a5)
100026aa:	10000097          	auipc	ra,0x10000
100026ae:	cb6080e7          	jalr	-842(ra) # 20002360 <__muldf3>
100026b2:	100097b7          	lui	a5,0x10009
100026b6:	a287a603          	lw	a2,-1496(a5) # 10008a28 <__func__.5+0x4c>
100026ba:	a2c7a683          	lw	a3,-1492(a5)
100026be:	0ffff097          	auipc	ra,0xffff
100026c2:	b5a080e7          	jalr	-1190(ra) # 20001218 <__adddf3>
100026c6:	10001097          	auipc	ra,0x10001
100026ca:	ba4080e7          	jalr	-1116(ra) # 2000326a <__fixdfsi>
100026ce:	892a                	mv	s2,a0
100026d0:	100097b7          	lui	a5,0x10009
100026d4:	a307a603          	lw	a2,-1488(a5) # 10008a30 <__func__.5+0x54>
100026d8:	a347a683          	lw	a3,-1484(a5)
100026dc:	8552                	mv	a0,s4
100026de:	85ce                	mv	a1,s3
100026e0:	10000097          	auipc	ra,0x10000
100026e4:	c80080e7          	jalr	-896(ra) # 20002360 <__muldf3>
100026e8:	8a2a                	mv	s4,a0
100026ea:	89ae                	mv	s3,a1
100026ec:	854a                	mv	a0,s2
100026ee:	10001097          	auipc	ra,0x10001
100026f2:	c34080e7          	jalr	-972(ra) # 20003322 <__floatsidf>
100026f6:	100097b7          	lui	a5,0x10009
100026fa:	a387a603          	lw	a2,-1480(a5) # 10008a38 <__func__.5+0x5c>
100026fe:	a3c7a683          	lw	a3,-1476(a5)
10002702:	10000097          	auipc	ra,0x10000
10002706:	c5e080e7          	jalr	-930(ra) # 20002360 <__muldf3>
1000270a:	862a                	mv	a2,a0
1000270c:	86ae                	mv	a3,a1
1000270e:	8552                	mv	a0,s4
10002710:	85ce                	mv	a1,s3
10002712:	10000097          	auipc	ra,0x10000
10002716:	1f2080e7          	jalr	498(ra) # 20002904 <__subdf3>
1000271a:	8a2a                	mv	s4,a0
1000271c:	89ae                	mv	s3,a1
1000271e:	862a                	mv	a2,a0
10002720:	86ae                	mv	a3,a1
10002722:	10000097          	auipc	ra,0x10000
10002726:	c3e080e7          	jalr	-962(ra) # 20002360 <__muldf3>
1000272a:	8b2a                	mv	s6,a0
1000272c:	8aae                	mv	s5,a1
1000272e:	3ff90913          	addi	s2,s2,1023
10002732:	0952                	slli	s2,s2,0x14
10002734:	8652                	mv	a2,s4
10002736:	86ce                	mv	a3,s3
10002738:	8552                	mv	a0,s4
1000273a:	85ce                	mv	a1,s3
1000273c:	0ffff097          	auipc	ra,0xffff
10002740:	adc080e7          	jalr	-1316(ra) # 20001218 <__adddf3>
10002744:	8d2a                	mv	s10,a0
10002746:	8cae                	mv	s9,a1
10002748:	8652                	mv	a2,s4
1000274a:	86ce                	mv	a3,s3
1000274c:	100097b7          	lui	a5,0x10009
10002750:	a407a503          	lw	a0,-1472(a5) # 10008a40 <__func__.5+0x64>
10002754:	a447a583          	lw	a1,-1468(a5)
10002758:	10000097          	auipc	ra,0x10000
1000275c:	1ac080e7          	jalr	428(ra) # 20002904 <__subdf3>
10002760:	8a2a                	mv	s4,a0
10002762:	89ae                	mv	s3,a1
10002764:	100097b7          	lui	a5,0x10009
10002768:	a487a603          	lw	a2,-1464(a5) # 10008a48 <__func__.5+0x6c>
1000276c:	a4c7a683          	lw	a3,-1460(a5)
10002770:	855a                	mv	a0,s6
10002772:	85d6                	mv	a1,s5
10002774:	0ffff097          	auipc	ra,0xffff
10002778:	3a4080e7          	jalr	932(ra) # 20001b18 <__divdf3>
1000277c:	100097b7          	lui	a5,0x10009
10002780:	a507a603          	lw	a2,-1456(a5) # 10008a50 <__func__.5+0x74>
10002784:	a547a683          	lw	a3,-1452(a5)
10002788:	0ffff097          	auipc	ra,0xffff
1000278c:	a90080e7          	jalr	-1392(ra) # 20001218 <__adddf3>
10002790:	862a                	mv	a2,a0
10002792:	86ae                	mv	a3,a1
10002794:	855a                	mv	a0,s6
10002796:	85d6                	mv	a1,s5
10002798:	0ffff097          	auipc	ra,0xffff
1000279c:	380080e7          	jalr	896(ra) # 20001b18 <__divdf3>
100027a0:	100097b7          	lui	a5,0x10009
100027a4:	a587a603          	lw	a2,-1448(a5) # 10008a58 <__func__.5+0x7c>
100027a8:	a5c7a683          	lw	a3,-1444(a5)
100027ac:	0ffff097          	auipc	ra,0xffff
100027b0:	a6c080e7          	jalr	-1428(ra) # 20001218 <__adddf3>
100027b4:	862a                	mv	a2,a0
100027b6:	86ae                	mv	a3,a1
100027b8:	855a                	mv	a0,s6
100027ba:	85d6                	mv	a1,s5
100027bc:	0ffff097          	auipc	ra,0xffff
100027c0:	35c080e7          	jalr	860(ra) # 20001b18 <__divdf3>
100027c4:	862a                	mv	a2,a0
100027c6:	86ae                	mv	a3,a1
100027c8:	8552                	mv	a0,s4
100027ca:	85ce                	mv	a1,s3
100027cc:	0ffff097          	auipc	ra,0xffff
100027d0:	a4c080e7          	jalr	-1460(ra) # 20001218 <__adddf3>
100027d4:	862a                	mv	a2,a0
100027d6:	86ae                	mv	a3,a1
100027d8:	856a                	mv	a0,s10
100027da:	85e6                	mv	a1,s9
100027dc:	0ffff097          	auipc	ra,0xffff
100027e0:	33c080e7          	jalr	828(ra) # 20001b18 <__divdf3>
100027e4:	100097b7          	lui	a5,0x10009
100027e8:	a607a603          	lw	a2,-1440(a5) # 10008a60 <__func__.5+0x84>
100027ec:	a647a683          	lw	a3,-1436(a5)
100027f0:	0ffff097          	auipc	ra,0xffff
100027f4:	a28080e7          	jalr	-1496(ra) # 20001218 <__adddf3>
100027f8:	4701                	li	a4,0
100027fa:	863a                	mv	a2,a4
100027fc:	86ca                	mv	a3,s2
100027fe:	10000097          	auipc	ra,0x10000
10002802:	b62080e7          	jalr	-1182(ra) # 20002360 <__muldf3>
10002806:	892a                	mv	s2,a0
10002808:	89ae                	mv	s3,a1
1000280a:	8aaa                	mv	s5,a0
1000280c:	8b2e                	mv	s6,a1
1000280e:	865e                	mv	a2,s7
10002810:	86ee                	mv	a3,s11
10002812:	10000097          	auipc	ra,0x10000
10002816:	998080e7          	jalr	-1640(ra) # 200021aa <__gedf2>
1000281a:	02a05363          	blez	a0,10002840 <_etoa+0x2fc>
1000281e:	fffc0793          	addi	a5,s8,-1
10002822:	8c3e                	mv	s8,a5
10002824:	100097b7          	lui	a5,0x10009
10002828:	a507a603          	lw	a2,-1456(a5) # 10008a50 <__func__.5+0x74>
1000282c:	a547a683          	lw	a3,-1452(a5)
10002830:	854a                	mv	a0,s2
10002832:	85ce                	mv	a1,s3
10002834:	0ffff097          	auipc	ra,0xffff
10002838:	2e4080e7          	jalr	740(ra) # 20001b18 <__divdf3>
1000283c:	8aaa                	mv	s5,a0
1000283e:	8b2e                	mv	s6,a1
10002840:	063c0793          	addi	a5,s8,99
10002844:	0c600713          	li	a4,198
10002848:	08f76c63          	bltu	a4,a5,100028e0 <_etoa+0x39c>
1000284c:	4911                	li	s2,4
1000284e:	4d06                	lw	s10,64(sp)
10002850:	a825                	j	10002888 <_etoa+0x344>
10002852:	57c6                	lw	a5,112(sp)
10002854:	c03e                	sw	a5,0(sp)
10002856:	88a6                	mv	a7,s1
10002858:	5822                	lw	a6,40(sp)
1000285a:	5602                	lw	a2,32(sp)
1000285c:	5692                	lw	a3,36(sp)
1000285e:	8732                	mv	a4,a2
10002860:	87b6                	mv	a5,a3
10002862:	46e2                	lw	a3,24(sp)
10002864:	4672                	lw	a2,28(sp)
10002866:	45d2                	lw	a1,20(sp)
10002868:	8522                	mv	a0,s0
1000286a:	225d                	jal	10002a10 <_ftoa>
1000286c:	50b6                	lw	ra,108(sp)
1000286e:	5426                	lw	s0,104(sp)
10002870:	5496                	lw	s1,100(sp)
10002872:	5906                	lw	s2,96(sp)
10002874:	49f6                	lw	s3,92(sp)
10002876:	6165                	addi	sp,sp,112
10002878:	8082                	ret
1000287a:	8bca                	mv	s7,s2
1000287c:	69f99793          	binvi	a5,s3,0x1f
10002880:	8dbe                	mv	s11,a5
10002882:	bbb1                	j	100025de <_etoa+0x9a>
10002884:	4c01                	li	s8,0
10002886:	4911                	li	s2,4
10002888:	5746                	lw	a4,112(sp)
1000288a:	01471793          	slli	a5,a4,0x14
1000288e:	0607d363          	bgez	a5,100028f4 <_etoa+0x3b0>
10002892:	016ae7b3          	or	a5,s5,s6
10002896:	cf8d                	beqz	a5,100028d0 <_etoa+0x38c>
10002898:	100097b7          	lui	a5,0x10009
1000289c:	a687a603          	lw	a2,-1432(a5) # 10008a68 <__func__.5+0x8c>
100028a0:	a6c7a683          	lw	a3,-1428(a5)
100028a4:	855e                	mv	a0,s7
100028a6:	85ee                	mv	a1,s11
100028a8:	10000097          	auipc	ra,0x10000
100028ac:	902080e7          	jalr	-1790(ra) # 200021aa <__gedf2>
100028b0:	10054163          	bltz	a0,100029b2 <_etoa+0x46e>
100028b4:	100097b7          	lui	a5,0x10009
100028b8:	a707a603          	lw	a2,-1424(a5) # 10008a70 <__func__.5+0x94>
100028bc:	a747a683          	lw	a3,-1420(a5)
100028c0:	855e                	mv	a0,s7
100028c2:	85ee                	mv	a1,s11
100028c4:	10000097          	auipc	ra,0x10000
100028c8:	9be080e7          	jalr	-1602(ra) # 20002282 <__ledf2>
100028cc:	0e055363          	bgez	a0,100029b2 <_etoa+0x46e>
100028d0:	57a2                	lw	a5,40(sp)
100028d2:	00fc5a63          	bge	s8,a5,100028e6 <_etoa+0x3a2>
100028d6:	418787b3          	sub	a5,a5,s8
100028da:	17fd                	addi	a5,a5,-1
100028dc:	d43e                	sw	a5,40(sp)
100028de:	a029                	j	100028e8 <_etoa+0x3a4>
100028e0:	4915                	li	s2,5
100028e2:	4d06                	lw	s10,64(sp)
100028e4:	b755                	j	10002888 <_etoa+0x344>
100028e6:	d402                	sw	zero,40(sp)
100028e8:	57c6                	lw	a5,112(sp)
100028ea:	4007e793          	ori	a5,a5,1024
100028ee:	d8be                	sw	a5,112(sp)
100028f0:	4901                	li	s2,0
100028f2:	4c01                	li	s8,0
100028f4:	0c997763          	bgeu	s2,s1,100029c2 <_etoa+0x47e>
100028f8:	412487b3          	sub	a5,s1,s2
100028fc:	89be                	mv	s3,a5
100028fe:	57c6                	lw	a5,112(sp)
10002900:	8b89                	andi	a5,a5,2
10002902:	8cbe                	mv	s9,a5
10002904:	c781                	beqz	a5,1000290c <_etoa+0x3c8>
10002906:	00090363          	beqz	s2,1000290c <_etoa+0x3c8>
1000290a:	4981                	li	s3,0
1000290c:	000c0c63          	beqz	s8,10002924 <_etoa+0x3e0>
10002910:	8656                	mv	a2,s5
10002912:	86da                	mv	a3,s6
10002914:	855e                	mv	a0,s7
10002916:	85ee                	mv	a1,s11
10002918:	0ffff097          	auipc	ra,0xffff
1000291c:	200080e7          	jalr	512(ra) # 20001b18 <__divdf3>
10002920:	8baa                	mv	s7,a0
10002922:	8dae                	mv	s11,a1
10002924:	4601                	li	a2,0
10002926:	4681                	li	a3,0
10002928:	5702                	lw	a4,32(sp)
1000292a:	5792                	lw	a5,36(sp)
1000292c:	853a                	mv	a0,a4
1000292e:	85be                	mv	a1,a5
10002930:	10000097          	auipc	ra,0x10000
10002934:	952080e7          	jalr	-1710(ra) # 20002282 <__ledf2>
10002938:	08054763          	bltz	a0,100029c6 <_etoa+0x482>
1000293c:	57c6                	lw	a5,112(sp)
1000293e:	48b79793          	bclri	a5,a5,0xb
10002942:	c03e                	sw	a5,0(sp)
10002944:	88ce                	mv	a7,s3
10002946:	5822                	lw	a6,40(sp)
10002948:	875e                	mv	a4,s7
1000294a:	87ee                	mv	a5,s11
1000294c:	46e2                	lw	a3,24(sp)
1000294e:	4672                	lw	a2,28(sp)
10002950:	45d2                	lw	a1,20(sp)
10002952:	8522                	mv	a0,s0
10002954:	2875                	jal	10002a10 <_ftoa>
10002956:	0a090563          	beqz	s2,10002a00 <_etoa+0x4bc>
1000295a:	57c6                	lw	a5,112(sp)
1000295c:	0207f793          	andi	a5,a5,32
10002960:	c7bd                	beqz	a5,100029ce <_etoa+0x48a>
10002962:	04500793          	li	a5,69
10002966:	00150713          	addi	a4,a0,1
1000296a:	8aba                	mv	s5,a4
1000296c:	4a62                	lw	s4,24(sp)
1000296e:	86d2                	mv	a3,s4
10002970:	862a                	mv	a2,a0
10002972:	49d2                	lw	s3,20(sp)
10002974:	85ce                	mv	a1,s3
10002976:	853e                	mv	a0,a5
10002978:	9402                	jalr	s0
1000297a:	41800733          	neg	a4,s8
1000297e:	4795                	li	a5,5
10002980:	c23e                	sw	a5,4(sp)
10002982:	197d                	addi	s2,s2,-1
10002984:	c04a                	sw	s2,0(sp)
10002986:	4881                	li	a7,0
10002988:	4829                	li	a6,10
1000298a:	01fc5793          	srli	a5,s8,0x1f
1000298e:	0aec6733          	max	a4,s8,a4
10002992:	86d2                	mv	a3,s4
10002994:	8656                	mv	a2,s5
10002996:	85ce                	mv	a1,s3
10002998:	8522                	mv	a0,s0
1000299a:	a13ff0ef          	jal	100023ac <_ntoa_long>
1000299e:	040c9463          	bnez	s9,100029e6 <_etoa+0x4a2>
100029a2:	4a66                	lw	s4,88(sp)
100029a4:	4ad6                	lw	s5,84(sp)
100029a6:	4b46                	lw	s6,80(sp)
100029a8:	4bb6                	lw	s7,76(sp)
100029aa:	4c26                	lw	s8,72(sp)
100029ac:	4c96                	lw	s9,68(sp)
100029ae:	5df2                	lw	s11,60(sp)
100029b0:	bd75                	j	1000286c <_etoa+0x328>
100029b2:	57a2                	lw	a5,40(sp)
100029b4:	d3a1                	beqz	a5,100028f4 <_etoa+0x3b0>
100029b6:	57b2                	lw	a5,44(sp)
100029b8:	df95                	beqz	a5,100028f4 <_etoa+0x3b0>
100029ba:	57a2                	lw	a5,40(sp)
100029bc:	17fd                	addi	a5,a5,-1
100029be:	d43e                	sw	a5,40(sp)
100029c0:	bf15                	j	100028f4 <_etoa+0x3b0>
100029c2:	4981                	li	s3,0
100029c4:	bf2d                	j	100028fe <_etoa+0x3ba>
100029c6:	69fd9793          	binvi	a5,s11,0x1f
100029ca:	8dbe                	mv	s11,a5
100029cc:	bf85                	j	1000293c <_etoa+0x3f8>
100029ce:	06500793          	li	a5,101
100029d2:	bf51                	j	10002966 <_etoa+0x422>
100029d4:	00150913          	addi	s2,a0,1
100029d8:	46e2                	lw	a3,24(sp)
100029da:	862a                	mv	a2,a0
100029dc:	45d2                	lw	a1,20(sp)
100029de:	02000513          	li	a0,32
100029e2:	9402                	jalr	s0
100029e4:	854a                	mv	a0,s2
100029e6:	47f2                	lw	a5,28(sp)
100029e8:	40f507b3          	sub	a5,a0,a5
100029ec:	fe97e4e3          	bltu	a5,s1,100029d4 <_etoa+0x490>
100029f0:	4a66                	lw	s4,88(sp)
100029f2:	4ad6                	lw	s5,84(sp)
100029f4:	4b46                	lw	s6,80(sp)
100029f6:	4bb6                	lw	s7,76(sp)
100029f8:	4c26                	lw	s8,72(sp)
100029fa:	4c96                	lw	s9,68(sp)
100029fc:	5df2                	lw	s11,60(sp)
100029fe:	b5bd                	j	1000286c <_etoa+0x328>
10002a00:	4a66                	lw	s4,88(sp)
10002a02:	4ad6                	lw	s5,84(sp)
10002a04:	4b46                	lw	s6,80(sp)
10002a06:	4bb6                	lw	s7,76(sp)
10002a08:	4c26                	lw	s8,72(sp)
10002a0a:	4c96                	lw	s9,68(sp)
10002a0c:	5df2                	lw	s11,60(sp)
10002a0e:	bdb9                	j	1000286c <_etoa+0x328>

10002a10 <_ftoa>:
10002a10:	7119                	addi	sp,sp,-128
10002a12:	de86                	sw	ra,124(sp)
10002a14:	daa6                	sw	s1,116(sp)
10002a16:	cce2                	sw	s8,88(sp)
10002a18:	cae6                	sw	s9,84(sp)
10002a1a:	c8ea                	sw	s10,80(sp)
10002a1c:	c6ee                	sw	s11,76(sp)
10002a1e:	8daa                	mv	s11,a0
10002a20:	c82e                	sw	a1,16(sp)
10002a22:	ca32                	sw	a2,20(sp)
10002a24:	cc36                	sw	a3,24(sp)
10002a26:	8c3a                	mv	s8,a4
10002a28:	8cbe                	mv	s9,a5
10002a2a:	84c2                	mv	s1,a6
10002a2c:	8d46                	mv	s10,a7
10002a2e:	863a                	mv	a2,a4
10002a30:	86be                	mv	a3,a5
10002a32:	853a                	mv	a0,a4
10002a34:	85be                	mv	a1,a5
10002a36:	10000097          	auipc	ra,0x10000
10002a3a:	7f8080e7          	jalr	2040(ra) # 2000322e <__unorddf2>
10002a3e:	e155                	bnez	a0,10002ae2 <_ftoa+0xd2>
10002a40:	100097b7          	lui	a5,0x10009
10002a44:	9f87a603          	lw	a2,-1544(a5) # 100089f8 <__func__.5+0x1c>
10002a48:	9fc7a683          	lw	a3,-1540(a5)
10002a4c:	8562                	mv	a0,s8
10002a4e:	85e6                	mv	a1,s9
10002a50:	10000097          	auipc	ra,0x10000
10002a54:	832080e7          	jalr	-1998(ra) # 20002282 <__ledf2>
10002a58:	0a054363          	bltz	a0,10002afe <_ftoa+0xee>
10002a5c:	100097b7          	lui	a5,0x10009
10002a60:	9f07a603          	lw	a2,-1552(a5) # 100089f0 <__func__.5+0x14>
10002a64:	9f47a683          	lw	a3,-1548(a5)
10002a68:	8562                	mv	a0,s8
10002a6a:	85e6                	mv	a1,s9
10002a6c:	0ffff097          	auipc	ra,0xffff
10002a70:	73e080e7          	jalr	1854(ra) # 200021aa <__gedf2>
10002a74:	0aa04363          	bgtz	a0,10002b1a <_ftoa+0x10a>
10002a78:	dca2                	sw	s0,120(sp)
10002a7a:	d8ca                	sw	s2,112(sp)
10002a7c:	100097b7          	lui	a5,0x10009
10002a80:	a787a603          	lw	a2,-1416(a5) # 10008a78 <__func__.5+0x9c>
10002a84:	a7c7a683          	lw	a3,-1412(a5)
10002a88:	8562                	mv	a0,s8
10002a8a:	85e6                	mv	a1,s9
10002a8c:	0ffff097          	auipc	ra,0xffff
10002a90:	71e080e7          	jalr	1822(ra) # 200021aa <__gedf2>
10002a94:	0aa04a63          	bgtz	a0,10002b48 <_ftoa+0x138>
10002a98:	100097b7          	lui	a5,0x10009
10002a9c:	a807a603          	lw	a2,-1408(a5) # 10008a80 <__func__.5+0xa4>
10002aa0:	a847a683          	lw	a3,-1404(a5)
10002aa4:	8562                	mv	a0,s8
10002aa6:	85e6                	mv	a1,s9
10002aa8:	0ffff097          	auipc	ra,0xffff
10002aac:	7da080e7          	jalr	2010(ra) # 20002282 <__ledf2>
10002ab0:	08054c63          	bltz	a0,10002b48 <_ftoa+0x138>
10002ab4:	d6ce                	sw	s3,108(sp)
10002ab6:	d4d2                	sw	s4,104(sp)
10002ab8:	d2d6                	sw	s5,100(sp)
10002aba:	d0da                	sw	s6,96(sp)
10002abc:	cede                	sw	s7,92(sp)
10002abe:	4601                	li	a2,0
10002ac0:	4681                	li	a3,0
10002ac2:	8562                	mv	a0,s8
10002ac4:	85e6                	mv	a1,s9
10002ac6:	0ffff097          	auipc	ra,0xffff
10002aca:	7bc080e7          	jalr	1980(ra) # 20002282 <__ledf2>
10002ace:	08054c63          	bltz	a0,10002b66 <_ftoa+0x156>
10002ad2:	ce02                	sw	zero,28(sp)
10002ad4:	478a                	lw	a5,128(sp)
10002ad6:	4007f793          	andi	a5,a5,1024
10002ada:	1c078b63          	beqz	a5,10002cb0 <_ftoa+0x2a0>
10002ade:	4401                	li	s0,0
10002ae0:	a855                	j	10002b94 <_ftoa+0x184>
10002ae2:	488a                	lw	a7,128(sp)
10002ae4:	886a                	mv	a6,s10
10002ae6:	478d                	li	a5,3
10002ae8:	10008737          	lui	a4,0x10008
10002aec:	02870713          	addi	a4,a4,40 # 10008028 <__EH_FRAME_BEGIN__+0x888>
10002af0:	46e2                	lw	a3,24(sp)
10002af2:	4652                	lw	a2,20(sp)
10002af4:	45c2                	lw	a1,16(sp)
10002af6:	856e                	mv	a0,s11
10002af8:	e92ff0ef          	jal	1000218a <_out_rev>
10002afc:	a615                	j	10002e20 <_ftoa+0x410>
10002afe:	488a                	lw	a7,128(sp)
10002b00:	886a                	mv	a6,s10
10002b02:	4791                	li	a5,4
10002b04:	10008737          	lui	a4,0x10008
10002b08:	02c70713          	addi	a4,a4,44 # 1000802c <__EH_FRAME_BEGIN__+0x88c>
10002b0c:	46e2                	lw	a3,24(sp)
10002b0e:	4652                	lw	a2,20(sp)
10002b10:	45c2                	lw	a1,16(sp)
10002b12:	856e                	mv	a0,s11
10002b14:	e76ff0ef          	jal	1000218a <_out_rev>
10002b18:	a621                	j	10002e20 <_ftoa+0x410>
10002b1a:	478a                	lw	a5,128(sp)
10002b1c:	8b91                	andi	a5,a5,4
10002b1e:	cf99                	beqz	a5,10002b3c <_ftoa+0x12c>
10002b20:	10008737          	lui	a4,0x10008
10002b24:	01c70713          	addi	a4,a4,28 # 1000801c <__EH_FRAME_BEGIN__+0x87c>
10002b28:	4791                	li	a5,4
10002b2a:	488a                	lw	a7,128(sp)
10002b2c:	886a                	mv	a6,s10
10002b2e:	46e2                	lw	a3,24(sp)
10002b30:	4652                	lw	a2,20(sp)
10002b32:	45c2                	lw	a1,16(sp)
10002b34:	856e                	mv	a0,s11
10002b36:	e54ff0ef          	jal	1000218a <_out_rev>
10002b3a:	a4dd                	j	10002e20 <_ftoa+0x410>
10002b3c:	10008737          	lui	a4,0x10008
10002b40:	02470713          	addi	a4,a4,36 # 10008024 <__EH_FRAME_BEGIN__+0x884>
10002b44:	478d                	li	a5,3
10002b46:	b7d5                	j	10002b2a <_ftoa+0x11a>
10002b48:	478a                	lw	a5,128(sp)
10002b4a:	c03e                	sw	a5,0(sp)
10002b4c:	88ea                	mv	a7,s10
10002b4e:	8826                	mv	a6,s1
10002b50:	8762                	mv	a4,s8
10002b52:	87e6                	mv	a5,s9
10002b54:	46e2                	lw	a3,24(sp)
10002b56:	4652                	lw	a2,20(sp)
10002b58:	45c2                	lw	a1,16(sp)
10002b5a:	856e                	mv	a0,s11
10002b5c:	9e9ff0ef          	jal	10002544 <_etoa>
10002b60:	5466                	lw	s0,120(sp)
10002b62:	5946                	lw	s2,112(sp)
10002b64:	ac75                	j	10002e20 <_ftoa+0x410>
10002b66:	8662                	mv	a2,s8
10002b68:	86e6                	mv	a3,s9
10002b6a:	4501                	li	a0,0
10002b6c:	4581                	li	a1,0
10002b6e:	10000097          	auipc	ra,0x10000
10002b72:	d96080e7          	jalr	-618(ra) # 20002904 <__subdf3>
10002b76:	8c2a                	mv	s8,a0
10002b78:	8cae                	mv	s9,a1
10002b7a:	4785                	li	a5,1
10002b7c:	ce3e                	sw	a5,28(sp)
10002b7e:	bf99                	j	10002ad4 <_ftoa+0xc4>
10002b80:	03040793          	addi	a5,s0,48
10002b84:	0818                	addi	a4,sp,16
10002b86:	97ba                	add	a5,a5,a4
10002b88:	03000713          	li	a4,48
10002b8c:	fee78023          	sb	a4,-32(a5)
10002b90:	14fd                	addi	s1,s1,-1
10002b92:	0405                	addi	s0,s0,1
10002b94:	02043793          	sltiu	a5,s0,32
10002b98:	00a4b713          	sltiu	a4,s1,10
10002b9c:	00174713          	xori	a4,a4,1
10002ba0:	c391                	beqz	a5,10002ba4 <_ftoa+0x194>
10002ba2:	ff79                	bnez	a4,10002b80 <_ftoa+0x170>
10002ba4:	8562                	mv	a0,s8
10002ba6:	85e6                	mv	a1,s9
10002ba8:	10000097          	auipc	ra,0x10000
10002bac:	6c2080e7          	jalr	1730(ra) # 2000326a <__fixdfsi>
10002bb0:	892a                	mv	s2,a0
10002bb2:	10000097          	auipc	ra,0x10000
10002bb6:	770080e7          	jalr	1904(ra) # 20003322 <__floatsidf>
10002bba:	862a                	mv	a2,a0
10002bbc:	86ae                	mv	a3,a1
10002bbe:	8562                	mv	a0,s8
10002bc0:	85e6                	mv	a1,s9
10002bc2:	10000097          	auipc	ra,0x10000
10002bc6:	d42080e7          	jalr	-702(ra) # 20002904 <__subdf3>
10002bca:	100087b7          	lui	a5,0x10008
10002bce:	59078793          	addi	a5,a5,1424 # 10008590 <pow10.0>
10002bd2:	20f4e7b3          	sh3add	a5,s1,a5
10002bd6:	0047a803          	lw	a6,4(a5)
10002bda:	439c                	lw	a5,0(a5)
10002bdc:	8a3e                	mv	s4,a5
10002bde:	8ac2                	mv	s5,a6
10002be0:	863e                	mv	a2,a5
10002be2:	86c2                	mv	a3,a6
10002be4:	0ffff097          	auipc	ra,0xffff
10002be8:	77c080e7          	jalr	1916(ra) # 20002360 <__muldf3>
10002bec:	8baa                	mv	s7,a0
10002bee:	8b2e                	mv	s6,a1
10002bf0:	10000097          	auipc	ra,0x10000
10002bf4:	6dc080e7          	jalr	1756(ra) # 200032cc <__fixunsdfsi>
10002bf8:	89aa                	mv	s3,a0
10002bfa:	10000097          	auipc	ra,0x10000
10002bfe:	7b0080e7          	jalr	1968(ra) # 200033aa <__floatunsidf>
10002c02:	862a                	mv	a2,a0
10002c04:	86ae                	mv	a3,a1
10002c06:	855e                	mv	a0,s7
10002c08:	85da                	mv	a1,s6
10002c0a:	10000097          	auipc	ra,0x10000
10002c0e:	cfa080e7          	jalr	-774(ra) # 20002904 <__subdf3>
10002c12:	8b2a                	mv	s6,a0
10002c14:	8bae                	mv	s7,a1
10002c16:	100097b7          	lui	a5,0x10009
10002c1a:	a287a603          	lw	a2,-1496(a5) # 10008a28 <__func__.5+0x4c>
10002c1e:	a2c7a683          	lw	a3,-1492(a5)
10002c22:	0ffff097          	auipc	ra,0xffff
10002c26:	588080e7          	jalr	1416(ra) # 200021aa <__gedf2>
10002c2a:	08a05563          	blez	a0,10002cb4 <_ftoa+0x2a4>
10002c2e:	0985                	addi	s3,s3,1
10002c30:	854e                	mv	a0,s3
10002c32:	10000097          	auipc	ra,0x10000
10002c36:	778080e7          	jalr	1912(ra) # 200033aa <__floatunsidf>
10002c3a:	862a                	mv	a2,a0
10002c3c:	86ae                	mv	a3,a1
10002c3e:	8552                	mv	a0,s4
10002c40:	85d6                	mv	a1,s5
10002c42:	0ffff097          	auipc	ra,0xffff
10002c46:	640080e7          	jalr	1600(ra) # 20002282 <__ledf2>
10002c4a:	00a04463          	bgtz	a0,10002c52 <_ftoa+0x242>
10002c4e:	0905                	addi	s2,s2,1
10002c50:	4981                	li	s3,0
10002c52:	e4d1                	bnez	s1,10002cde <_ftoa+0x2ce>
10002c54:	854a                	mv	a0,s2
10002c56:	10000097          	auipc	ra,0x10000
10002c5a:	6cc080e7          	jalr	1740(ra) # 20003322 <__floatsidf>
10002c5e:	862a                	mv	a2,a0
10002c60:	86ae                	mv	a3,a1
10002c62:	8562                	mv	a0,s8
10002c64:	85e6                	mv	a1,s9
10002c66:	10000097          	auipc	ra,0x10000
10002c6a:	c9e080e7          	jalr	-866(ra) # 20002904 <__subdf3>
10002c6e:	89aa                	mv	s3,a0
10002c70:	84ae                	mv	s1,a1
10002c72:	100097b7          	lui	a5,0x10009
10002c76:	a287a603          	lw	a2,-1496(a5) # 10008a28 <__func__.5+0x4c>
10002c7a:	a2c7a683          	lw	a3,-1492(a5)
10002c7e:	0ffff097          	auipc	ra,0xffff
10002c82:	604080e7          	jalr	1540(ra) # 20002282 <__ledf2>
10002c86:	0c054a63          	bltz	a0,10002d5a <_ftoa+0x34a>
10002c8a:	100097b7          	lui	a5,0x10009
10002c8e:	a287a603          	lw	a2,-1496(a5) # 10008a28 <__func__.5+0x4c>
10002c92:	a2c7a683          	lw	a3,-1492(a5)
10002c96:	854e                	mv	a0,s3
10002c98:	85a6                	mv	a1,s1
10002c9a:	0ffff097          	auipc	ra,0xffff
10002c9e:	510080e7          	jalr	1296(ra) # 200021aa <__gedf2>
10002ca2:	0aa04c63          	bgtz	a0,10002d5a <_ftoa+0x34a>
10002ca6:	00197793          	andi	a5,s2,1
10002caa:	cbc5                	beqz	a5,10002d5a <_ftoa+0x34a>
10002cac:	0905                	addi	s2,s2,1
10002cae:	a075                	j	10002d5a <_ftoa+0x34a>
10002cb0:	4499                	li	s1,6
10002cb2:	b535                	j	10002ade <_ftoa+0xce>
10002cb4:	100097b7          	lui	a5,0x10009
10002cb8:	a287a603          	lw	a2,-1496(a5) # 10008a28 <__func__.5+0x4c>
10002cbc:	a2c7a683          	lw	a3,-1492(a5)
10002cc0:	855a                	mv	a0,s6
10002cc2:	85de                	mv	a1,s7
10002cc4:	0ffff097          	auipc	ra,0xffff
10002cc8:	5be080e7          	jalr	1470(ra) # 20002282 <__ledf2>
10002ccc:	f80543e3          	bltz	a0,10002c52 <_ftoa+0x242>
10002cd0:	00098563          	beqz	s3,10002cda <_ftoa+0x2ca>
10002cd4:	0019f793          	andi	a5,s3,1
10002cd8:	dfad                	beqz	a5,10002c52 <_ftoa+0x242>
10002cda:	0985                	addi	s3,s3,1
10002cdc:	bf9d                	j	10002c52 <_ftoa+0x242>
10002cde:	47fd                	li	a5,31
10002ce0:	0487eb63          	bltu	a5,s0,10002d36 <_ftoa+0x326>
10002ce4:	14fd                	addi	s1,s1,-1
10002ce6:	ccccd7b7          	lui	a5,0xccccd
10002cea:	ccd78793          	addi	a5,a5,-819 # cccccccd <__StackTop+0xacc4accd>
10002cee:	02f9b7b3          	mulhu	a5,s3,a5
10002cf2:	838d                	srli	a5,a5,0x3
10002cf4:	86be                	mv	a3,a5
10002cf6:	20f7c7b3          	sh2add	a5,a5,a5
10002cfa:	0786                	slli	a5,a5,0x1
10002cfc:	40f987b3          	sub	a5,s3,a5
10002d00:	00140713          	addi	a4,s0,1
10002d04:	03078793          	addi	a5,a5,48
10002d08:	03040613          	addi	a2,s0,48
10002d0c:	080c                	addi	a1,sp,16
10002d0e:	00b60433          	add	s0,a2,a1
10002d12:	fef40023          	sb	a5,-32(s0)
10002d16:	47a5                	li	a5,9
10002d18:	0937f363          	bgeu	a5,s3,10002d9e <_ftoa+0x38e>
10002d1c:	89b6                	mv	s3,a3
10002d1e:	843a                	mv	s0,a4
10002d20:	bf7d                	j	10002cde <_ftoa+0x2ce>
10002d22:	03040713          	addi	a4,s0,48
10002d26:	0814                	addi	a3,sp,16
10002d28:	9736                	add	a4,a4,a3
10002d2a:	03000693          	li	a3,48
10002d2e:	fed70023          	sb	a3,-32(a4)
10002d32:	84be                	mv	s1,a5
10002d34:	0405                	addi	s0,s0,1
10002d36:	47fd                	li	a5,31
10002d38:	0087e563          	bltu	a5,s0,10002d42 <_ftoa+0x332>
10002d3c:	fff48793          	addi	a5,s1,-1
10002d40:	f0ed                	bnez	s1,10002d22 <_ftoa+0x312>
10002d42:	47fd                	li	a5,31
10002d44:	0087eb63          	bltu	a5,s0,10002d5a <_ftoa+0x34a>
10002d48:	03040793          	addi	a5,s0,48
10002d4c:	0818                	addi	a4,sp,16
10002d4e:	97ba                	add	a5,a5,a4
10002d50:	02e00713          	li	a4,46
10002d54:	fee78023          	sb	a4,-32(a5)
10002d58:	0405                	addi	s0,s0,1
10002d5a:	47fd                	li	a5,31
10002d5c:	0487e463          	bltu	a5,s0,10002da4 <_ftoa+0x394>
10002d60:	666667b7          	lui	a5,0x66666
10002d64:	66778793          	addi	a5,a5,1639 # 66666667 <__StackTop+0x465e4667>
10002d68:	02f917b3          	mulh	a5,s2,a5
10002d6c:	8789                	srai	a5,a5,0x2
10002d6e:	41f95713          	srai	a4,s2,0x1f
10002d72:	8f99                	sub	a5,a5,a4
10002d74:	86be                	mv	a3,a5
10002d76:	20f7c7b3          	sh2add	a5,a5,a5
10002d7a:	0786                	slli	a5,a5,0x1
10002d7c:	40f907b3          	sub	a5,s2,a5
10002d80:	00140713          	addi	a4,s0,1
10002d84:	03078793          	addi	a5,a5,48
10002d88:	03040613          	addi	a2,s0,48
10002d8c:	080c                	addi	a1,sp,16
10002d8e:	00b60433          	add	s0,a2,a1
10002d92:	fef40023          	sb	a5,-32(s0)
10002d96:	8936                	mv	s2,a3
10002d98:	c689                	beqz	a3,10002da2 <_ftoa+0x392>
10002d9a:	843a                	mv	s0,a4
10002d9c:	bf7d                	j	10002d5a <_ftoa+0x34a>
10002d9e:	843a                	mv	s0,a4
10002da0:	bf59                	j	10002d36 <_ftoa+0x326>
10002da2:	843a                	mv	s0,a4
10002da4:	478a                	lw	a5,128(sp)
10002da6:	8b89                	andi	a5,a5,2
10002da8:	ef8d                	bnez	a5,10002de2 <_ftoa+0x3d2>
10002daa:	478a                	lw	a5,128(sp)
10002dac:	8b85                	andi	a5,a5,1
10002dae:	cb95                	beqz	a5,10002de2 <_ftoa+0x3d2>
10002db0:	020d0463          	beqz	s10,10002dd8 <_ftoa+0x3c8>
10002db4:	47f2                	lw	a5,28(sp)
10002db6:	e781                	bnez	a5,10002dbe <_ftoa+0x3ae>
10002db8:	478a                	lw	a5,128(sp)
10002dba:	8bb1                	andi	a5,a5,12
10002dbc:	cf91                	beqz	a5,10002dd8 <_ftoa+0x3c8>
10002dbe:	fffd0793          	addi	a5,s10,-1
10002dc2:	8d3e                	mv	s10,a5
10002dc4:	a811                	j	10002dd8 <_ftoa+0x3c8>
10002dc6:	03040793          	addi	a5,s0,48
10002dca:	0818                	addi	a4,sp,16
10002dcc:	97ba                	add	a5,a5,a4
10002dce:	03000713          	li	a4,48
10002dd2:	fee78023          	sb	a4,-32(a5)
10002dd6:	0405                	addi	s0,s0,1
10002dd8:	02043793          	sltiu	a5,s0,32
10002ddc:	01a47363          	bgeu	s0,s10,10002de2 <_ftoa+0x3d2>
10002de0:	f3fd                	bnez	a5,10002dc6 <_ftoa+0x3b6>
10002de2:	47fd                	li	a5,31
10002de4:	0087ed63          	bltu	a5,s0,10002dfe <_ftoa+0x3ee>
10002de8:	47f2                	lw	a5,28(sp)
10002dea:	c3b9                	beqz	a5,10002e30 <_ftoa+0x420>
10002dec:	03040793          	addi	a5,s0,48
10002df0:	0818                	addi	a4,sp,16
10002df2:	97ba                	add	a5,a5,a4
10002df4:	02d00713          	li	a4,45
10002df8:	fee78023          	sb	a4,-32(a5)
10002dfc:	0405                	addi	s0,s0,1
10002dfe:	488a                	lw	a7,128(sp)
10002e00:	886a                	mv	a6,s10
10002e02:	87a2                	mv	a5,s0
10002e04:	1018                	addi	a4,sp,32
10002e06:	46e2                	lw	a3,24(sp)
10002e08:	4652                	lw	a2,20(sp)
10002e0a:	45c2                	lw	a1,16(sp)
10002e0c:	856e                	mv	a0,s11
10002e0e:	b7cff0ef          	jal	1000218a <_out_rev>
10002e12:	5466                	lw	s0,120(sp)
10002e14:	5946                	lw	s2,112(sp)
10002e16:	59b6                	lw	s3,108(sp)
10002e18:	5a26                	lw	s4,104(sp)
10002e1a:	5a96                	lw	s5,100(sp)
10002e1c:	5b06                	lw	s6,96(sp)
10002e1e:	4bf6                	lw	s7,92(sp)
10002e20:	50f6                	lw	ra,124(sp)
10002e22:	54d6                	lw	s1,116(sp)
10002e24:	4c66                	lw	s8,88(sp)
10002e26:	4cd6                	lw	s9,84(sp)
10002e28:	4d46                	lw	s10,80(sp)
10002e2a:	4db6                	lw	s11,76(sp)
10002e2c:	6109                	addi	sp,sp,128
10002e2e:	8082                	ret
10002e30:	478a                	lw	a5,128(sp)
10002e32:	8b91                	andi	a5,a5,4
10002e34:	cb99                	beqz	a5,10002e4a <_ftoa+0x43a>
10002e36:	03040793          	addi	a5,s0,48
10002e3a:	0818                	addi	a4,sp,16
10002e3c:	97ba                	add	a5,a5,a4
10002e3e:	02b00713          	li	a4,43
10002e42:	fee78023          	sb	a4,-32(a5)
10002e46:	0405                	addi	s0,s0,1
10002e48:	bf5d                	j	10002dfe <_ftoa+0x3ee>
10002e4a:	478a                	lw	a5,128(sp)
10002e4c:	8ba1                	andi	a5,a5,8
10002e4e:	dbc5                	beqz	a5,10002dfe <_ftoa+0x3ee>
10002e50:	03040793          	addi	a5,s0,48
10002e54:	0818                	addi	a4,sp,16
10002e56:	97ba                	add	a5,a5,a4
10002e58:	02000713          	li	a4,32
10002e5c:	fee78023          	sb	a4,-32(a5)
10002e60:	0405                	addi	s0,s0,1
10002e62:	bf71                	j	10002dfe <_ftoa+0x3ee>

10002e64 <_vsnprintf>:
10002e64:	711d                	addi	sp,sp,-96
10002e66:	ce86                	sw	ra,92(sp)
10002e68:	cca2                	sw	s0,88(sp)
10002e6a:	caa6                	sw	s1,84(sp)
10002e6c:	c8ca                	sw	s2,80(sp)
10002e6e:	c6ce                	sw	s3,76(sp)
10002e70:	c4d2                	sw	s4,72(sp)
10002e72:	c2d6                	sw	s5,68(sp)
10002e74:	c0da                	sw	s6,64(sp)
10002e76:	8a2a                	mv	s4,a0
10002e78:	89ae                	mv	s3,a1
10002e7a:	8932                	mv	s2,a2
10002e7c:	ce36                	sw	a3,28(sp)
10002e7e:	cc3a                	sw	a4,24(sp)
10002e80:	6a058463          	beqz	a1,10003528 <_vsnprintf+0x6c4>
10002e84:	4481                	li	s1,0
10002e86:	47f2                	lw	a5,28(sp)
10002e88:	0007c503          	lbu	a0,0(a5)
10002e8c:	6a050363          	beqz	a0,10003532 <_vsnprintf+0x6ce>
10002e90:	02500713          	li	a4,37
10002e94:	00e50d63          	beq	a0,a4,10002eae <_vsnprintf+0x4a>
10002e98:	00148413          	addi	s0,s1,1
10002e9c:	86ca                	mv	a3,s2
10002e9e:	8626                	mv	a2,s1
10002ea0:	85ce                	mv	a1,s3
10002ea2:	9a02                	jalr	s4
10002ea4:	47f2                	lw	a5,28(sp)
10002ea6:	0785                	addi	a5,a5,1
10002ea8:	ce3e                	sw	a5,28(sp)
10002eaa:	84a2                	mv	s1,s0
10002eac:	bfe9                	j	10002e86 <_vsnprintf+0x22>
10002eae:	0785                	addi	a5,a5,1
10002eb0:	ce3e                	sw	a5,28(sp)
10002eb2:	4401                	li	s0,0
10002eb4:	a805                	j	10002ee4 <_vsnprintf+0x80>
10002eb6:	02000693          	li	a3,32
10002eba:	06d70263          	beq	a4,a3,10002f1e <_vsnprintf+0xba>
10002ebe:	02300693          	li	a3,35
10002ec2:	00d71863          	bne	a4,a3,10002ed2 <_vsnprintf+0x6e>
10002ec6:	01046413          	ori	s0,s0,16
10002eca:	0785                	addi	a5,a5,1
10002ecc:	ce3e                	sw	a5,28(sp)
10002ece:	4a85                	li	s5,1
10002ed0:	a801                	j	10002ee0 <_vsnprintf+0x7c>
10002ed2:	4a81                	li	s5,0
10002ed4:	a031                	j	10002ee0 <_vsnprintf+0x7c>
10002ed6:	00246413          	ori	s0,s0,2
10002eda:	0785                	addi	a5,a5,1
10002edc:	ce3e                	sw	a5,28(sp)
10002ede:	4a85                	li	s5,1
10002ee0:	040a8763          	beqz	s5,10002f2e <_vsnprintf+0xca>
10002ee4:	47f2                	lw	a5,28(sp)
10002ee6:	0007c703          	lbu	a4,0(a5)
10002eea:	02b00693          	li	a3,43
10002eee:	02d70263          	beq	a4,a3,10002f12 <_vsnprintf+0xae>
10002ef2:	fce6f2e3          	bgeu	a3,a4,10002eb6 <_vsnprintf+0x52>
10002ef6:	02d00693          	li	a3,45
10002efa:	fcd70ee3          	beq	a4,a3,10002ed6 <_vsnprintf+0x72>
10002efe:	03000693          	li	a3,48
10002f02:	02d71463          	bne	a4,a3,10002f2a <_vsnprintf+0xc6>
10002f06:	00146413          	ori	s0,s0,1
10002f0a:	0785                	addi	a5,a5,1
10002f0c:	ce3e                	sw	a5,28(sp)
10002f0e:	4a85                	li	s5,1
10002f10:	bfc1                	j	10002ee0 <_vsnprintf+0x7c>
10002f12:	00446413          	ori	s0,s0,4
10002f16:	0785                	addi	a5,a5,1
10002f18:	ce3e                	sw	a5,28(sp)
10002f1a:	4a85                	li	s5,1
10002f1c:	b7d1                	j	10002ee0 <_vsnprintf+0x7c>
10002f1e:	00846413          	ori	s0,s0,8
10002f22:	0785                	addi	a5,a5,1
10002f24:	ce3e                	sw	a5,28(sp)
10002f26:	4a85                	li	s5,1
10002f28:	bf65                	j	10002ee0 <_vsnprintf+0x7c>
10002f2a:	4a81                	li	s5,0
10002f2c:	bf55                	j	10002ee0 <_vsnprintf+0x7c>
10002f2e:	47f2                	lw	a5,28(sp)
10002f30:	0007c703          	lbu	a4,0(a5)
10002f34:	fd070793          	addi	a5,a4,-48
10002f38:	0ff7f793          	zext.b	a5,a5
10002f3c:	46a5                	li	a3,9
10002f3e:	04f6f463          	bgeu	a3,a5,10002f86 <_vsnprintf+0x122>
10002f42:	02a00793          	li	a5,42
10002f46:	04f70563          	beq	a4,a5,10002f90 <_vsnprintf+0x12c>
10002f4a:	8b56                	mv	s6,s5
10002f4c:	47f2                	lw	a5,28(sp)
10002f4e:	0007c683          	lbu	a3,0(a5)
10002f52:	02e00713          	li	a4,46
10002f56:	04e68e63          	beq	a3,a4,10002fb2 <_vsnprintf+0x14e>
10002f5a:	47f2                	lw	a5,28(sp)
10002f5c:	0007c703          	lbu	a4,0(a5)
10002f60:	06c00693          	li	a3,108
10002f64:	0ad70763          	beq	a4,a3,10003012 <_vsnprintf+0x1ae>
10002f68:	08e6f863          	bgeu	a3,a4,10002ff8 <_vsnprintf+0x194>
10002f6c:	07400693          	li	a3,116
10002f70:	0ed70563          	beq	a4,a3,1000305a <_vsnprintf+0x1f6>
10002f74:	07a00693          	li	a3,122
10002f78:	0ed71563          	bne	a4,a3,10003062 <_vsnprintf+0x1fe>
10002f7c:	10046413          	ori	s0,s0,256
10002f80:	0785                	addi	a5,a5,1
10002f82:	ce3e                	sw	a5,28(sp)
10002f84:	a8f9                	j	10003062 <_vsnprintf+0x1fe>
10002f86:	0868                	addi	a0,sp,28
10002f88:	9d0ff0ef          	jal	10002158 <_atoi>
10002f8c:	8b2a                	mv	s6,a0
10002f8e:	bf7d                	j	10002f4c <_vsnprintf+0xe8>
10002f90:	47e2                	lw	a5,24(sp)
10002f92:	00478713          	addi	a4,a5,4
10002f96:	cc3a                	sw	a4,24(sp)
10002f98:	0007ab03          	lw	s6,0(a5)
10002f9c:	000b4663          	bltz	s6,10002fa8 <_vsnprintf+0x144>
10002fa0:	47f2                	lw	a5,28(sp)
10002fa2:	0785                	addi	a5,a5,1
10002fa4:	ce3e                	sw	a5,28(sp)
10002fa6:	b75d                	j	10002f4c <_vsnprintf+0xe8>
10002fa8:	00246413          	ori	s0,s0,2
10002fac:	41600b33          	neg	s6,s6
10002fb0:	bfc5                	j	10002fa0 <_vsnprintf+0x13c>
10002fb2:	40046413          	ori	s0,s0,1024
10002fb6:	00178713          	addi	a4,a5,1
10002fba:	ce3a                	sw	a4,28(sp)
10002fbc:	0017c703          	lbu	a4,1(a5)
10002fc0:	fd070793          	addi	a5,a4,-48
10002fc4:	0ff7f793          	zext.b	a5,a5
10002fc8:	46a5                	li	a3,9
10002fca:	02f6f263          	bgeu	a3,a5,10002fee <_vsnprintf+0x18a>
10002fce:	02a00793          	li	a5,42
10002fd2:	f8f714e3          	bne	a4,a5,10002f5a <_vsnprintf+0xf6>
10002fd6:	47e2                	lw	a5,24(sp)
10002fd8:	00478713          	addi	a4,a5,4
10002fdc:	cc3a                	sw	a4,24(sp)
10002fde:	0007aa83          	lw	s5,0(a5)
10002fe2:	0a0aeab3          	max	s5,s5,zero
10002fe6:	47f2                	lw	a5,28(sp)
10002fe8:	0785                	addi	a5,a5,1
10002fea:	ce3e                	sw	a5,28(sp)
10002fec:	b7bd                	j	10002f5a <_vsnprintf+0xf6>
10002fee:	0868                	addi	a0,sp,28
10002ff0:	968ff0ef          	jal	10002158 <_atoi>
10002ff4:	8aaa                	mv	s5,a0
10002ff6:	b795                	j	10002f5a <_vsnprintf+0xf6>
10002ff8:	06800693          	li	a3,104
10002ffc:	02d70d63          	beq	a4,a3,10003036 <_vsnprintf+0x1d2>
10003000:	06a00693          	li	a3,106
10003004:	04d71f63          	bne	a4,a3,10003062 <_vsnprintf+0x1fe>
10003008:	20046413          	ori	s0,s0,512
1000300c:	0785                	addi	a5,a5,1
1000300e:	ce3e                	sw	a5,28(sp)
10003010:	a889                	j	10003062 <_vsnprintf+0x1fe>
10003012:	10046613          	ori	a2,s0,256
10003016:	00178713          	addi	a4,a5,1
1000301a:	ce3a                	sw	a4,28(sp)
1000301c:	0017c683          	lbu	a3,1(a5)
10003020:	06c00713          	li	a4,108
10003024:	00e68463          	beq	a3,a4,1000302c <_vsnprintf+0x1c8>
10003028:	8432                	mv	s0,a2
1000302a:	a825                	j	10003062 <_vsnprintf+0x1fe>
1000302c:	30046413          	ori	s0,s0,768
10003030:	0789                	addi	a5,a5,2
10003032:	ce3e                	sw	a5,28(sp)
10003034:	a03d                	j	10003062 <_vsnprintf+0x1fe>
10003036:	08046613          	ori	a2,s0,128
1000303a:	00178713          	addi	a4,a5,1
1000303e:	ce3a                	sw	a4,28(sp)
10003040:	0017c683          	lbu	a3,1(a5)
10003044:	06800713          	li	a4,104
10003048:	00e68463          	beq	a3,a4,10003050 <_vsnprintf+0x1ec>
1000304c:	8432                	mv	s0,a2
1000304e:	a811                	j	10003062 <_vsnprintf+0x1fe>
10003050:	0c046413          	ori	s0,s0,192
10003054:	0789                	addi	a5,a5,2
10003056:	ce3e                	sw	a5,28(sp)
10003058:	a029                	j	10003062 <_vsnprintf+0x1fe>
1000305a:	10046413          	ori	s0,s0,256
1000305e:	0785                	addi	a5,a5,1
10003060:	ce3e                	sw	a5,28(sp)
10003062:	47f2                	lw	a5,28(sp)
10003064:	0007c503          	lbu	a0,0(a5)
10003068:	06500793          	li	a5,101
1000306c:	0af50563          	beq	a0,a5,10003116 <_vsnprintf+0x2b2>
10003070:	12a7e663          	bltu	a5,a0,1000319c <_vsnprintf+0x338>
10003074:	04600793          	li	a5,70
10003078:	16f50563          	beq	a0,a5,100031e2 <_vsnprintf+0x37e>
1000307c:	02a7ff63          	bgeu	a5,a0,100030ba <_vsnprintf+0x256>
10003080:	06300793          	li	a5,99
10003084:	06f51b63          	bne	a0,a5,100030fa <_vsnprintf+0x296>
10003088:	de5e                	sw	s7,60(sp)
1000308a:	8809                	andi	s0,s0,2
1000308c:	3a040063          	beqz	s0,1000342c <_vsnprintf+0x5c8>
10003090:	4a85                	li	s5,1
10003092:	47e2                	lw	a5,24(sp)
10003094:	00478713          	addi	a4,a5,4
10003098:	cc3a                	sw	a4,24(sp)
1000309a:	00148b93          	addi	s7,s1,1
1000309e:	86ca                	mv	a3,s2
100030a0:	8626                	mv	a2,s1
100030a2:	85ce                	mv	a1,s3
100030a4:	0007c503          	lbu	a0,0(a5)
100030a8:	9a02                	jalr	s4
100030aa:	38041d63          	bnez	s0,10003444 <_vsnprintf+0x5e0>
100030ae:	47f2                	lw	a5,28(sp)
100030b0:	0785                	addi	a5,a5,1
100030b2:	ce3e                	sw	a5,28(sp)
100030b4:	84de                	mv	s1,s7
100030b6:	5bf2                	lw	s7,60(sp)
100030b8:	b3f9                	j	10002e86 <_vsnprintf+0x22>
100030ba:	02500793          	li	a5,37
100030be:	00f51f63          	bne	a0,a5,100030dc <_vsnprintf+0x278>
100030c2:	00148413          	addi	s0,s1,1
100030c6:	86ca                	mv	a3,s2
100030c8:	8626                	mv	a2,s1
100030ca:	85ce                	mv	a1,s3
100030cc:	02500513          	li	a0,37
100030d0:	9a02                	jalr	s4
100030d2:	47f2                	lw	a5,28(sp)
100030d4:	0785                	addi	a5,a5,1
100030d6:	ce3e                	sw	a5,28(sp)
100030d8:	84a2                	mv	s1,s0
100030da:	b375                	j	10002e86 <_vsnprintf+0x22>
100030dc:	04500793          	li	a5,69
100030e0:	02f50b63          	beq	a0,a5,10003116 <_vsnprintf+0x2b2>
100030e4:	00148413          	addi	s0,s1,1
100030e8:	86ca                	mv	a3,s2
100030ea:	8626                	mv	a2,s1
100030ec:	85ce                	mv	a1,s3
100030ee:	9a02                	jalr	s4
100030f0:	47f2                	lw	a5,28(sp)
100030f2:	0785                	addi	a5,a5,1
100030f4:	ce3e                	sw	a5,28(sp)
100030f6:	84a2                	mv	s1,s0
100030f8:	b379                	j	10002e86 <_vsnprintf+0x22>
100030fa:	06a7e863          	bltu	a5,a0,1000316a <_vsnprintf+0x306>
100030fe:	05800793          	li	a5,88
10003102:	06f50863          	beq	a0,a5,10003172 <_vsnprintf+0x30e>
10003106:	06200793          	li	a5,98
1000310a:	06f50463          	beq	a0,a5,10003172 <_vsnprintf+0x30e>
1000310e:	04700793          	li	a5,71
10003112:	fcf519e3          	bne	a0,a5,100030e4 <_vsnprintf+0x280>
10003116:	fb950793          	addi	a5,a0,-71
1000311a:	0017b793          	seqz	a5,a5
1000311e:	f9950713          	addi	a4,a0,-103
10003122:	00173713          	seqz	a4,a4
10003126:	8f5d                	or	a4,a4,a5
10003128:	c319                	beqz	a4,1000312e <_vsnprintf+0x2ca>
1000312a:	28b41413          	bseti	s0,s0,0xb
1000312e:	fbb50713          	addi	a4,a0,-69
10003132:	00173713          	seqz	a4,a4
10003136:	8fd9                	or	a5,a5,a4
10003138:	c399                	beqz	a5,1000313e <_vsnprintf+0x2da>
1000313a:	02046413          	ori	s0,s0,32
1000313e:	47e2                	lw	a5,24(sp)
10003140:	079d                	addi	a5,a5,7
10003142:	9be1                	andi	a5,a5,-8
10003144:	00878713          	addi	a4,a5,8
10003148:	cc3a                	sw	a4,24(sp)
1000314a:	4398                	lw	a4,0(a5)
1000314c:	43dc                	lw	a5,4(a5)
1000314e:	c022                	sw	s0,0(sp)
10003150:	88da                	mv	a7,s6
10003152:	8856                	mv	a6,s5
10003154:	86ca                	mv	a3,s2
10003156:	8626                	mv	a2,s1
10003158:	85ce                	mv	a1,s3
1000315a:	8552                	mv	a0,s4
1000315c:	be8ff0ef          	jal	10002544 <_etoa>
10003160:	84aa                	mv	s1,a0
10003162:	47f2                	lw	a5,28(sp)
10003164:	0785                	addi	a5,a5,1
10003166:	ce3e                	sw	a5,28(sp)
10003168:	bb39                	j	10002e86 <_vsnprintf+0x22>
1000316a:	06400793          	li	a5,100
1000316e:	f6f51be3          	bne	a0,a5,100030e4 <_vsnprintf+0x280>
10003172:	f8850793          	addi	a5,a0,-120
10003176:	0017b793          	seqz	a5,a5
1000317a:	fa850713          	addi	a4,a0,-88
1000317e:	00173713          	seqz	a4,a4
10003182:	8fd9                	or	a5,a5,a4
10003184:	efcd                	bnez	a5,1000323e <_vsnprintf+0x3da>
10003186:	06f00793          	li	a5,111
1000318a:	12f50b63          	beq	a0,a5,100032c0 <_vsnprintf+0x45c>
1000318e:	06200793          	li	a5,98
10003192:	12f50963          	beq	a0,a5,100032c4 <_vsnprintf+0x460>
10003196:	983d                	andi	s0,s0,-17
10003198:	4829                	li	a6,10
1000319a:	a05d                	j	10003240 <_vsnprintf+0x3dc>
1000319c:	07000793          	li	a5,112
100031a0:	34f50c63          	beq	a0,a5,100034f8 <_vsnprintf+0x694>
100031a4:	02a7f563          	bgeu	a5,a0,100031ce <_vsnprintf+0x36a>
100031a8:	07300793          	li	a5,115
100031ac:	06f51e63          	bne	a0,a5,10003228 <_vsnprintf+0x3c4>
100031b0:	de5e                	sw	s7,60(sp)
100031b2:	dc62                	sw	s8,56(sp)
100031b4:	da66                	sw	s9,52(sp)
100031b6:	d66e                	sw	s11,44(sp)
100031b8:	47e2                	lw	a5,24(sp)
100031ba:	00478713          	addi	a4,a5,4
100031be:	cc3a                	sw	a4,24(sp)
100031c0:	0007ac03          	lw	s8,0(a5)
100031c4:	2a0a9b63          	bnez	s5,1000347a <_vsnprintf+0x616>
100031c8:	577d                	li	a4,-1
100031ca:	87e2                	mv	a5,s8
100031cc:	a459                	j	10003452 <_vsnprintf+0x5ee>
100031ce:	06700793          	li	a5,103
100031d2:	f4f502e3          	beq	a0,a5,10003116 <_vsnprintf+0x2b2>
100031d6:	04a7e063          	bltu	a5,a0,10003216 <_vsnprintf+0x3b2>
100031da:	06600793          	li	a5,102
100031de:	f0f513e3          	bne	a0,a5,100030e4 <_vsnprintf+0x280>
100031e2:	04600793          	li	a5,70
100031e6:	22f50163          	beq	a0,a5,10003408 <_vsnprintf+0x5a4>
100031ea:	47e2                	lw	a5,24(sp)
100031ec:	079d                	addi	a5,a5,7
100031ee:	9be1                	andi	a5,a5,-8
100031f0:	00878713          	addi	a4,a5,8
100031f4:	cc3a                	sw	a4,24(sp)
100031f6:	4398                	lw	a4,0(a5)
100031f8:	43dc                	lw	a5,4(a5)
100031fa:	c022                	sw	s0,0(sp)
100031fc:	88da                	mv	a7,s6
100031fe:	8856                	mv	a6,s5
10003200:	86ca                	mv	a3,s2
10003202:	8626                	mv	a2,s1
10003204:	85ce                	mv	a1,s3
10003206:	8552                	mv	a0,s4
10003208:	809ff0ef          	jal	10002a10 <_ftoa>
1000320c:	84aa                	mv	s1,a0
1000320e:	47f2                	lw	a5,28(sp)
10003210:	0785                	addi	a5,a5,1
10003212:	ce3e                	sw	a5,28(sp)
10003214:	b98d                	j	10002e86 <_vsnprintf+0x22>
10003216:	06900793          	li	a5,105
1000321a:	f4f50ce3          	beq	a0,a5,10003172 <_vsnprintf+0x30e>
1000321e:	06f00793          	li	a5,111
10003222:	f4f508e3          	beq	a0,a5,10003172 <_vsnprintf+0x30e>
10003226:	bd7d                	j	100030e4 <_vsnprintf+0x280>
10003228:	eaf56ee3          	bltu	a0,a5,100030e4 <_vsnprintf+0x280>
1000322c:	07500793          	li	a5,117
10003230:	f4f501e3          	beq	a0,a5,10003172 <_vsnprintf+0x30e>
10003234:	07800793          	li	a5,120
10003238:	f2f50de3          	beq	a0,a5,10003172 <_vsnprintf+0x30e>
1000323c:	b565                	j	100030e4 <_vsnprintf+0x280>
1000323e:	4841                	li	a6,16
10003240:	05800793          	li	a5,88
10003244:	08f50263          	beq	a0,a5,100032c8 <_vsnprintf+0x464>
10003248:	f9750793          	addi	a5,a0,-105
1000324c:	00f037b3          	snez	a5,a5
10003250:	f9c50713          	addi	a4,a0,-100
10003254:	00e03733          	snez	a4,a4
10003258:	8ff9                	and	a5,a5,a4
1000325a:	c391                	beqz	a5,1000325e <_vsnprintf+0x3fa>
1000325c:	984d                	andi	s0,s0,-13
1000325e:	40047793          	andi	a5,s0,1024
10003262:	c391                	beqz	a5,10003266 <_vsnprintf+0x402>
10003264:	9879                	andi	s0,s0,-2
10003266:	f9750793          	addi	a5,a0,-105
1000326a:	0017b793          	seqz	a5,a5
1000326e:	f9c50713          	addi	a4,a0,-100
10003272:	00173713          	seqz	a4,a4
10003276:	8fd9                	or	a5,a5,a4
10003278:	c7f5                	beqz	a5,10003364 <_vsnprintf+0x500>
1000327a:	20047793          	andi	a5,s0,512
1000327e:	eba1                	bnez	a5,100032ce <_vsnprintf+0x46a>
10003280:	10047793          	andi	a5,s0,256
10003284:	ebd1                	bnez	a5,10003318 <_vsnprintf+0x4b4>
10003286:	04047793          	andi	a5,s0,64
1000328a:	cfcd                	beqz	a5,10003344 <_vsnprintf+0x4e0>
1000328c:	47e2                	lw	a5,24(sp)
1000328e:	00478713          	addi	a4,a5,4
10003292:	cc3a                	sw	a4,24(sp)
10003294:	0007c703          	lbu	a4,0(a5)
10003298:	40e006b3          	neg	a3,a4
1000329c:	c222                	sw	s0,4(sp)
1000329e:	c05a                	sw	s6,0(sp)
100032a0:	88d6                	mv	a7,s5
100032a2:	01f75793          	srli	a5,a4,0x1f
100032a6:	0ad76733          	max	a4,a4,a3
100032aa:	86ca                	mv	a3,s2
100032ac:	8626                	mv	a2,s1
100032ae:	85ce                	mv	a1,s3
100032b0:	8552                	mv	a0,s4
100032b2:	8faff0ef          	jal	100023ac <_ntoa_long>
100032b6:	84aa                	mv	s1,a0
100032b8:	47f2                	lw	a5,28(sp)
100032ba:	0785                	addi	a5,a5,1
100032bc:	ce3e                	sw	a5,28(sp)
100032be:	b6e1                	j	10002e86 <_vsnprintf+0x22>
100032c0:	4821                	li	a6,8
100032c2:	bfbd                	j	10003240 <_vsnprintf+0x3dc>
100032c4:	4809                	li	a6,2
100032c6:	bfad                	j	10003240 <_vsnprintf+0x3dc>
100032c8:	02046413          	ori	s0,s0,32
100032cc:	bfb5                	j	10003248 <_vsnprintf+0x3e4>
100032ce:	47e2                	lw	a5,24(sp)
100032d0:	079d                	addi	a5,a5,7
100032d2:	9be1                	andi	a5,a5,-8
100032d4:	00878713          	addi	a4,a5,8
100032d8:	cc3a                	sw	a4,24(sp)
100032da:	4398                	lw	a4,0(a5)
100032dc:	43cc                	lw	a1,4(a5)
100032de:	41f5d693          	srai	a3,a1,0x1f
100032e2:	00e6c7b3          	xor	a5,a3,a4
100032e6:	00b6c633          	xor	a2,a3,a1
100032ea:	40d78733          	sub	a4,a5,a3
100032ee:	00e7b7b3          	sltu	a5,a5,a4
100032f2:	40d606b3          	sub	a3,a2,a3
100032f6:	c622                	sw	s0,12(sp)
100032f8:	c45a                	sw	s6,8(sp)
100032fa:	c256                	sw	s5,4(sp)
100032fc:	c002                	sw	zero,0(sp)
100032fe:	88c2                	mv	a7,a6
10003300:	01f5d813          	srli	a6,a1,0x1f
10003304:	40f687b3          	sub	a5,a3,a5
10003308:	86ca                	mv	a3,s2
1000330a:	8626                	mv	a2,s1
1000330c:	85ce                	mv	a1,s3
1000330e:	8552                	mv	a0,s4
10003310:	92aff0ef          	jal	1000243a <_ntoa_long_long>
10003314:	84aa                	mv	s1,a0
10003316:	b74d                	j	100032b8 <_vsnprintf+0x454>
10003318:	47e2                	lw	a5,24(sp)
1000331a:	00478713          	addi	a4,a5,4
1000331e:	cc3a                	sw	a4,24(sp)
10003320:	4398                	lw	a4,0(a5)
10003322:	40e006b3          	neg	a3,a4
10003326:	c222                	sw	s0,4(sp)
10003328:	c05a                	sw	s6,0(sp)
1000332a:	88d6                	mv	a7,s5
1000332c:	01f75793          	srli	a5,a4,0x1f
10003330:	0ad76733          	max	a4,a4,a3
10003334:	86ca                	mv	a3,s2
10003336:	8626                	mv	a2,s1
10003338:	85ce                	mv	a1,s3
1000333a:	8552                	mv	a0,s4
1000333c:	870ff0ef          	jal	100023ac <_ntoa_long>
10003340:	84aa                	mv	s1,a0
10003342:	bf9d                	j	100032b8 <_vsnprintf+0x454>
10003344:	08047793          	andi	a5,s0,128
10003348:	cb81                	beqz	a5,10003358 <_vsnprintf+0x4f4>
1000334a:	47e2                	lw	a5,24(sp)
1000334c:	00478713          	addi	a4,a5,4
10003350:	cc3a                	sw	a4,24(sp)
10003352:	00079703          	lh	a4,0(a5)
10003356:	b789                	j	10003298 <_vsnprintf+0x434>
10003358:	47e2                	lw	a5,24(sp)
1000335a:	00478713          	addi	a4,a5,4
1000335e:	cc3a                	sw	a4,24(sp)
10003360:	4398                	lw	a4,0(a5)
10003362:	bf1d                	j	10003298 <_vsnprintf+0x434>
10003364:	20047793          	andi	a5,s0,512
10003368:	eb8d                	bnez	a5,1000339a <_vsnprintf+0x536>
1000336a:	10047793          	andi	a5,s0,256
1000336e:	efa1                	bnez	a5,100033c6 <_vsnprintf+0x562>
10003370:	04047793          	andi	a5,s0,64
10003374:	cbb5                	beqz	a5,100033e8 <_vsnprintf+0x584>
10003376:	47e2                	lw	a5,24(sp)
10003378:	00478713          	addi	a4,a5,4
1000337c:	cc3a                	sw	a4,24(sp)
1000337e:	0007c703          	lbu	a4,0(a5)
10003382:	c222                	sw	s0,4(sp)
10003384:	c05a                	sw	s6,0(sp)
10003386:	88d6                	mv	a7,s5
10003388:	4781                	li	a5,0
1000338a:	86ca                	mv	a3,s2
1000338c:	8626                	mv	a2,s1
1000338e:	85ce                	mv	a1,s3
10003390:	8552                	mv	a0,s4
10003392:	81aff0ef          	jal	100023ac <_ntoa_long>
10003396:	84aa                	mv	s1,a0
10003398:	b705                	j	100032b8 <_vsnprintf+0x454>
1000339a:	47e2                	lw	a5,24(sp)
1000339c:	079d                	addi	a5,a5,7
1000339e:	9be1                	andi	a5,a5,-8
100033a0:	00878713          	addi	a4,a5,8
100033a4:	cc3a                	sw	a4,24(sp)
100033a6:	4398                	lw	a4,0(a5)
100033a8:	43dc                	lw	a5,4(a5)
100033aa:	c622                	sw	s0,12(sp)
100033ac:	c45a                	sw	s6,8(sp)
100033ae:	c256                	sw	s5,4(sp)
100033b0:	c002                	sw	zero,0(sp)
100033b2:	88c2                	mv	a7,a6
100033b4:	4801                	li	a6,0
100033b6:	86ca                	mv	a3,s2
100033b8:	8626                	mv	a2,s1
100033ba:	85ce                	mv	a1,s3
100033bc:	8552                	mv	a0,s4
100033be:	87cff0ef          	jal	1000243a <_ntoa_long_long>
100033c2:	84aa                	mv	s1,a0
100033c4:	bdd5                	j	100032b8 <_vsnprintf+0x454>
100033c6:	47e2                	lw	a5,24(sp)
100033c8:	00478713          	addi	a4,a5,4
100033cc:	cc3a                	sw	a4,24(sp)
100033ce:	4398                	lw	a4,0(a5)
100033d0:	c222                	sw	s0,4(sp)
100033d2:	c05a                	sw	s6,0(sp)
100033d4:	88d6                	mv	a7,s5
100033d6:	4781                	li	a5,0
100033d8:	86ca                	mv	a3,s2
100033da:	8626                	mv	a2,s1
100033dc:	85ce                	mv	a1,s3
100033de:	8552                	mv	a0,s4
100033e0:	fcdfe0ef          	jal	100023ac <_ntoa_long>
100033e4:	84aa                	mv	s1,a0
100033e6:	bdc9                	j	100032b8 <_vsnprintf+0x454>
100033e8:	08047793          	andi	a5,s0,128
100033ec:	cb81                	beqz	a5,100033fc <_vsnprintf+0x598>
100033ee:	47e2                	lw	a5,24(sp)
100033f0:	00478713          	addi	a4,a5,4
100033f4:	cc3a                	sw	a4,24(sp)
100033f6:	0007d703          	lhu	a4,0(a5)
100033fa:	b761                	j	10003382 <_vsnprintf+0x51e>
100033fc:	47e2                	lw	a5,24(sp)
100033fe:	00478713          	addi	a4,a5,4
10003402:	cc3a                	sw	a4,24(sp)
10003404:	4398                	lw	a4,0(a5)
10003406:	bfb5                	j	10003382 <_vsnprintf+0x51e>
10003408:	02046413          	ori	s0,s0,32
1000340c:	bbf9                	j	100031ea <_vsnprintf+0x386>
1000340e:	00148b93          	addi	s7,s1,1
10003412:	86ca                	mv	a3,s2
10003414:	8626                	mv	a2,s1
10003416:	85ce                	mv	a1,s3
10003418:	02000513          	li	a0,32
1000341c:	9a02                	jalr	s4
1000341e:	87d6                	mv	a5,s5
10003420:	84de                	mv	s1,s7
10003422:	00178a93          	addi	s5,a5,1
10003426:	ff67e4e3          	bltu	a5,s6,1000340e <_vsnprintf+0x5aa>
1000342a:	b1a5                	j	10003092 <_vsnprintf+0x22e>
1000342c:	4785                	li	a5,1
1000342e:	bfd5                	j	10003422 <_vsnprintf+0x5be>
10003430:	001b8493          	addi	s1,s7,1
10003434:	86ca                	mv	a3,s2
10003436:	865e                	mv	a2,s7
10003438:	85ce                	mv	a1,s3
1000343a:	02000513          	li	a0,32
1000343e:	9a02                	jalr	s4
10003440:	8aa2                	mv	s5,s0
10003442:	8ba6                	mv	s7,s1
10003444:	001a8413          	addi	s0,s5,1
10003448:	ff6ae4e3          	bltu	s5,s6,10003430 <_vsnprintf+0x5cc>
1000344c:	b18d                	j	100030ae <_vsnprintf+0x24a>
1000344e:	0785                	addi	a5,a5,1
10003450:	8736                	mv	a4,a3
10003452:	0007c683          	lbu	a3,0(a5)
10003456:	c681                	beqz	a3,1000345e <_vsnprintf+0x5fa>
10003458:	fff70693          	addi	a3,a4,-1
1000345c:	fb6d                	bnez	a4,1000344e <_vsnprintf+0x5ea>
1000345e:	41878bb3          	sub	s7,a5,s8
10003462:	40047c93          	andi	s9,s0,1024
10003466:	000c8463          	beqz	s9,1000346e <_vsnprintf+0x60a>
1000346a:	0b5bdbb3          	minu	s7,s7,s5
1000346e:	00247793          	andi	a5,s0,2
10003472:	8dbe                	mv	s11,a5
10003474:	e3a1                	bnez	a5,100034b4 <_vsnprintf+0x650>
10003476:	d86a                	sw	s10,48(sp)
10003478:	a831                	j	10003494 <_vsnprintf+0x630>
1000347a:	8756                	mv	a4,s5
1000347c:	b3b9                	j	100031ca <_vsnprintf+0x366>
1000347e:	00148793          	addi	a5,s1,1
10003482:	8d3e                	mv	s10,a5
10003484:	86ca                	mv	a3,s2
10003486:	8626                	mv	a2,s1
10003488:	85ce                	mv	a1,s3
1000348a:	02000513          	li	a0,32
1000348e:	9a02                	jalr	s4
10003490:	8ba2                	mv	s7,s0
10003492:	84ea                	mv	s1,s10
10003494:	001b8413          	addi	s0,s7,1
10003498:	ff6be3e3          	bltu	s7,s6,1000347e <_vsnprintf+0x61a>
1000349c:	8ba2                	mv	s7,s0
1000349e:	5d42                	lw	s10,48(sp)
100034a0:	a811                	j	100034b4 <_vsnprintf+0x650>
100034a2:	8abe                	mv	s5,a5
100034a4:	0c05                	addi	s8,s8,1
100034a6:	00148413          	addi	s0,s1,1
100034aa:	86ca                	mv	a3,s2
100034ac:	8626                	mv	a2,s1
100034ae:	85ce                	mv	a1,s3
100034b0:	9a02                	jalr	s4
100034b2:	84a2                	mv	s1,s0
100034b4:	000c4503          	lbu	a0,0(s8)
100034b8:	c519                	beqz	a0,100034c6 <_vsnprintf+0x662>
100034ba:	fe0c85e3          	beqz	s9,100034a4 <_vsnprintf+0x640>
100034be:	fffa8793          	addi	a5,s5,-1
100034c2:	fe0a90e3          	bnez	s5,100034a2 <_vsnprintf+0x63e>
100034c6:	020d9463          	bnez	s11,100034ee <_vsnprintf+0x68a>
100034ca:	47f2                	lw	a5,28(sp)
100034cc:	0785                	addi	a5,a5,1
100034ce:	ce3e                	sw	a5,28(sp)
100034d0:	5bf2                	lw	s7,60(sp)
100034d2:	5c62                	lw	s8,56(sp)
100034d4:	5cd2                	lw	s9,52(sp)
100034d6:	5db2                	lw	s11,44(sp)
100034d8:	b27d                	j	10002e86 <_vsnprintf+0x22>
100034da:	00148a93          	addi	s5,s1,1
100034de:	86ca                	mv	a3,s2
100034e0:	8626                	mv	a2,s1
100034e2:	85ce                	mv	a1,s3
100034e4:	02000513          	li	a0,32
100034e8:	9a02                	jalr	s4
100034ea:	8ba2                	mv	s7,s0
100034ec:	84d6                	mv	s1,s5
100034ee:	001b8413          	addi	s0,s7,1
100034f2:	ff6be4e3          	bltu	s7,s6,100034da <_vsnprintf+0x676>
100034f6:	bfd1                	j	100034ca <_vsnprintf+0x666>
100034f8:	02146413          	ori	s0,s0,33
100034fc:	47e2                	lw	a5,24(sp)
100034fe:	00478713          	addi	a4,a5,4
10003502:	cc3a                	sw	a4,24(sp)
10003504:	4398                	lw	a4,0(a5)
10003506:	c222                	sw	s0,4(sp)
10003508:	47a1                	li	a5,8
1000350a:	c03e                	sw	a5,0(sp)
1000350c:	88d6                	mv	a7,s5
1000350e:	4841                	li	a6,16
10003510:	4781                	li	a5,0
10003512:	86ca                	mv	a3,s2
10003514:	8626                	mv	a2,s1
10003516:	85ce                	mv	a1,s3
10003518:	8552                	mv	a0,s4
1000351a:	e93fe0ef          	jal	100023ac <_ntoa_long>
1000351e:	84aa                	mv	s1,a0
10003520:	47f2                	lw	a5,28(sp)
10003522:	0785                	addi	a5,a5,1
10003524:	ce3e                	sw	a5,28(sp)
10003526:	b285                	j	10002e86 <_vsnprintf+0x22>
10003528:	10002a37          	lui	s4,0x10002
1000352c:	142a0a13          	addi	s4,s4,322 # 10002142 <_out_null>
10003530:	ba91                	j	10002e84 <_vsnprintf+0x20>
10003532:	0324e363          	bltu	s1,s2,10003558 <_vsnprintf+0x6f4>
10003536:	fff90613          	addi	a2,s2,-1
1000353a:	86ca                	mv	a3,s2
1000353c:	85ce                	mv	a1,s3
1000353e:	4501                	li	a0,0
10003540:	9a02                	jalr	s4
10003542:	8526                	mv	a0,s1
10003544:	40f6                	lw	ra,92(sp)
10003546:	4466                	lw	s0,88(sp)
10003548:	44d6                	lw	s1,84(sp)
1000354a:	4946                	lw	s2,80(sp)
1000354c:	49b6                	lw	s3,76(sp)
1000354e:	4a26                	lw	s4,72(sp)
10003550:	4a96                	lw	s5,68(sp)
10003552:	4b06                	lw	s6,64(sp)
10003554:	6125                	addi	sp,sp,96
10003556:	8082                	ret
10003558:	8626                	mv	a2,s1
1000355a:	b7c5                	j	1000353a <_vsnprintf+0x6d6>

1000355c <__wrap_sprintf>:
1000355c:	7139                	addi	sp,sp,-64
1000355e:	ce06                	sw	ra,28(sp)
10003560:	d432                	sw	a2,40(sp)
10003562:	d636                	sw	a3,44(sp)
10003564:	d83a                	sw	a4,48(sp)
10003566:	da3e                	sw	a5,52(sp)
10003568:	dc42                	sw	a6,56(sp)
1000356a:	de46                	sw	a7,60(sp)
1000356c:	1038                	addi	a4,sp,40
1000356e:	c63a                	sw	a4,12(sp)
10003570:	86ae                	mv	a3,a1
10003572:	567d                	li	a2,-1
10003574:	85aa                	mv	a1,a0
10003576:	10002537          	lui	a0,0x10002
1000357a:	13650513          	addi	a0,a0,310 # 10002136 <_out_buffer>
1000357e:	8e7ff0ef          	jal	10002e64 <_vsnprintf>
10003582:	40f2                	lw	ra,28(sp)
10003584:	6121                	addi	sp,sp,64
10003586:	8082                	ret

10003588 <vfctprintf>:
10003588:	1101                	addi	sp,sp,-32
1000358a:	ce06                	sw	ra,28(sp)
1000358c:	8736                	mv	a4,a3
1000358e:	c42a                	sw	a0,8(sp)
10003590:	c62e                	sw	a1,12(sp)
10003592:	86b2                	mv	a3,a2
10003594:	567d                	li	a2,-1
10003596:	002c                	addi	a1,sp,8
10003598:	10002537          	lui	a0,0x10002
1000359c:	14450513          	addi	a0,a0,324 # 10002144 <_out_fct>
100035a0:	8c5ff0ef          	jal	10002e64 <_vsnprintf>
100035a4:	40f2                	lw	ra,28(sp)
100035a6:	6105                	addi	sp,sp,32
100035a8:	8082                	ret

100035aa <runtime_init_per_core_h3_irq_registers>:
100035aa:	450d                	li	a0,3
100035ac:	be251073          	csrw	0xbe2,a0
100035b0:	157d                	addi	a0,a0,-1
100035b2:	fe055de3          	bgez	a0,100035ac <runtime_init_per_core_h3_irq_registers+0x2>
100035b6:	6505                	lui	a0,0x1
100035b8:	80050513          	addi	a0,a0,-2048 # 800 <HeapSize>
100035bc:	30451073          	csrw	mie,a0
100035c0:	30046073          	csrsi	mstatus,8
100035c4:	34001073          	csrw	mscratch,zero
100035c8:	8082                	ret

100035ca <_exit>:
100035ca:	9002                	ebreak
100035cc:	bffd                	j	100035ca <_exit>

100035ce <exit>:
100035ce:	1141                	addi	sp,sp,-16
100035d0:	c606                	sw	ra,12(sp)
100035d2:	3fe5                	jal	100035ca <_exit>

100035d4 <__assert_func>:
100035d4:	1141                	addi	sp,sp,-16
100035d6:	c606                	sw	ra,12(sp)
100035d8:	882e                	mv	a6,a1
100035da:	85b6                	mv	a1,a3
100035dc:	ce19                	beqz	a2,100035fa <__assert_func+0x26>
100035de:	87b2                	mv	a5,a2
100035e0:	10008737          	lui	a4,0x10008
100035e4:	03470713          	addi	a4,a4,52 # 10008034 <__EH_FRAME_BEGIN__+0x894>
100035e8:	86c2                	mv	a3,a6
100035ea:	862a                	mv	a2,a0
100035ec:	10008537          	lui	a0,0x10008
100035f0:	04450513          	addi	a0,a0,68 # 10008044 <__EH_FRAME_BEGIN__+0x8a4>
100035f4:	2eb9                	jal	10003952 <__wrap_printf>
100035f6:	4505                	li	a0,1
100035f8:	3fc9                	jal	100035ca <_exit>
100035fa:	10008737          	lui	a4,0x10008
100035fe:	9c070713          	addi	a4,a4,-1600 # 100079c0 <__EH_FRAME_BEGIN__+0x220>
10003602:	87ba                	mv	a5,a4
10003604:	b7d5                	j	100035e8 <__assert_func+0x14>

10003606 <runtime_init>:
10003606:	1141                	addi	sp,sp,-16
10003608:	c606                	sw	ra,12(sp)
1000360a:	c422                	sw	s0,8(sp)
1000360c:	be5027f3          	csrr	a5,0xbe5
10003610:	01079713          	slli	a4,a5,0x10
10003614:	00074363          	bltz	a4,1000361a <runtime_init+0x14>
10003618:	9002                	ebreak
1000361a:	967fe0ef          	jal	10001f80 <runtime_run_initializers>
1000361e:	10007437          	lui	s0,0x10007
10003622:	79440413          	addi	s0,s0,1940 # 10007794 <__init_array_start>
10003626:	a021                	j	1000362e <runtime_init+0x28>
10003628:	401c                	lw	a5,0(s0)
1000362a:	9782                	jalr	a5
1000362c:	0411                	addi	s0,s0,4
1000362e:	100077b7          	lui	a5,0x10007
10003632:	7a078793          	addi	a5,a5,1952 # 100077a0 <__EH_FRAME_BEGIN__>
10003636:	fef469e3          	bltu	s0,a5,10003628 <runtime_init+0x22>
1000363a:	40b2                	lw	ra,12(sp)
1000363c:	4422                	lw	s0,8(sp)
1000363e:	0141                	addi	sp,sp,16
10003640:	8082                	ret

10003642 <stdio_out_chars_no_crlf>:
10003642:	1141                	addi	sp,sp,-16
10003644:	c606                	sw	ra,12(sp)
10003646:	872e                	mv	a4,a1
10003648:	411c                	lw	a5,0(a0)
1000364a:	85b2                	mv	a1,a2
1000364c:	853a                	mv	a0,a4
1000364e:	9782                	jalr	a5
10003650:	40b2                	lw	ra,12(sp)
10003652:	0141                	addi	sp,sp,16
10003654:	8082                	ret

10003656 <stdio_out_chars_crlf>:
10003656:	1101                	addi	sp,sp,-32
10003658:	ce06                	sw	ra,28(sp)
1000365a:	ca26                	sw	s1,20(sp)
1000365c:	c84a                	sw	s2,16(sp)
1000365e:	c64e                	sw	s3,12(sp)
10003660:	89aa                	mv	s3,a0
10003662:	84ae                	mv	s1,a1
10003664:	8932                	mv	s2,a2
10003666:	01554783          	lbu	a5,21(a0)
1000366a:	c789                	beqz	a5,10003674 <stdio_out_chars_crlf+0x1e>
1000366c:	cc22                	sw	s0,24(sp)
1000366e:	4401                	li	s0,0
10003670:	4501                	li	a0,0
10003672:	a025                	j	1000369a <stdio_out_chars_crlf+0x44>
10003674:	411c                	lw	a5,0(a0)
10003676:	85b2                	mv	a1,a2
10003678:	8526                	mv	a0,s1
1000367a:	9782                	jalr	a5
1000367c:	a041                	j	100036fc <stdio_out_chars_crlf+0xa6>
1000367e:	0149c783          	lbu	a5,20(s3)
10003682:	a805                	j	100036b2 <stdio_out_chars_crlf+0x5c>
10003684:	0009a783          	lw	a5,0(s3)
10003688:	4589                	li	a1,2
1000368a:	10009537          	lui	a0,0x10009
1000368e:	a8850513          	addi	a0,a0,-1400 # 10008a88 <crlf_str.0>
10003692:	9782                	jalr	a5
10003694:	00140513          	addi	a0,s0,1
10003698:	0405                	addi	s0,s0,1
1000369a:	03245d63          	bge	s0,s2,100036d4 <stdio_out_chars_crlf+0x7e>
1000369e:	fe8050e3          	blez	s0,1000367e <stdio_out_chars_crlf+0x28>
100036a2:	fff40793          	addi	a5,s0,-1
100036a6:	97a6                	add	a5,a5,s1
100036a8:	0007c783          	lbu	a5,0(a5)
100036ac:	17cd                	addi	a5,a5,-13
100036ae:	0017b793          	seqz	a5,a5
100036b2:	00848733          	add	a4,s1,s0
100036b6:	00074683          	lbu	a3,0(a4)
100036ba:	4729                	li	a4,10
100036bc:	fce69ee3          	bne	a3,a4,10003698 <stdio_out_chars_crlf+0x42>
100036c0:	ffe1                	bnez	a5,10003698 <stdio_out_chars_crlf+0x42>
100036c2:	fc8551e3          	bge	a0,s0,10003684 <stdio_out_chars_crlf+0x2e>
100036c6:	0009a783          	lw	a5,0(s3)
100036ca:	40a405b3          	sub	a1,s0,a0
100036ce:	9526                	add	a0,a0,s1
100036d0:	9782                	jalr	a5
100036d2:	bf4d                	j	10003684 <stdio_out_chars_crlf+0x2e>
100036d4:	01255863          	bge	a0,s2,100036e4 <stdio_out_chars_crlf+0x8e>
100036d8:	0009a783          	lw	a5,0(s3)
100036dc:	40a905b3          	sub	a1,s2,a0
100036e0:	9526                	add	a0,a0,s1
100036e2:	9782                	jalr	a5
100036e4:	03205263          	blez	s2,10003708 <stdio_out_chars_crlf+0xb2>
100036e8:	197d                	addi	s2,s2,-1
100036ea:	94ca                	add	s1,s1,s2
100036ec:	0004c783          	lbu	a5,0(s1)
100036f0:	17cd                	addi	a5,a5,-13
100036f2:	0017b793          	seqz	a5,a5
100036f6:	00f98a23          	sb	a5,20(s3)
100036fa:	4462                	lw	s0,24(sp)
100036fc:	40f2                	lw	ra,28(sp)
100036fe:	44d2                	lw	s1,20(sp)
10003700:	4942                	lw	s2,16(sp)
10003702:	49b2                	lw	s3,12(sp)
10003704:	6105                	addi	sp,sp,32
10003706:	8082                	ret
10003708:	4462                	lw	s0,24(sp)
1000370a:	bfcd                	j	100036fc <stdio_out_chars_crlf+0xa6>

1000370c <stdio_stack_buffer_flush>:
1000370c:	411c                	lw	a5,0(a0)
1000370e:	cf9d                	beqz	a5,1000374c <stdio_stack_buffer_flush+0x40>
10003710:	1141                	addi	sp,sp,-16
10003712:	c606                	sw	ra,12(sp)
10003714:	c422                	sw	s0,8(sp)
10003716:	c226                	sw	s1,4(sp)
10003718:	84aa                	mv	s1,a0
1000371a:	81b1a403          	lw	s0,-2021(gp) # 20004590 <drivers>
1000371e:	a039                	j	1000372c <stdio_stack_buffer_flush+0x20>
10003720:	4090                	lw	a2,0(s1)
10003722:	00448593          	addi	a1,s1,4
10003726:	8522                	mv	a0,s0
10003728:	373d                	jal	10003656 <stdio_out_chars_crlf>
1000372a:	4800                	lw	s0,16(s0)
1000372c:	c809                	beqz	s0,1000373e <stdio_stack_buffer_flush+0x32>
1000372e:	401c                	lw	a5,0(s0)
10003730:	dfed                	beqz	a5,1000372a <stdio_stack_buffer_flush+0x1e>
10003732:	8171a783          	lw	a5,-2025(gp) # 2000458c <filter>
10003736:	d7ed                	beqz	a5,10003720 <stdio_stack_buffer_flush+0x14>
10003738:	fe8799e3          	bne	a5,s0,1000372a <stdio_stack_buffer_flush+0x1e>
1000373c:	b7d5                	j	10003720 <stdio_stack_buffer_flush+0x14>
1000373e:	0004a023          	sw	zero,0(s1)
10003742:	40b2                	lw	ra,12(sp)
10003744:	4422                	lw	s0,8(sp)
10003746:	4492                	lw	s1,4(sp)
10003748:	0141                	addi	sp,sp,16
1000374a:	8082                	ret
1000374c:	8082                	ret

1000374e <stdio_buffered_printer>:
1000374e:	1141                	addi	sp,sp,-16
10003750:	c606                	sw	ra,12(sp)
10003752:	c422                	sw	s0,8(sp)
10003754:	c226                	sw	s1,4(sp)
10003756:	84aa                	mv	s1,a0
10003758:	842e                	mv	s0,a1
1000375a:	4198                	lw	a4,0(a1)
1000375c:	08000793          	li	a5,128
10003760:	00f70e63          	beq	a4,a5,1000377c <stdio_buffered_printer+0x2e>
10003764:	401c                	lw	a5,0(s0)
10003766:	00178713          	addi	a4,a5,1
1000376a:	c018                	sw	a4,0(s0)
1000376c:	943e                	add	s0,s0,a5
1000376e:	00940223          	sb	s1,4(s0)
10003772:	40b2                	lw	ra,12(sp)
10003774:	4422                	lw	s0,8(sp)
10003776:	4492                	lw	s1,4(sp)
10003778:	0141                	addi	sp,sp,16
1000377a:	8082                	ret
1000377c:	852e                	mv	a0,a1
1000377e:	3779                	jal	1000370c <stdio_stack_buffer_flush>
10003780:	b7d5                	j	10003764 <stdio_buffered_printer+0x16>

10003782 <stdout_serialize_begin>:
10003782:	1141                	addi	sp,sp,-16
10003784:	c606                	sw	ra,12(sp)
10003786:	bccfe0ef          	jal	10001b52 <time_us_64>
1000378a:	000f47b7          	lui	a5,0xf4
1000378e:	24078793          	addi	a5,a5,576 # f4240 <HeapSize+0xf3a40>
10003792:	97aa                	add	a5,a5,a0
10003794:	00a7b633          	sltu	a2,a5,a0
10003798:	962e                	add	a2,a2,a1
1000379a:	00064e63          	bltz	a2,100037b6 <stdout_serialize_begin+0x34>
1000379e:	85be                	mv	a1,a5
100037a0:	20004537          	lui	a0,0x20004
100037a4:	82450513          	addi	a0,a0,-2012 # 20003824 <print_mutex>
100037a8:	0fffd097          	auipc	ra,0xfffd
100037ac:	95a080e7          	jalr	-1702(ra) # 20000102 <mutex_try_enter_block_until>
100037b0:	40b2                	lw	ra,12(sp)
100037b2:	0141                	addi	sp,sp,16
100037b4:	8082                	ret
100037b6:	57fd                	li	a5,-1
100037b8:	80000637          	lui	a2,0x80000
100037bc:	963e                	add	a2,a2,a5
100037be:	b7c5                	j	1000379e <stdout_serialize_begin+0x1c>

100037c0 <stdout_serialize_end>:
100037c0:	1141                	addi	sp,sp,-16
100037c2:	c606                	sw	ra,12(sp)
100037c4:	20004537          	lui	a0,0x20004
100037c8:	82450513          	addi	a0,a0,-2012 # 20003824 <print_mutex>
100037cc:	0fffd097          	auipc	ra,0xfffd
100037d0:	9bc080e7          	jalr	-1604(ra) # 20000188 <mutex_exit>
100037d4:	40b2                	lw	ra,12(sp)
100037d6:	0141                	addi	sp,sp,16
100037d8:	8082                	ret

100037da <stdio_put_string>:
100037da:	7179                	addi	sp,sp,-48
100037dc:	d606                	sw	ra,44(sp)
100037de:	d422                	sw	s0,40(sp)
100037e0:	d226                	sw	s1,36(sp)
100037e2:	d04a                	sw	s2,32(sp)
100037e4:	ce4e                	sw	s3,28(sp)
100037e6:	cc52                	sw	s4,24(sp)
100037e8:	ca56                	sw	s5,20(sp)
100037ea:	89aa                	mv	s3,a0
100037ec:	84ae                	mv	s1,a1
100037ee:	8a32                	mv	s4,a2
100037f0:	8436                	mv	s0,a3
100037f2:	3f41                	jal	10003782 <stdout_serialize_begin>
100037f4:	8aaa                	mv	s5,a0
100037f6:	57fd                	li	a5,-1
100037f8:	00f48a63          	beq	s1,a5,1000380c <stdio_put_string+0x32>
100037fc:	cc09                	beqz	s0,10003816 <stdio_put_string+0x3c>
100037fe:	10003937          	lui	s2,0x10003
10003802:	65690913          	addi	s2,s2,1622 # 10003656 <stdio_out_chars_crlf>
10003806:	81b1a403          	lw	s0,-2021(gp) # 20004590 <drivers>
1000380a:	a821                	j	10003822 <stdio_put_string+0x48>
1000380c:	854e                	mv	a0,s3
1000380e:	637030ef          	jal	10007644 <strlen>
10003812:	84aa                	mv	s1,a0
10003814:	b7e5                	j	100037fc <stdio_put_string+0x22>
10003816:	10003937          	lui	s2,0x10003
1000381a:	64290913          	addi	s2,s2,1602 # 10003642 <stdio_out_chars_no_crlf>
1000381e:	b7e5                	j	10003806 <stdio_put_string+0x2c>
10003820:	4800                	lw	s0,16(s0)
10003822:	c41d                	beqz	s0,10003850 <stdio_put_string+0x76>
10003824:	401c                	lw	a5,0(s0)
10003826:	dfed                	beqz	a5,10003820 <stdio_put_string+0x46>
10003828:	8171a783          	lw	a5,-2025(gp) # 2000458c <filter>
1000382c:	c399                	beqz	a5,10003832 <stdio_put_string+0x58>
1000382e:	fe8799e3          	bne	a5,s0,10003820 <stdio_put_string+0x46>
10003832:	8626                	mv	a2,s1
10003834:	85ce                	mv	a1,s3
10003836:	8522                	mv	a0,s0
10003838:	9902                	jalr	s2
1000383a:	fe0a03e3          	beqz	s4,10003820 <stdio_put_string+0x46>
1000383e:	47a9                	li	a5,10
10003840:	00f107a3          	sb	a5,15(sp)
10003844:	4605                	li	a2,1
10003846:	00f10593          	addi	a1,sp,15
1000384a:	8522                	mv	a0,s0
1000384c:	9902                	jalr	s2
1000384e:	bfc9                	j	10003820 <stdio_put_string+0x46>
10003850:	000a9c63          	bnez	s5,10003868 <stdio_put_string+0x8e>
10003854:	8526                	mv	a0,s1
10003856:	50b2                	lw	ra,44(sp)
10003858:	5422                	lw	s0,40(sp)
1000385a:	5492                	lw	s1,36(sp)
1000385c:	5902                	lw	s2,32(sp)
1000385e:	49f2                	lw	s3,28(sp)
10003860:	4a62                	lw	s4,24(sp)
10003862:	4ad2                	lw	s5,20(sp)
10003864:	6145                	addi	sp,sp,48
10003866:	8082                	ret
10003868:	3fa1                	jal	100037c0 <stdout_serialize_end>
1000386a:	b7ed                	j	10003854 <stdio_put_string+0x7a>

1000386c <stdio_set_driver_enabled>:
1000386c:	81b1a783          	lw	a5,-2021(gp) # 20004590 <drivers>
10003870:	81b18713          	addi	a4,gp,-2021 # 20004590 <drivers>
10003874:	a021                	j	1000387c <stdio_set_driver_enabled+0x10>
10003876:	01078713          	addi	a4,a5,16
1000387a:	4b9c                	lw	a5,16(a5)
1000387c:	cb91                	beqz	a5,10003890 <stdio_set_driver_enabled+0x24>
1000387e:	431c                	lw	a5,0(a4)
10003880:	fea79be3          	bne	a5,a0,10003876 <stdio_set_driver_enabled+0xa>
10003884:	e981                	bnez	a1,10003894 <stdio_set_driver_enabled+0x28>
10003886:	491c                	lw	a5,16(a0)
10003888:	c31c                	sw	a5,0(a4)
1000388a:	00052823          	sw	zero,16(a0)
1000388e:	8082                	ret
10003890:	c191                	beqz	a1,10003894 <stdio_set_driver_enabled+0x28>
10003892:	c308                	sw	a0,0(a4)
10003894:	8082                	ret

10003896 <stdio_flush>:
10003896:	1141                	addi	sp,sp,-16
10003898:	c606                	sw	ra,12(sp)
1000389a:	c422                	sw	s0,8(sp)
1000389c:	81b1a403          	lw	s0,-2021(gp) # 20004590 <drivers>
100038a0:	a011                	j	100038a4 <stdio_flush+0xe>
100038a2:	4800                	lw	s0,16(s0)
100038a4:	c409                	beqz	s0,100038ae <stdio_flush+0x18>
100038a6:	405c                	lw	a5,4(s0)
100038a8:	dfed                	beqz	a5,100038a2 <stdio_flush+0xc>
100038aa:	9782                	jalr	a5
100038ac:	bfdd                	j	100038a2 <stdio_flush+0xc>
100038ae:	40b2                	lw	ra,12(sp)
100038b0:	4422                	lw	s0,8(sp)
100038b2:	0141                	addi	sp,sp,16
100038b4:	8082                	ret

100038b6 <stdio_init_all>:
100038b6:	1141                	addi	sp,sp,-16
100038b8:	c606                	sw	ra,12(sp)
100038ba:	2915                	jal	10003cee <stdio_usb_init>
100038bc:	40b2                	lw	ra,12(sp)
100038be:	0141                	addi	sp,sp,16
100038c0:	8082                	ret

100038c2 <__wrap_putchar>:
100038c2:	1101                	addi	sp,sp,-32
100038c4:	ce06                	sw	ra,28(sp)
100038c6:	cc22                	sw	s0,24(sp)
100038c8:	842a                	mv	s0,a0
100038ca:	00a107a3          	sb	a0,15(sp)
100038ce:	4685                	li	a3,1
100038d0:	4601                	li	a2,0
100038d2:	85b6                	mv	a1,a3
100038d4:	00f10513          	addi	a0,sp,15
100038d8:	3709                	jal	100037da <stdio_put_string>
100038da:	8522                	mv	a0,s0
100038dc:	40f2                	lw	ra,28(sp)
100038de:	4462                	lw	s0,24(sp)
100038e0:	6105                	addi	sp,sp,32
100038e2:	8082                	ret

100038e4 <__wrap_puts>:
100038e4:	1141                	addi	sp,sp,-16
100038e6:	c606                	sw	ra,12(sp)
100038e8:	c422                	sw	s0,8(sp)
100038ea:	c226                	sw	s1,4(sp)
100038ec:	84aa                	mv	s1,a0
100038ee:	557030ef          	jal	10007644 <strlen>
100038f2:	842a                	mv	s0,a0
100038f4:	4685                	li	a3,1
100038f6:	8636                	mv	a2,a3
100038f8:	85aa                	mv	a1,a0
100038fa:	8526                	mv	a0,s1
100038fc:	3df9                	jal	100037da <stdio_put_string>
100038fe:	3f61                	jal	10003896 <stdio_flush>
10003900:	8522                	mv	a0,s0
10003902:	40b2                	lw	ra,12(sp)
10003904:	4422                	lw	s0,8(sp)
10003906:	4492                	lw	s1,4(sp)
10003908:	0141                	addi	sp,sp,16
1000390a:	8082                	ret

1000390c <__wrap_vprintf>:
1000390c:	7171                	addi	sp,sp,-176
1000390e:	d706                	sw	ra,172(sp)
10003910:	d522                	sw	s0,168(sp)
10003912:	d326                	sw	s1,164(sp)
10003914:	d14a                	sw	s2,160(sp)
10003916:	cf4e                	sw	s3,156(sp)
10003918:	89aa                	mv	s3,a0
1000391a:	892e                	mv	s2,a1
1000391c:	359d                	jal	10003782 <stdout_serialize_begin>
1000391e:	84aa                	mv	s1,a0
10003920:	c602                	sw	zero,12(sp)
10003922:	0060                	addi	s0,sp,12
10003924:	86ca                	mv	a3,s2
10003926:	864e                	mv	a2,s3
10003928:	85a2                	mv	a1,s0
1000392a:	10003537          	lui	a0,0x10003
1000392e:	74e50513          	addi	a0,a0,1870 # 1000374e <stdio_buffered_printer>
10003932:	3999                	jal	10003588 <vfctprintf>
10003934:	892a                	mv	s2,a0
10003936:	8522                	mv	a0,s0
10003938:	3bd1                	jal	1000370c <stdio_stack_buffer_flush>
1000393a:	3fb1                	jal	10003896 <stdio_flush>
1000393c:	e889                	bnez	s1,1000394e <__wrap_vprintf+0x42>
1000393e:	854a                	mv	a0,s2
10003940:	50ba                	lw	ra,172(sp)
10003942:	542a                	lw	s0,168(sp)
10003944:	549a                	lw	s1,164(sp)
10003946:	590a                	lw	s2,160(sp)
10003948:	49fa                	lw	s3,156(sp)
1000394a:	614d                	addi	sp,sp,176
1000394c:	8082                	ret
1000394e:	3d8d                	jal	100037c0 <stdout_serialize_end>
10003950:	b7fd                	j	1000393e <__wrap_vprintf+0x32>

10003952 <__wrap_printf>:
10003952:	7139                	addi	sp,sp,-64
10003954:	ce06                	sw	ra,28(sp)
10003956:	d22e                	sw	a1,36(sp)
10003958:	d432                	sw	a2,40(sp)
1000395a:	d636                	sw	a3,44(sp)
1000395c:	d83a                	sw	a4,48(sp)
1000395e:	da3e                	sw	a5,52(sp)
10003960:	dc42                	sw	a6,56(sp)
10003962:	de46                	sw	a7,60(sp)
10003964:	104c                	addi	a1,sp,36
10003966:	c62e                	sw	a1,12(sp)
10003968:	3755                	jal	1000390c <__wrap_vprintf>
1000396a:	40f2                	lw	ra,28(sp)
1000396c:	6121                	addi	sp,sp,64
1000396e:	8082                	ret

10003970 <resetd_init>:
10003970:	8082                	ret

10003972 <resetd_reset>:
10003972:	80018fa3          	sb	zero,-2017(gp) # 20004594 <itf_num>
10003976:	8082                	ret

10003978 <resetd_open>:
10003978:	0055c703          	lbu	a4,5(a1)
1000397c:	0ff00793          	li	a5,255
10003980:	02f71363          	bne	a4,a5,100039a6 <resetd_open+0x2e>
10003984:	0065c783          	lbu	a5,6(a1)
10003988:	e38d                	bnez	a5,100039aa <resetd_open+0x32>
1000398a:	0075c703          	lbu	a4,7(a1)
1000398e:	4785                	li	a5,1
10003990:	00f71f63          	bne	a4,a5,100039ae <resetd_open+0x36>
10003994:	47a1                	li	a5,8
10003996:	00c7fe63          	bgeu	a5,a2,100039b2 <resetd_open+0x3a>
1000399a:	0025c703          	lbu	a4,2(a1)
1000399e:	80e18fa3          	sb	a4,-2017(gp) # 20004594 <itf_num>
100039a2:	4525                	li	a0,9
100039a4:	8082                	ret
100039a6:	4501                	li	a0,0
100039a8:	8082                	ret
100039aa:	4501                	li	a0,0
100039ac:	8082                	ret
100039ae:	4501                	li	a0,0
100039b0:	8082                	ret
100039b2:	4501                	li	a0,0
100039b4:	8082                	ret

100039b6 <resetd_xfer_cb>:
100039b6:	4505                	li	a0,1
100039b8:	8082                	ret

100039ba <resetd_control_xfer_cb>:
100039ba:	4785                	li	a5,1
100039bc:	06f59663          	bne	a1,a5,10003a28 <resetd_control_xfer_cb+0x6e>
100039c0:	00464703          	lbu	a4,4(a2) # 80000004 <__StackTop+0x5ff7e004>
100039c4:	00564783          	lbu	a5,5(a2)
100039c8:	07a2                	slli	a5,a5,0x8
100039ca:	8fd9                	or	a5,a5,a4
100039cc:	81f1c703          	lbu	a4,-2017(gp) # 20004594 <itf_num>
100039d0:	00e78463          	beq	a5,a4,100039d8 <resetd_control_xfer_cb+0x1e>
100039d4:	4501                	li	a0,0
100039d6:	8082                	ret
100039d8:	1141                	addi	sp,sp,-16
100039da:	c606                	sw	ra,12(sp)
100039dc:	00164783          	lbu	a5,1(a2)
100039e0:	00b78963          	beq	a5,a1,100039f2 <resetd_control_xfer_cb+0x38>
100039e4:	4709                	li	a4,2
100039e6:	02e78963          	beq	a5,a4,10003a18 <resetd_control_xfer_cb+0x5e>
100039ea:	4501                	li	a0,0
100039ec:	40b2                	lw	ra,12(sp)
100039ee:	0141                	addi	sp,sp,16
100039f0:	8082                	ret
100039f2:	00264583          	lbu	a1,2(a2)
100039f6:	00364783          	lbu	a5,3(a2)
100039fa:	07a2                	slli	a5,a5,0x8
100039fc:	8ddd                	or	a1,a1,a5
100039fe:	1007f793          	andi	a5,a5,256
10003a02:	cb89                	beqz	a5,10003a14 <resetd_control_xfer_cb+0x5a>
10003a04:	0095d513          	srli	a0,a1,0x9
10003a08:	4895d613          	bexti	a2,a1,0x9
10003a0c:	07f5f593          	andi	a1,a1,127
10003a10:	cc2fe0ef          	jal	10001ed2 <rom_reset_usb_boot_extra>
10003a14:	557d                	li	a0,-1
10003a16:	bfcd                	j	10003a08 <resetd_control_xfer_cb+0x4e>
10003a18:	06400613          	li	a2,100
10003a1c:	4581                	li	a1,0
10003a1e:	4501                	li	a0,0
10003a20:	c04fe0ef          	jal	10001e24 <watchdog_reboot>
10003a24:	4505                	li	a0,1
10003a26:	b7d9                	j	100039ec <resetd_control_xfer_cb+0x32>
10003a28:	4505                	li	a0,1
10003a2a:	8082                	ret

10003a2c <tud_descriptor_bos_cb>:
10003a2c:	10008537          	lui	a0,0x10008
10003a30:	6a850513          	addi	a0,a0,1704 # 100086a8 <desc_bos>
10003a34:	8082                	ret

10003a36 <tud_vendor_control_xfer_cb>:
10003a36:	4705                	li	a4,1
10003a38:	04e59063          	bne	a1,a4,10003a78 <tud_vendor_control_xfer_cb+0x42>
10003a3c:	87b2                	mv	a5,a2
10003a3e:	00164683          	lbu	a3,1(a2)
10003a42:	02b69d63          	bne	a3,a1,10003a7c <tud_vendor_control_xfer_cb+0x46>
10003a46:	00464683          	lbu	a3,4(a2)
10003a4a:	00564703          	lbu	a4,5(a2)
10003a4e:	0722                	slli	a4,a4,0x8
10003a50:	8f55                	or	a4,a4,a3
10003a52:	469d                	li	a3,7
10003a54:	00d70463          	beq	a4,a3,10003a5c <tud_vendor_control_xfer_cb+0x26>
10003a58:	4501                	li	a0,0
10003a5a:	8082                	ret
10003a5c:	1141                	addi	sp,sp,-16
10003a5e:	c606                	sw	ra,12(sp)
10003a60:	0a600693          	li	a3,166
10003a64:	10008637          	lui	a2,0x10008
10003a68:	60060613          	addi	a2,a2,1536 # 10008600 <desc_ms_os_20>
10003a6c:	85be                	mv	a1,a5
10003a6e:	479010ef          	jal	100056e6 <tud_control_xfer>
10003a72:	40b2                	lw	ra,12(sp)
10003a74:	0141                	addi	sp,sp,16
10003a76:	8082                	ret
10003a78:	4505                	li	a0,1
10003a7a:	8082                	ret
10003a7c:	4501                	li	a0,0
10003a7e:	8082                	ret

10003a80 <usbd_app_driver_get_cb>:
10003a80:	4785                	li	a5,1
10003a82:	00f50023          	sb	a5,0(a0)
10003a86:	10008537          	lui	a0,0x10008
10003a8a:	5e050513          	addi	a0,a0,1504 # 100085e0 <_resetd_driver>
10003a8e:	8082                	ret

10003a90 <tud_cdc_line_coding_cb>:
10003a90:	0005c703          	lbu	a4,0(a1)
10003a94:	0015c783          	lbu	a5,1(a1)
10003a98:	07a2                	slli	a5,a5,0x8
10003a9a:	8fd9                	or	a5,a5,a4
10003a9c:	0025c703          	lbu	a4,2(a1)
10003aa0:	0742                	slli	a4,a4,0x10
10003aa2:	8f5d                	or	a4,a4,a5
10003aa4:	0035c783          	lbu	a5,3(a1)
10003aa8:	07e2                	slli	a5,a5,0x18
10003aaa:	8fd9                	or	a5,a5,a4
10003aac:	4b000713          	li	a4,1200
10003ab0:	00e78363          	beq	a5,a4,10003ab6 <tud_cdc_line_coding_cb+0x26>
10003ab4:	8082                	ret
10003ab6:	1141                	addi	sp,sp,-16
10003ab8:	c606                	sw	ra,12(sp)
10003aba:	4601                	li	a2,0
10003abc:	4581                	li	a1,0
10003abe:	557d                	li	a0,-1
10003ac0:	c12fe0ef          	jal	10001ed2 <rom_reset_usb_boot_extra>

10003ac4 <stdio_usb_set_chars_available_callback>:
10003ac4:	82a1ada3          	sw	a0,-1989(gp) # 200045b0 <chars_available_callback>
10003ac8:	82b1aba3          	sw	a1,-1993(gp) # 200045ac <chars_available_param>
10003acc:	8082                	ret

10003ace <stdio_usb_out_flush>:
10003ace:	1141                	addi	sp,sp,-16
10003ad0:	c606                	sw	ra,12(sp)
10003ad2:	880fe0ef          	jal	10001b52 <time_us_64>
10003ad6:	000f47b7          	lui	a5,0xf4
10003ada:	24078793          	addi	a5,a5,576 # f4240 <HeapSize+0xf3a40>
10003ade:	97aa                	add	a5,a5,a0
10003ae0:	00a7b633          	sltu	a2,a5,a0
10003ae4:	962e                	add	a2,a2,a1
10003ae6:	02064b63          	bltz	a2,10003b1c <stdio_usb_out_flush+0x4e>
10003aea:	85be                	mv	a1,a5
10003aec:	83f18513          	addi	a0,gp,-1985 # 200045b4 <stdio_usb_mutex>
10003af0:	0fffc097          	auipc	ra,0xfffc
10003af4:	612080e7          	jalr	1554(ra) # 20000102 <mutex_try_enter_block_until>
10003af8:	cd19                	beqz	a0,10003b16 <stdio_usb_out_flush+0x48>
10003afa:	4581                	li	a1,0
10003afc:	557d                	li	a0,-1
10003afe:	081010ef          	jal	1000537e <tud_task_ext>
10003b02:	4501                	li	a0,0
10003b04:	04c020ef          	jal	10005b50 <tud_cdc_n_write_flush>
10003b08:	f96d                	bnez	a0,10003afa <stdio_usb_out_flush+0x2c>
10003b0a:	83f18513          	addi	a0,gp,-1985 # 200045b4 <stdio_usb_mutex>
10003b0e:	0fffc097          	auipc	ra,0xfffc
10003b12:	67a080e7          	jalr	1658(ra) # 20000188 <mutex_exit>
10003b16:	40b2                	lw	ra,12(sp)
10003b18:	0141                	addi	sp,sp,16
10003b1a:	8082                	ret
10003b1c:	57fd                	li	a5,-1
10003b1e:	80000637          	lui	a2,0x80000
10003b22:	963e                	add	a2,a2,a5
10003b24:	b7d9                	j	10003aea <stdio_usb_out_flush+0x1c>

10003b26 <usb_irq>:
10003b26:	1141                	addi	sp,sp,-16
10003b28:	c606                	sw	ra,12(sp)
10003b2a:	82b1c503          	lbu	a0,-2005(gp) # 200045a0 <low_priority_irq_num>
10003b2e:	f83fc0ef          	jal	10000ab0 <irq_set_pending>
10003b32:	40b2                	lw	ra,12(sp)
10003b34:	0141                	addi	sp,sp,16
10003b36:	8082                	ret

10003b38 <timer_task>:
10003b38:	1141                	addi	sp,sp,-16
10003b3a:	c606                	sw	ra,12(sp)
10003b3c:	c422                	sw	s0,8(sp)
10003b3e:	c226                	sw	s1,4(sp)
10003b40:	82f1a783          	lw	a5,-2001(gp) # 200045a4 <one_shot_timer_crit_sec>
10003b44:	cbb9                	beqz	a5,10003b9a <timer_task+0x62>
10003b46:	30047773          	csrrci	a4,mstatus,8
10003b4a:	00379693          	slli	a3,a5,0x3
10003b4e:	28d016b3          	bset	a3,zero,a3
10003b52:	9bf1                	andi	a5,a5,-4
10003b54:	44d7a62f          	amoor.w.aq	a2,a3,(a5)
10003b58:	8e75                	and	a2,a2,a3
10003b5a:	fe6d                	bnez	a2,10003b54 <timer_task+0x1c>
10003b5c:	0330000f          	fence	rw,rw
10003b60:	82f18793          	addi	a5,gp,-2001 # 200045a4 <one_shot_timer_crit_sec>
10003b64:	c3d8                	sw	a4,4(a5)
10003b66:	82018623          	sb	zero,-2004(gp) # 200045a1 <one_shot_timer_pending>
10003b6a:	439c                	lw	a5,0(a5)
10003b6c:	0330000f          	fence	rw,rw
10003b70:	00078023          	sb	zero,0(a5)
10003b74:	8b21                	andi	a4,a4,8
10003b76:	30072073          	csrs	mstatus,a4
10003b7a:	4401                	li	s0,0
10003b7c:	4481                	li	s1,0
10003b7e:	82b1c503          	lbu	a0,-2005(gp) # 200045a0 <low_priority_irq_num>
10003b82:	ef7fc0ef          	jal	10000a78 <irq_is_enabled>
10003b86:	ed11                	bnez	a0,10003ba2 <timer_task+0x6a>
10003b88:	4401                	li	s0,0
10003b8a:	4481                	li	s1,0
10003b8c:	8522                	mv	a0,s0
10003b8e:	85a6                	mv	a1,s1
10003b90:	40b2                	lw	ra,12(sp)
10003b92:	4422                	lw	s0,8(sp)
10003b94:	4492                	lw	s1,4(sp)
10003b96:	0141                	addi	sp,sp,16
10003b98:	8082                	ret
10003b9a:	3e800413          	li	s0,1000
10003b9e:	4481                	li	s1,0
10003ba0:	bff9                	j	10003b7e <timer_task+0x46>
10003ba2:	82b1c503          	lbu	a0,-2005(gp) # 200045a0 <low_priority_irq_num>
10003ba6:	f0bfc0ef          	jal	10000ab0 <irq_set_pending>
10003baa:	b7cd                	j	10003b8c <timer_task+0x54>

10003bac <alarm_pool_add_alarm_in_us>:
10003bac:	1101                	addi	sp,sp,-32
10003bae:	ce06                	sw	ra,28(sp)
10003bb0:	cc22                	sw	s0,24(sp)
10003bb2:	ca26                	sw	s1,20(sp)
10003bb4:	c84a                	sw	s2,16(sp)
10003bb6:	c64e                	sw	s3,12(sp)
10003bb8:	c452                	sw	s4,8(sp)
10003bba:	c256                	sw	s5,4(sp)
10003bbc:	892a                	mv	s2,a0
10003bbe:	842e                	mv	s0,a1
10003bc0:	84b2                	mv	s1,a2
10003bc2:	89b6                	mv	s3,a3
10003bc4:	8a3a                	mv	s4,a4
10003bc6:	8abe                	mv	s5,a5
10003bc8:	f8bfd0ef          	jal	10001b52 <time_us_64>
10003bcc:	00a40833          	add	a6,s0,a0
10003bd0:	00883433          	sltu	s0,a6,s0
10003bd4:	00b487b3          	add	a5,s1,a1
10003bd8:	85c2                	mv	a1,a6
10003bda:	00f40633          	add	a2,s0,a5
10003bde:	02064163          	bltz	a2,10003c00 <alarm_pool_add_alarm_in_us+0x54>
10003be2:	87d6                	mv	a5,s5
10003be4:	8752                	mv	a4,s4
10003be6:	86ce                	mv	a3,s3
10003be8:	854a                	mv	a0,s2
10003bea:	b15fd0ef          	jal	100016fe <alarm_pool_add_alarm_at>
10003bee:	40f2                	lw	ra,28(sp)
10003bf0:	4462                	lw	s0,24(sp)
10003bf2:	44d2                	lw	s1,20(sp)
10003bf4:	4942                	lw	s2,16(sp)
10003bf6:	49b2                	lw	s3,12(sp)
10003bf8:	4a22                	lw	s4,8(sp)
10003bfa:	4a92                	lw	s5,4(sp)
10003bfc:	6105                	addi	sp,sp,32
10003bfe:	8082                	ret
10003c00:	55fd                	li	a1,-1
10003c02:	80000637          	lui	a2,0x80000
10003c06:	962e                	add	a2,a2,a1
10003c08:	bfe9                	j	10003be2 <alarm_pool_add_alarm_in_us+0x36>

10003c0a <add_alarm_in_us>:
10003c0a:	1101                	addi	sp,sp,-32
10003c0c:	ce06                	sw	ra,28(sp)
10003c0e:	cc22                	sw	s0,24(sp)
10003c10:	ca26                	sw	s1,20(sp)
10003c12:	c84a                	sw	s2,16(sp)
10003c14:	c64e                	sw	s3,12(sp)
10003c16:	c452                	sw	s4,8(sp)
10003c18:	8a2a                	mv	s4,a0
10003c1a:	89ae                	mv	s3,a1
10003c1c:	8932                	mv	s2,a2
10003c1e:	84b6                	mv	s1,a3
10003c20:	843a                	mv	s0,a4
10003c22:	9c5fd0ef          	jal	100015e6 <alarm_pool_get_default>
10003c26:	87a2                	mv	a5,s0
10003c28:	8726                	mv	a4,s1
10003c2a:	86ca                	mv	a3,s2
10003c2c:	85d2                	mv	a1,s4
10003c2e:	864e                	mv	a2,s3
10003c30:	3fb5                	jal	10003bac <alarm_pool_add_alarm_in_us>
10003c32:	40f2                	lw	ra,28(sp)
10003c34:	4462                	lw	s0,24(sp)
10003c36:	44d2                	lw	s1,20(sp)
10003c38:	4942                	lw	s2,16(sp)
10003c3a:	49b2                	lw	s3,12(sp)
10003c3c:	4a22                	lw	s4,8(sp)
10003c3e:	6105                	addi	sp,sp,32
10003c40:	8082                	ret

10003c42 <low_priority_worker_irq>:
10003c42:	1141                	addi	sp,sp,-16
10003c44:	c606                	sw	ra,12(sp)
10003c46:	4581                	li	a1,0
10003c48:	83f18513          	addi	a0,gp,-1985 # 200045b4 <stdio_usb_mutex>
10003c4c:	0fffc097          	auipc	ra,0xfffc
10003c50:	3b4080e7          	jalr	948(ra) # 20000000 <mutex_try_enter>
10003c54:	e539                	bnez	a0,10003ca2 <low_priority_worker_irq+0x60>
10003c56:	82f1a783          	lw	a5,-2001(gp) # 200045a4 <one_shot_timer_crit_sec>
10003c5a:	c3a9                	beqz	a5,10003c9c <low_priority_worker_irq+0x5a>
10003c5c:	30047773          	csrrci	a4,mstatus,8
10003c60:	00379693          	slli	a3,a5,0x3
10003c64:	28d016b3          	bset	a3,zero,a3
10003c68:	9bf1                	andi	a5,a5,-4
10003c6a:	44d7a62f          	amoor.w.aq	a2,a3,(a5)
10003c6e:	8e75                	and	a2,a2,a3
10003c70:	fe6d                	bnez	a2,10003c6a <low_priority_worker_irq+0x28>
10003c72:	0330000f          	fence	rw,rw
10003c76:	82f18793          	addi	a5,gp,-2001 # 200045a4 <one_shot_timer_crit_sec>
10003c7a:	c3d8                	sw	a4,4(a5)
10003c7c:	82c1c683          	lbu	a3,-2004(gp) # 200045a1 <one_shot_timer_pending>
10003c80:	0ff6f693          	zext.b	a3,a3
10003c84:	4585                	li	a1,1
10003c86:	82b18623          	sb	a1,-2004(gp) # 200045a1 <one_shot_timer_pending>
10003c8a:	439c                	lw	a5,0(a5)
10003c8c:	0330000f          	fence	rw,rw
10003c90:	00078023          	sb	zero,0(a5)
10003c94:	8b21                	andi	a4,a4,8
10003c96:	30072073          	csrs	mstatus,a4
10003c9a:	ce85                	beqz	a3,10003cd2 <low_priority_worker_irq+0x90>
10003c9c:	40b2                	lw	ra,12(sp)
10003c9e:	0141                	addi	sp,sp,16
10003ca0:	8082                	ret
10003ca2:	c422                	sw	s0,8(sp)
10003ca4:	4581                	li	a1,0
10003ca6:	557d                	li	a0,-1
10003ca8:	6d6010ef          	jal	1000537e <tud_task_ext>
10003cac:	4501                	li	a0,0
10003cae:	631010ef          	jal	10005ade <tud_cdc_n_available>
10003cb2:	842a                	mv	s0,a0
10003cb4:	83f18513          	addi	a0,gp,-1985 # 200045b4 <stdio_usb_mutex>
10003cb8:	0fffc097          	auipc	ra,0xfffc
10003cbc:	4d0080e7          	jalr	1232(ra) # 20000188 <mutex_exit>
10003cc0:	c01d                	beqz	s0,10003ce6 <low_priority_worker_irq+0xa4>
10003cc2:	83b1a783          	lw	a5,-1989(gp) # 200045b0 <chars_available_callback>
10003cc6:	c395                	beqz	a5,10003cea <low_priority_worker_irq+0xa8>
10003cc8:	8371a503          	lw	a0,-1993(gp) # 200045ac <chars_available_param>
10003ccc:	9782                	jalr	a5
10003cce:	4422                	lw	s0,8(sp)
10003cd0:	b7f1                	j	10003c9c <low_priority_worker_irq+0x5a>
10003cd2:	872e                	mv	a4,a1
10003cd4:	10004637          	lui	a2,0x10004
10003cd8:	b3860613          	addi	a2,a2,-1224 # 10003b38 <timer_task>
10003cdc:	3e800513          	li	a0,1000
10003ce0:	4581                	li	a1,0
10003ce2:	3725                	jal	10003c0a <add_alarm_in_us>
10003ce4:	bf65                	j	10003c9c <low_priority_worker_irq+0x5a>
10003ce6:	4422                	lw	s0,8(sp)
10003ce8:	bf55                	j	10003c9c <low_priority_worker_irq+0x5a>
10003cea:	4422                	lw	s0,8(sp)
10003cec:	bf45                	j	10003c9c <low_priority_worker_irq+0x5a>

10003cee <stdio_usb_init>:
10003cee:	1141                	addi	sp,sp,-16
10003cf0:	c606                	sw	ra,12(sp)
10003cf2:	c422                	sw	s0,8(sp)
10003cf4:	d00007b7          	lui	a5,0xd0000
10003cf8:	4380                	lw	s0,0(a5)
10003cfa:	8edfd0ef          	jal	100015e6 <alarm_pool_get_default>
10003cfe:	b25fd0ef          	jal	10001822 <alarm_pool_core_num>
10003d02:	08851063          	bne	a0,s0,10003d82 <stdio_usb_init+0x94>
10003d06:	100097b7          	lui	a5,0x10009
10003d0a:	aa87c783          	lbu	a5,-1368(a5) # 10008aa8 <__bi_ptr202.4>
10003d0e:	4581                	li	a1,0
10003d10:	4501                	li	a0,0
10003d12:	2ed020ef          	jal	100067fe <tusb_rhport_init>
10003d16:	83f1a783          	lw	a5,-1985(gp) # 200045b4 <stdio_usb_mutex>
10003d1a:	c7c1                	beqz	a5,10003da2 <stdio_usb_init+0xb4>
10003d1c:	4505                	li	a0,1
10003d1e:	aeafd0ef          	jal	10001008 <user_irq_claim_unused>
10003d22:	82a185a3          	sb	a0,-2005(gp) # 200045a0 <low_priority_irq_num>
10003d26:	100045b7          	lui	a1,0x10004
10003d2a:	c4258593          	addi	a1,a1,-958 # 10003c42 <low_priority_worker_irq>
10003d2e:	0ff57513          	zext.b	a0,a0
10003d32:	dbffc0ef          	jal	10000af0 <irq_set_exclusive_handler>
10003d36:	4585                	li	a1,1
10003d38:	82b1c503          	lbu	a0,-2005(gp) # 200045a0 <low_priority_irq_num>
10003d3c:	d61fc0ef          	jal	10000a9c <irq_set_enabled>
10003d40:	4539                	li	a0,14
10003d42:	d95fc0ef          	jal	10000ad6 <irq_has_shared_handler>
10003d46:	842a                	mv	s0,a0
10003d48:	c135                	beqz	a0,10003dac <stdio_usb_init+0xbe>
10003d4a:	4505                	li	a0,1
10003d4c:	b47fc0ef          	jal	10000892 <spin_lock_claim_unused>
10003d50:	85aa                	mv	a1,a0
10003d52:	82f18513          	addi	a0,gp,-2001 # 200045a4 <one_shot_timer_crit_sec>
10003d56:	b96fd0ef          	jal	100010ec <critical_section_init_with_lock_num>
10003d5a:	4601                	li	a2,0
10003d5c:	100045b7          	lui	a1,0x10004
10003d60:	b2658593          	addi	a1,a1,-1242 # 10003b26 <usb_irq>
10003d64:	4539                	li	a0,14
10003d66:	e03fc0ef          	jal	10000b68 <irq_add_shared_handler>
10003d6a:	4585                	li	a1,1
10003d6c:	20003537          	lui	a0,0x20003
10003d70:	7e850513          	addi	a0,a0,2024 # 200037e8 <stdio_usb>
10003d74:	af9ff0ef          	jal	1000386c <stdio_set_driver_enabled>
10003d78:	8522                	mv	a0,s0
10003d7a:	40b2                	lw	ra,12(sp)
10003d7c:	4422                	lw	s0,8(sp)
10003d7e:	0141                	addi	sp,sp,16
10003d80:	8082                	ret
10003d82:	100086b7          	lui	a3,0x10008
10003d86:	07468693          	addi	a3,a3,116 # 10008074 <__EH_FRAME_BEGIN__+0x8d4>
10003d8a:	10008637          	lui	a2,0x10008
10003d8e:	6d860613          	addi	a2,a2,1752 # 100086d8 <__func__.2>
10003d92:	0c600593          	li	a1,198
10003d96:	10008537          	lui	a0,0x10008
10003d9a:	07c50513          	addi	a0,a0,124 # 1000807c <__EH_FRAME_BEGIN__+0x8dc>
10003d9e:	837ff0ef          	jal	100035d4 <__assert_func>
10003da2:	83f18513          	addi	a0,gp,-1985 # 200045b4 <stdio_usb_mutex>
10003da6:	aa0fd0ef          	jal	10001046 <mutex_init>
10003daa:	bf8d                	j	10003d1c <stdio_usb_init+0x2e>
10003dac:	82f18793          	addi	a5,gp,-2001 # 200045a4 <one_shot_timer_crit_sec>
10003db0:	0007a023          	sw	zero,0(a5)
10003db4:	0007a223          	sw	zero,4(a5)
10003db8:	4705                	li	a4,1
10003dba:	4681                	li	a3,0
10003dbc:	10004637          	lui	a2,0x10004
10003dc0:	b3860613          	addi	a2,a2,-1224 # 10003b38 <timer_task>
10003dc4:	3e800513          	li	a0,1000
10003dc8:	4581                	li	a1,0
10003dca:	3581                	jal	10003c0a <add_alarm_in_us>
10003dcc:	fff54513          	not	a0,a0
10003dd0:	01f55413          	srli	s0,a0,0x1f
10003dd4:	fa0552e3          	bgez	a0,10003d78 <stdio_usb_init+0x8a>
10003dd8:	bf49                	j	10003d6a <stdio_usb_init+0x7c>

10003dda <stdio_usb_connected>:
10003dda:	1141                	addi	sp,sp,-16
10003ddc:	c606                	sw	ra,12(sp)
10003dde:	4501                	li	a0,0
10003de0:	4bb010ef          	jal	10005a9a <tud_cdc_n_connected>
10003de4:	40b2                	lw	ra,12(sp)
10003de6:	0141                	addi	sp,sp,16
10003de8:	8082                	ret

10003dea <stdio_usb_in_chars>:
10003dea:	1141                	addi	sp,sp,-16
10003dec:	c606                	sw	ra,12(sp)
10003dee:	c422                	sw	s0,8(sp)
10003df0:	c226                	sw	s1,4(sp)
10003df2:	842a                	mv	s0,a0
10003df4:	84ae                	mv	s1,a1
10003df6:	37d5                	jal	10003dda <stdio_usb_connected>
10003df8:	c141                	beqz	a0,10003e78 <stdio_usb_in_chars+0x8e>
10003dfa:	4501                	li	a0,0
10003dfc:	4e3010ef          	jal	10005ade <tud_cdc_n_available>
10003e00:	cd3d                	beqz	a0,10003e7e <stdio_usb_in_chars+0x94>
10003e02:	d51fd0ef          	jal	10001b52 <time_us_64>
10003e06:	000f47b7          	lui	a5,0xf4
10003e0a:	24078793          	addi	a5,a5,576 # f4240 <HeapSize+0xf3a40>
10003e0e:	97aa                	add	a5,a5,a0
10003e10:	00a7b633          	sltu	a2,a5,a0
10003e14:	962e                	add	a2,a2,a1
10003e16:	04064263          	bltz	a2,10003e5a <stdio_usb_in_chars+0x70>
10003e1a:	85be                	mv	a1,a5
10003e1c:	83f18513          	addi	a0,gp,-1985 # 200045b4 <stdio_usb_mutex>
10003e20:	0fffc097          	auipc	ra,0xfffc
10003e24:	2e2080e7          	jalr	738(ra) # 20000102 <mutex_try_enter_block_until>
10003e28:	cd31                	beqz	a0,10003e84 <stdio_usb_in_chars+0x9a>
10003e2a:	3f45                	jal	10003dda <stdio_usb_connected>
10003e2c:	c509                	beqz	a0,10003e36 <stdio_usb_in_chars+0x4c>
10003e2e:	4501                	li	a0,0
10003e30:	4af010ef          	jal	10005ade <tud_cdc_n_available>
10003e34:	e905                	bnez	a0,10003e64 <stdio_usb_in_chars+0x7a>
10003e36:	4581                	li	a1,0
10003e38:	557d                	li	a0,-1
10003e3a:	544010ef          	jal	1000537e <tud_task_ext>
10003e3e:	57f5                	li	a5,-3
10003e40:	843e                	mv	s0,a5
10003e42:	83f18513          	addi	a0,gp,-1985 # 200045b4 <stdio_usb_mutex>
10003e46:	0fffc097          	auipc	ra,0xfffc
10003e4a:	342080e7          	jalr	834(ra) # 20000188 <mutex_exit>
10003e4e:	8522                	mv	a0,s0
10003e50:	40b2                	lw	ra,12(sp)
10003e52:	4422                	lw	s0,8(sp)
10003e54:	4492                	lw	s1,4(sp)
10003e56:	0141                	addi	sp,sp,16
10003e58:	8082                	ret
10003e5a:	57fd                	li	a5,-1
10003e5c:	80000637          	lui	a2,0x80000
10003e60:	963e                	add	a2,a2,a5
10003e62:	bf65                	j	10003e1a <stdio_usb_in_chars+0x30>
10003e64:	8626                	mv	a2,s1
10003e66:	85a2                	mv	a1,s0
10003e68:	4501                	li	a0,0
10003e6a:	49b010ef          	jal	10005b04 <tud_cdc_n_read>
10003e6e:	842a                	mv	s0,a0
10003e70:	f969                	bnez	a0,10003e42 <stdio_usb_in_chars+0x58>
10003e72:	57f5                	li	a5,-3
10003e74:	843e                	mv	s0,a5
10003e76:	b7f1                	j	10003e42 <stdio_usb_in_chars+0x58>
10003e78:	57f5                	li	a5,-3
10003e7a:	843e                	mv	s0,a5
10003e7c:	bfc9                	j	10003e4e <stdio_usb_in_chars+0x64>
10003e7e:	57f5                	li	a5,-3
10003e80:	843e                	mv	s0,a5
10003e82:	b7f1                	j	10003e4e <stdio_usb_in_chars+0x64>
10003e84:	57f5                	li	a5,-3
10003e86:	843e                	mv	s0,a5
10003e88:	b7d9                	j	10003e4e <stdio_usb_in_chars+0x64>

10003e8a <stdio_usb_out_chars>:
10003e8a:	1101                	addi	sp,sp,-32
10003e8c:	ce06                	sw	ra,28(sp)
10003e8e:	ca26                	sw	s1,20(sp)
10003e90:	c64e                	sw	s3,12(sp)
10003e92:	89aa                	mv	s3,a0
10003e94:	84ae                	mv	s1,a1
10003e96:	cbdfd0ef          	jal	10001b52 <time_us_64>
10003e9a:	000f47b7          	lui	a5,0xf4
10003e9e:	24078793          	addi	a5,a5,576 # f4240 <HeapSize+0xf3a40>
10003ea2:	97aa                	add	a5,a5,a0
10003ea4:	00a7b633          	sltu	a2,a5,a0
10003ea8:	962e                	add	a2,a2,a1
10003eaa:	00064f63          	bltz	a2,10003ec8 <stdio_usb_out_chars+0x3e>
10003eae:	85be                	mv	a1,a5
10003eb0:	83f18513          	addi	a0,gp,-1985 # 200045b4 <stdio_usb_mutex>
10003eb4:	0fffc097          	auipc	ra,0xfffc
10003eb8:	24e080e7          	jalr	590(ra) # 20000102 <mutex_try_enter_block_until>
10003ebc:	e919                	bnez	a0,10003ed2 <stdio_usb_out_chars+0x48>
10003ebe:	40f2                	lw	ra,28(sp)
10003ec0:	44d2                	lw	s1,20(sp)
10003ec2:	49b2                	lw	s3,12(sp)
10003ec4:	6105                	addi	sp,sp,32
10003ec6:	8082                	ret
10003ec8:	57fd                	li	a5,-1
10003eca:	80000637          	lui	a2,0x80000
10003ece:	963e                	add	a2,a2,a5
10003ed0:	bff9                	j	10003eae <stdio_usb_out_chars+0x24>
10003ed2:	3721                	jal	10003dda <stdio_usb_connected>
10003ed4:	e15d                	bnez	a0,10003f7a <stdio_usb_out_chars+0xf0>
10003ed6:	4681                	li	a3,0
10003ed8:	4701                	li	a4,0
10003eda:	82d1a1a3          	sw	a3,-2013(gp) # 20004598 <last_avail_time.3>
10003ede:	82e1a3a3          	sw	a4,-2009(gp) # 2000459c <last_avail_time.3+0x4>
10003ee2:	83f18513          	addi	a0,gp,-1985 # 200045b4 <stdio_usb_mutex>
10003ee6:	0fffc097          	auipc	ra,0xfffc
10003eea:	2a2080e7          	jalr	674(ra) # 20000188 <mutex_exit>
10003eee:	bfc1                	j	10003ebe <stdio_usb_out_chars+0x34>
10003ef0:	4581                	li	a1,0
10003ef2:	557d                	li	a0,-1
10003ef4:	48a010ef          	jal	1000537e <tud_task_ext>
10003ef8:	4501                	li	a0,0
10003efa:	457010ef          	jal	10005b50 <tud_cdc_n_write_flush>
10003efe:	3df1                	jal	10003dda <stdio_usb_connected>
10003f00:	c541                	beqz	a0,10003f88 <stdio_usb_out_chars+0xfe>
10003f02:	4501                	li	a0,0
10003f04:	5b7010ef          	jal	10005cba <tud_cdc_n_write_available>
10003f08:	c131                	beqz	a0,10003f4c <stdio_usb_out_chars+0xc2>
10003f0a:	06945c63          	bge	s0,s1,10003f82 <stdio_usb_out_chars+0xf8>
10003f0e:	40848933          	sub	s2,s1,s0
10003f12:	4501                	li	a0,0
10003f14:	5a7010ef          	jal	10005cba <tud_cdc_n_write_available>
10003f18:	01254363          	blt	a0,s2,10003f1e <stdio_usb_out_chars+0x94>
10003f1c:	854a                	mv	a0,s2
10003f1e:	d969                	beqz	a0,10003ef0 <stdio_usb_out_chars+0x66>
10003f20:	862a                	mv	a2,a0
10003f22:	008985b3          	add	a1,s3,s0
10003f26:	4501                	li	a0,0
10003f28:	52f010ef          	jal	10005c56 <tud_cdc_n_write>
10003f2c:	892a                	mv	s2,a0
10003f2e:	4581                	li	a1,0
10003f30:	557d                	li	a0,-1
10003f32:	44c010ef          	jal	1000537e <tud_task_ext>
10003f36:	4501                	li	a0,0
10003f38:	419010ef          	jal	10005b50 <tud_cdc_n_write_flush>
10003f3c:	944a                	add	s0,s0,s2
10003f3e:	c15fd0ef          	jal	10001b52 <time_us_64>
10003f42:	82a1a1a3          	sw	a0,-2013(gp) # 20004598 <last_avail_time.3>
10003f46:	82b1a3a3          	sw	a1,-2009(gp) # 2000459c <last_avail_time.3+0x4>
10003f4a:	b7c1                	j	10003f0a <stdio_usb_out_chars+0x80>
10003f4c:	c07fd0ef          	jal	10001b52 <time_us_64>
10003f50:	8231a703          	lw	a4,-2013(gp) # 20004598 <last_avail_time.3>
10003f54:	8271a683          	lw	a3,-2009(gp) # 2000459c <last_avail_time.3+0x4>
10003f58:	0007a7b7          	lui	a5,0x7a
10003f5c:	12078793          	addi	a5,a5,288 # 7a120 <HeapSize+0x79920>
10003f60:	97ba                	add	a5,a5,a4
10003f62:	00e7b733          	sltu	a4,a5,a4
10003f66:	9736                	add	a4,a4,a3
10003f68:	02b76363          	bltu	a4,a1,10003f8e <stdio_usb_out_chars+0x104>
10003f6c:	f8e59fe3          	bne	a1,a4,10003f0a <stdio_usb_out_chars+0x80>
10003f70:	f8a7fde3          	bgeu	a5,a0,10003f0a <stdio_usb_out_chars+0x80>
10003f74:	4462                	lw	s0,24(sp)
10003f76:	4942                	lw	s2,16(sp)
10003f78:	b7ad                	j	10003ee2 <stdio_usb_out_chars+0x58>
10003f7a:	cc22                	sw	s0,24(sp)
10003f7c:	c84a                	sw	s2,16(sp)
10003f7e:	4401                	li	s0,0
10003f80:	b769                	j	10003f0a <stdio_usb_out_chars+0x80>
10003f82:	4462                	lw	s0,24(sp)
10003f84:	4942                	lw	s2,16(sp)
10003f86:	bfb1                	j	10003ee2 <stdio_usb_out_chars+0x58>
10003f88:	4462                	lw	s0,24(sp)
10003f8a:	4942                	lw	s2,16(sp)
10003f8c:	bf99                	j	10003ee2 <stdio_usb_out_chars+0x58>
10003f8e:	4462                	lw	s0,24(sp)
10003f90:	4942                	lw	s2,16(sp)
10003f92:	bf81                	j	10003ee2 <stdio_usb_out_chars+0x58>

10003f94 <tud_descriptor_device_cb>:
10003f94:	10008537          	lui	a0,0x10008
10003f98:	75450513          	addi	a0,a0,1876 # 10008754 <usbd_desc_device>
10003f9c:	8082                	ret

10003f9e <tud_descriptor_configuration_cb>:
10003f9e:	10008537          	lui	a0,0x10008
10003fa2:	70050513          	addi	a0,a0,1792 # 10008700 <usbd_desc_cfg>
10003fa6:	8082                	ret

10003fa8 <tud_descriptor_string_cb>:
10003fa8:	1141                	addi	sp,sp,-16
10003faa:	c606                	sw	ra,12(sp)
10003fac:	c422                	sw	s0,8(sp)
10003fae:	842a                	mv	s0,a0
10003fb0:	200047b7          	lui	a5,0x20004
10003fb4:	5647c783          	lbu	a5,1380(a5) # 20004564 <usbd_serial_str>
10003fb8:	cb9d                	beqz	a5,10003fee <tud_descriptor_string_cb+0x46>
10003fba:	e029                	bnez	s0,10003ffc <tud_descriptor_string_cb+0x54>
10003fbc:	200047b7          	lui	a5,0x20004
10003fc0:	10478793          	addi	a5,a5,260 # 20004104 <desc_str.0>
10003fc4:	40900713          	li	a4,1033
10003fc8:	00e79123          	sh	a4,2(a5)
10003fcc:	4785                	li	a5,1
10003fce:	0785                	addi	a5,a5,1
10003fd0:	0786                	slli	a5,a5,0x1
10003fd2:	0807c7b3          	zext.h	a5,a5
10003fd6:	20004537          	lui	a0,0x20004
10003fda:	10450513          	addi	a0,a0,260 # 20004104 <desc_str.0>
10003fde:	3007e793          	ori	a5,a5,768
10003fe2:	00f51023          	sh	a5,0(a0)
10003fe6:	40b2                	lw	ra,12(sp)
10003fe8:	4422                	lw	s0,8(sp)
10003fea:	0141                	addi	sp,sp,16
10003fec:	8082                	ret
10003fee:	45c5                	li	a1,17
10003ff0:	20004537          	lui	a0,0x20004
10003ff4:	56450513          	addi	a0,a0,1380 # 20004564 <usbd_serial_str>
10003ff8:	207d                	jal	100040a6 <pico_get_unique_board_id_string>
10003ffa:	b7c1                	j	10003fba <tud_descriptor_string_cb+0x12>
10003ffc:	4795                	li	a5,5
10003ffe:	0287ee63          	bltu	a5,s0,1000403a <tud_descriptor_string_cb+0x92>
10004002:	100087b7          	lui	a5,0x10008
10004006:	6e878793          	addi	a5,a5,1768 # 100086e8 <usbd_desc_str>
1000400a:	20f44433          	sh2add	s0,s0,a5
1000400e:	4010                	lw	a2,0(s0)
10004010:	4781                	li	a5,0
10004012:	4749                	li	a4,18
10004014:	faf76de3          	bltu	a4,a5,10003fce <tud_descriptor_string_cb+0x26>
10004018:	00f60733          	add	a4,a2,a5
1000401c:	00074683          	lbu	a3,0(a4)
10004020:	d6dd                	beqz	a3,10003fce <tud_descriptor_string_cb+0x26>
10004022:	0785                	addi	a5,a5,1
10004024:	20004737          	lui	a4,0x20004
10004028:	10470713          	addi	a4,a4,260 # 20004104 <desc_str.0>
1000402c:	20e7a733          	sh1add	a4,a5,a4
10004030:	00d71023          	sh	a3,0(a4)
10004034:	0ff7f793          	zext.b	a5,a5
10004038:	bfe9                	j	10004012 <tud_descriptor_string_cb+0x6a>
1000403a:	4501                	li	a0,0
1000403c:	b76d                	j	10003fe6 <tud_descriptor_string_cb+0x3e>

1000403e <_retrieve_unique_id_on_boot>:
1000403e:	7139                	addi	sp,sp,-64
10004040:	de06                	sw	ra,60(sp)
10004042:	6515                	lui	a0,0x5
10004044:	34750513          	addi	a0,a0,839 # 5347 <HeapSize+0x4b47>
10004048:	e77fd0ef          	jal	10001ebe <rom_func_lookup>
1000404c:	87aa                	mv	a5,a0
1000404e:	4605                	li	a2,1
10004050:	45a5                	li	a1,9
10004052:	0068                	addi	a0,sp,12
10004054:	9782                	jalr	a5
10004056:	4791                	li	a5,4
10004058:	00f51463          	bne	a0,a5,10004060 <_retrieve_unique_id_on_boot+0x22>
1000405c:	4701                	li	a4,0
1000405e:	a835                	j	1000409a <_retrieve_unique_id_on_boot+0x5c>
10004060:	100086b7          	lui	a3,0x10008
10004064:	10c68693          	addi	a3,a3,268 # 1000810c <__EH_FRAME_BEGIN__+0x96c>
10004068:	10008637          	lui	a2,0x10008
1000406c:	78860613          	addi	a2,a2,1928 # 10008788 <__func__.1>
10004070:	02f00593          	li	a1,47
10004074:	10008537          	lui	a0,0x10008
10004078:	11450513          	addi	a0,a0,276 # 10008114 <__EH_FRAME_BEGIN__+0x974>
1000407c:	d58ff0ef          	jal	100035d4 <__assert_func>
10004080:	47bd                	li	a5,15
10004082:	8f99                	sub	a5,a5,a4
10004084:	03078793          	addi	a5,a5,48
10004088:	978a                	add	a5,a5,sp
1000408a:	fdc7c683          	lbu	a3,-36(a5)
1000408e:	84718793          	addi	a5,gp,-1977 # 200045bc <retrieved_id>
10004092:	97ba                	add	a5,a5,a4
10004094:	00d78023          	sb	a3,0(a5)
10004098:	0705                	addi	a4,a4,1
1000409a:	479d                	li	a5,7
1000409c:	fee7d2e3          	bge	a5,a4,10004080 <_retrieve_unique_id_on_boot+0x42>
100040a0:	50f2                	lw	ra,60(sp)
100040a2:	6121                	addi	sp,sp,64
100040a4:	8082                	ret

100040a6 <pico_get_unique_board_id_string>:
100040a6:	c199                	beqz	a1,100040ac <pico_get_unique_board_id_string+0x6>
100040a8:	4701                	li	a4,0
100040aa:	a815                	j	100040de <pico_get_unique_board_id_string+0x38>
100040ac:	1141                	addi	sp,sp,-16
100040ae:	c606                	sw	ra,12(sp)
100040b0:	100086b7          	lui	a3,0x10008
100040b4:	16468693          	addi	a3,a3,356 # 10008164 <__EH_FRAME_BEGIN__+0x9c4>
100040b8:	10008637          	lui	a2,0x10008
100040bc:	76860613          	addi	a2,a2,1896 # 10008768 <__func__.0>
100040c0:	03b00593          	li	a1,59
100040c4:	10008537          	lui	a0,0x10008
100040c8:	11450513          	addi	a0,a0,276 # 10008114 <__EH_FRAME_BEGIN__+0x974>
100040cc:	d08ff0ef          	jal	100035d4 <__assert_func>
100040d0:	03778793          	addi	a5,a5,55
100040d4:	00e506b3          	add	a3,a0,a4
100040d8:	00f68023          	sb	a5,0(a3)
100040dc:	0705                	addi	a4,a4,1
100040de:	fff58793          	addi	a5,a1,-1
100040e2:	02f77963          	bgeu	a4,a5,10004114 <pico_get_unique_board_id_string+0x6e>
100040e6:	47bd                	li	a5,15
100040e8:	02e7e663          	bltu	a5,a4,10004114 <pico_get_unique_board_id_string+0x6e>
100040ec:	00175693          	srli	a3,a4,0x1
100040f0:	84718793          	addi	a5,gp,-1977 # 200045bc <retrieved_id>
100040f4:	97b6                	add	a5,a5,a3
100040f6:	0007c783          	lbu	a5,0(a5)
100040fa:	4605                	li	a2,1
100040fc:	40e676b3          	andn	a3,a2,a4
10004100:	068a                	slli	a3,a3,0x2
10004102:	40d7d7b3          	sra	a5,a5,a3
10004106:	8bbd                	andi	a5,a5,15
10004108:	46a5                	li	a3,9
1000410a:	fcf6c3e3          	blt	a3,a5,100040d0 <pico_get_unique_board_id_string+0x2a>
1000410e:	03078793          	addi	a5,a5,48
10004112:	b7c9                	j	100040d4 <pico_get_unique_board_id_string+0x2e>
10004114:	953a                	add	a0,a0,a4
10004116:	00050023          	sb	zero,0(a0)
1000411a:	8082                	ret

1000411c <hw_endpoint_init>:
1000411c:	07f57693          	andi	a3,a0,127
10004120:	00755793          	srli	a5,a0,0x7
10004124:	20004737          	lui	a4,0x20004
10004128:	20f6a833          	sh1add	a6,a3,a5
1000412c:	0816                	slli	a6,a6,0x5
1000412e:	12c70713          	addi	a4,a4,300 # 2000412c <hw_endpoints>
10004132:	9742                	add	a4,a4,a6
10004134:	00a70123          	sb	a0,2(a4)
10004138:	0017c513          	xori	a0,a5,1
1000413c:	00a700a3          	sb	a0,1(a4)
10004140:	000701a3          	sb	zero,3(a4)
10004144:	00b71c23          	sh	a1,24(a4)
10004148:	00c70da3          	sb	a2,27(a4)
1000414c:	efb9                	bnez	a5,100041aa <hw_endpoint_init+0x8e>
1000414e:	00369613          	slli	a2,a3,0x3
10004152:	0611                	addi	a2,a2,4
10004154:	50100737          	lui	a4,0x50100
10004158:	08070713          	addi	a4,a4,128 # 50100080 <__StackTop+0x3007e080>
1000415c:	963a                	add	a2,a2,a4
1000415e:	20004737          	lui	a4,0x20004
10004162:	20f6a5b3          	sh1add	a1,a3,a5
10004166:	0596                	slli	a1,a1,0x5
10004168:	12c70713          	addi	a4,a4,300 # 2000412c <hw_endpoints>
1000416c:	972e                	add	a4,a4,a1
1000416e:	c710                	sw	a2,8(a4)
10004170:	20004737          	lui	a4,0x20004
10004174:	20f6a633          	sh1add	a2,a3,a5
10004178:	0616                	slli	a2,a2,0x5
1000417a:	12c70713          	addi	a4,a4,300 # 2000412c <hw_endpoints>
1000417e:	9732                	add	a4,a4,a2
10004180:	4718                	lw	a4,8(a4)
10004182:	00072023          	sw	zero,0(a4)
10004186:	ee9d                	bnez	a3,100041c4 <hw_endpoint_init+0xa8>
10004188:	20004737          	lui	a4,0x20004
1000418c:	20f6a7b3          	sh1add	a5,a3,a5
10004190:	00579693          	slli	a3,a5,0x5
10004194:	12c70793          	addi	a5,a4,300 # 2000412c <hw_endpoints>
10004198:	97b6                	add	a5,a5,a3
1000419a:	0007a223          	sw	zero,4(a5)
1000419e:	50100737          	lui	a4,0x50100
100041a2:	10070713          	addi	a4,a4,256 # 50100100 <__StackTop+0x3007e100>
100041a6:	c7d8                	sw	a4,12(a5)
100041a8:	8082                	ret
100041aa:	50100637          	lui	a2,0x50100
100041ae:	08060613          	addi	a2,a2,128 # 50100080 <__StackTop+0x3007e080>
100041b2:	20c6e633          	sh3add	a2,a3,a2
100041b6:	20004737          	lui	a4,0x20004
100041ba:	12c70713          	addi	a4,a4,300 # 2000412c <hw_endpoints>
100041be:	9742                	add	a4,a4,a6
100041c0:	c710                	sw	a2,8(a4)
100041c2:	b77d                	j	10004170 <hw_endpoint_init+0x54>
100041c4:	e39d                	bnez	a5,100041ea <hw_endpoint_init+0xce>
100041c6:	fff68713          	addi	a4,a3,-1
100041ca:	070e                	slli	a4,a4,0x3
100041cc:	0711                	addi	a4,a4,4
100041ce:	50100637          	lui	a2,0x50100
100041d2:	0621                	addi	a2,a2,8 # 50100008 <__StackTop+0x3007e008>
100041d4:	9732                	add	a4,a4,a2
100041d6:	20004637          	lui	a2,0x20004
100041da:	20f6a6b3          	sh1add	a3,a3,a5
100041de:	0696                	slli	a3,a3,0x5
100041e0:	12c60793          	addi	a5,a2,300 # 2000412c <hw_endpoints>
100041e4:	97b6                	add	a5,a5,a3
100041e6:	c3d8                	sw	a4,4(a5)
100041e8:	8082                	ret
100041ea:	fff68613          	addi	a2,a3,-1
100041ee:	50100737          	lui	a4,0x50100
100041f2:	0721                	addi	a4,a4,8 # 50100008 <__StackTop+0x3007e008>
100041f4:	20e66633          	sh3add	a2,a2,a4
100041f8:	20004737          	lui	a4,0x20004
100041fc:	20f6a7b3          	sh1add	a5,a3,a5
10004200:	00579693          	slli	a3,a5,0x5
10004204:	12c70793          	addi	a5,a4,300 # 2000412c <hw_endpoints>
10004208:	97b6                	add	a5,a5,a3
1000420a:	c3d0                	sw	a2,4(a5)
1000420c:	8082                	ret

1000420e <hw_endpoint_alloc>:
1000420e:	01855783          	lhu	a5,24(a0)
10004212:	03f78793          	addi	a5,a5,63
10004216:	8399                	srli	a5,a5,0x6
10004218:	00679693          	slli	a3,a5,0x6
1000421c:	01b54603          	lbu	a2,27(a0)
10004220:	4709                	li	a4,2
10004222:	00e60d63          	beq	a2,a4,1000423c <hw_endpoint_alloc+0x2e>
10004226:	8531a783          	lw	a5,-1965(gp) # 200045c8 <next_buffer_ptr>
1000422a:	c55c                	sw	a5,12(a0)
1000422c:	97b6                	add	a5,a5,a3
1000422e:	84f1a9a3          	sw	a5,-1965(gp) # 200045c8 <next_buffer_ptr>
10004232:	50101737          	lui	a4,0x50101
10004236:	00e7f663          	bgeu	a5,a4,10004242 <hw_endpoint_alloc+0x34>
1000423a:	8082                	ret
1000423c:	00779693          	slli	a3,a5,0x7
10004240:	b7dd                	j	10004226 <hw_endpoint_alloc+0x18>
10004242:	1141                	addi	sp,sp,-16
10004244:	c606                	sw	ra,12(sp)
10004246:	100086b7          	lui	a3,0x10008
1000424a:	16c68693          	addi	a3,a3,364 # 1000816c <__EH_FRAME_BEGIN__+0x9cc>
1000424e:	10008637          	lui	a2,0x10008
10004252:	7d460613          	addi	a2,a2,2004 # 100087d4 <__func__.6>
10004256:	05200593          	li	a1,82
1000425a:	10008537          	lui	a0,0x10008
1000425e:	1b050513          	addi	a0,a0,432 # 100081b0 <__EH_FRAME_BEGIN__+0xa10>
10004262:	b72ff0ef          	jal	100035d4 <__assert_func>

10004266 <hw_endpoint_open>:
10004266:	1101                	addi	sp,sp,-32
10004268:	ce06                	sw	ra,28(sp)
1000426a:	cc22                	sw	s0,24(sp)
1000426c:	ca26                	sw	s1,20(sp)
1000426e:	c84a                	sw	s2,16(sp)
10004270:	c64e                	sw	s3,12(sp)
10004272:	07f57493          	andi	s1,a0,127
10004276:	00755413          	srli	s0,a0,0x7
1000427a:	2084a7b3          	sh1add	a5,s1,s0
1000427e:	0796                	slli	a5,a5,0x5
10004280:	20004737          	lui	a4,0x20004
10004284:	12c70713          	addi	a4,a4,300 # 2000412c <hw_endpoints>
10004288:	97ba                	add	a5,a5,a4
1000428a:	89be                	mv	s3,a5
1000428c:	3d41                	jal	1000411c <hw_endpoint_init>
1000428e:	e881                	bnez	s1,1000429e <hw_endpoint_open+0x38>
10004290:	40f2                	lw	ra,28(sp)
10004292:	4462                	lw	s0,24(sp)
10004294:	44d2                	lw	s1,20(sp)
10004296:	4942                	lw	s2,16(sp)
10004298:	49b2                	lw	s3,12(sp)
1000429a:	6105                	addi	sp,sp,32
1000429c:	8082                	ret
1000429e:	0189d583          	lhu	a1,24(s3)
100042a2:	854e                	mv	a0,s3
100042a4:	37ad                	jal	1000420e <hw_endpoint_alloc>
100042a6:	01b9c783          	lbu	a5,27(s3)
100042aa:	07ea                	slli	a5,a5,0x1a
100042ac:	00c9a703          	lw	a4,12(s3)
100042b0:	501006b7          	lui	a3,0x50100
100042b4:	8f35                	xor	a4,a4,a3
100042b6:	8fd9                	or	a5,a5,a4
100042b8:	29f79793          	bseti	a5,a5,0x1f
100042bc:	0049a703          	lw	a4,4(s3)
100042c0:	c31c                	sw	a5,0(a4)
100042c2:	b7f9                	j	10004290 <hw_endpoint_open+0x2a>

100042c4 <hw_endpoint_xfer>:
100042c4:	1141                	addi	sp,sp,-16
100042c6:	c606                	sw	ra,12(sp)
100042c8:	07f57793          	andi	a5,a0,127
100042cc:	811d                	srli	a0,a0,0x7
100042ce:	20a7a7b3          	sh1add	a5,a5,a0
100042d2:	0796                	slli	a5,a5,0x5
100042d4:	20004537          	lui	a0,0x20004
100042d8:	12c50513          	addi	a0,a0,300 # 2000412c <hw_endpoints>
100042dc:	953e                	add	a0,a0,a5
100042de:	2c79                	jal	1000457c <hw_endpoint_xfer_start>
100042e0:	40b2                	lw	ra,12(sp)
100042e2:	0141                	addi	sp,sp,16
100042e4:	8082                	ret

100042e6 <dcd_int_enable>:
100042e6:	1141                	addi	sp,sp,-16
100042e8:	c606                	sw	ra,12(sp)
100042ea:	e901                	bnez	a0,100042fa <dcd_int_enable+0x14>
100042ec:	4585                	li	a1,1
100042ee:	4539                	li	a0,14
100042f0:	facfc0ef          	jal	10000a9c <irq_set_enabled>
100042f4:	40b2                	lw	ra,12(sp)
100042f6:	0141                	addi	sp,sp,16
100042f8:	8082                	ret
100042fa:	100086b7          	lui	a3,0x10008
100042fe:	22068693          	addi	a3,a3,544 # 10008220 <__EH_FRAME_BEGIN__+0xa80>
10004302:	10008637          	lui	a2,0x10008
10004306:	7c460613          	addi	a2,a2,1988 # 100087c4 <__func__.5>
1000430a:	19700593          	li	a1,407
1000430e:	10008537          	lui	a0,0x10008
10004312:	1b050513          	addi	a0,a0,432 # 100081b0 <__EH_FRAME_BEGIN__+0xa10>
10004316:	abeff0ef          	jal	100035d4 <__assert_func>

1000431a <dcd_set_address>:
1000431a:	1141                	addi	sp,sp,-16
1000431c:	c606                	sw	ra,12(sp)
1000431e:	e909                	bnez	a0,10004330 <dcd_set_address+0x16>
10004320:	4601                	li	a2,0
10004322:	4581                	li	a1,0
10004324:	08000513          	li	a0,128
10004328:	3f71                	jal	100042c4 <hw_endpoint_xfer>
1000432a:	40b2                	lw	ra,12(sp)
1000432c:	0141                	addi	sp,sp,16
1000432e:	8082                	ret
10004330:	100086b7          	lui	a3,0x10008
10004334:	22068693          	addi	a3,a3,544 # 10008220 <__EH_FRAME_BEGIN__+0xa80>
10004338:	10008637          	lui	a2,0x10008
1000433c:	7b460613          	addi	a2,a2,1972 # 100087b4 <__func__.3>
10004340:	1a100593          	li	a1,417
10004344:	10008537          	lui	a0,0x10008
10004348:	1b050513          	addi	a0,a0,432 # 100081b0 <__EH_FRAME_BEGIN__+0xa10>
1000434c:	a88ff0ef          	jal	100035d4 <__assert_func>

10004350 <dcd_connect>:
10004350:	501127b7          	lui	a5,0x50112
10004354:	6741                	lui	a4,0x10
10004356:	c7f8                	sw	a4,76(a5)
10004358:	8082                	ret

1000435a <dcd_init>:
1000435a:	1141                	addi	sp,sp,-16
1000435c:	c606                	sw	ra,12(sp)
1000435e:	c422                	sw	s0,8(sp)
10004360:	c226                	sw	s1,4(sp)
10004362:	e92d                	bnez	a0,100043d4 <dcd_init+0x7a>
10004364:	842a                	mv	s0,a0
10004366:	2ae1                	jal	1000453e <rp2040_usb_init>
10004368:	501104b7          	lui	s1,0x50110
1000436c:	47b1                	li	a5,12
1000436e:	dcbc                	sw	a5,120(s1)
10004370:	0ff00613          	li	a2,255
10004374:	200005b7          	lui	a1,0x20000
10004378:	2ea58593          	addi	a1,a1,746 # 200002ea <dcd_rp2040_irq>
1000437c:	4539                	li	a0,14
1000437e:	feafc0ef          	jal	10000b68 <irq_add_shared_handler>
10004382:	04000613          	li	a2,64
10004386:	4581                	li	a1,0
10004388:	20004537          	lui	a0,0x20004
1000438c:	12c50513          	addi	a0,a0,300 # 2000412c <hw_endpoints>
10004390:	124030ef          	jal	100074b4 <memset>
10004394:	4601                	li	a2,0
10004396:	04000593          	li	a1,64
1000439a:	4501                	li	a0,0
1000439c:	35e9                	jal	10004266 <hw_endpoint_open>
1000439e:	4601                	li	a2,0
100043a0:	04000593          	li	a1,64
100043a4:	08000513          	li	a0,128
100043a8:	3d7d                	jal	10004266 <hw_endpoint_open>
100043aa:	0fffc097          	auipc	ra,0xfffc
100043ae:	e46080e7          	jalr	-442(ra) # 200001f0 <reset_non_control_endpoints>
100043b2:	4785                	li	a5,1
100043b4:	c0bc                	sw	a5,64(s1)
100043b6:	200007b7          	lui	a5,0x20000
100043ba:	c4fc                	sw	a5,76(s1)
100043bc:	67f5                	lui	a5,0x1d
100043be:	07c1                	addi	a5,a5,16 # 1d010 <HeapSize+0x1c810>
100043c0:	08f4a823          	sw	a5,144(s1) # 50110090 <__StackTop+0x3008e090>
100043c4:	8522                	mv	a0,s0
100043c6:	3769                	jal	10004350 <dcd_connect>
100043c8:	4505                	li	a0,1
100043ca:	40b2                	lw	ra,12(sp)
100043cc:	4422                	lw	s0,8(sp)
100043ce:	4492                	lw	s1,4(sp)
100043d0:	0141                	addi	sp,sp,16
100043d2:	8082                	ret
100043d4:	100086b7          	lui	a3,0x10008
100043d8:	22068693          	addi	a3,a3,544 # 10008220 <__EH_FRAME_BEGIN__+0xa80>
100043dc:	10008637          	lui	a2,0x10008
100043e0:	7e860613          	addi	a2,a2,2024 # 100087e8 <__func__.7>
100043e4:	16300593          	li	a1,355
100043e8:	10008537          	lui	a0,0x10008
100043ec:	1b050513          	addi	a0,a0,432 # 100081b0 <__EH_FRAME_BEGIN__+0xa10>
100043f0:	9e4ff0ef          	jal	100035d4 <__assert_func>

100043f4 <dcd_sof_enable>:
100043f4:	84b187a3          	sb	a1,-1969(gp) # 200045c4 <_sof_enable>
100043f8:	c599                	beqz	a1,10004406 <dcd_sof_enable+0x12>
100043fa:	501127b7          	lui	a5,0x50112
100043fe:	00020737          	lui	a4,0x20
10004402:	08e7a823          	sw	a4,144(a5) # 50112090 <__StackTop+0x30090090>
10004406:	8082                	ret

10004408 <dcd_edpt0_status_complete>:
10004408:	0005c783          	lbu	a5,0(a1)
1000440c:	01f7f713          	andi	a4,a5,31
10004410:	eb09                	bnez	a4,10004422 <dcd_edpt0_status_complete+0x1a>
10004412:	0607f793          	andi	a5,a5,96
10004416:	e791                	bnez	a5,10004422 <dcd_edpt0_status_complete+0x1a>
10004418:	0015c703          	lbu	a4,1(a1)
1000441c:	4795                	li	a5,5
1000441e:	00f70363          	beq	a4,a5,10004424 <dcd_edpt0_status_complete+0x1c>
10004422:	8082                	ret
10004424:	0025c703          	lbu	a4,2(a1)
10004428:	501107b7          	lui	a5,0x50110
1000442c:	c398                	sw	a4,0(a5)
1000442e:	8082                	ret

10004430 <dcd_edpt_open>:
10004430:	0035c603          	lbu	a2,3(a1)
10004434:	8a0d                	andi	a2,a2,3
10004436:	4705                	li	a4,1
10004438:	02e60463          	beq	a2,a4,10004460 <dcd_edpt_open+0x30>
1000443c:	1141                	addi	sp,sp,-16
1000443e:	c606                	sw	ra,12(sp)
10004440:	87ae                	mv	a5,a1
10004442:	0045c703          	lbu	a4,4(a1)
10004446:	0055c583          	lbu	a1,5(a1)
1000444a:	05a2                	slli	a1,a1,0x8
1000444c:	8dd9                	or	a1,a1,a4
1000444e:	7ff5f593          	andi	a1,a1,2047
10004452:	0027c503          	lbu	a0,2(a5) # 50110002 <__StackTop+0x3008e002>
10004456:	3d01                	jal	10004266 <hw_endpoint_open>
10004458:	4505                	li	a0,1
1000445a:	40b2                	lw	ra,12(sp)
1000445c:	0141                	addi	sp,sp,16
1000445e:	8082                	ret
10004460:	4501                	li	a0,0
10004462:	8082                	ret

10004464 <dcd_edpt_close_all>:
10004464:	1141                	addi	sp,sp,-16
10004466:	c606                	sw	ra,12(sp)
10004468:	0fffc097          	auipc	ra,0xfffc
1000446c:	d88080e7          	jalr	-632(ra) # 200001f0 <reset_non_control_endpoints>
10004470:	40b2                	lw	ra,12(sp)
10004472:	0141                	addi	sp,sp,16
10004474:	8082                	ret

10004476 <dcd_edpt_xfer>:
10004476:	1141                	addi	sp,sp,-16
10004478:	c606                	sw	ra,12(sp)
1000447a:	e909                	bnez	a0,1000448c <dcd_edpt_xfer+0x16>
1000447c:	852e                	mv	a0,a1
1000447e:	85b2                	mv	a1,a2
10004480:	8636                	mv	a2,a3
10004482:	3589                	jal	100042c4 <hw_endpoint_xfer>
10004484:	4505                	li	a0,1
10004486:	40b2                	lw	ra,12(sp)
10004488:	0141                	addi	sp,sp,16
1000448a:	8082                	ret
1000448c:	100086b7          	lui	a3,0x10008
10004490:	22068693          	addi	a3,a3,544 # 10008220 <__EH_FRAME_BEGIN__+0xa80>
10004494:	10008637          	lui	a2,0x10008
10004498:	7a460613          	addi	a2,a2,1956 # 100087a4 <__func__.0>
1000449c:	20400593          	li	a1,516
100044a0:	10008537          	lui	a0,0x10008
100044a4:	1b050513          	addi	a0,a0,432 # 100081b0 <__EH_FRAME_BEGIN__+0xa10>
100044a8:	92cff0ef          	jal	100035d4 <__assert_func>

100044ac <dcd_edpt_stall>:
100044ac:	1141                	addi	sp,sp,-16
100044ae:	c606                	sw	ra,12(sp)
100044b0:	07f5f513          	andi	a0,a1,127
100044b4:	e901                	bnez	a0,100044c4 <dcd_edpt_stall+0x18>
100044b6:	0075d793          	srli	a5,a1,0x7
100044ba:	eb85                	bnez	a5,100044ea <dcd_edpt_stall+0x3e>
100044bc:	4709                	li	a4,2
100044be:	501127b7          	lui	a5,0x50112
100044c2:	d7b8                	sw	a4,104(a5)
100044c4:	819d                	srli	a1,a1,0x7
100044c6:	20b52533          	sh1add	a0,a0,a1
100044ca:	0516                	slli	a0,a0,0x5
100044cc:	28b01613          	bseti	a2,zero,0xb
100044d0:	4581                	li	a1,0
100044d2:	200047b7          	lui	a5,0x20004
100044d6:	12c78793          	addi	a5,a5,300 # 2000412c <hw_endpoints>
100044da:	953e                	add	a0,a0,a5
100044dc:	0fffc097          	auipc	ra,0xfffc
100044e0:	220080e7          	jalr	544(ra) # 200006fc <_hw_endpoint_buffer_control_update32>
100044e4:	40b2                	lw	ra,12(sp)
100044e6:	0141                	addi	sp,sp,16
100044e8:	8082                	ret
100044ea:	4705                	li	a4,1
100044ec:	bfc9                	j	100044be <dcd_edpt_stall+0x12>

100044ee <dcd_edpt_clear_stall>:
100044ee:	07f5f513          	andi	a0,a1,127
100044f2:	e111                	bnez	a0,100044f6 <dcd_edpt_clear_stall+0x8>
100044f4:	8082                	ret
100044f6:	1141                	addi	sp,sp,-16
100044f8:	c606                	sw	ra,12(sp)
100044fa:	819d                	srli	a1,a1,0x7
100044fc:	20b52533          	sh1add	a0,a0,a1
10004500:	0516                	slli	a0,a0,0x5
10004502:	200047b7          	lui	a5,0x20004
10004506:	12c78793          	addi	a5,a5,300 # 2000412c <hw_endpoints>
1000450a:	953e                	add	a0,a0,a5
1000450c:	000501a3          	sb	zero,3(a0)
10004510:	4601                	li	a2,0
10004512:	75fd                	lui	a1,0xfffff
10004514:	7ff58593          	addi	a1,a1,2047 # fffff7ff <__StackTop+0xdff7d7ff>
10004518:	0fffc097          	auipc	ra,0xfffc
1000451c:	1e4080e7          	jalr	484(ra) # 200006fc <_hw_endpoint_buffer_control_update32>
10004520:	40b2                	lw	ra,12(sp)
10004522:	0141                	addi	sp,sp,16
10004524:	8082                	ret

10004526 <unaligned_memcpy>:
10004526:	a801                	j	10004536 <unaligned_memcpy+0x10>
10004528:	0005c703          	lbu	a4,0(a1)
1000452c:	00e50023          	sb	a4,0(a0)
10004530:	0585                	addi	a1,a1,1
10004532:	0505                	addi	a0,a0,1
10004534:	863e                	mv	a2,a5
10004536:	fff60793          	addi	a5,a2,-1
1000453a:	f67d                	bnez	a2,10004528 <unaligned_memcpy+0x2>
1000453c:	8082                	ret

1000453e <rp2040_usb_init>:
1000453e:	1141                	addi	sp,sp,-16
10004540:	c606                	sw	ra,12(sp)
10004542:	100007b7          	lui	a5,0x10000
10004546:	40022737          	lui	a4,0x40022
1000454a:	c31c                	sw	a5,0(a4)
1000454c:	40023737          	lui	a4,0x40023
10004550:	c31c                	sw	a5,0(a4)
10004552:	400207b7          	lui	a5,0x40020
10004556:	479c                	lw	a5,8(a5)
10004558:	10000737          	lui	a4,0x10000
1000455c:	40f777b3          	andn	a5,a4,a5
10004560:	fbed                	bnez	a5,10004552 <rp2040_usb_init+0x14>
10004562:	6605                	lui	a2,0x1
10004564:	4581                	li	a1,0
10004566:	50100537          	lui	a0,0x50100
1000456a:	74b020ef          	jal	100074b4 <memset>
1000456e:	501107b7          	lui	a5,0x50110
10004572:	4725                	li	a4,9
10004574:	dbf8                	sw	a4,116(a5)
10004576:	40b2                	lw	ra,12(sp)
10004578:	0141                	addi	sp,sp,16
1000457a:	8082                	ret

1000457c <hw_endpoint_xfer_start>:
1000457c:	1141                	addi	sp,sp,-16
1000457e:	c606                	sw	ra,12(sp)
10004580:	c422                	sw	s0,8(sp)
10004582:	c226                	sw	s1,4(sp)
10004584:	c04a                	sw	s2,0(sp)
10004586:	842a                	mv	s0,a0
10004588:	84ae                	mv	s1,a1
1000458a:	8932                	mv	s2,a2
1000458c:	01a54783          	lbu	a5,26(a0) # 5010001a <__StackTop+0x3007e01a>
10004590:	e7a1                	bnez	a5,100045d8 <hw_endpoint_xfer_start+0x5c>
10004592:	01241a23          	sh	s2,20(s0)
10004596:	00041b23          	sh	zero,22(s0)
1000459a:	4785                	li	a5,1
1000459c:	00f40d23          	sb	a5,26(s0)
100045a0:	c804                	sw	s1,16(s0)
100045a2:	8522                	mv	a0,s0
100045a4:	0fffc097          	auipc	ra,0xfffc
100045a8:	000080e7          	jalr	ra # 200005a4 <e15_is_bulkin_ep>
100045ac:	c519                	beqz	a0,100045ba <hw_endpoint_xfer_start+0x3e>
100045ae:	501127b7          	lui	a5,0x50112
100045b2:	00020737          	lui	a4,0x20
100045b6:	08e7a823          	sw	a4,144(a5) # 50112090 <__StackTop+0x30090090>
100045ba:	8522                	mv	a0,s0
100045bc:	0fffc097          	auipc	ra,0xfffc
100045c0:	014080e7          	jalr	20(ra) # 200005d0 <e15_is_critical_frame_period>
100045c4:	c905                	beqz	a0,100045f4 <hw_endpoint_xfer_start+0x78>
100045c6:	4785                	li	a5,1
100045c8:	00f40e23          	sb	a5,28(s0)
100045cc:	40b2                	lw	ra,12(sp)
100045ce:	4422                	lw	s0,8(sp)
100045d0:	4492                	lw	s1,4(sp)
100045d2:	4902                	lw	s2,0(sp)
100045d4:	0141                	addi	sp,sp,16
100045d6:	8082                	ret
100045d8:	00254583          	lbu	a1,2(a0)
100045dc:	10008537          	lui	a0,0x10008
100045e0:	31050513          	addi	a0,a0,784 # 10008310 <__EH_FRAME_BEGIN__+0xb70>
100045e4:	b6eff0ef          	jal	10003952 <__wrap_printf>
100045e8:	8522                	mv	a0,s0
100045ea:	0fffc097          	auipc	ra,0xfffc
100045ee:	0fe080e7          	jalr	254(ra) # 200006e8 <hw_endpoint_reset_transfer>
100045f2:	b745                	j	10004592 <hw_endpoint_xfer_start+0x16>
100045f4:	8522                	mv	a0,s0
100045f6:	0fffc097          	auipc	ra,0xfffc
100045fa:	15e080e7          	jalr	350(ra) # 20000754 <hw_endpoint_start_next_buffer>
100045fe:	b7f9                	j	100045cc <hw_endpoint_xfer_start+0x50>

10004600 <configuration_reset>:
10004600:	1141                	addi	sp,sp,-16
10004602:	c606                	sw	ra,12(sp)
10004604:	c422                	sw	s0,8(sp)
10004606:	c226                	sw	s1,4(sp)
10004608:	84aa                	mv	s1,a0
1000460a:	4401                	li	s0,0
1000460c:	a831                	j	10004628 <configuration_reset+0x28>
1000460e:	8f99                	sub	a5,a5,a4
10004610:	0796                	slli	a5,a5,0x5
10004612:	10009737          	lui	a4,0x10009
10004616:	8bc70713          	addi	a4,a4,-1860 # 100088bc <_usbd_driver>
1000461a:	97ba                	add	a5,a5,a4
1000461c:	47dc                	lw	a5,12(a5)
1000461e:	8526                	mv	a0,s1
10004620:	9782                	jalr	a5
10004622:	0405                	addi	s0,s0,1
10004624:	0ff47413          	zext.b	s0,s0
10004628:	86b1c703          	lbu	a4,-1941(gp) # 200045e0 <_app_driver_count>
1000462c:	87a2                	mv	a5,s0
1000462e:	00170693          	addi	a3,a4,1
10004632:	0286c863          	blt	a3,s0,10004662 <configuration_reset+0x62>
10004636:	fce47ce3          	bgeu	s0,a4,1000460e <configuration_reset+0xe>
1000463a:	86f1a783          	lw	a5,-1937(gp) # 200045e4 <_app_driver>
1000463e:	00541713          	slli	a4,s0,0x5
10004642:	97ba                	add	a5,a5,a4
10004644:	ffe1                	bnez	a5,1000461c <configuration_reset+0x1c>
10004646:	22500613          	li	a2,549
1000464a:	100095b7          	lui	a1,0x10009
1000464e:	88858593          	addi	a1,a1,-1912 # 10008888 <__func__.10>
10004652:	10008537          	lui	a0,0x10008
10004656:	34850513          	addi	a0,a0,840 # 10008348 <__EH_FRAME_BEGIN__+0xba8>
1000465a:	af8ff0ef          	jal	10003952 <__wrap_printf>
1000465e:	9002                	ebreak
10004660:	a83d                	j	1000469e <configuration_reset+0x9e>
10004662:	05400613          	li	a2,84
10004666:	4581                	li	a1,0
10004668:	20004537          	lui	a0,0x20004
1000466c:	cfc50513          	addi	a0,a0,-772 # 20003cfc <_usbd_dev>
10004670:	645020ef          	jal	100074b4 <memset>
10004674:	20004737          	lui	a4,0x20004
10004678:	d0070713          	addi	a4,a4,-768 # 20003d00 <_usbd_dev+0x4>
1000467c:	57fd                	li	a5,-1
1000467e:	c31c                	sw	a5,0(a4)
10004680:	c35c                	sw	a5,4(a4)
10004682:	c71c                	sw	a5,8(a4)
10004684:	c75c                	sw	a5,12(a4)
10004686:	20004737          	lui	a4,0x20004
1000468a:	d1070713          	addi	a4,a4,-752 # 20003d10 <_usbd_dev+0x14>
1000468e:	c31c                	sw	a5,0(a4)
10004690:	c35c                	sw	a5,4(a4)
10004692:	c71c                	sw	a5,8(a4)
10004694:	c75c                	sw	a5,12(a4)
10004696:	cb1c                	sw	a5,16(a4)
10004698:	cb5c                	sw	a5,20(a4)
1000469a:	cf1c                	sw	a5,24(a4)
1000469c:	cf5c                	sw	a5,28(a4)
1000469e:	40b2                	lw	ra,12(sp)
100046a0:	4422                	lw	s0,8(sp)
100046a2:	4492                	lw	s1,4(sp)
100046a4:	0141                	addi	sp,sp,16
100046a6:	8082                	ret

100046a8 <usbd_reset>:
100046a8:	1141                	addi	sp,sp,-16
100046aa:	c606                	sw	ra,12(sp)
100046ac:	3f91                	jal	10004600 <configuration_reset>
100046ae:	124010ef          	jal	100057d2 <usbd_control_reset>
100046b2:	40b2                	lw	ra,12(sp)
100046b4:	0141                	addi	sp,sp,16
100046b6:	8082                	ret

100046b8 <invoke_class_control>:
100046b8:	1141                	addi	sp,sp,-16
100046ba:	c606                	sw	ra,12(sp)
100046bc:	c422                	sw	s0,8(sp)
100046be:	c226                	sw	s1,4(sp)
100046c0:	c04a                	sw	s2,0(sp)
100046c2:	892a                	mv	s2,a0
100046c4:	842e                	mv	s0,a1
100046c6:	84b2                	mv	s1,a2
100046c8:	49c8                	lw	a0,20(a1)
100046ca:	126010ef          	jal	100057f0 <usbd_control_set_complete_callback>
100046ce:	485c                	lw	a5,20(s0)
100046d0:	8626                	mv	a2,s1
100046d2:	4585                	li	a1,1
100046d4:	854a                	mv	a0,s2
100046d6:	9782                	jalr	a5
100046d8:	40b2                	lw	ra,12(sp)
100046da:	4422                	lw	s0,8(sp)
100046dc:	4492                	lw	s1,4(sp)
100046de:	4902                	lw	s2,0(sp)
100046e0:	0141                	addi	sp,sp,16
100046e2:	8082                	ret

100046e4 <process_set_config>:
100046e4:	7179                	addi	sp,sp,-48
100046e6:	d606                	sw	ra,44(sp)
100046e8:	c85a                	sw	s6,16(sp)
100046ea:	8b2a                	mv	s6,a0
100046ec:	fff58513          	addi	a0,a1,-1
100046f0:	0ff57513          	zext.b	a0,a0
100046f4:	8abff0ef          	jal	10003f9e <tud_descriptor_configuration_cb>
100046f8:	c901                	beqz	a0,10004708 <process_set_config+0x24>
100046fa:	c266                	sw	s9,4(sp)
100046fc:	00154c83          	lbu	s9,1(a0)
10004700:	4789                	li	a5,2
10004702:	02fc8563          	beq	s9,a5,1000472c <process_set_config+0x48>
10004706:	4c92                	lw	s9,4(sp)
10004708:	3d600613          	li	a2,982
1000470c:	100095b7          	lui	a1,0x10009
10004710:	85c58593          	addi	a1,a1,-1956 # 1000885c <__func__.8>
10004714:	10008537          	lui	a0,0x10008
10004718:	34850513          	addi	a0,a0,840 # 10008348 <__EH_FRAME_BEGIN__+0xba8>
1000471c:	a36ff0ef          	jal	10003952 <__wrap_printf>
10004720:	9002                	ebreak
10004722:	4501                	li	a0,0
10004724:	50b2                	lw	ra,44(sp)
10004726:	4b42                	lw	s6,16(sp)
10004728:	6145                	addi	sp,sp,48
1000472a:	8082                	ret
1000472c:	d422                	sw	s0,40(sp)
1000472e:	d226                	sw	s1,36(sp)
10004730:	d04a                	sw	s2,32(sp)
10004732:	ce4e                	sw	s3,28(sp)
10004734:	cc52                	sw	s4,24(sp)
10004736:	ca56                	sw	s5,20(sp)
10004738:	c65e                	sw	s7,12(sp)
1000473a:	c462                	sw	s8,8(sp)
1000473c:	00754703          	lbu	a4,7(a0)
10004740:	200047b7          	lui	a5,0x20004
10004744:	cfc78793          	addi	a5,a5,-772 # 20003cfc <_usbd_dev>
10004748:	48575613          	bexti	a2,a4,0x5
1000474c:	0612                	slli	a2,a2,0x4
1000474e:	0007c683          	lbu	a3,0(a5)
10004752:	9abd                	andi	a3,a3,-17
10004754:	8ed1                	or	a3,a3,a2
10004756:	00d78023          	sb	a3,0(a5)
1000475a:	48675713          	bexti	a4,a4,0x6
1000475e:	0716                	slli	a4,a4,0x5
10004760:	0ff6f693          	zext.b	a3,a3
10004764:	fdf6f693          	andi	a3,a3,-33
10004768:	8f55                	or	a4,a4,a3
1000476a:	00e78023          	sb	a4,0(a5)
1000476e:	00950a13          	addi	s4,a0,9
10004772:	00254703          	lbu	a4,2(a0)
10004776:	00354783          	lbu	a5,3(a0)
1000477a:	07a2                	slli	a5,a5,0x8
1000477c:	8fd9                	or	a5,a5,a4
1000477e:	00f50bb3          	add	s7,a0,a5
10004782:	a295                	j	100048e6 <process_set_config+0x202>
10004784:	003a4c03          	lbu	s8,3(s4)
10004788:	000a4783          	lbu	a5,0(s4)
1000478c:	9a3e                	add	s4,s4,a5
1000478e:	a2a5                	j	100048f6 <process_set_config+0x212>
10004790:	3f100613          	li	a2,1009
10004794:	100095b7          	lui	a1,0x10009
10004798:	85c58593          	addi	a1,a1,-1956 # 1000885c <__func__.8>
1000479c:	10008537          	lui	a0,0x10008
100047a0:	34850513          	addi	a0,a0,840 # 10008348 <__EH_FRAME_BEGIN__+0xba8>
100047a4:	9aeff0ef          	jal	10003952 <__wrap_printf>
100047a8:	9002                	ebreak
100047aa:	4501                	li	a0,0
100047ac:	5422                	lw	s0,40(sp)
100047ae:	5492                	lw	s1,36(sp)
100047b0:	5902                	lw	s2,32(sp)
100047b2:	49f2                	lw	s3,28(sp)
100047b4:	4a62                	lw	s4,24(sp)
100047b6:	4ad2                	lw	s5,20(sp)
100047b8:	4bb2                	lw	s7,12(sp)
100047ba:	4c22                	lw	s8,8(sp)
100047bc:	4c92                	lw	s9,4(sp)
100047be:	b79d                	j	10004724 <process_set_config+0x40>
100047c0:	408a8433          	sub	s0,s5,s0
100047c4:	0416                	slli	s0,s0,0x5
100047c6:	100097b7          	lui	a5,0x10009
100047ca:	8bc78793          	addi	a5,a5,-1860 # 100088bc <_usbd_driver>
100047ce:	943e                	add	s0,s0,a5
100047d0:	481c                	lw	a5,16(s0)
100047d2:	864e                	mv	a2,s3
100047d4:	85d2                	mv	a1,s4
100047d6:	855a                	mv	a0,s6
100047d8:	9782                	jalr	a5
100047da:	892a                	mv	s2,a0
100047dc:	00953793          	sltiu	a5,a0,9
100047e0:	0017c793          	xori	a5,a5,1
100047e4:	00a9b733          	sltu	a4,s3,a0
100047e8:	00174713          	xori	a4,a4,1
100047ec:	8ff9                	and	a5,a5,a4
100047ee:	ebb9                	bnez	a5,10004844 <process_set_config+0x160>
100047f0:	0485                	addi	s1,s1,1
100047f2:	0ff4f493          	zext.b	s1,s1
100047f6:	86b1c403          	lbu	s0,-1941(gp) # 200045e0 <_app_driver_count>
100047fa:	8aa6                	mv	s5,s1
100047fc:	00140793          	addi	a5,s0,1
10004800:	0c97ce63          	blt	a5,s1,100048dc <process_set_config+0x1f8>
10004804:	fa84fee3          	bgeu	s1,s0,100047c0 <process_set_config+0xdc>
10004808:	86f1a403          	lw	s0,-1937(gp) # 200045e4 <_app_driver>
1000480c:	00549793          	slli	a5,s1,0x5
10004810:	943e                	add	s0,s0,a5
10004812:	fc5d                	bnez	s0,100047d0 <process_set_config+0xec>
10004814:	3fa00613          	li	a2,1018
10004818:	100095b7          	lui	a1,0x10009
1000481c:	85c58593          	addi	a1,a1,-1956 # 1000885c <__func__.8>
10004820:	10008537          	lui	a0,0x10008
10004824:	34850513          	addi	a0,a0,840 # 10008348 <__EH_FRAME_BEGIN__+0xba8>
10004828:	92aff0ef          	jal	10003952 <__wrap_printf>
1000482c:	9002                	ebreak
1000482e:	4501                	li	a0,0
10004830:	5422                	lw	s0,40(sp)
10004832:	5492                	lw	s1,36(sp)
10004834:	5902                	lw	s2,32(sp)
10004836:	49f2                	lw	s3,28(sp)
10004838:	4a62                	lw	s4,24(sp)
1000483a:	4ad2                	lw	s5,20(sp)
1000483c:	4bb2                	lw	s7,12(sp)
1000483e:	4c22                	lw	s8,8(sp)
10004840:	4c92                	lw	s9,4(sp)
10004842:	b5cd                	j	10004724 <process_set_config+0x40>
10004844:	4785                	li	a5,1
10004846:	04fc0063          	beq	s8,a5,10004886 <process_set_config+0x1a2>
1000484a:	4681                	li	a3,0
1000484c:	0786fe63          	bgeu	a3,s8,100048c8 <process_set_config+0x1e4>
10004850:	002a4783          	lbu	a5,2(s4)
10004854:	97b6                	add	a5,a5,a3
10004856:	0ff7f793          	zext.b	a5,a5
1000485a:	20004737          	lui	a4,0x20004
1000485e:	cfc70713          	addi	a4,a4,-772 # 20003cfc <_usbd_dev>
10004862:	973e                	add	a4,a4,a5
10004864:	00474603          	lbu	a2,4(a4)
10004868:	0ff00713          	li	a4,255
1000486c:	02e61663          	bne	a2,a4,10004898 <process_set_config+0x1b4>
10004870:	20004737          	lui	a4,0x20004
10004874:	cfc70713          	addi	a4,a4,-772 # 20003cfc <_usbd_dev>
10004878:	97ba                	add	a5,a5,a4
1000487a:	00978223          	sb	s1,4(a5)
1000487e:	0685                	addi	a3,a3,1
10004880:	0ff6f693          	zext.b	a3,a3
10004884:	b7e1                	j	1000484c <process_set_config+0x168>
10004886:	4818                	lw	a4,16(s0)
10004888:	100067b7          	lui	a5,0x10006
1000488c:	efc78793          	addi	a5,a5,-260 # 10005efc <cdcd_open>
10004890:	faf71de3          	bne	a4,a5,1000484a <process_set_config+0x166>
10004894:	8c66                	mv	s8,s9
10004896:	bf55                	j	1000484a <process_set_config+0x166>
10004898:	41900613          	li	a2,1049
1000489c:	100095b7          	lui	a1,0x10009
100048a0:	85c58593          	addi	a1,a1,-1956 # 1000885c <__func__.8>
100048a4:	10008537          	lui	a0,0x10008
100048a8:	34850513          	addi	a0,a0,840 # 10008348 <__EH_FRAME_BEGIN__+0xba8>
100048ac:	8a6ff0ef          	jal	10003952 <__wrap_printf>
100048b0:	9002                	ebreak
100048b2:	4501                	li	a0,0
100048b4:	5422                	lw	s0,40(sp)
100048b6:	5492                	lw	s1,36(sp)
100048b8:	5902                	lw	s2,32(sp)
100048ba:	49f2                	lw	s3,28(sp)
100048bc:	4a62                	lw	s4,24(sp)
100048be:	4ad2                	lw	s5,20(sp)
100048c0:	4bb2                	lw	s7,12(sp)
100048c2:	4c22                	lw	s8,8(sp)
100048c4:	4c92                	lw	s9,4(sp)
100048c6:	bdb9                	j	10004724 <process_set_config+0x40>
100048c8:	86a6                	mv	a3,s1
100048ca:	864a                	mv	a2,s2
100048cc:	85d2                	mv	a1,s4
100048ce:	20004537          	lui	a0,0x20004
100048d2:	d1050513          	addi	a0,a0,-752 # 20003d10 <_usbd_dev+0x14>
100048d6:	198020ef          	jal	10006a6e <tu_edpt_bind_driver>
100048da:	9a4a                	add	s4,s4,s2
100048dc:	86b1c783          	lbu	a5,-1941(gp) # 200045e0 <_app_driver_count>
100048e0:	0785                	addi	a5,a5,1
100048e2:	0357c563          	blt	a5,s5,1000490c <process_set_config+0x228>
100048e6:	057a7b63          	bgeu	s4,s7,1000493c <process_set_config+0x258>
100048ea:	001a4703          	lbu	a4,1(s4)
100048ee:	47ad                	li	a5,11
100048f0:	e8f70ae3          	beq	a4,a5,10004784 <process_set_config+0xa0>
100048f4:	4c05                	li	s8,1
100048f6:	001a4703          	lbu	a4,1(s4)
100048fa:	4791                	li	a5,4
100048fc:	e8f71ae3          	bne	a4,a5,10004790 <process_set_config+0xac>
10004900:	414b89b3          	sub	s3,s7,s4
10004904:	0809c9b3          	zext.h	s3,s3
10004908:	4481                	li	s1,0
1000490a:	b5f5                	j	100047f6 <process_set_config+0x112>
1000490c:	42800613          	li	a2,1064
10004910:	100095b7          	lui	a1,0x10009
10004914:	85c58593          	addi	a1,a1,-1956 # 1000885c <__func__.8>
10004918:	10008537          	lui	a0,0x10008
1000491c:	34850513          	addi	a0,a0,840 # 10008348 <__EH_FRAME_BEGIN__+0xba8>
10004920:	832ff0ef          	jal	10003952 <__wrap_printf>
10004924:	9002                	ebreak
10004926:	4501                	li	a0,0
10004928:	5422                	lw	s0,40(sp)
1000492a:	5492                	lw	s1,36(sp)
1000492c:	5902                	lw	s2,32(sp)
1000492e:	49f2                	lw	s3,28(sp)
10004930:	4a62                	lw	s4,24(sp)
10004932:	4ad2                	lw	s5,20(sp)
10004934:	4bb2                	lw	s7,12(sp)
10004936:	4c22                	lw	s8,8(sp)
10004938:	4c92                	lw	s9,4(sp)
1000493a:	b3ed                	j	10004724 <process_set_config+0x40>
1000493c:	4505                	li	a0,1
1000493e:	5422                	lw	s0,40(sp)
10004940:	5492                	lw	s1,36(sp)
10004942:	5902                	lw	s2,32(sp)
10004944:	49f2                	lw	s3,28(sp)
10004946:	4a62                	lw	s4,24(sp)
10004948:	4ad2                	lw	s5,20(sp)
1000494a:	4bb2                	lw	s7,12(sp)
1000494c:	4c22                	lw	s8,8(sp)
1000494e:	4c92                	lw	s9,4(sp)
10004950:	bbd1                	j	10004724 <process_set_config+0x40>

10004952 <tud_event_hook_cb>:
10004952:	8082                	ret

10004954 <tud_sof_cb>:
10004954:	8082                	ret

10004956 <tud_descriptor_device_qualifier_cb>:
10004956:	4501                	li	a0,0
10004958:	8082                	ret

1000495a <tud_descriptor_other_speed_configuration_cb>:
1000495a:	4501                	li	a0,0
1000495c:	8082                	ret

1000495e <process_get_descriptor>:
1000495e:	1141                	addi	sp,sp,-16
10004960:	c606                	sw	ra,12(sp)
10004962:	c422                	sw	s0,8(sp)
10004964:	c226                	sw	s1,4(sp)
10004966:	84aa                	mv	s1,a0
10004968:	842e                	mv	s0,a1
1000496a:	0025c503          	lbu	a0,2(a1)
1000496e:	0035c783          	lbu	a5,3(a1)
10004972:	07a2                	slli	a5,a5,0x8
10004974:	83a1                	srli	a5,a5,0x8
10004976:	4719                	li	a4,6
10004978:	0ee78863          	beq	a5,a4,10004a68 <process_get_descriptor+0x10a>
1000497c:	02f76763          	bltu	a4,a5,100049aa <process_get_descriptor+0x4c>
10004980:	4709                	li	a4,2
10004982:	06e78a63          	beq	a5,a4,100049f6 <process_get_descriptor+0x98>
10004986:	470d                	li	a4,3
10004988:	0ae78f63          	beq	a5,a4,10004a46 <process_get_descriptor+0xe8>
1000498c:	4705                	li	a4,1
1000498e:	00e79c63          	bne	a5,a4,100049a6 <process_get_descriptor+0x48>
10004992:	e02ff0ef          	jal	10003f94 <tud_descriptor_device_cb>
10004996:	862a                	mv	a2,a0
10004998:	c121                	beqz	a0,100049d8 <process_get_descriptor+0x7a>
1000499a:	46c9                	li	a3,18
1000499c:	85a2                	mv	a1,s0
1000499e:	8526                	mv	a0,s1
100049a0:	547000ef          	jal	100056e6 <tud_control_xfer>
100049a4:	a88d                	j	10004a16 <process_get_descriptor+0xb8>
100049a6:	4501                	li	a0,0
100049a8:	a0bd                	j	10004a16 <process_get_descriptor+0xb8>
100049aa:	471d                	li	a4,7
100049ac:	04e78563          	beq	a5,a4,100049f6 <process_get_descriptor+0x98>
100049b0:	473d                	li	a4,15
100049b2:	02e79163          	bne	a5,a4,100049d4 <process_get_descriptor+0x76>
100049b6:	876ff0ef          	jal	10003a2c <tud_descriptor_bos_cb>
100049ba:	862a                	mv	a2,a0
100049bc:	c161                	beqz	a0,10004a7c <process_get_descriptor+0x11e>
100049be:	00254683          	lbu	a3,2(a0)
100049c2:	00354783          	lbu	a5,3(a0)
100049c6:	07a2                	slli	a5,a5,0x8
100049c8:	8edd                	or	a3,a3,a5
100049ca:	85a2                	mv	a1,s0
100049cc:	8526                	mv	a0,s1
100049ce:	519000ef          	jal	100056e6 <tud_control_xfer>
100049d2:	a091                	j	10004a16 <process_get_descriptor+0xb8>
100049d4:	4501                	li	a0,0
100049d6:	a081                	j	10004a16 <process_get_descriptor+0xb8>
100049d8:	43a00613          	li	a2,1082
100049dc:	100095b7          	lui	a1,0x10009
100049e0:	84458593          	addi	a1,a1,-1980 # 10008844 <__func__.7>
100049e4:	10008537          	lui	a0,0x10008
100049e8:	34850513          	addi	a0,a0,840 # 10008348 <__EH_FRAME_BEGIN__+0xba8>
100049ec:	f67fe0ef          	jal	10003952 <__wrap_printf>
100049f0:	9002                	ebreak
100049f2:	4501                	li	a0,0
100049f4:	a00d                	j	10004a16 <process_get_descriptor+0xb8>
100049f6:	4709                	li	a4,2
100049f8:	02e78463          	beq	a5,a4,10004a20 <process_get_descriptor+0xc2>
100049fc:	3fb9                	jal	1000495a <tud_descriptor_other_speed_configuration_cb>
100049fe:	862a                	mv	a2,a0
10004a00:	c141                	beqz	a0,10004a80 <process_get_descriptor+0x122>
10004a02:	00264683          	lbu	a3,2(a2) # 1002 <HeapSize+0x802>
10004a06:	00364783          	lbu	a5,3(a2)
10004a0a:	07a2                	slli	a5,a5,0x8
10004a0c:	8edd                	or	a3,a3,a5
10004a0e:	85a2                	mv	a1,s0
10004a10:	8526                	mv	a0,s1
10004a12:	4d5000ef          	jal	100056e6 <tud_control_xfer>
10004a16:	40b2                	lw	ra,12(sp)
10004a18:	4422                	lw	s0,8(sp)
10004a1a:	4492                	lw	s1,4(sp)
10004a1c:	0141                	addi	sp,sp,16
10004a1e:	8082                	ret
10004a20:	d7eff0ef          	jal	10003f9e <tud_descriptor_configuration_cb>
10004a24:	862a                	mv	a2,a0
10004a26:	fd71                	bnez	a0,10004a02 <process_get_descriptor+0xa4>
10004a28:	46100613          	li	a2,1121
10004a2c:	100095b7          	lui	a1,0x10009
10004a30:	84458593          	addi	a1,a1,-1980 # 10008844 <__func__.7>
10004a34:	10008537          	lui	a0,0x10008
10004a38:	34850513          	addi	a0,a0,840 # 10008348 <__EH_FRAME_BEGIN__+0xba8>
10004a3c:	f17fe0ef          	jal	10003952 <__wrap_printf>
10004a40:	9002                	ebreak
10004a42:	4501                	li	a0,0
10004a44:	bfc9                	j	10004a16 <process_get_descriptor+0xb8>
10004a46:	0045c583          	lbu	a1,4(a1)
10004a4a:	00544783          	lbu	a5,5(s0)
10004a4e:	07a2                	slli	a5,a5,0x8
10004a50:	8ddd                	or	a1,a1,a5
10004a52:	d56ff0ef          	jal	10003fa8 <tud_descriptor_string_cb>
10004a56:	862a                	mv	a2,a0
10004a58:	c515                	beqz	a0,10004a84 <process_get_descriptor+0x126>
10004a5a:	00054683          	lbu	a3,0(a0)
10004a5e:	85a2                	mv	a1,s0
10004a60:	8526                	mv	a0,s1
10004a62:	485000ef          	jal	100056e6 <tud_control_xfer>
10004a66:	bf45                	j	10004a16 <process_get_descriptor+0xb8>
10004a68:	35fd                	jal	10004956 <tud_descriptor_device_qualifier_cb>
10004a6a:	862a                	mv	a2,a0
10004a6c:	cd11                	beqz	a0,10004a88 <process_get_descriptor+0x12a>
10004a6e:	00054683          	lbu	a3,0(a0)
10004a72:	85a2                	mv	a1,s0
10004a74:	8526                	mv	a0,s1
10004a76:	471000ef          	jal	100056e6 <tud_control_xfer>
10004a7a:	bf71                	j	10004a16 <process_get_descriptor+0xb8>
10004a7c:	4501                	li	a0,0
10004a7e:	bf61                	j	10004a16 <process_get_descriptor+0xb8>
10004a80:	4501                	li	a0,0
10004a82:	bf51                	j	10004a16 <process_get_descriptor+0xb8>
10004a84:	4501                	li	a0,0
10004a86:	bf41                	j	10004a16 <process_get_descriptor+0xb8>
10004a88:	4501                	li	a0,0
10004a8a:	b771                	j	10004a16 <process_get_descriptor+0xb8>

10004a8c <tud_mount_cb>:
10004a8c:	8082                	ret

10004a8e <tud_umount_cb>:
10004a8e:	8082                	ret

10004a90 <tud_suspend_cb>:
10004a90:	8082                	ret

10004a92 <tud_resume_cb>:
10004a92:	8082                	ret

10004a94 <tud_mounted>:
10004a94:	200047b7          	lui	a5,0x20004
10004a98:	cfc78793          	addi	a5,a5,-772 # 20003cfc <_usbd_dev>
10004a9c:	0017c503          	lbu	a0,1(a5)
10004aa0:	00a03533          	snez	a0,a0
10004aa4:	8082                	ret

10004aa6 <tud_suspended>:
10004aa6:	200047b7          	lui	a5,0x20004
10004aaa:	cfc7a503          	lw	a0,-772(a5) # 20003cfc <_usbd_dev>
10004aae:	48255513          	bexti	a0,a0,0x2
10004ab2:	8082                	ret

10004ab4 <tud_inited>:
10004ab4:	200047b7          	lui	a5,0x20004
10004ab8:	81d7c503          	lbu	a0,-2019(a5) # 2000381d <_usbd_rhport>
10004abc:	f0150513          	addi	a0,a0,-255
10004ac0:	00a03533          	snez	a0,a0
10004ac4:	8082                	ret

10004ac6 <tud_rhport_init>:
10004ac6:	1101                	addi	sp,sp,-32
10004ac8:	ce06                	sw	ra,28(sp)
10004aca:	cc22                	sw	s0,24(sp)
10004acc:	ca26                	sw	s1,20(sp)
10004ace:	c84a                	sw	s2,16(sp)
10004ad0:	c64e                	sw	s3,12(sp)
10004ad2:	892a                	mv	s2,a0
10004ad4:	842e                	mv	s0,a1
10004ad6:	89ae                	mv	s3,a1
10004ad8:	3ff1                	jal	10004ab4 <tud_inited>
10004ada:	84aa                	mv	s1,a0
10004adc:	0c051a63          	bnez	a0,10004bb0 <tud_rhport_init+0xea>
10004ae0:	c02d                	beqz	s0,10004b42 <tud_rhport_init+0x7c>
10004ae2:	05400613          	li	a2,84
10004ae6:	4581                	li	a1,0
10004ae8:	20004537          	lui	a0,0x20004
10004aec:	cfc50513          	addi	a0,a0,-772 # 20003cfc <_usbd_dev>
10004af0:	1c5020ef          	jal	100074b4 <memset>
10004af4:	860189a3          	sb	zero,-1933(gp) # 200045e8 <_usbd_queued_setup>
10004af8:	85f18513          	addi	a0,gp,-1953 # 200045d4 <_ubsd_mutexdef>
10004afc:	d4afc0ef          	jal	10001046 <mutex_init>
10004b00:	85f18413          	addi	s0,gp,-1953 # 200045d4 <_ubsd_mutexdef>
10004b04:	8481ada3          	sw	s0,-1957(gp) # 200045d0 <_usbd_mutex>
10004b08:	20004537          	lui	a0,0x20004
10004b0c:	81450513          	addi	a0,a0,-2028 # 20003814 <_usbd_qdef+0x14>
10004b10:	deefc0ef          	jal	100010fe <critical_section_init>
10004b14:	20004437          	lui	s0,0x20004
10004b18:	80040513          	addi	a0,s0,-2048 # 20003800 <_usbd_qdef>
10004b1c:	09f020ef          	jal	100073ba <tu_fifo_clear>
10004b20:	80040413          	addi	s0,s0,-2048
10004b24:	8681a3a3          	sw	s0,-1945(gp) # 200045dc <_usbd_q>
10004b28:	100047b7          	lui	a5,0x10004
10004b2c:	a8078793          	addi	a5,a5,-1408 # 10003a80 <usbd_app_driver_get_cb>
10004b30:	c799                	beqz	a5,10004b3e <tud_rhport_init+0x78>
10004b32:	86b18513          	addi	a0,gp,-1941 # 200045e0 <_app_driver_count>
10004b36:	f4bfe0ef          	jal	10003a80 <usbd_app_driver_get_cb>
10004b3a:	86a1a7a3          	sw	a0,-1937(gp) # 200045e4 <_app_driver>
10004b3e:	4401                	li	s0,0
10004b40:	a825                	j	10004b78 <tud_rhport_init+0xb2>
10004b42:	1d200613          	li	a2,466
10004b46:	100095b7          	lui	a1,0x10009
10004b4a:	8ac58593          	addi	a1,a1,-1876 # 100088ac <__func__.12>
10004b4e:	10008537          	lui	a0,0x10008
10004b52:	34850513          	addi	a0,a0,840 # 10008348 <__EH_FRAME_BEGIN__+0xba8>
10004b56:	dfdfe0ef          	jal	10003952 <__wrap_printf>
10004b5a:	9002                	ebreak
10004b5c:	a891                	j	10004bb0 <tud_rhport_init+0xea>
10004b5e:	8f99                	sub	a5,a5,a4
10004b60:	0796                	slli	a5,a5,0x5
10004b62:	10009737          	lui	a4,0x10009
10004b66:	8bc70713          	addi	a4,a4,-1860 # 100088bc <_usbd_driver>
10004b6a:	97ba                	add	a5,a5,a4
10004b6c:	43dc                	lw	a5,4(a5)
10004b6e:	c785                	beqz	a5,10004b96 <tud_rhport_init+0xd0>
10004b70:	9782                	jalr	a5
10004b72:	0405                	addi	s0,s0,1
10004b74:	0ff47413          	zext.b	s0,s0
10004b78:	86b1c703          	lbu	a4,-1941(gp) # 200045e0 <_app_driver_count>
10004b7c:	87a2                	mv	a5,s0
10004b7e:	00170693          	addi	a3,a4,1
10004b82:	0286cf63          	blt	a3,s0,10004bc0 <tud_rhport_init+0xfa>
10004b86:	fce47ce3          	bgeu	s0,a4,10004b5e <tud_rhport_init+0x98>
10004b8a:	86f1a783          	lw	a5,-1937(gp) # 200045e4 <_app_driver>
10004b8e:	00541713          	slli	a4,s0,0x5
10004b92:	97ba                	add	a5,a5,a4
10004b94:	ffe1                	bnez	a5,10004b6c <tud_rhport_init+0xa6>
10004b96:	1f000613          	li	a2,496
10004b9a:	100095b7          	lui	a1,0x10009
10004b9e:	8ac58593          	addi	a1,a1,-1876 # 100088ac <__func__.12>
10004ba2:	10008537          	lui	a0,0x10008
10004ba6:	34850513          	addi	a0,a0,840 # 10008348 <__EH_FRAME_BEGIN__+0xba8>
10004baa:	da9fe0ef          	jal	10003952 <__wrap_printf>
10004bae:	9002                	ebreak
10004bb0:	8526                	mv	a0,s1
10004bb2:	40f2                	lw	ra,28(sp)
10004bb4:	4462                	lw	s0,24(sp)
10004bb6:	44d2                	lw	s1,20(sp)
10004bb8:	4942                	lw	s2,16(sp)
10004bba:	49b2                	lw	s3,12(sp)
10004bbc:	6105                	addi	sp,sp,32
10004bbe:	8082                	ret
10004bc0:	200047b7          	lui	a5,0x20004
10004bc4:	81278ea3          	sb	s2,-2019(a5) # 2000381d <_usbd_rhport>
10004bc8:	85ce                	mv	a1,s3
10004bca:	854a                	mv	a0,s2
10004bcc:	f8eff0ef          	jal	1000435a <dcd_init>
10004bd0:	84aa                	mv	s1,a0
10004bd2:	c509                	beqz	a0,10004bdc <tud_rhport_init+0x116>
10004bd4:	854a                	mv	a0,s2
10004bd6:	f10ff0ef          	jal	100042e6 <dcd_int_enable>
10004bda:	bfd9                	j	10004bb0 <tud_rhport_init+0xea>
10004bdc:	1f800613          	li	a2,504
10004be0:	100095b7          	lui	a1,0x10009
10004be4:	8ac58593          	addi	a1,a1,-1876 # 100088ac <__func__.12>
10004be8:	10008537          	lui	a0,0x10008
10004bec:	34850513          	addi	a0,a0,840 # 10008348 <__EH_FRAME_BEGIN__+0xba8>
10004bf0:	d63fe0ef          	jal	10003952 <__wrap_printf>
10004bf4:	9002                	ebreak
10004bf6:	bf6d                	j	10004bb0 <tud_rhport_init+0xea>

10004bf8 <usbd_edpt_open>:
10004bf8:	1141                	addi	sp,sp,-16
10004bfa:	c606                	sw	ra,12(sp)
10004bfc:	c226                	sw	s1,4(sp)
10004bfe:	c04a                	sw	s2,0(sp)
10004c00:	200047b7          	lui	a5,0x20004
10004c04:	81d7c783          	lbu	a5,-2019(a5) # 2000381d <_usbd_rhport>
10004c08:	893e                	mv	s2,a5
10004c0a:	0025c783          	lbu	a5,2(a1)
10004c0e:	0707f793          	andi	a5,a5,112
10004c12:	eb95                	bnez	a5,10004c46 <usbd_edpt_open+0x4e>
10004c14:	c422                	sw	s0,8(sp)
10004c16:	842e                	mv	s0,a1
10004c18:	200047b7          	lui	a5,0x20004
10004c1c:	cfc78793          	addi	a5,a5,-772 # 20003cfc <_usbd_dev>
10004c20:	0027c583          	lbu	a1,2(a5)
10004c24:	8522                	mv	a0,s0
10004c26:	54f010ef          	jal	10006974 <tu_edpt_validate>
10004c2a:	84aa                	mv	s1,a0
10004c2c:	cd05                	beqz	a0,10004c64 <usbd_edpt_open+0x6c>
10004c2e:	85a2                	mv	a1,s0
10004c30:	854a                	mv	a0,s2
10004c32:	ffeff0ef          	jal	10004430 <dcd_edpt_open>
10004c36:	84aa                	mv	s1,a0
10004c38:	4422                	lw	s0,8(sp)
10004c3a:	8526                	mv	a0,s1
10004c3c:	40b2                	lw	ra,12(sp)
10004c3e:	4492                	lw	s1,4(sp)
10004c40:	4902                	lw	s2,0(sp)
10004c42:	0141                	addi	sp,sp,16
10004c44:	8082                	ret
10004c46:	50b00613          	li	a2,1291
10004c4a:	100095b7          	lui	a1,0x10009
10004c4e:	81458593          	addi	a1,a1,-2028 # 10008814 <__func__.4>
10004c52:	10008537          	lui	a0,0x10008
10004c56:	34850513          	addi	a0,a0,840 # 10008348 <__EH_FRAME_BEGIN__+0xba8>
10004c5a:	cf9fe0ef          	jal	10003952 <__wrap_printf>
10004c5e:	9002                	ebreak
10004c60:	4481                	li	s1,0
10004c62:	bfe1                	j	10004c3a <usbd_edpt_open+0x42>
10004c64:	50c00613          	li	a2,1292
10004c68:	100095b7          	lui	a1,0x10009
10004c6c:	81458593          	addi	a1,a1,-2028 # 10008814 <__func__.4>
10004c70:	10008537          	lui	a0,0x10008
10004c74:	34850513          	addi	a0,a0,840 # 10008348 <__EH_FRAME_BEGIN__+0xba8>
10004c78:	cdbfe0ef          	jal	10003952 <__wrap_printf>
10004c7c:	9002                	ebreak
10004c7e:	4422                	lw	s0,8(sp)
10004c80:	bf6d                	j	10004c3a <usbd_edpt_open+0x42>

10004c82 <usbd_open_edpt_pair>:
10004c82:	7179                	addi	sp,sp,-48
10004c84:	d606                	sw	ra,44(sp)
10004c86:	d422                	sw	s0,40(sp)
10004c88:	d226                	sw	s1,36(sp)
10004c8a:	d04a                	sw	s2,32(sp)
10004c8c:	ce4e                	sw	s3,28(sp)
10004c8e:	cc52                	sw	s4,24(sp)
10004c90:	ca56                	sw	s5,20(sp)
10004c92:	c85a                	sw	s6,16(sp)
10004c94:	c65e                	sw	s7,12(sp)
10004c96:	8aaa                	mv	s5,a0
10004c98:	842e                	mv	s0,a1
10004c9a:	89b2                	mv	s3,a2
10004c9c:	8a36                	mv	s4,a3
10004c9e:	8b3a                	mv	s6,a4
10004ca0:	8bbe                	mv	s7,a5
10004ca2:	4901                	li	s2,0
10004ca4:	a8b9                	j	10004d02 <usbd_open_edpt_pair+0x80>
10004ca6:	4e700613          	li	a2,1255
10004caa:	100095b7          	lui	a1,0x10009
10004cae:	82458593          	addi	a1,a1,-2012 # 10008824 <__func__.5>
10004cb2:	10008537          	lui	a0,0x10008
10004cb6:	34850513          	addi	a0,a0,840 # 10008348 <__EH_FRAME_BEGIN__+0xba8>
10004cba:	c99fe0ef          	jal	10003952 <__wrap_printf>
10004cbe:	9002                	ebreak
10004cc0:	4481                	li	s1,0
10004cc2:	8526                	mv	a0,s1
10004cc4:	50b2                	lw	ra,44(sp)
10004cc6:	5422                	lw	s0,40(sp)
10004cc8:	5492                	lw	s1,36(sp)
10004cca:	5902                	lw	s2,32(sp)
10004ccc:	49f2                	lw	s3,28(sp)
10004cce:	4a62                	lw	s4,24(sp)
10004cd0:	4ad2                	lw	s5,20(sp)
10004cd2:	4b42                	lw	s6,16(sp)
10004cd4:	4bb2                	lw	s7,12(sp)
10004cd6:	6145                	addi	sp,sp,48
10004cd8:	8082                	ret
10004cda:	4e800613          	li	a2,1256
10004cde:	100095b7          	lui	a1,0x10009
10004ce2:	82458593          	addi	a1,a1,-2012 # 10008824 <__func__.5>
10004ce6:	10008537          	lui	a0,0x10008
10004cea:	34850513          	addi	a0,a0,840 # 10008348 <__EH_FRAME_BEGIN__+0xba8>
10004cee:	c65fe0ef          	jal	10003952 <__wrap_printf>
10004cf2:	9002                	ebreak
10004cf4:	b7f9                	j	10004cc2 <usbd_open_edpt_pair+0x40>
10004cf6:	00bb8023          	sb	a1,0(s7)
10004cfa:	00044783          	lbu	a5,0(s0)
10004cfe:	943e                	add	s0,s0,a5
10004d00:	0905                	addi	s2,s2,1
10004d02:	03395a63          	bge	s2,s3,10004d36 <usbd_open_edpt_pair+0xb4>
10004d06:	00144703          	lbu	a4,1(s0)
10004d0a:	4795                	li	a5,5
10004d0c:	f8f71de3          	bne	a4,a5,10004ca6 <usbd_open_edpt_pair+0x24>
10004d10:	00344583          	lbu	a1,3(s0)
10004d14:	898d                	andi	a1,a1,3
10004d16:	f94598e3          	bne	a1,s4,10004ca6 <usbd_open_edpt_pair+0x24>
10004d1a:	85a2                	mv	a1,s0
10004d1c:	8556                	mv	a0,s5
10004d1e:	edbff0ef          	jal	10004bf8 <usbd_edpt_open>
10004d22:	84aa                	mv	s1,a0
10004d24:	d95d                	beqz	a0,10004cda <usbd_open_edpt_pair+0x58>
10004d26:	00244583          	lbu	a1,2(s0)
10004d2a:	0075d793          	srli	a5,a1,0x7
10004d2e:	f7e1                	bnez	a5,10004cf6 <usbd_open_edpt_pair+0x74>
10004d30:	00bb0023          	sb	a1,0(s6)
10004d34:	b7d9                	j	10004cfa <usbd_open_edpt_pair+0x78>
10004d36:	4485                	li	s1,1
10004d38:	b769                	j	10004cc2 <usbd_open_edpt_pair+0x40>

10004d3a <usbd_edpt_claim>:
10004d3a:	1141                	addi	sp,sp,-16
10004d3c:	c606                	sw	ra,12(sp)
10004d3e:	07f5f513          	andi	a0,a1,127
10004d42:	819d                	srli	a1,a1,0x7
10004d44:	20b52533          	sh1add	a0,a0,a1
10004d48:	03050513          	addi	a0,a0,48
10004d4c:	200047b7          	lui	a5,0x20004
10004d50:	cfc78793          	addi	a5,a5,-772 # 20003cfc <_usbd_dev>
10004d54:	953e                	add	a0,a0,a5
10004d56:	85b1a583          	lw	a1,-1957(gp) # 200045d0 <_usbd_mutex>
10004d5a:	0511                	addi	a0,a0,4
10004d5c:	34b010ef          	jal	100068a6 <tu_edpt_claim>
10004d60:	40b2                	lw	ra,12(sp)
10004d62:	0141                	addi	sp,sp,16
10004d64:	8082                	ret

10004d66 <usbd_edpt_release>:
10004d66:	1141                	addi	sp,sp,-16
10004d68:	c606                	sw	ra,12(sp)
10004d6a:	07f5f513          	andi	a0,a1,127
10004d6e:	819d                	srli	a1,a1,0x7
10004d70:	20b52533          	sh1add	a0,a0,a1
10004d74:	03050513          	addi	a0,a0,48
10004d78:	200047b7          	lui	a5,0x20004
10004d7c:	cfc78793          	addi	a5,a5,-772 # 20003cfc <_usbd_dev>
10004d80:	953e                	add	a0,a0,a5
10004d82:	85b1a583          	lw	a1,-1957(gp) # 200045d0 <_usbd_mutex>
10004d86:	0511                	addi	a0,a0,4
10004d88:	399010ef          	jal	10006920 <tu_edpt_release>
10004d8c:	40b2                	lw	ra,12(sp)
10004d8e:	0141                	addi	sp,sp,16
10004d90:	8082                	ret

10004d92 <usbd_edpt_xfer>:
10004d92:	1141                	addi	sp,sp,-16
10004d94:	c606                	sw	ra,12(sp)
10004d96:	c422                	sw	s0,8(sp)
10004d98:	c226                	sw	s1,4(sp)
10004d9a:	200047b7          	lui	a5,0x20004
10004d9e:	81d7c503          	lbu	a0,-2019(a5) # 2000381d <_usbd_rhport>
10004da2:	07f5f413          	andi	s0,a1,127
10004da6:	0075d493          	srli	s1,a1,0x7
10004daa:	200047b7          	lui	a5,0x20004
10004dae:	cfc78793          	addi	a5,a5,-772 # 20003cfc <_usbd_dev>
10004db2:	20f427b3          	sh1add	a5,s0,a5
10004db6:	97a6                	add	a5,a5,s1
10004db8:	0347c783          	lbu	a5,52(a5)
10004dbc:	8b85                	andi	a5,a5,1
10004dbe:	e7a1                	bnez	a5,10004e06 <usbd_edpt_xfer+0x74>
10004dc0:	200047b7          	lui	a5,0x20004
10004dc4:	cfc78793          	addi	a5,a5,-772 # 20003cfc <_usbd_dev>
10004dc8:	20f427b3          	sh1add	a5,s0,a5
10004dcc:	97a6                	add	a5,a5,s1
10004dce:	0347c703          	lbu	a4,52(a5)
10004dd2:	00176713          	ori	a4,a4,1
10004dd6:	02e78a23          	sb	a4,52(a5)
10004dda:	e9cff0ef          	jal	10004476 <dcd_edpt_xfer>
10004dde:	e131                	bnez	a0,10004e22 <usbd_edpt_xfer+0x90>
10004de0:	200047b7          	lui	a5,0x20004
10004de4:	cfc78793          	addi	a5,a5,-772 # 20003cfc <_usbd_dev>
10004de8:	20f42433          	sh1add	s0,s0,a5
10004dec:	9426                	add	s0,s0,s1
10004dee:	03444783          	lbu	a5,52(s0)
10004df2:	9bf9                	andi	a5,a5,-2
10004df4:	02f40a23          	sb	a5,52(s0)
10004df8:	03444783          	lbu	a5,52(s0)
10004dfc:	9bed                	andi	a5,a5,-5
10004dfe:	02f40a23          	sb	a5,52(s0)
10004e02:	9002                	ebreak
10004e04:	a839                	j	10004e22 <usbd_edpt_xfer+0x90>
10004e06:	53900613          	li	a2,1337
10004e0a:	100095b7          	lui	a1,0x10009
10004e0e:	80458593          	addi	a1,a1,-2044 # 10008804 <__func__.3>
10004e12:	10008537          	lui	a0,0x10008
10004e16:	34850513          	addi	a0,a0,840 # 10008348 <__EH_FRAME_BEGIN__+0xba8>
10004e1a:	b39fe0ef          	jal	10003952 <__wrap_printf>
10004e1e:	9002                	ebreak
10004e20:	4501                	li	a0,0
10004e22:	40b2                	lw	ra,12(sp)
10004e24:	4422                	lw	s0,8(sp)
10004e26:	4492                	lw	s1,4(sp)
10004e28:	0141                	addi	sp,sp,16
10004e2a:	8082                	ret

10004e2c <usbd_edpt_stall>:
10004e2c:	1141                	addi	sp,sp,-16
10004e2e:	c606                	sw	ra,12(sp)
10004e30:	c422                	sw	s0,8(sp)
10004e32:	c226                	sw	s1,4(sp)
10004e34:	84ae                	mv	s1,a1
10004e36:	07f5f413          	andi	s0,a1,127
10004e3a:	200047b7          	lui	a5,0x20004
10004e3e:	81d7c503          	lbu	a0,-2019(a5) # 2000381d <_usbd_rhport>
10004e42:	e6aff0ef          	jal	100044ac <dcd_edpt_stall>
10004e46:	809d                	srli	s1,s1,0x7
10004e48:	200047b7          	lui	a5,0x20004
10004e4c:	cfc78793          	addi	a5,a5,-772 # 20003cfc <_usbd_dev>
10004e50:	20f427b3          	sh1add	a5,s0,a5
10004e54:	97a6                	add	a5,a5,s1
10004e56:	0347c703          	lbu	a4,52(a5)
10004e5a:	00276713          	ori	a4,a4,2
10004e5e:	02e78a23          	sb	a4,52(a5)
10004e62:	0347c703          	lbu	a4,52(a5)
10004e66:	00176713          	ori	a4,a4,1
10004e6a:	02e78a23          	sb	a4,52(a5)
10004e6e:	40b2                	lw	ra,12(sp)
10004e70:	4422                	lw	s0,8(sp)
10004e72:	4492                	lw	s1,4(sp)
10004e74:	0141                	addi	sp,sp,16
10004e76:	8082                	ret

10004e78 <usbd_edpt_clear_stall>:
10004e78:	1141                	addi	sp,sp,-16
10004e7a:	c606                	sw	ra,12(sp)
10004e7c:	c422                	sw	s0,8(sp)
10004e7e:	c226                	sw	s1,4(sp)
10004e80:	84ae                	mv	s1,a1
10004e82:	07f5f413          	andi	s0,a1,127
10004e86:	200047b7          	lui	a5,0x20004
10004e8a:	81d7c503          	lbu	a0,-2019(a5) # 2000381d <_usbd_rhport>
10004e8e:	e60ff0ef          	jal	100044ee <dcd_edpt_clear_stall>
10004e92:	809d                	srli	s1,s1,0x7
10004e94:	200047b7          	lui	a5,0x20004
10004e98:	cfc78793          	addi	a5,a5,-772 # 20003cfc <_usbd_dev>
10004e9c:	20f427b3          	sh1add	a5,s0,a5
10004ea0:	97a6                	add	a5,a5,s1
10004ea2:	0347c703          	lbu	a4,52(a5)
10004ea6:	9b75                	andi	a4,a4,-3
10004ea8:	02e78a23          	sb	a4,52(a5)
10004eac:	0347c703          	lbu	a4,52(a5)
10004eb0:	9b79                	andi	a4,a4,-2
10004eb2:	02e78a23          	sb	a4,52(a5)
10004eb6:	40b2                	lw	ra,12(sp)
10004eb8:	4422                	lw	s0,8(sp)
10004eba:	4492                	lw	s1,4(sp)
10004ebc:	0141                	addi	sp,sp,16
10004ebe:	8082                	ret

10004ec0 <usbd_edpt_stalled>:
10004ec0:	07f5f793          	andi	a5,a1,127
10004ec4:	819d                	srli	a1,a1,0x7
10004ec6:	20004737          	lui	a4,0x20004
10004eca:	cfc70713          	addi	a4,a4,-772 # 20003cfc <_usbd_dev>
10004ece:	20e7a7b3          	sh1add	a5,a5,a4
10004ed2:	97ae                	add	a5,a5,a1
10004ed4:	0347c503          	lbu	a0,52(a5)
10004ed8:	48155513          	bexti	a0,a0,0x1
10004edc:	8082                	ret

10004ede <process_control_request>:
10004ede:	7179                	addi	sp,sp,-48
10004ee0:	d606                	sw	ra,44(sp)
10004ee2:	d422                	sw	s0,40(sp)
10004ee4:	d226                	sw	s1,36(sp)
10004ee6:	d04a                	sw	s2,32(sp)
10004ee8:	892a                	mv	s2,a0
10004eea:	842e                	mv	s0,a1
10004eec:	4501                	li	a0,0
10004eee:	103000ef          	jal	100057f0 <usbd_control_set_complete_callback>
10004ef2:	00044783          	lbu	a5,0(s0)
10004ef6:	0607f793          	andi	a5,a5,96
10004efa:	06000713          	li	a4,96
10004efe:	06e78b63          	beq	a5,a4,10004f74 <process_control_request+0x96>
10004f02:	04000713          	li	a4,64
10004f06:	08e78663          	beq	a5,a4,10004f92 <process_control_request+0xb4>
10004f0a:	00044703          	lbu	a4,0(s0)
10004f0e:	8b7d                	andi	a4,a4,31
10004f10:	4685                	li	a3,1
10004f12:	28d70663          	beq	a4,a3,1000519e <process_control_request+0x2c0>
10004f16:	4689                	li	a3,2
10004f18:	32d70663          	beq	a4,a3,10005244 <process_control_request+0x366>
10004f1c:	42071963          	bnez	a4,1000534e <process_control_request+0x470>
10004f20:	02000713          	li	a4,32
10004f24:	08e78463          	beq	a5,a4,10004fac <process_control_request+0xce>
10004f28:	e3e5                	bnez	a5,10005008 <process_control_request+0x12a>
10004f2a:	00144783          	lbu	a5,1(s0)
10004f2e:	4715                	li	a4,5
10004f30:	0ee78e63          	beq	a5,a4,1000502c <process_control_request+0x14e>
10004f34:	0cf76d63          	bltu	a4,a5,1000500e <process_control_request+0x130>
10004f38:	4705                	li	a4,1
10004f3a:	22e78563          	beq	a5,a4,10005164 <process_control_request+0x286>
10004f3e:	470d                	li	a4,3
10004f40:	1ee78763          	beq	a5,a4,1000512e <process_control_request+0x250>
10004f44:	24079a63          	bnez	a5,10005198 <process_control_request+0x2ba>
10004f48:	200047b7          	lui	a5,0x20004
10004f4c:	cfc7c783          	lbu	a5,-772(a5) # 20003cfc <_usbd_dev>
10004f50:	0027d713          	srli	a4,a5,0x2
10004f54:	4857d793          	bexti	a5,a5,0x5
10004f58:	8b09                	andi	a4,a4,2
10004f5a:	8fd9                	or	a5,a5,a4
10004f5c:	00f11723          	sh	a5,14(sp)
10004f60:	4689                	li	a3,2
10004f62:	00e10613          	addi	a2,sp,14
10004f66:	85a2                	mv	a1,s0
10004f68:	854a                	mv	a0,s2
10004f6a:	77c000ef          	jal	100056e6 <tud_control_xfer>
10004f6e:	4785                	li	a5,1
10004f70:	84be                	mv	s1,a5
10004f72:	a6c5                	j	10005352 <process_control_request+0x474>
10004f74:	2d400613          	li	a2,724
10004f78:	100095b7          	lui	a1,0x10009
10004f7c:	87058593          	addi	a1,a1,-1936 # 10008870 <__func__.9>
10004f80:	10008537          	lui	a0,0x10008
10004f84:	34850513          	addi	a0,a0,840 # 10008348 <__EH_FRAME_BEGIN__+0xba8>
10004f88:	9cbfe0ef          	jal	10003952 <__wrap_printf>
10004f8c:	9002                	ebreak
10004f8e:	4481                	li	s1,0
10004f90:	a6c9                	j	10005352 <process_control_request+0x474>
10004f92:	10004537          	lui	a0,0x10004
10004f96:	a3650513          	addi	a0,a0,-1482 # 10003a36 <tud_vendor_control_xfer_cb>
10004f9a:	057000ef          	jal	100057f0 <usbd_control_set_complete_callback>
10004f9e:	8622                	mv	a2,s0
10004fa0:	4585                	li	a1,1
10004fa2:	854a                	mv	a0,s2
10004fa4:	a93fe0ef          	jal	10003a36 <tud_vendor_control_xfer_cb>
10004fa8:	84aa                	mv	s1,a0
10004faa:	a665                	j	10005352 <process_control_request+0x474>
10004fac:	00444703          	lbu	a4,4(s0)
10004fb0:	00544783          	lbu	a5,5(s0)
10004fb4:	07a2                	slli	a5,a5,0x8
10004fb6:	8fd9                	or	a5,a5,a4
10004fb8:	46bd                	li	a3,15
10004fba:	3ae6e363          	bltu	a3,a4,10005360 <process_control_request+0x482>
10004fbe:	20004737          	lui	a4,0x20004
10004fc2:	0ff7f793          	zext.b	a5,a5
10004fc6:	cfc70713          	addi	a4,a4,-772 # 20003cfc <_usbd_dev>
10004fca:	97ba                	add	a5,a5,a4
10004fcc:	0047c783          	lbu	a5,4(a5)
10004fd0:	86b1c703          	lbu	a4,-1941(gp) # 200045e0 <_app_driver_count>
10004fd4:	00e7f963          	bgeu	a5,a4,10004fe6 <process_control_request+0x108>
10004fd8:	86f1a583          	lw	a1,-1937(gp) # 200045e4 <_app_driver>
10004fdc:	0796                	slli	a5,a5,0x5
10004fde:	95be                	add	a1,a1,a5
10004fe0:	ed91                	bnez	a1,10004ffc <process_control_request+0x11e>
10004fe2:	4481                	li	s1,0
10004fe4:	a6bd                	j	10005352 <process_control_request+0x474>
10004fe6:	00170693          	addi	a3,a4,1
10004fea:	36f6cd63          	blt	a3,a5,10005364 <process_control_request+0x486>
10004fee:	8f99                	sub	a5,a5,a4
10004ff0:	0796                	slli	a5,a5,0x5
10004ff2:	100095b7          	lui	a1,0x10009
10004ff6:	8bc58593          	addi	a1,a1,-1860 # 100088bc <_usbd_driver>
10004ffa:	95be                	add	a1,a1,a5
10004ffc:	8622                	mv	a2,s0
10004ffe:	854a                	mv	a0,s2
10005000:	eb8ff0ef          	jal	100046b8 <invoke_class_control>
10005004:	84aa                	mv	s1,a0
10005006:	a6b1                	j	10005352 <process_control_request+0x474>
10005008:	9002                	ebreak
1000500a:	4481                	li	s1,0
1000500c:	a699                	j	10005352 <process_control_request+0x474>
1000500e:	4721                	li	a4,8
10005010:	04e78363          	beq	a5,a4,10005056 <process_control_request+0x178>
10005014:	4725                	li	a4,9
10005016:	06e78163          	beq	a5,a4,10005078 <process_control_request+0x19a>
1000501a:	4719                	li	a4,6
1000501c:	16e79e63          	bne	a5,a4,10005198 <process_control_request+0x2ba>
10005020:	85a2                	mv	a1,s0
10005022:	854a                	mv	a0,s2
10005024:	93bff0ef          	jal	1000495e <process_get_descriptor>
10005028:	84aa                	mv	s1,a0
1000502a:	a625                	j	10005352 <process_control_request+0x474>
1000502c:	8522                	mv	a0,s0
1000502e:	7ce000ef          	jal	100057fc <usbd_control_set_request>
10005032:	00244583          	lbu	a1,2(s0)
10005036:	854a                	mv	a0,s2
10005038:	ae2ff0ef          	jal	1000431a <dcd_set_address>
1000503c:	200047b7          	lui	a5,0x20004
10005040:	cfc78793          	addi	a5,a5,-772 # 20003cfc <_usbd_dev>
10005044:	0007c703          	lbu	a4,0(a5)
10005048:	00276713          	ori	a4,a4,2
1000504c:	00e78023          	sb	a4,0(a5)
10005050:	4785                	li	a5,1
10005052:	84be                	mv	s1,a5
10005054:	acfd                	j	10005352 <process_control_request+0x474>
10005056:	200047b7          	lui	a5,0x20004
1000505a:	cfc78793          	addi	a5,a5,-772 # 20003cfc <_usbd_dev>
1000505e:	0017c783          	lbu	a5,1(a5)
10005062:	00f10723          	sb	a5,14(sp)
10005066:	4685                	li	a3,1
10005068:	00e10613          	addi	a2,sp,14
1000506c:	85a2                	mv	a1,s0
1000506e:	854a                	mv	a0,s2
10005070:	2d9d                	jal	100056e6 <tud_control_xfer>
10005072:	4785                	li	a5,1
10005074:	84be                	mv	s1,a5
10005076:	acf1                	j	10005352 <process_control_request+0x474>
10005078:	ce4e                	sw	s3,28(sp)
1000507a:	00244783          	lbu	a5,2(s0)
1000507e:	89be                	mv	s3,a5
10005080:	200047b7          	lui	a5,0x20004
10005084:	cfc78793          	addi	a5,a5,-772 # 20003cfc <_usbd_dev>
10005088:	0017c783          	lbu	a5,1(a5)
1000508c:	09378a63          	beq	a5,s3,10005120 <process_control_request+0x242>
10005090:	200047b7          	lui	a5,0x20004
10005094:	cfc78793          	addi	a5,a5,-772 # 20003cfc <_usbd_dev>
10005098:	0017c783          	lbu	a5,1(a5)
1000509c:	e395                	bnez	a5,100050c0 <process_control_request+0x1e2>
1000509e:	200047b7          	lui	a5,0x20004
100050a2:	cfc78793          	addi	a5,a5,-772 # 20003cfc <_usbd_dev>
100050a6:	013780a3          	sb	s3,1(a5)
100050aa:	06098963          	beqz	s3,1000511c <process_control_request+0x23e>
100050ae:	85ce                	mv	a1,s3
100050b0:	854a                	mv	a0,s2
100050b2:	e32ff0ef          	jal	100046e4 <process_set_config>
100050b6:	84aa                	mv	s1,a0
100050b8:	cd0d                	beqz	a0,100050f2 <process_control_request+0x214>
100050ba:	9d3ff0ef          	jal	10004a8c <tud_mount_cb>
100050be:	a08d                	j	10005120 <process_control_request+0x242>
100050c0:	cc52                	sw	s4,24(sp)
100050c2:	ca56                	sw	s5,20(sp)
100050c4:	4581                	li	a1,0
100050c6:	854a                	mv	a0,s2
100050c8:	b2cff0ef          	jal	100043f4 <dcd_sof_enable>
100050cc:	854a                	mv	a0,s2
100050ce:	b96ff0ef          	jal	10004464 <dcd_edpt_close_all>
100050d2:	200047b7          	lui	a5,0x20004
100050d6:	cfc78793          	addi	a5,a5,-772 # 20003cfc <_usbd_dev>
100050da:	8a3e                	mv	s4,a5
100050dc:	0027c783          	lbu	a5,2(a5)
100050e0:	8abe                	mv	s5,a5
100050e2:	854a                	mv	a0,s2
100050e4:	d1cff0ef          	jal	10004600 <configuration_reset>
100050e8:	015a0123          	sb	s5,2(s4)
100050ec:	4a62                	lw	s4,24(sp)
100050ee:	4ad2                	lw	s5,20(sp)
100050f0:	b77d                	j	1000509e <process_control_request+0x1c0>
100050f2:	32400613          	li	a2,804
100050f6:	100095b7          	lui	a1,0x10009
100050fa:	87058593          	addi	a1,a1,-1936 # 10008870 <__func__.9>
100050fe:	10008537          	lui	a0,0x10008
10005102:	34850513          	addi	a0,a0,840 # 10008348 <__EH_FRAME_BEGIN__+0xba8>
10005106:	84dfe0ef          	jal	10003952 <__wrap_printf>
1000510a:	9002                	ebreak
1000510c:	200047b7          	lui	a5,0x20004
10005110:	cfc78793          	addi	a5,a5,-772 # 20003cfc <_usbd_dev>
10005114:	000780a3          	sb	zero,1(a5)
10005118:	49f2                	lw	s3,28(sp)
1000511a:	ac25                	j	10005352 <process_control_request+0x474>
1000511c:	973ff0ef          	jal	10004a8e <tud_umount_cb>
10005120:	85a2                	mv	a1,s0
10005122:	854a                	mv	a0,s2
10005124:	2385                	jal	10005684 <tud_control_status>
10005126:	4785                	li	a5,1
10005128:	84be                	mv	s1,a5
1000512a:	49f2                	lw	s3,28(sp)
1000512c:	a41d                	j	10005352 <process_control_request+0x474>
1000512e:	00244703          	lbu	a4,2(s0)
10005132:	00344783          	lbu	a5,3(s0)
10005136:	07a2                	slli	a5,a5,0x8
10005138:	8fd9                	or	a5,a5,a4
1000513a:	4705                	li	a4,1
1000513c:	00e78463          	beq	a5,a4,10005144 <process_control_request+0x266>
10005140:	4481                	li	s1,0
10005142:	ac01                	j	10005352 <process_control_request+0x474>
10005144:	200047b7          	lui	a5,0x20004
10005148:	cfc78793          	addi	a5,a5,-772 # 20003cfc <_usbd_dev>
1000514c:	0007c703          	lbu	a4,0(a5)
10005150:	00876713          	ori	a4,a4,8
10005154:	00e78023          	sb	a4,0(a5)
10005158:	85a2                	mv	a1,s0
1000515a:	854a                	mv	a0,s2
1000515c:	2325                	jal	10005684 <tud_control_status>
1000515e:	4785                	li	a5,1
10005160:	84be                	mv	s1,a5
10005162:	aac5                	j	10005352 <process_control_request+0x474>
10005164:	00244703          	lbu	a4,2(s0)
10005168:	00344783          	lbu	a5,3(s0)
1000516c:	07a2                	slli	a5,a5,0x8
1000516e:	8fd9                	or	a5,a5,a4
10005170:	4705                	li	a4,1
10005172:	00e78463          	beq	a5,a4,1000517a <process_control_request+0x29c>
10005176:	4481                	li	s1,0
10005178:	aae9                	j	10005352 <process_control_request+0x474>
1000517a:	200047b7          	lui	a5,0x20004
1000517e:	cfc78793          	addi	a5,a5,-772 # 20003cfc <_usbd_dev>
10005182:	0007c703          	lbu	a4,0(a5)
10005186:	9b5d                	andi	a4,a4,-9
10005188:	00e78023          	sb	a4,0(a5)
1000518c:	85a2                	mv	a1,s0
1000518e:	854a                	mv	a0,s2
10005190:	29d5                	jal	10005684 <tud_control_status>
10005192:	4785                	li	a5,1
10005194:	84be                	mv	s1,a5
10005196:	aa75                	j	10005352 <process_control_request+0x474>
10005198:	9002                	ebreak
1000519a:	4481                	li	s1,0
1000519c:	aa5d                	j	10005352 <process_control_request+0x474>
1000519e:	00444703          	lbu	a4,4(s0)
100051a2:	00544783          	lbu	a5,5(s0)
100051a6:	07a2                	slli	a5,a5,0x8
100051a8:	8fd9                	or	a5,a5,a4
100051aa:	46bd                	li	a3,15
100051ac:	1ae6ee63          	bltu	a3,a4,10005368 <process_control_request+0x48a>
100051b0:	20004737          	lui	a4,0x20004
100051b4:	0ff7f793          	zext.b	a5,a5
100051b8:	cfc70713          	addi	a4,a4,-772 # 20003cfc <_usbd_dev>
100051bc:	97ba                	add	a5,a5,a4
100051be:	0047c783          	lbu	a5,4(a5)
100051c2:	86b1c703          	lbu	a4,-1941(gp) # 200045e0 <_app_driver_count>
100051c6:	04e7f863          	bgeu	a5,a4,10005216 <process_control_request+0x338>
100051ca:	86f1a583          	lw	a1,-1937(gp) # 200045e4 <_app_driver>
100051ce:	0796                	slli	a5,a5,0x5
100051d0:	95be                	add	a1,a1,a5
100051d2:	18058d63          	beqz	a1,1000536c <process_control_request+0x48e>
100051d6:	8622                	mv	a2,s0
100051d8:	854a                	mv	a0,s2
100051da:	cdeff0ef          	jal	100046b8 <invoke_class_control>
100051de:	84aa                	mv	s1,a0
100051e0:	16051963          	bnez	a0,10005352 <process_control_request+0x474>
100051e4:	00044783          	lbu	a5,0(s0)
100051e8:	0607f793          	andi	a5,a5,96
100051ec:	16079363          	bnez	a5,10005352 <process_control_request+0x474>
100051f0:	00144783          	lbu	a5,1(s0)
100051f4:	17d9                	addi	a5,a5,-10
100051f6:	4705                	li	a4,1
100051f8:	14f76d63          	bltu	a4,a5,10005352 <process_control_request+0x474>
100051fc:	4501                	li	a0,0
100051fe:	2bcd                	jal	100057f0 <usbd_control_set_complete_callback>
10005200:	00144703          	lbu	a4,1(s0)
10005204:	47a9                	li	a5,10
10005206:	02f70463          	beq	a4,a5,1000522e <process_control_request+0x350>
1000520a:	85a2                	mv	a1,s0
1000520c:	854a                	mv	a0,s2
1000520e:	299d                	jal	10005684 <tud_control_status>
10005210:	4785                	li	a5,1
10005212:	84be                	mv	s1,a5
10005214:	aa3d                	j	10005352 <process_control_request+0x474>
10005216:	00170693          	addi	a3,a4,1
1000521a:	14f6cb63          	blt	a3,a5,10005370 <process_control_request+0x492>
1000521e:	8f99                	sub	a5,a5,a4
10005220:	0796                	slli	a5,a5,0x5
10005222:	100095b7          	lui	a1,0x10009
10005226:	8bc58593          	addi	a1,a1,-1860 # 100088bc <_usbd_driver>
1000522a:	95be                	add	a1,a1,a5
1000522c:	b76d                	j	100051d6 <process_control_request+0x2f8>
1000522e:	00010723          	sb	zero,14(sp)
10005232:	4685                	li	a3,1
10005234:	00e10613          	addi	a2,sp,14
10005238:	85a2                	mv	a1,s0
1000523a:	854a                	mv	a0,s2
1000523c:	216d                	jal	100056e6 <tud_control_xfer>
1000523e:	4785                	li	a5,1
10005240:	84be                	mv	s1,a5
10005242:	aa01                	j	10005352 <process_control_request+0x474>
10005244:	00444583          	lbu	a1,4(s0)
10005248:	07f5f713          	andi	a4,a1,127
1000524c:	0075d613          	srli	a2,a1,0x7
10005250:	0705f693          	andi	a3,a1,112
10005254:	ee8d                	bnez	a3,1000528e <process_control_request+0x3b0>
10005256:	200046b7          	lui	a3,0x20004
1000525a:	cfc68693          	addi	a3,a3,-772 # 20003cfc <_usbd_dev>
1000525e:	20d72733          	sh1add	a4,a4,a3
10005262:	9732                	add	a4,a4,a2
10005264:	01474703          	lbu	a4,20(a4)
10005268:	86b1c683          	lbu	a3,-1941(gp) # 200045e0 <_app_driver_count>
1000526c:	04d77063          	bgeu	a4,a3,100052ac <process_control_request+0x3ce>
10005270:	86f1a683          	lw	a3,-1937(gp) # 200045e4 <_app_driver>
10005274:	0716                	slli	a4,a4,0x5
10005276:	9736                	add	a4,a4,a3
10005278:	84ba                	mv	s1,a4
1000527a:	cba1                	beqz	a5,100052ca <process_control_request+0x3ec>
1000527c:	0e048c63          	beqz	s1,10005374 <process_control_request+0x496>
10005280:	8622                	mv	a2,s0
10005282:	85a6                	mv	a1,s1
10005284:	854a                	mv	a0,s2
10005286:	c32ff0ef          	jal	100046b8 <invoke_class_control>
1000528a:	84aa                	mv	s1,a0
1000528c:	a0d9                	j	10005352 <process_control_request+0x474>
1000528e:	39500613          	li	a2,917
10005292:	100095b7          	lui	a1,0x10009
10005296:	87058593          	addi	a1,a1,-1936 # 10008870 <__func__.9>
1000529a:	10008537          	lui	a0,0x10008
1000529e:	34850513          	addi	a0,a0,840 # 10008348 <__EH_FRAME_BEGIN__+0xba8>
100052a2:	eb0fe0ef          	jal	10003952 <__wrap_printf>
100052a6:	9002                	ebreak
100052a8:	4481                	li	s1,0
100052aa:	a065                	j	10005352 <process_control_request+0x474>
100052ac:	00168613          	addi	a2,a3,1
100052b0:	00e64b63          	blt	a2,a4,100052c6 <process_control_request+0x3e8>
100052b4:	8f15                	sub	a4,a4,a3
100052b6:	0716                	slli	a4,a4,0x5
100052b8:	100096b7          	lui	a3,0x10009
100052bc:	8bc68693          	addi	a3,a3,-1860 # 100088bc <_usbd_driver>
100052c0:	9736                	add	a4,a4,a3
100052c2:	84ba                	mv	s1,a4
100052c4:	bf5d                	j	1000527a <process_control_request+0x39c>
100052c6:	4481                	li	s1,0
100052c8:	bf4d                	j	1000527a <process_control_request+0x39c>
100052ca:	00144783          	lbu	a5,1(s0)
100052ce:	4705                	li	a4,1
100052d0:	02e78463          	beq	a5,a4,100052f8 <process_control_request+0x41a>
100052d4:	470d                	li	a4,3
100052d6:	02e78163          	beq	a5,a4,100052f8 <process_control_request+0x41a>
100052da:	e7bd                	bnez	a5,10005348 <process_control_request+0x46a>
100052dc:	854a                	mv	a0,s2
100052de:	be3ff0ef          	jal	10004ec0 <usbd_edpt_stalled>
100052e2:	00a11723          	sh	a0,14(sp)
100052e6:	4689                	li	a3,2
100052e8:	00e10613          	addi	a2,sp,14
100052ec:	85a2                	mv	a1,s0
100052ee:	854a                	mv	a0,s2
100052f0:	2edd                	jal	100056e6 <tud_control_xfer>
100052f2:	4785                	li	a5,1
100052f4:	84be                	mv	s1,a5
100052f6:	a8b1                	j	10005352 <process_control_request+0x474>
100052f8:	00244683          	lbu	a3,2(s0)
100052fc:	00344703          	lbu	a4,3(s0)
10005300:	0722                	slli	a4,a4,0x8
10005302:	8f55                	or	a4,a4,a3
10005304:	e719                	bnez	a4,10005312 <process_control_request+0x434>
10005306:	4705                	li	a4,1
10005308:	02e78c63          	beq	a5,a4,10005340 <process_control_request+0x462>
1000530c:	854a                	mv	a0,s2
1000530e:	b1fff0ef          	jal	10004e2c <usbd_edpt_stall>
10005312:	c0bd                	beqz	s1,10005378 <process_control_request+0x49a>
10005314:	8622                	mv	a2,s0
10005316:	85a6                	mv	a1,s1
10005318:	854a                	mv	a0,s2
1000531a:	b9eff0ef          	jal	100046b8 <invoke_class_control>
1000531e:	4501                	li	a0,0
10005320:	29c1                	jal	100057f0 <usbd_control_set_complete_callback>
10005322:	200047b7          	lui	a5,0x20004
10005326:	cfc78793          	addi	a5,a5,-772 # 20003cfc <_usbd_dev>
1000532a:	5bdc                	lw	a5,52(a5)
1000532c:	4887d793          	bexti	a5,a5,0x8
10005330:	84be                	mv	s1,a5
10005332:	e385                	bnez	a5,10005352 <process_control_request+0x474>
10005334:	85a2                	mv	a1,s0
10005336:	854a                	mv	a0,s2
10005338:	26b1                	jal	10005684 <tud_control_status>
1000533a:	4785                	li	a5,1
1000533c:	84be                	mv	s1,a5
1000533e:	a811                	j	10005352 <process_control_request+0x474>
10005340:	854a                	mv	a0,s2
10005342:	b37ff0ef          	jal	10004e78 <usbd_edpt_clear_stall>
10005346:	b7f1                	j	10005312 <process_control_request+0x434>
10005348:	9002                	ebreak
1000534a:	4481                	li	s1,0
1000534c:	a019                	j	10005352 <process_control_request+0x474>
1000534e:	9002                	ebreak
10005350:	4481                	li	s1,0
10005352:	8526                	mv	a0,s1
10005354:	50b2                	lw	ra,44(sp)
10005356:	5422                	lw	s0,40(sp)
10005358:	5492                	lw	s1,36(sp)
1000535a:	5902                	lw	s2,32(sp)
1000535c:	6145                	addi	sp,sp,48
1000535e:	8082                	ret
10005360:	4481                	li	s1,0
10005362:	bfc5                	j	10005352 <process_control_request+0x474>
10005364:	4481                	li	s1,0
10005366:	b7f5                	j	10005352 <process_control_request+0x474>
10005368:	4481                	li	s1,0
1000536a:	b7e5                	j	10005352 <process_control_request+0x474>
1000536c:	4481                	li	s1,0
1000536e:	b7d5                	j	10005352 <process_control_request+0x474>
10005370:	4481                	li	s1,0
10005372:	b7c5                	j	10005352 <process_control_request+0x474>
10005374:	4481                	li	s1,0
10005376:	bff1                	j	10005352 <process_control_request+0x474>
10005378:	4785                	li	a5,1
1000537a:	84be                	mv	s1,a5
1000537c:	bfd9                	j	10005352 <process_control_request+0x474>

1000537e <tud_task_ext>:
1000537e:	1101                	addi	sp,sp,-32
10005380:	ce06                	sw	ra,28(sp)
10005382:	f32ff0ef          	jal	10004ab4 <tud_inited>
10005386:	24050463          	beqz	a0,100055ce <tud_task_ext+0x250>
1000538a:	cc22                	sw	s0,24(sp)
1000538c:	a0e9                	j	10005456 <tud_task_ext+0xd8>
1000538e:	4711                	li	a4,4
10005390:	22e79c63          	bne	a5,a4,100055c8 <tud_task_ext+0x24a>
10005394:	200047b7          	lui	a5,0x20004
10005398:	cfc7a783          	lw	a5,-772(a5) # 20003cfc <_usbd_dev>
1000539c:	8b85                	andi	a5,a5,1
1000539e:	cfc5                	beqz	a5,10005456 <tud_task_ext+0xd8>
100053a0:	200047b7          	lui	a5,0x20004
100053a4:	cfc7a503          	lw	a0,-772(a5) # 20003cfc <_usbd_dev>
100053a8:	48355513          	bexti	a0,a0,0x3
100053ac:	ee4ff0ef          	jal	10004a90 <tud_suspend_cb>
100053b0:	a05d                	j	10005456 <tud_task_ext+0xd8>
100053b2:	471d                	li	a4,7
100053b4:	12e78963          	beq	a5,a4,100054e6 <tud_task_ext+0x168>
100053b8:	4721                	li	a4,8
100053ba:	1ee78463          	beq	a5,a4,100055a2 <tud_task_ext+0x224>
100053be:	4719                	li	a4,6
100053c0:	20e79463          	bne	a5,a4,100055c8 <tud_task_ext+0x24a>
100053c4:	8731c783          	lbu	a5,-1933(gp) # 200045e8 <_usbd_queued_setup>
100053c8:	10078063          	beqz	a5,100054c8 <tud_task_ext+0x14a>
100053cc:	8731c783          	lbu	a5,-1933(gp) # 200045e8 <_usbd_queued_setup>
100053d0:	17fd                	addi	a5,a5,-1
100053d2:	0ff7f793          	zext.b	a5,a5
100053d6:	86f189a3          	sb	a5,-1933(gp) # 200045e8 <_usbd_queued_setup>
100053da:	8731c783          	lbu	a5,-1933(gp) # 200045e8 <_usbd_queued_setup>
100053de:	efa5                	bnez	a5,10005456 <tud_task_ext+0xd8>
100053e0:	200047b7          	lui	a5,0x20004
100053e4:	cfc78793          	addi	a5,a5,-772 # 20003cfc <_usbd_dev>
100053e8:	0007c703          	lbu	a4,0(a5)
100053ec:	00176713          	ori	a4,a4,1
100053f0:	00e78023          	sb	a4,0(a5)
100053f4:	0347c703          	lbu	a4,52(a5)
100053f8:	9b79                	andi	a4,a4,-2
100053fa:	02e78a23          	sb	a4,52(a5)
100053fe:	0347c703          	lbu	a4,52(a5)
10005402:	9b6d                	andi	a4,a4,-5
10005404:	02e78a23          	sb	a4,52(a5)
10005408:	0357c703          	lbu	a4,53(a5)
1000540c:	9b79                	andi	a4,a4,-2
1000540e:	02e78aa3          	sb	a4,53(a5)
10005412:	0357c703          	lbu	a4,53(a5)
10005416:	9b6d                	andi	a4,a4,-5
10005418:	02e78aa3          	sb	a4,53(a5)
1000541c:	002c                	addi	a1,sp,8
1000541e:	00414503          	lbu	a0,4(sp)
10005422:	abdff0ef          	jal	10004ede <process_control_request>
10005426:	e905                	bnez	a0,10005456 <tud_task_ext+0xd8>
10005428:	4581                	li	a1,0
1000542a:	00414503          	lbu	a0,4(sp)
1000542e:	87eff0ef          	jal	100044ac <dcd_edpt_stall>
10005432:	08000593          	li	a1,128
10005436:	00414503          	lbu	a0,4(sp)
1000543a:	872ff0ef          	jal	100044ac <dcd_edpt_stall>
1000543e:	a821                	j	10005456 <tud_task_ext+0xd8>
10005440:	00414503          	lbu	a0,4(sp)
10005444:	a64ff0ef          	jal	100046a8 <usbd_reset>
10005448:	200047b7          	lui	a5,0x20004
1000544c:	4722                	lw	a4,8(sp)
1000544e:	cfc78793          	addi	a5,a5,-772 # 20003cfc <_usbd_dev>
10005452:	00e78123          	sb	a4,2(a5)
10005456:	8671a403          	lw	s0,-1945(gp) # 200045dc <_usbd_q>
1000545a:	485c                	lw	a5,20(s0)
1000545c:	30047773          	csrrci	a4,mstatus,8
10005460:	00379693          	slli	a3,a5,0x3
10005464:	28d016b3          	bset	a3,zero,a3
10005468:	9bf1                	andi	a5,a5,-4
1000546a:	44d7a62f          	amoor.w.aq	a2,a3,(a5)
1000546e:	8e75                	and	a2,a2,a3
10005470:	fe6d                	bnez	a2,1000546a <tud_task_ext+0xec>
10005472:	0330000f          	fence	rw,rw
10005476:	cc18                	sw	a4,24(s0)
10005478:	004c                	addi	a1,sp,4
1000547a:	8522                	mv	a0,s0
1000547c:	639010ef          	jal	100072b4 <tu_fifo_read>
10005480:	4858                	lw	a4,20(s0)
10005482:	4c1c                	lw	a5,24(s0)
10005484:	0330000f          	fence	rw,rw
10005488:	00070023          	sb	zero,0(a4)
1000548c:	8ba1                	andi	a5,a5,8
1000548e:	3007a073          	csrs	mstatus,a5
10005492:	12050d63          	beqz	a0,100055cc <tud_task_ext+0x24e>
10005496:	00514783          	lbu	a5,5(sp)
1000549a:	4715                	li	a4,5
1000549c:	0ee78963          	beq	a5,a4,1000558e <tud_task_ext+0x210>
100054a0:	f0f769e3          	bltu	a4,a5,100053b2 <tud_task_ext+0x34>
100054a4:	470d                	li	a4,3
100054a6:	10e78463          	beq	a5,a4,100055ae <tud_task_ext+0x230>
100054aa:	eef762e3          	bltu	a4,a5,1000538e <tud_task_ext+0x10>
100054ae:	4705                	li	a4,1
100054b0:	f8e788e3          	beq	a5,a4,10005440 <tud_task_ext+0xc2>
100054b4:	4709                	li	a4,2
100054b6:	10e79963          	bne	a5,a4,100055c8 <tud_task_ext+0x24a>
100054ba:	00414503          	lbu	a0,4(sp)
100054be:	9eaff0ef          	jal	100046a8 <usbd_reset>
100054c2:	dccff0ef          	jal	10004a8e <tud_umount_cb>
100054c6:	bf41                	j	10005456 <tud_task_ext+0xd8>
100054c8:	26500613          	li	a2,613
100054cc:	100095b7          	lui	a1,0x10009
100054d0:	89c58593          	addi	a1,a1,-1892 # 1000889c <__func__.11>
100054d4:	10008537          	lui	a0,0x10008
100054d8:	34850513          	addi	a0,a0,840 # 10008348 <__EH_FRAME_BEGIN__+0xba8>
100054dc:	c76fe0ef          	jal	10003952 <__wrap_printf>
100054e0:	9002                	ebreak
100054e2:	4462                	lw	s0,24(sp)
100054e4:	a0ed                	j	100055ce <tud_task_ext+0x250>
100054e6:	00814583          	lbu	a1,8(sp)
100054ea:	07f5f713          	andi	a4,a1,127
100054ee:	0075d613          	srli	a2,a1,0x7
100054f2:	200047b7          	lui	a5,0x20004
100054f6:	cfc78793          	addi	a5,a5,-772 # 20003cfc <_usbd_dev>
100054fa:	20f727b3          	sh1add	a5,a4,a5
100054fe:	97b2                	add	a5,a5,a2
10005500:	0347c683          	lbu	a3,52(a5)
10005504:	9af9                	andi	a3,a3,-2
10005506:	02d78a23          	sb	a3,52(a5)
1000550a:	0347c683          	lbu	a3,52(a5)
1000550e:	9aed                	andi	a3,a3,-5
10005510:	02d78a23          	sb	a3,52(a5)
10005514:	cb1d                	beqz	a4,1000554a <tud_task_ext+0x1cc>
10005516:	200047b7          	lui	a5,0x20004
1000551a:	cfc78793          	addi	a5,a5,-772 # 20003cfc <_usbd_dev>
1000551e:	20f72733          	sh1add	a4,a4,a5
10005522:	9732                	add	a4,a4,a2
10005524:	01474783          	lbu	a5,20(a4)
10005528:	86b1c703          	lbu	a4,-1941(gp) # 200045e0 <_app_driver_count>
1000552c:	02e7f663          	bgeu	a5,a4,10005558 <tud_task_ext+0x1da>
10005530:	86f1a703          	lw	a4,-1937(gp) # 200045e4 <_app_driver>
10005534:	0796                	slli	a5,a5,0x5
10005536:	97ba                	add	a5,a5,a4
10005538:	cf85                	beqz	a5,10005570 <tud_task_ext+0x1f2>
1000553a:	4f9c                	lw	a5,24(a5)
1000553c:	46b2                	lw	a3,12(sp)
1000553e:	00914603          	lbu	a2,9(sp)
10005542:	00414503          	lbu	a0,4(sp)
10005546:	9782                	jalr	a5
10005548:	b739                	j	10005456 <tud_task_ext+0xd8>
1000554a:	46b2                	lw	a3,12(sp)
1000554c:	00914603          	lbu	a2,9(sp)
10005550:	00414503          	lbu	a0,4(sp)
10005554:	2cfd                	jal	10005852 <usbd_control_xfer_cb>
10005556:	b701                	j	10005456 <tud_task_ext+0xd8>
10005558:	00170693          	addi	a3,a4,1
1000555c:	00f6ca63          	blt	a3,a5,10005570 <tud_task_ext+0x1f2>
10005560:	8f99                	sub	a5,a5,a4
10005562:	0796                	slli	a5,a5,0x5
10005564:	10009737          	lui	a4,0x10009
10005568:	8bc70713          	addi	a4,a4,-1860 # 100088bc <_usbd_driver>
1000556c:	97ba                	add	a5,a5,a4
1000556e:	b7f1                	j	1000553a <tud_task_ext+0x1bc>
10005570:	29000613          	li	a2,656
10005574:	100095b7          	lui	a1,0x10009
10005578:	89c58593          	addi	a1,a1,-1892 # 1000889c <__func__.11>
1000557c:	10008537          	lui	a0,0x10008
10005580:	34850513          	addi	a0,a0,840 # 10008348 <__EH_FRAME_BEGIN__+0xba8>
10005584:	bcefe0ef          	jal	10003952 <__wrap_printf>
10005588:	9002                	ebreak
1000558a:	4462                	lw	s0,24(sp)
1000558c:	a089                	j	100055ce <tud_task_ext+0x250>
1000558e:	200047b7          	lui	a5,0x20004
10005592:	cfc7a783          	lw	a5,-772(a5) # 20003cfc <_usbd_dev>
10005596:	8b85                	andi	a5,a5,1
10005598:	ea078fe3          	beqz	a5,10005456 <tud_task_ext+0xd8>
1000559c:	cf6ff0ef          	jal	10004a92 <tud_resume_cb>
100055a0:	bd5d                	j	10005456 <tud_task_ext+0xd8>
100055a2:	47a2                	lw	a5,8(sp)
100055a4:	ea0789e3          	beqz	a5,10005456 <tud_task_ext+0xd8>
100055a8:	4532                	lw	a0,12(sp)
100055aa:	9782                	jalr	a5
100055ac:	b56d                	j	10005456 <tud_task_ext+0xd8>
100055ae:	200047b7          	lui	a5,0x20004
100055b2:	cfc78793          	addi	a5,a5,-772 # 20003cfc <_usbd_dev>
100055b6:	0037c783          	lbu	a5,3(a5)
100055ba:	8b85                	andi	a5,a5,1
100055bc:	e8078de3          	beqz	a5,10005456 <tud_task_ext+0xd8>
100055c0:	4522                	lw	a0,8(sp)
100055c2:	b92ff0ef          	jal	10004954 <tud_sof_cb>
100055c6:	bd41                	j	10005456 <tud_task_ext+0xd8>
100055c8:	9002                	ebreak
100055ca:	b571                	j	10005456 <tud_task_ext+0xd8>
100055cc:	4462                	lw	s0,24(sp)
100055ce:	40f2                	lw	ra,28(sp)
100055d0:	6105                	addi	sp,sp,32
100055d2:	8082                	ret

100055d4 <status_stage_xact>:
100055d4:	1141                	addi	sp,sp,-16
100055d6:	c606                	sw	ra,12(sp)
100055d8:	00058783          	lb	a5,0(a1)
100055dc:	0007cb63          	bltz	a5,100055f2 <status_stage_xact+0x1e>
100055e0:	08000593          	li	a1,128
100055e4:	4681                	li	a3,0
100055e6:	4601                	li	a2,0
100055e8:	faaff0ef          	jal	10004d92 <usbd_edpt_xfer>
100055ec:	40b2                	lw	ra,12(sp)
100055ee:	0141                	addi	sp,sp,16
100055f0:	8082                	ret
100055f2:	4581                	li	a1,0
100055f4:	bfc5                	j	100055e4 <status_stage_xact+0x10>

100055f6 <data_stage_xact>:
100055f6:	1101                	addi	sp,sp,-32
100055f8:	ce06                	sw	ra,28(sp)
100055fa:	cc22                	sw	s0,24(sp)
100055fc:	ca26                	sw	s1,20(sp)
100055fe:	c84a                	sw	s2,16(sp)
10005600:	c64e                	sw	s3,12(sp)
10005602:	89aa                	mv	s3,a0
10005604:	200047b7          	lui	a5,0x20004
10005608:	cc878793          	addi	a5,a5,-824 # 20003cc8 <_ctrl_xfer>
1000560c:	00c7d903          	lhu	s2,12(a5)
10005610:	00e7d483          	lhu	s1,14(a5)
10005614:	40990433          	sub	s0,s2,s1
10005618:	08044433          	zext.h	s0,s0
1000561c:	04000713          	li	a4,64
10005620:	0ae45433          	minu	s0,s0,a4
10005624:	00078783          	lb	a5,0(a5)
10005628:	0207c463          	bltz	a5,10005650 <data_stage_xact+0x5a>
1000562c:	4581                	li	a1,0
1000562e:	04990763          	beq	s2,s1,1000567c <data_stage_xact+0x86>
10005632:	20004637          	lui	a2,0x20004
10005636:	c8860613          	addi	a2,a2,-888 # 20003c88 <_ctrl_epbuf>
1000563a:	86a2                	mv	a3,s0
1000563c:	854e                	mv	a0,s3
1000563e:	f54ff0ef          	jal	10004d92 <usbd_edpt_xfer>
10005642:	40f2                	lw	ra,28(sp)
10005644:	4462                	lw	s0,24(sp)
10005646:	44d2                	lw	s1,20(sp)
10005648:	4942                	lw	s2,16(sp)
1000564a:	49b2                	lw	s3,12(sp)
1000564c:	6105                	addi	sp,sp,32
1000564e:	8082                	ret
10005650:	02990363          	beq	s2,s1,10005676 <data_stage_xact+0x80>
10005654:	200047b7          	lui	a5,0x20004
10005658:	cc878793          	addi	a5,a5,-824 # 20003cc8 <_ctrl_xfer>
1000565c:	478c                	lw	a1,8(a5)
1000565e:	02876163          	bltu	a4,s0,10005680 <data_stage_xact+0x8a>
10005662:	8622                	mv	a2,s0
10005664:	20004537          	lui	a0,0x20004
10005668:	c8850513          	addi	a0,a0,-888 # 20003c88 <_ctrl_epbuf>
1000566c:	6f1010ef          	jal	1000755c <memcpy>
10005670:	08000593          	li	a1,128
10005674:	bf6d                	j	1000562e <data_stage_xact+0x38>
10005676:	08000593          	li	a1,128
1000567a:	bf55                	j	1000562e <data_stage_xact+0x38>
1000567c:	4601                	li	a2,0
1000567e:	bf75                	j	1000563a <data_stage_xact+0x44>
10005680:	4501                	li	a0,0
10005682:	b7c1                	j	10005642 <data_stage_xact+0x4c>

10005684 <tud_control_status>:
10005684:	1141                	addi	sp,sp,-16
10005686:	c606                	sw	ra,12(sp)
10005688:	200047b7          	lui	a5,0x20004
1000568c:	cc878793          	addi	a5,a5,-824 # 20003cc8 <_ctrl_xfer>
10005690:	0005ce83          	lbu	t4,0(a1)
10005694:	0015ce03          	lbu	t3,1(a1)
10005698:	0025c303          	lbu	t1,2(a1)
1000569c:	0035c883          	lbu	a7,3(a1)
100056a0:	0045c803          	lbu	a6,4(a1)
100056a4:	0055c603          	lbu	a2,5(a1)
100056a8:	0065c683          	lbu	a3,6(a1)
100056ac:	01d78023          	sb	t4,0(a5)
100056b0:	01c780a3          	sb	t3,1(a5)
100056b4:	00678123          	sb	t1,2(a5)
100056b8:	011781a3          	sb	a7,3(a5)
100056bc:	01078223          	sb	a6,4(a5)
100056c0:	00c782a3          	sb	a2,5(a5)
100056c4:	00d78323          	sb	a3,6(a5)
100056c8:	0075c703          	lbu	a4,7(a1)
100056cc:	00e783a3          	sb	a4,7(a5)
100056d0:	0007a423          	sw	zero,8(a5)
100056d4:	00079723          	sh	zero,14(a5)
100056d8:	00079623          	sh	zero,12(a5)
100056dc:	ef9ff0ef          	jal	100055d4 <status_stage_xact>
100056e0:	40b2                	lw	ra,12(sp)
100056e2:	0141                	addi	sp,sp,16
100056e4:	8082                	ret

100056e6 <tud_control_xfer>:
100056e6:	1141                	addi	sp,sp,-16
100056e8:	c606                	sw	ra,12(sp)
100056ea:	c422                	sw	s0,8(sp)
100056ec:	200047b7          	lui	a5,0x20004
100056f0:	cc878793          	addi	a5,a5,-824 # 20003cc8 <_ctrl_xfer>
100056f4:	0005cf03          	lbu	t5,0(a1)
100056f8:	0015ce83          	lbu	t4,1(a1)
100056fc:	0025ce03          	lbu	t3,2(a1)
10005700:	0035c303          	lbu	t1,3(a1)
10005704:	0045c883          	lbu	a7,4(a1)
10005708:	0055c803          	lbu	a6,5(a1)
1000570c:	0065c703          	lbu	a4,6(a1)
10005710:	01e78023          	sb	t5,0(a5)
10005714:	01d780a3          	sb	t4,1(a5)
10005718:	01c78123          	sb	t3,2(a5)
1000571c:	006781a3          	sb	t1,3(a5)
10005720:	01178223          	sb	a7,4(a5)
10005724:	010782a3          	sb	a6,5(a5)
10005728:	00e78323          	sb	a4,6(a5)
1000572c:	0075c703          	lbu	a4,7(a1)
10005730:	00e783a3          	sb	a4,7(a5)
10005734:	c790                	sw	a2,8(a5)
10005736:	00079723          	sh	zero,14(a5)
1000573a:	0065c803          	lbu	a6,6(a1)
1000573e:	0075c703          	lbu	a4,7(a1)
10005742:	0722                	slli	a4,a4,0x8
10005744:	01076733          	or	a4,a4,a6
10005748:	0ad756b3          	minu	a3,a4,a3
1000574c:	00d79623          	sh	a3,12(a5)
10005750:	0065c703          	lbu	a4,6(a1)
10005754:	0075c783          	lbu	a5,7(a1)
10005758:	07a2                	slli	a5,a5,0x8
1000575a:	8fd9                	or	a5,a5,a4
1000575c:	cba9                	beqz	a5,100057ae <tud_control_xfer+0xc8>
1000575e:	c291                	beqz	a3,10005762 <tud_control_xfer+0x7c>
10005760:	ca11                	beqz	a2,10005774 <tud_control_xfer+0x8e>
10005762:	e95ff0ef          	jal	100055f6 <data_stage_xact>
10005766:	842a                	mv	s0,a0
10005768:	c50d                	beqz	a0,10005792 <tud_control_xfer+0xac>
1000576a:	8522                	mv	a0,s0
1000576c:	40b2                	lw	ra,12(sp)
1000576e:	4422                	lw	s0,8(sp)
10005770:	0141                	addi	sp,sp,16
10005772:	8082                	ret
10005774:	07200613          	li	a2,114
10005778:	100095b7          	lui	a1,0x10009
1000577c:	91458593          	addi	a1,a1,-1772 # 10008914 <__func__.1>
10005780:	10008537          	lui	a0,0x10008
10005784:	34850513          	addi	a0,a0,840 # 10008348 <__EH_FRAME_BEGIN__+0xba8>
10005788:	9cafe0ef          	jal	10003952 <__wrap_printf>
1000578c:	9002                	ebreak
1000578e:	4401                	li	s0,0
10005790:	bfe9                	j	1000576a <tud_control_xfer+0x84>
10005792:	07400613          	li	a2,116
10005796:	100095b7          	lui	a1,0x10009
1000579a:	91458593          	addi	a1,a1,-1772 # 10008914 <__func__.1>
1000579e:	10008537          	lui	a0,0x10008
100057a2:	34850513          	addi	a0,a0,840 # 10008348 <__EH_FRAME_BEGIN__+0xba8>
100057a6:	9acfe0ef          	jal	10003952 <__wrap_printf>
100057aa:	9002                	ebreak
100057ac:	bf7d                	j	1000576a <tud_control_xfer+0x84>
100057ae:	e27ff0ef          	jal	100055d4 <status_stage_xact>
100057b2:	842a                	mv	s0,a0
100057b4:	f95d                	bnez	a0,1000576a <tud_control_xfer+0x84>
100057b6:	07600613          	li	a2,118
100057ba:	100095b7          	lui	a1,0x10009
100057be:	91458593          	addi	a1,a1,-1772 # 10008914 <__func__.1>
100057c2:	10008537          	lui	a0,0x10008
100057c6:	34850513          	addi	a0,a0,840 # 10008348 <__EH_FRAME_BEGIN__+0xba8>
100057ca:	988fe0ef          	jal	10003952 <__wrap_printf>
100057ce:	9002                	ebreak
100057d0:	bf69                	j	1000576a <tud_control_xfer+0x84>

100057d2 <usbd_control_reset>:
100057d2:	200047b7          	lui	a5,0x20004
100057d6:	cc878793          	addi	a5,a5,-824 # 20003cc8 <_ctrl_xfer>
100057da:	0007a023          	sw	zero,0(a5)
100057de:	0007a223          	sw	zero,4(a5)
100057e2:	0007a423          	sw	zero,8(a5)
100057e6:	0007a623          	sw	zero,12(a5)
100057ea:	0007a823          	sw	zero,16(a5)
100057ee:	8082                	ret

100057f0 <usbd_control_set_complete_callback>:
100057f0:	200047b7          	lui	a5,0x20004
100057f4:	cc878793          	addi	a5,a5,-824 # 20003cc8 <_ctrl_xfer>
100057f8:	cb88                	sw	a0,16(a5)
100057fa:	8082                	ret

100057fc <usbd_control_set_request>:
100057fc:	200047b7          	lui	a5,0x20004
10005800:	cc878793          	addi	a5,a5,-824 # 20003cc8 <_ctrl_xfer>
10005804:	00054303          	lbu	t1,0(a0)
10005808:	00154883          	lbu	a7,1(a0)
1000580c:	00254803          	lbu	a6,2(a0)
10005810:	00354583          	lbu	a1,3(a0)
10005814:	00454603          	lbu	a2,4(a0)
10005818:	00554683          	lbu	a3,5(a0)
1000581c:	00654703          	lbu	a4,6(a0)
10005820:	00678023          	sb	t1,0(a5)
10005824:	011780a3          	sb	a7,1(a5)
10005828:	01078123          	sb	a6,2(a5)
1000582c:	00b781a3          	sb	a1,3(a5)
10005830:	00c78223          	sb	a2,4(a5)
10005834:	00d782a3          	sb	a3,5(a5)
10005838:	00e78323          	sb	a4,6(a5)
1000583c:	00754703          	lbu	a4,7(a0)
10005840:	00e783a3          	sb	a4,7(a5)
10005844:	0007a423          	sw	zero,8(a5)
10005848:	00079723          	sh	zero,14(a5)
1000584c:	00079623          	sh	zero,12(a5)
10005850:	8082                	ret

10005852 <usbd_control_xfer_cb>:
10005852:	1141                	addi	sp,sp,-16
10005854:	c606                	sw	ra,12(sp)
10005856:	c422                	sw	s0,8(sp)
10005858:	c226                	sw	s1,4(sp)
1000585a:	84aa                	mv	s1,a0
1000585c:	819d                	srli	a1,a1,0x7
1000585e:	200047b7          	lui	a5,0x20004
10005862:	cc87a783          	lw	a5,-824(a5) # 20003cc8 <_ctrl_xfer>
10005866:	4877d793          	bexti	a5,a5,0x7
1000586a:	04b78963          	beq	a5,a1,100058bc <usbd_control_xfer_cb+0x6a>
1000586e:	c68d                	beqz	a3,10005898 <usbd_control_xfer_cb+0x46>
10005870:	09d00613          	li	a2,157
10005874:	100095b7          	lui	a1,0x10009
10005878:	8fc58593          	addi	a1,a1,-1796 # 100088fc <__func__.0>
1000587c:	10008537          	lui	a0,0x10008
10005880:	34850513          	addi	a0,a0,840 # 10008348 <__EH_FRAME_BEGIN__+0xba8>
10005884:	8cefe0ef          	jal	10003952 <__wrap_printf>
10005888:	9002                	ebreak
1000588a:	4401                	li	s0,0
1000588c:	8522                	mv	a0,s0
1000588e:	40b2                	lw	ra,12(sp)
10005890:	4422                	lw	s0,8(sp)
10005892:	4492                	lw	s1,4(sp)
10005894:	0141                	addi	sp,sp,16
10005896:	8082                	ret
10005898:	20004437          	lui	s0,0x20004
1000589c:	cc840593          	addi	a1,s0,-824 # 20003cc8 <_ctrl_xfer>
100058a0:	b69fe0ef          	jal	10004408 <dcd_edpt0_status_complete>
100058a4:	cc840793          	addi	a5,s0,-824
100058a8:	4b9c                	lw	a5,16(a5)
100058aa:	c791                	beqz	a5,100058b6 <usbd_control_xfer_cb+0x64>
100058ac:	cc840613          	addi	a2,s0,-824
100058b0:	458d                	li	a1,3
100058b2:	8526                	mv	a0,s1
100058b4:	9782                	jalr	a5
100058b6:	4785                	li	a5,1
100058b8:	843e                	mv	s0,a5
100058ba:	bfc9                	j	1000588c <usbd_control_xfer_cb+0x3a>
100058bc:	8436                	mv	s0,a3
100058be:	200047b7          	lui	a5,0x20004
100058c2:	cc878783          	lb	a5,-824(a5) # 20003cc8 <_ctrl_xfer>
100058c6:	0007cf63          	bltz	a5,100058e4 <usbd_control_xfer_cb+0x92>
100058ca:	200047b7          	lui	a5,0x20004
100058ce:	cc878793          	addi	a5,a5,-824 # 20003cc8 <_ctrl_xfer>
100058d2:	4788                	lw	a0,8(a5)
100058d4:	c569                	beqz	a0,1000599e <usbd_control_xfer_cb+0x14c>
100058d6:	8636                	mv	a2,a3
100058d8:	200045b7          	lui	a1,0x20004
100058dc:	c8858593          	addi	a1,a1,-888 # 20003c88 <_ctrl_epbuf>
100058e0:	47d010ef          	jal	1000755c <memcpy>
100058e4:	200047b7          	lui	a5,0x20004
100058e8:	cc878793          	addi	a5,a5,-824 # 20003cc8 <_ctrl_xfer>
100058ec:	00e7d703          	lhu	a4,14(a5)
100058f0:	080446b3          	zext.h	a3,s0
100058f4:	9736                	add	a4,a4,a3
100058f6:	08074733          	zext.h	a4,a4
100058fa:	00e79723          	sh	a4,14(a5)
100058fe:	4794                	lw	a3,8(a5)
10005900:	96a2                	add	a3,a3,s0
10005902:	c794                	sw	a3,8(a5)
10005904:	0067d783          	lhu	a5,6(a5)
10005908:	00f70663          	beq	a4,a5,10005914 <usbd_control_xfer_cb+0xc2>
1000590c:	03f00793          	li	a5,63
10005910:	0687e363          	bltu	a5,s0,10005976 <usbd_control_xfer_cb+0x124>
10005914:	200047b7          	lui	a5,0x20004
10005918:	cc878793          	addi	a5,a5,-824 # 20003cc8 <_ctrl_xfer>
1000591c:	4b9c                	lw	a5,16(a5)
1000591e:	cb89                	beqz	a5,10005930 <usbd_control_xfer_cb+0xde>
10005920:	20004637          	lui	a2,0x20004
10005924:	cc860613          	addi	a2,a2,-824 # 20003cc8 <_ctrl_xfer>
10005928:	4589                	li	a1,2
1000592a:	8526                	mv	a0,s1
1000592c:	9782                	jalr	a5
1000592e:	c905                	beqz	a0,1000595e <usbd_control_xfer_cb+0x10c>
10005930:	200045b7          	lui	a1,0x20004
10005934:	cc858593          	addi	a1,a1,-824 # 20003cc8 <_ctrl_xfer>
10005938:	8526                	mv	a0,s1
1000593a:	c9bff0ef          	jal	100055d4 <status_stage_xact>
1000593e:	842a                	mv	s0,a0
10005940:	f531                	bnez	a0,1000588c <usbd_control_xfer_cb+0x3a>
10005942:	0c500613          	li	a2,197
10005946:	100095b7          	lui	a1,0x10009
1000594a:	8fc58593          	addi	a1,a1,-1796 # 100088fc <__func__.0>
1000594e:	10008537          	lui	a0,0x10008
10005952:	34850513          	addi	a0,a0,840 # 10008348 <__EH_FRAME_BEGIN__+0xba8>
10005956:	ffdfd0ef          	jal	10003952 <__wrap_printf>
1000595a:	9002                	ebreak
1000595c:	bf05                	j	1000588c <usbd_control_xfer_cb+0x3a>
1000595e:	4581                	li	a1,0
10005960:	8526                	mv	a0,s1
10005962:	b4bfe0ef          	jal	100044ac <dcd_edpt_stall>
10005966:	08000593          	li	a1,128
1000596a:	8526                	mv	a0,s1
1000596c:	b41fe0ef          	jal	100044ac <dcd_edpt_stall>
10005970:	4785                	li	a5,1
10005972:	843e                	mv	s0,a5
10005974:	bf21                	j	1000588c <usbd_control_xfer_cb+0x3a>
10005976:	8526                	mv	a0,s1
10005978:	c7fff0ef          	jal	100055f6 <data_stage_xact>
1000597c:	842a                	mv	s0,a0
1000597e:	f00517e3          	bnez	a0,1000588c <usbd_control_xfer_cb+0x3a>
10005982:	0cd00613          	li	a2,205
10005986:	100095b7          	lui	a1,0x10009
1000598a:	8fc58593          	addi	a1,a1,-1796 # 100088fc <__func__.0>
1000598e:	10008537          	lui	a0,0x10008
10005992:	34850513          	addi	a0,a0,840 # 10008348 <__EH_FRAME_BEGIN__+0xba8>
10005996:	fbdfd0ef          	jal	10003952 <__wrap_printf>
1000599a:	9002                	ebreak
1000599c:	bdc5                	j	1000588c <usbd_control_xfer_cb+0x3a>
1000599e:	4401                	li	s0,0
100059a0:	b5f5                	j	1000588c <usbd_control_xfer_cb+0x3a>

100059a2 <_prep_out_transaction>:
100059a2:	1141                	addi	sp,sp,-16
100059a4:	c606                	sw	ra,12(sp)
100059a6:	c226                	sw	s1,4(sp)
100059a8:	c04a                	sw	s2,0(sp)
100059aa:	892a                	mv	s2,a0
100059ac:	8e8ff0ef          	jal	10004a94 <tud_mounted>
100059b0:	e901                	bnez	a0,100059c0 <_prep_out_transaction+0x1e>
100059b2:	4481                	li	s1,0
100059b4:	8526                	mv	a0,s1
100059b6:	40b2                	lw	ra,12(sp)
100059b8:	4492                	lw	s1,4(sp)
100059ba:	4902                	lw	s2,0(sp)
100059bc:	0141                	addi	sp,sp,16
100059be:	8082                	ret
100059c0:	8e6ff0ef          	jal	10004aa6 <tud_suspended>
100059c4:	84aa                	mv	s1,a0
100059c6:	f575                	bnez	a0,100059b2 <_prep_out_transaction+0x10>
100059c8:	20004737          	lui	a4,0x20004
100059cc:	212947b3          	sh2add	a5,s2,s2
100059d0:	20f7c7b3          	sh2add	a5,a5,a5
100059d4:	bc070713          	addi	a4,a4,-1088 # 20003bc0 <_cdcd_itf>
100059d8:	20e7e7b3          	sh3add	a5,a5,a4
100059dc:	0037c783          	lbu	a5,3(a5)
100059e0:	dbe9                	beqz	a5,100059b2 <_prep_out_transaction+0x10>
100059e2:	c422                	sw	s0,8(sp)
100059e4:	212947b3          	sh2add	a5,s2,s2
100059e8:	20f7c7b3          	sh2add	a5,a5,a5
100059ec:	078e                	slli	a5,a5,0x3
100059ee:	07c1                	addi	a5,a5,16
100059f0:	20004737          	lui	a4,0x20004
100059f4:	bc070713          	addi	a4,a4,-1088 # 20003bc0 <_cdcd_itf>
100059f8:	97ba                	add	a5,a5,a4
100059fa:	843e                	mv	s0,a5
100059fc:	853e                	mv	a0,a5
100059fe:	077010ef          	jal	10007274 <tu_fifo_remaining>
10005a02:	03f00793          	li	a5,63
10005a06:	00a7e463          	bltu	a5,a0,10005a0e <_prep_out_transaction+0x6c>
10005a0a:	4422                	lw	s0,8(sp)
10005a0c:	b765                	j	100059b4 <_prep_out_transaction+0x12>
10005a0e:	20004737          	lui	a4,0x20004
10005a12:	212947b3          	sh2add	a5,s2,s2
10005a16:	20f7c7b3          	sh2add	a5,a5,a5
10005a1a:	bc070713          	addi	a4,a4,-1088 # 20003bc0 <_cdcd_itf>
10005a1e:	20e7e7b3          	sh3add	a5,a5,a4
10005a22:	0037c583          	lbu	a1,3(a5)
10005a26:	4501                	li	a0,0
10005a28:	b12ff0ef          	jal	10004d3a <usbd_edpt_claim>
10005a2c:	e501                	bnez	a0,10005a34 <_prep_out_transaction+0x92>
10005a2e:	84aa                	mv	s1,a0
10005a30:	4422                	lw	s0,8(sp)
10005a32:	b749                	j	100059b4 <_prep_out_transaction+0x12>
10005a34:	8522                	mv	a0,s0
10005a36:	03f010ef          	jal	10007274 <tu_fifo_remaining>
10005a3a:	03f00793          	li	a5,63
10005a3e:	02a7fd63          	bgeu	a5,a0,10005a78 <_prep_out_transaction+0xd6>
10005a42:	00791613          	slli	a2,s2,0x7
10005a46:	200047b7          	lui	a5,0x20004
10005a4a:	21294533          	sh2add	a0,s2,s2
10005a4e:	20a54533          	sh2add	a0,a0,a0
10005a52:	bc078793          	addi	a5,a5,-1088 # 20003bc0 <_cdcd_itf>
10005a56:	20f567b3          	sh3add	a5,a0,a5
10005a5a:	04000693          	li	a3,64
10005a5e:	20004737          	lui	a4,0x20004
10005a62:	b4070713          	addi	a4,a4,-1216 # 20003b40 <_cdcd_epbuf>
10005a66:	963a                	add	a2,a2,a4
10005a68:	0037c583          	lbu	a1,3(a5)
10005a6c:	4501                	li	a0,0
10005a6e:	b24ff0ef          	jal	10004d92 <usbd_edpt_xfer>
10005a72:	84aa                	mv	s1,a0
10005a74:	4422                	lw	s0,8(sp)
10005a76:	bf3d                	j	100059b4 <_prep_out_transaction+0x12>
10005a78:	20004737          	lui	a4,0x20004
10005a7c:	212947b3          	sh2add	a5,s2,s2
10005a80:	20f7c7b3          	sh2add	a5,a5,a5
10005a84:	bc070713          	addi	a4,a4,-1088 # 20003bc0 <_cdcd_itf>
10005a88:	20e7e7b3          	sh3add	a5,a5,a4
10005a8c:	0037c583          	lbu	a1,3(a5)
10005a90:	4501                	li	a0,0
10005a92:	ad4ff0ef          	jal	10004d66 <usbd_edpt_release>
10005a96:	4422                	lw	s0,8(sp)
10005a98:	bf31                	j	100059b4 <_prep_out_transaction+0x12>

10005a9a <tud_cdc_n_connected>:
10005a9a:	1141                	addi	sp,sp,-16
10005a9c:	c606                	sw	ra,12(sp)
10005a9e:	c422                	sw	s0,8(sp)
10005aa0:	842a                	mv	s0,a0
10005aa2:	ff3fe0ef          	jal	10004a94 <tud_mounted>
10005aa6:	e509                	bnez	a0,10005ab0 <tud_cdc_n_connected+0x16>
10005aa8:	40b2                	lw	ra,12(sp)
10005aaa:	4422                	lw	s0,8(sp)
10005aac:	0141                	addi	sp,sp,16
10005aae:	8082                	ret
10005ab0:	ff7fe0ef          	jal	10004aa6 <tud_suspended>
10005ab4:	e10d                	bnez	a0,10005ad6 <tud_cdc_n_connected+0x3c>
10005ab6:	200047b7          	lui	a5,0x20004
10005aba:	20844533          	sh2add	a0,s0,s0
10005abe:	20a54533          	sh2add	a0,a0,a0
10005ac2:	bc078793          	addi	a5,a5,-1088 # 20003bc0 <_cdcd_itf>
10005ac6:	20f56533          	sh3add	a0,a0,a5
10005aca:	00454783          	lbu	a5,4(a0)
10005ace:	8b85                	andi	a5,a5,1
10005ad0:	c789                	beqz	a5,10005ada <tud_cdc_n_connected+0x40>
10005ad2:	4505                	li	a0,1
10005ad4:	bfd1                	j	10005aa8 <tud_cdc_n_connected+0xe>
10005ad6:	4501                	li	a0,0
10005ad8:	bfc1                	j	10005aa8 <tud_cdc_n_connected+0xe>
10005ada:	4501                	li	a0,0
10005adc:	b7f1                	j	10005aa8 <tud_cdc_n_connected+0xe>

10005ade <tud_cdc_n_available>:
10005ade:	1141                	addi	sp,sp,-16
10005ae0:	c606                	sw	ra,12(sp)
10005ae2:	20a54533          	sh2add	a0,a0,a0
10005ae6:	20a54533          	sh2add	a0,a0,a0
10005aea:	00351793          	slli	a5,a0,0x3
10005aee:	07c1                	addi	a5,a5,16
10005af0:	20004537          	lui	a0,0x20004
10005af4:	bc050513          	addi	a0,a0,-1088 # 20003bc0 <_cdcd_itf>
10005af8:	953e                	add	a0,a0,a5
10005afa:	6fc010ef          	jal	100071f6 <tu_fifo_count>
10005afe:	40b2                	lw	ra,12(sp)
10005b00:	0141                	addi	sp,sp,16
10005b02:	8082                	ret

10005b04 <tud_cdc_n_read>:
10005b04:	1141                	addi	sp,sp,-16
10005b06:	c606                	sw	ra,12(sp)
10005b08:	c422                	sw	s0,8(sp)
10005b0a:	c226                	sw	s1,4(sp)
10005b0c:	842a                	mv	s0,a0
10005b0e:	20a547b3          	sh2add	a5,a0,a0
10005b12:	20f7c7b3          	sh2add	a5,a5,a5
10005b16:	078e                	slli	a5,a5,0x3
10005b18:	07c1                	addi	a5,a5,16
10005b1a:	20004737          	lui	a4,0x20004
10005b1e:	bc070713          	addi	a4,a4,-1088 # 20003bc0 <_cdcd_itf>
10005b22:	00e78533          	add	a0,a5,a4
10005b26:	67c1                	lui	a5,0x10
10005b28:	17f9                	addi	a5,a5,-2 # fffe <HeapSize+0xf7fe>
10005b2a:	02c7e063          	bltu	a5,a2,10005b4a <tud_cdc_n_read+0x46>
10005b2e:	08064633          	zext.h	a2,a2
10005b32:	7d8010ef          	jal	1000730a <tu_fifo_read_n>
10005b36:	84aa                	mv	s1,a0
10005b38:	8522                	mv	a0,s0
10005b3a:	e69ff0ef          	jal	100059a2 <_prep_out_transaction>
10005b3e:	8526                	mv	a0,s1
10005b40:	40b2                	lw	ra,12(sp)
10005b42:	4422                	lw	s0,8(sp)
10005b44:	4492                	lw	s1,4(sp)
10005b46:	0141                	addi	sp,sp,16
10005b48:	8082                	ret
10005b4a:	6641                	lui	a2,0x10
10005b4c:	167d                	addi	a2,a2,-1 # ffff <HeapSize+0xf7ff>
10005b4e:	b7d5                	j	10005b32 <tud_cdc_n_read+0x2e>

10005b50 <tud_cdc_n_write_flush>:
10005b50:	1141                	addi	sp,sp,-16
10005b52:	c606                	sw	ra,12(sp)
10005b54:	c226                	sw	s1,4(sp)
10005b56:	84aa                	mv	s1,a0
10005b58:	f3dfe0ef          	jal	10004a94 <tud_mounted>
10005b5c:	e511                	bnez	a0,10005b68 <tud_cdc_n_write_flush+0x18>
10005b5e:	4501                	li	a0,0
10005b60:	40b2                	lw	ra,12(sp)
10005b62:	4492                	lw	s1,4(sp)
10005b64:	0141                	addi	sp,sp,16
10005b66:	8082                	ret
10005b68:	f3ffe0ef          	jal	10004aa6 <tud_suspended>
10005b6c:	f96d                	bnez	a0,10005b5e <tud_cdc_n_write_flush+0xe>
10005b6e:	c04a                	sw	s2,0(sp)
10005b70:	2094c7b3          	sh2add	a5,s1,s1
10005b74:	20f7c7b3          	sh2add	a5,a5,a5
10005b78:	078e                	slli	a5,a5,0x3
10005b7a:	02078793          	addi	a5,a5,32
10005b7e:	20004737          	lui	a4,0x20004
10005b82:	bc070713          	addi	a4,a4,-1088 # 20003bc0 <_cdcd_itf>
10005b86:	97ba                	add	a5,a5,a4
10005b88:	0791                	addi	a5,a5,4
10005b8a:	893e                	mv	s2,a5
10005b8c:	853e                	mv	a0,a5
10005b8e:	668010ef          	jal	100071f6 <tu_fifo_count>
10005b92:	e119                	bnez	a0,10005b98 <tud_cdc_n_write_flush+0x48>
10005b94:	4902                	lw	s2,0(sp)
10005b96:	b7e9                	j	10005b60 <tud_cdc_n_write_flush+0x10>
10005b98:	20004737          	lui	a4,0x20004
10005b9c:	2094c7b3          	sh2add	a5,s1,s1
10005ba0:	20f7c7b3          	sh2add	a5,a5,a5
10005ba4:	bc070713          	addi	a4,a4,-1088 # 20003bc0 <_cdcd_itf>
10005ba8:	20e7e7b3          	sh3add	a5,a5,a4
10005bac:	0027c583          	lbu	a1,2(a5)
10005bb0:	4501                	li	a0,0
10005bb2:	988ff0ef          	jal	10004d3a <usbd_edpt_claim>
10005bb6:	e119                	bnez	a0,10005bbc <tud_cdc_n_write_flush+0x6c>
10005bb8:	4902                	lw	s2,0(sp)
10005bba:	b75d                	j	10005b60 <tud_cdc_n_write_flush+0x10>
10005bbc:	c422                	sw	s0,8(sp)
10005bbe:	00749793          	slli	a5,s1,0x7
10005bc2:	04078793          	addi	a5,a5,64
10005bc6:	20004737          	lui	a4,0x20004
10005bca:	b4070713          	addi	a4,a4,-1216 # 20003b40 <_cdcd_epbuf>
10005bce:	97ba                	add	a5,a5,a4
10005bd0:	04000613          	li	a2,64
10005bd4:	843e                	mv	s0,a5
10005bd6:	85be                	mv	a1,a5
10005bd8:	854a                	mv	a0,s2
10005bda:	730010ef          	jal	1000730a <tu_fifo_read_n>
10005bde:	892a                	mv	s2,a0
10005be0:	c921                	beqz	a0,10005c30 <tud_cdc_n_write_flush+0xe0>
10005be2:	200047b7          	lui	a5,0x20004
10005be6:	2094c533          	sh2add	a0,s1,s1
10005bea:	20a54533          	sh2add	a0,a0,a0
10005bee:	bc078793          	addi	a5,a5,-1088 # 20003bc0 <_cdcd_itf>
10005bf2:	20f56533          	sh3add	a0,a0,a5
10005bf6:	86ca                	mv	a3,s2
10005bf8:	8622                	mv	a2,s0
10005bfa:	00254583          	lbu	a1,2(a0)
10005bfe:	4501                	li	a0,0
10005c00:	992ff0ef          	jal	10004d92 <usbd_edpt_xfer>
10005c04:	c509                	beqz	a0,10005c0e <tud_cdc_n_write_flush+0xbe>
10005c06:	854a                	mv	a0,s2
10005c08:	4422                	lw	s0,8(sp)
10005c0a:	4902                	lw	s2,0(sp)
10005c0c:	bf91                	j	10005b60 <tud_cdc_n_write_flush+0x10>
10005c0e:	0d500613          	li	a2,213
10005c12:	100095b7          	lui	a1,0x10009
10005c16:	94458593          	addi	a1,a1,-1724 # 10008944 <__func__.3>
10005c1a:	10008537          	lui	a0,0x10008
10005c1e:	34850513          	addi	a0,a0,840 # 10008348 <__EH_FRAME_BEGIN__+0xba8>
10005c22:	d31fd0ef          	jal	10003952 <__wrap_printf>
10005c26:	9002                	ebreak
10005c28:	4501                	li	a0,0
10005c2a:	4422                	lw	s0,8(sp)
10005c2c:	4902                	lw	s2,0(sp)
10005c2e:	bf0d                	j	10005b60 <tud_cdc_n_write_flush+0x10>
10005c30:	200047b7          	lui	a5,0x20004
10005c34:	2094c533          	sh2add	a0,s1,s1
10005c38:	20a54533          	sh2add	a0,a0,a0
10005c3c:	bc078793          	addi	a5,a5,-1088 # 20003bc0 <_cdcd_itf>
10005c40:	20f567b3          	sh3add	a5,a0,a5
10005c44:	0027c583          	lbu	a1,2(a5)
10005c48:	4501                	li	a0,0
10005c4a:	91cff0ef          	jal	10004d66 <usbd_edpt_release>
10005c4e:	4501                	li	a0,0
10005c50:	4422                	lw	s0,8(sp)
10005c52:	4902                	lw	s2,0(sp)
10005c54:	b731                	j	10005b60 <tud_cdc_n_write_flush+0x10>

10005c56 <tud_cdc_n_write>:
10005c56:	1141                	addi	sp,sp,-16
10005c58:	c606                	sw	ra,12(sp)
10005c5a:	c422                	sw	s0,8(sp)
10005c5c:	c226                	sw	s1,4(sp)
10005c5e:	c04a                	sw	s2,0(sp)
10005c60:	84aa                	mv	s1,a0
10005c62:	20a54433          	sh2add	s0,a0,a0
10005c66:	20844433          	sh2add	s0,s0,s0
10005c6a:	040e                	slli	s0,s0,0x3
10005c6c:	02040413          	addi	s0,s0,32
10005c70:	200047b7          	lui	a5,0x20004
10005c74:	bc078793          	addi	a5,a5,-1088 # 20003bc0 <_cdcd_itf>
10005c78:	943e                	add	s0,s0,a5
10005c7a:	0411                	addi	s0,s0,4
10005c7c:	67c1                	lui	a5,0x10
10005c7e:	17f9                	addi	a5,a5,-2 # fffe <HeapSize+0xf7fe>
10005c80:	02c7e663          	bltu	a5,a2,10005cac <tud_cdc_n_write+0x56>
10005c84:	08064633          	zext.h	a2,a2
10005c88:	8522                	mv	a0,s0
10005c8a:	720010ef          	jal	100073aa <tu_fifo_write_n>
10005c8e:	892a                	mv	s2,a0
10005c90:	8522                	mv	a0,s0
10005c92:	564010ef          	jal	100071f6 <tu_fifo_count>
10005c96:	03f00793          	li	a5,63
10005c9a:	00a7ec63          	bltu	a5,a0,10005cb2 <tud_cdc_n_write+0x5c>
10005c9e:	854a                	mv	a0,s2
10005ca0:	40b2                	lw	ra,12(sp)
10005ca2:	4422                	lw	s0,8(sp)
10005ca4:	4492                	lw	s1,4(sp)
10005ca6:	4902                	lw	s2,0(sp)
10005ca8:	0141                	addi	sp,sp,16
10005caa:	8082                	ret
10005cac:	6641                	lui	a2,0x10
10005cae:	167d                	addi	a2,a2,-1 # ffff <HeapSize+0xf7ff>
10005cb0:	bfe1                	j	10005c88 <tud_cdc_n_write+0x32>
10005cb2:	8526                	mv	a0,s1
10005cb4:	e9dff0ef          	jal	10005b50 <tud_cdc_n_write_flush>
10005cb8:	b7dd                	j	10005c9e <tud_cdc_n_write+0x48>

10005cba <tud_cdc_n_write_available>:
10005cba:	1141                	addi	sp,sp,-16
10005cbc:	c606                	sw	ra,12(sp)
10005cbe:	20a54533          	sh2add	a0,a0,a0
10005cc2:	20a54533          	sh2add	a0,a0,a0
10005cc6:	050e                	slli	a0,a0,0x3
10005cc8:	02050513          	addi	a0,a0,32
10005ccc:	200047b7          	lui	a5,0x20004
10005cd0:	bc078793          	addi	a5,a5,-1088 # 20003bc0 <_cdcd_itf>
10005cd4:	953e                	add	a0,a0,a5
10005cd6:	0511                	addi	a0,a0,4
10005cd8:	59c010ef          	jal	10007274 <tu_fifo_remaining>
10005cdc:	40b2                	lw	ra,12(sp)
10005cde:	0141                	addi	sp,sp,16
10005ce0:	8082                	ret

10005ce2 <cdcd_init>:
10005ce2:	1101                	addi	sp,sp,-32
10005ce4:	ce06                	sw	ra,28(sp)
10005ce6:	c452                	sw	s4,8(sp)
10005ce8:	0c800613          	li	a2,200
10005cec:	4581                	li	a1,0
10005cee:	20004537          	lui	a0,0x20004
10005cf2:	bc050513          	addi	a0,a0,-1088 # 20003bc0 <_cdcd_itf>
10005cf6:	7be010ef          	jal	100074b4 <memset>
10005cfa:	86018ba3          	sb	zero,-1929(gp) # 200045ec <_cdcd_fifo_cfg>
10005cfe:	4a01                	li	s4,0
10005d00:	000a0663          	beqz	s4,10005d0c <cdcd_init+0x2a>
10005d04:	40f2                	lw	ra,28(sp)
10005d06:	4a22                	lw	s4,8(sp)
10005d08:	6105                	addi	sp,sp,32
10005d0a:	8082                	ret
10005d0c:	cc22                	sw	s0,24(sp)
10005d0e:	ca26                	sw	s1,20(sp)
10005d10:	c84a                	sw	s2,16(sp)
10005d12:	c64e                	sw	s3,12(sp)
10005d14:	c256                	sw	s5,4(sp)
10005d16:	c05a                	sw	s6,0(sp)
10005d18:	200044b7          	lui	s1,0x20004
10005d1c:	bc048493          	addi	s1,s1,-1088 # 20003bc0 <_cdcd_itf>
10005d20:	214a4433          	sh2add	s0,s4,s4
10005d24:	00241b13          	slli	s6,s0,0x2
10005d28:	20844933          	sh2add	s2,s0,s0
10005d2c:	20996933          	sh3add	s2,s2,s1
10005d30:	57fd                	li	a5,-1
10005d32:	00f902a3          	sb	a5,5(s2)
10005d36:	67f1                	lui	a5,0x1c
10005d38:	20078793          	addi	a5,a5,512 # 1c200 <HeapSize+0x1ba00>
10005d3c:	00f92423          	sw	a5,8(s2)
10005d40:	00090623          	sb	zero,12(s2)
10005d44:	000906a3          	sb	zero,13(s2)
10005d48:	47a1                	li	a5,8
10005d4a:	00f90723          	sb	a5,14(s2)
10005d4e:	208445b3          	sh2add	a1,s0,s0
10005d52:	058e                	slli	a1,a1,0x3
10005d54:	03058593          	addi	a1,a1,48
10005d58:	95a6                	add	a1,a1,s1
10005d5a:	20844533          	sh2add	a0,s0,s0
10005d5e:	050e                	slli	a0,a0,0x3
10005d60:	0541                	addi	a0,a0,16
10005d62:	4701                	li	a4,0
10005d64:	4685                	li	a3,1
10005d66:	04000613          	li	a2,64
10005d6a:	95be                	add	a1,a1,a5
10005d6c:	9526                	add	a0,a0,s1
10005d6e:	3de010ef          	jal	1000714c <tu_fifo_config>
10005d72:	016405b3          	add	a1,s0,s6
10005d76:	058e                	slli	a1,a1,0x3
10005d78:	07058593          	addi	a1,a1,112
10005d7c:	95a6                	add	a1,a1,s1
10005d7e:	01640533          	add	a0,s0,s6
10005d82:	050e                	slli	a0,a0,0x3
10005d84:	02050513          	addi	a0,a0,32
10005d88:	9526                	add	a0,a0,s1
10005d8a:	4705                	li	a4,1
10005d8c:	86ba                	mv	a3,a4
10005d8e:	04000613          	li	a2,64
10005d92:	05a1                	addi	a1,a1,8
10005d94:	0511                	addi	a0,a0,4
10005d96:	3b6010ef          	jal	1000714c <tu_fifo_config>
10005d9a:	016409b3          	add	s3,s0,s6
10005d9e:	098e                	slli	s3,s3,0x3
10005da0:	0b098993          	addi	s3,s3,176
10005da4:	99a6                	add	s3,s3,s1
10005da6:	09a1                	addi	s3,s3,8
10005da8:	854e                	mv	a0,s3
10005daa:	a9cfb0ef          	jal	10001046 <mutex_init>
10005dae:	01640ab3          	add	s5,s0,s6
10005db2:	0a8e                	slli	s5,s5,0x3
10005db4:	0c0a8a93          	addi	s5,s5,192
10005db8:	9aa6                	add	s5,s5,s1
10005dba:	8556                	mv	a0,s5
10005dbc:	a8afb0ef          	jal	10001046 <mutex_init>
10005dc0:	00092e23          	sw	zero,28(s2)
10005dc4:	03392023          	sw	s3,32(s2)
10005dc8:	03592823          	sw	s5,48(s2)
10005dcc:	02092a23          	sw	zero,52(s2)
10005dd0:	0a05                	addi	s4,s4,1
10005dd2:	0ffa7a13          	zext.b	s4,s4
10005dd6:	4462                	lw	s0,24(sp)
10005dd8:	44d2                	lw	s1,20(sp)
10005dda:	4942                	lw	s2,16(sp)
10005ddc:	49b2                	lw	s3,12(sp)
10005dde:	4a92                	lw	s5,4(sp)
10005de0:	4b02                	lw	s6,0(sp)
10005de2:	bf39                	j	10005d00 <cdcd_init+0x1e>

10005de4 <cdcd_deinit>:
10005de4:	4781                	li	a5,0
10005de6:	c399                	beqz	a5,10005dec <cdcd_deinit+0x8>
10005de8:	4505                	li	a0,1
10005dea:	8082                	ret
10005dec:	873e                	mv	a4,a5
10005dee:	20004637          	lui	a2,0x20004
10005df2:	20f7c6b3          	sh2add	a3,a5,a5
10005df6:	20d6c6b3          	sh2add	a3,a3,a3
10005dfa:	bc060613          	addi	a2,a2,-1088 # 20003bc0 <_cdcd_itf>
10005dfe:	20c6e6b3          	sh3add	a3,a3,a2
10005e02:	5290                	lw	a2,32(a3)
10005e04:	5a8c                	lw	a1,48(a3)
10005e06:	ce19                	beqz	a2,10005e24 <cdcd_deinit+0x40>
10005e08:	20004637          	lui	a2,0x20004
10005e0c:	20f7c6b3          	sh2add	a3,a5,a5
10005e10:	20d6c6b3          	sh2add	a3,a3,a3
10005e14:	bc060613          	addi	a2,a2,-1088 # 20003bc0 <_cdcd_itf>
10005e18:	20c6e6b3          	sh3add	a3,a3,a2
10005e1c:	0006ae23          	sw	zero,28(a3)
10005e20:	0206a023          	sw	zero,32(a3)
10005e24:	cd99                	beqz	a1,10005e42 <cdcd_deinit+0x5e>
10005e26:	200046b7          	lui	a3,0x20004
10005e2a:	bc068693          	addi	a3,a3,-1088 # 20003bc0 <_cdcd_itf>
10005e2e:	20e74733          	sh2add	a4,a4,a4
10005e32:	20e74633          	sh2add	a2,a4,a4
10005e36:	20d66633          	sh3add	a2,a2,a3
10005e3a:	02062823          	sw	zero,48(a2)
10005e3e:	02062a23          	sw	zero,52(a2)
10005e42:	0785                	addi	a5,a5,1
10005e44:	0ff7f793          	zext.b	a5,a5
10005e48:	bf79                	j	10005de6 <cdcd_deinit+0x2>

10005e4a <cdcd_reset>:
10005e4a:	1141                	addi	sp,sp,-16
10005e4c:	c606                	sw	ra,12(sp)
10005e4e:	c226                	sw	s1,4(sp)
10005e50:	4481                	li	s1,0
10005e52:	c489                	beqz	s1,10005e5c <cdcd_reset+0x12>
10005e54:	40b2                	lw	ra,12(sp)
10005e56:	4492                	lw	s1,4(sp)
10005e58:	0141                	addi	sp,sp,16
10005e5a:	8082                	ret
10005e5c:	c422                	sw	s0,8(sp)
10005e5e:	8426                	mv	s0,s1
10005e60:	2094c7b3          	sh2add	a5,s1,s1
10005e64:	20f7c7b3          	sh2add	a5,a5,a5
10005e68:	20004737          	lui	a4,0x20004
10005e6c:	bc070713          	addi	a4,a4,-1088 # 20003bc0 <_cdcd_itf>
10005e70:	20e7e7b3          	sh3add	a5,a5,a4
10005e74:	00078023          	sb	zero,0(a5)
10005e78:	000780a3          	sb	zero,1(a5)
10005e7c:	00078123          	sb	zero,2(a5)
10005e80:	000781a3          	sb	zero,3(a5)
10005e84:	00078223          	sb	zero,4(a5)
10005e88:	8771c783          	lbu	a5,-1929(gp) # 200045ec <_cdcd_fifo_cfg>
10005e8c:	8b85                	andi	a5,a5,1
10005e8e:	cb9d                	beqz	a5,10005ec4 <cdcd_reset+0x7a>
10005e90:	8771c783          	lbu	a5,-1929(gp) # 200045ec <_cdcd_fifo_cfg>
10005e94:	8b89                	andi	a5,a5,2
10005e96:	c3b9                	beqz	a5,10005edc <cdcd_reset+0x92>
10005e98:	20844433          	sh2add	s0,s0,s0
10005e9c:	20844433          	sh2add	s0,s0,s0
10005ea0:	00341513          	slli	a0,s0,0x3
10005ea4:	02050513          	addi	a0,a0,32
10005ea8:	200047b7          	lui	a5,0x20004
10005eac:	bc078793          	addi	a5,a5,-1088 # 20003bc0 <_cdcd_itf>
10005eb0:	953e                	add	a0,a0,a5
10005eb2:	4585                	li	a1,1
10005eb4:	0511                	addi	a0,a0,4
10005eb6:	552010ef          	jal	10007408 <tu_fifo_set_overwritable>
10005eba:	0485                	addi	s1,s1,1
10005ebc:	0ff4f493          	zext.b	s1,s1
10005ec0:	4422                	lw	s0,8(sp)
10005ec2:	bf41                	j	10005e52 <cdcd_reset+0x8>
10005ec4:	2094c533          	sh2add	a0,s1,s1
10005ec8:	20a54533          	sh2add	a0,a0,a0
10005ecc:	00351793          	slli	a5,a0,0x3
10005ed0:	07c1                	addi	a5,a5,16
10005ed2:	00f70533          	add	a0,a4,a5
10005ed6:	4e4010ef          	jal	100073ba <tu_fifo_clear>
10005eda:	bf5d                	j	10005e90 <cdcd_reset+0x46>
10005edc:	208447b3          	sh2add	a5,s0,s0
10005ee0:	20f7c533          	sh2add	a0,a5,a5
10005ee4:	050e                	slli	a0,a0,0x3
10005ee6:	02050513          	addi	a0,a0,32
10005eea:	200047b7          	lui	a5,0x20004
10005eee:	bc078793          	addi	a5,a5,-1088 # 20003bc0 <_cdcd_itf>
10005ef2:	953e                	add	a0,a0,a5
10005ef4:	0511                	addi	a0,a0,4
10005ef6:	4c4010ef          	jal	100073ba <tu_fifo_clear>
10005efa:	bf79                	j	10005e98 <cdcd_reset+0x4e>

10005efc <cdcd_open>:
10005efc:	1101                	addi	sp,sp,-32
10005efe:	ce06                	sw	ra,28(sp)
10005f00:	ca26                	sw	s1,20(sp)
10005f02:	0055c703          	lbu	a4,5(a1)
10005f06:	4789                	li	a5,2
10005f08:	14f71b63          	bne	a4,a5,1000605e <cdcd_open+0x162>
10005f0c:	c64e                	sw	s3,12(sp)
10005f0e:	89aa                	mv	s3,a0
10005f10:	0065c703          	lbu	a4,6(a1)
10005f14:	14f71b63          	bne	a4,a5,1000606a <cdcd_open+0x16e>
10005f18:	c84a                	sw	s2,16(sp)
10005f1a:	c452                	sw	s4,8(sp)
10005f1c:	4901                	li	s2,0
10005f1e:	00090f63          	beqz	s2,10005f3c <cdcd_open+0x40>
10005f22:	02091f63          	bnez	s2,10005f60 <cdcd_open+0x64>
10005f26:	cc22                	sw	s0,24(sp)
10005f28:	0025c783          	lbu	a5,2(a1)
10005f2c:	00fa0023          	sb	a5,0(s4)
10005f30:	0005c783          	lbu	a5,0(a1)
10005f34:	00f58433          	add	s0,a1,a5
10005f38:	44a5                	li	s1,9
10005f3a:	a899                	j	10005f90 <cdcd_open+0x94>
10005f3c:	212947b3          	sh2add	a5,s2,s2
10005f40:	20f7c6b3          	sh2add	a3,a5,a5
10005f44:	20004737          	lui	a4,0x20004
10005f48:	bc070713          	addi	a4,a4,-1088 # 20003bc0 <_cdcd_itf>
10005f4c:	20e6e6b3          	sh3add	a3,a3,a4
10005f50:	8a36                	mv	s4,a3
10005f52:	0026c783          	lbu	a5,2(a3)
10005f56:	d7f1                	beqz	a5,10005f22 <cdcd_open+0x26>
10005f58:	0905                	addi	s2,s2,1
10005f5a:	0ff97913          	zext.b	s2,s2
10005f5e:	b7c1                	j	10005f1e <cdcd_open+0x22>
10005f60:	14100613          	li	a2,321
10005f64:	100095b7          	lui	a1,0x10009
10005f68:	93858593          	addi	a1,a1,-1736 # 10008938 <__func__.1>
10005f6c:	10008537          	lui	a0,0x10008
10005f70:	34850513          	addi	a0,a0,840 # 10008348 <__EH_FRAME_BEGIN__+0xba8>
10005f74:	9dffd0ef          	jal	10003952 <__wrap_printf>
10005f78:	9002                	ebreak
10005f7a:	4481                	li	s1,0
10005f7c:	4942                	lw	s2,16(sp)
10005f7e:	49b2                	lw	s3,12(sp)
10005f80:	4a22                	lw	s4,8(sp)
10005f82:	a8f9                	j	10006060 <cdcd_open+0x164>
10005f84:	00044783          	lbu	a5,0(s0)
10005f88:	94be                	add	s1,s1,a5
10005f8a:	0804c4b3          	zext.h	s1,s1
10005f8e:	943e                	add	s0,s0,a5
10005f90:	00144783          	lbu	a5,1(s0)
10005f94:	02400713          	li	a4,36
10005f98:	00e79463          	bne	a5,a4,10005fa0 <cdcd_open+0xa4>
10005f9c:	fe9674e3          	bgeu	a2,s1,10005f84 <cdcd_open+0x88>
10005fa0:	4715                	li	a4,5
10005fa2:	02e78463          	beq	a5,a4,10005fca <cdcd_open+0xce>
10005fa6:	00144703          	lbu	a4,1(s0)
10005faa:	4791                	li	a5,4
10005fac:	00f71763          	bne	a4,a5,10005fba <cdcd_open+0xbe>
10005fb0:	00544703          	lbu	a4,5(s0)
10005fb4:	47a9                	li	a5,10
10005fb6:	04f70d63          	beq	a4,a5,10006010 <cdcd_open+0x114>
10005fba:	854a                	mv	a0,s2
10005fbc:	9e7ff0ef          	jal	100059a2 <_prep_out_transaction>
10005fc0:	4462                	lw	s0,24(sp)
10005fc2:	4942                	lw	s2,16(sp)
10005fc4:	49b2                	lw	s3,12(sp)
10005fc6:	4a22                	lw	s4,8(sp)
10005fc8:	a861                	j	10006060 <cdcd_open+0x164>
10005fca:	85a2                	mv	a1,s0
10005fcc:	854e                	mv	a0,s3
10005fce:	c2bfe0ef          	jal	10004bf8 <usbd_edpt_open>
10005fd2:	cd01                	beqz	a0,10005fea <cdcd_open+0xee>
10005fd4:	00244783          	lbu	a5,2(s0)
10005fd8:	00fa00a3          	sb	a5,1(s4)
10005fdc:	00044783          	lbu	a5,0(s0)
10005fe0:	94be                	add	s1,s1,a5
10005fe2:	0804c4b3          	zext.h	s1,s1
10005fe6:	943e                	add	s0,s0,a5
10005fe8:	bf7d                	j	10005fa6 <cdcd_open+0xaa>
10005fea:	15300613          	li	a2,339
10005fee:	100095b7          	lui	a1,0x10009
10005ff2:	93858593          	addi	a1,a1,-1736 # 10008938 <__func__.1>
10005ff6:	10008537          	lui	a0,0x10008
10005ffa:	34850513          	addi	a0,a0,840 # 10008348 <__EH_FRAME_BEGIN__+0xba8>
10005ffe:	955fd0ef          	jal	10003952 <__wrap_printf>
10006002:	9002                	ebreak
10006004:	4481                	li	s1,0
10006006:	4462                	lw	s0,24(sp)
10006008:	4942                	lw	s2,16(sp)
1000600a:	49b2                	lw	s3,12(sp)
1000600c:	4a22                	lw	s4,8(sp)
1000600e:	a889                	j	10006060 <cdcd_open+0x164>
10006010:	00044583          	lbu	a1,0(s0)
10006014:	94ae                	add	s1,s1,a1
10006016:	0804c4b3          	zext.h	s1,s1
1000601a:	002a0793          	addi	a5,s4,2
1000601e:	003a0713          	addi	a4,s4,3
10006022:	4689                	li	a3,2
10006024:	8636                	mv	a2,a3
10006026:	95a2                	add	a1,a1,s0
10006028:	854e                	mv	a0,s3
1000602a:	c59fe0ef          	jal	10004c82 <usbd_open_edpt_pair>
1000602e:	c509                	beqz	a0,10006038 <cdcd_open+0x13c>
10006030:	04b9                	addi	s1,s1,14
10006032:	0804c4b3          	zext.h	s1,s1
10006036:	b751                	j	10005fba <cdcd_open+0xbe>
10006038:	16200613          	li	a2,354
1000603c:	100095b7          	lui	a1,0x10009
10006040:	93858593          	addi	a1,a1,-1736 # 10008938 <__func__.1>
10006044:	10008537          	lui	a0,0x10008
10006048:	34850513          	addi	a0,a0,840 # 10008348 <__EH_FRAME_BEGIN__+0xba8>
1000604c:	907fd0ef          	jal	10003952 <__wrap_printf>
10006050:	9002                	ebreak
10006052:	4481                	li	s1,0
10006054:	4462                	lw	s0,24(sp)
10006056:	4942                	lw	s2,16(sp)
10006058:	49b2                	lw	s3,12(sp)
1000605a:	4a22                	lw	s4,8(sp)
1000605c:	a011                	j	10006060 <cdcd_open+0x164>
1000605e:	4481                	li	s1,0
10006060:	8526                	mv	a0,s1
10006062:	40f2                	lw	ra,28(sp)
10006064:	44d2                	lw	s1,20(sp)
10006066:	6105                	addi	sp,sp,32
10006068:	8082                	ret
1000606a:	4481                	li	s1,0
1000606c:	49b2                	lw	s3,12(sp)
1000606e:	bfcd                	j	10006060 <cdcd_open+0x164>

10006070 <cdcd_control_xfer_cb>:
10006070:	00064703          	lbu	a4,0(a2)
10006074:	06077713          	andi	a4,a4,96
10006078:	02000693          	li	a3,32
1000607c:	14d71e63          	bne	a4,a3,100061d8 <cdcd_control_xfer_cb+0x168>
10006080:	1141                	addi	sp,sp,-16
10006082:	c606                	sw	ra,12(sp)
10006084:	c422                	sw	s0,8(sp)
10006086:	87b2                	mv	a5,a2
10006088:	4401                	li	s0,0
1000608a:	c805                	beqz	s0,100060ba <cdcd_control_xfer_cb+0x4a>
1000608c:	14041863          	bnez	s0,100061dc <cdcd_control_xfer_cb+0x16c>
10006090:	0017c703          	lbu	a4,1(a5)
10006094:	02200693          	li	a3,34
10006098:	0ad70d63          	beq	a4,a3,10006152 <cdcd_control_xfer_cb+0xe2>
1000609c:	04e6e963          	bltu	a3,a4,100060ee <cdcd_control_xfer_cb+0x7e>
100060a0:	02000693          	li	a3,32
100060a4:	06d70363          	beq	a4,a3,1000610a <cdcd_control_xfer_cb+0x9a>
100060a8:	02100693          	li	a3,33
100060ac:	02d71f63          	bne	a4,a3,100060ea <cdcd_control_xfer_cb+0x7a>
100060b0:	4705                	li	a4,1
100060b2:	08e58863          	beq	a1,a4,10006142 <cdcd_control_xfer_cb+0xd2>
100060b6:	4505                	li	a0,1
100060b8:	a21d                	j	100061de <cdcd_control_xfer_cb+0x16e>
100060ba:	20844733          	sh2add	a4,s0,s0
100060be:	20e74633          	sh2add	a2,a4,a4
100060c2:	200046b7          	lui	a3,0x20004
100060c6:	bc068693          	addi	a3,a3,-1088 # 20003bc0 <_cdcd_itf>
100060ca:	20d66833          	sh3add	a6,a2,a3
100060ce:	00084683          	lbu	a3,0(a6)
100060d2:	0047c603          	lbu	a2,4(a5)
100060d6:	0057c703          	lbu	a4,5(a5)
100060da:	0722                	slli	a4,a4,0x8
100060dc:	8f51                	or	a4,a4,a2
100060de:	fae687e3          	beq	a3,a4,1000608c <cdcd_control_xfer_cb+0x1c>
100060e2:	0405                	addi	s0,s0,1
100060e4:	0ff47413          	zext.b	s0,s0
100060e8:	b74d                	j	1000608a <cdcd_control_xfer_cb+0x1a>
100060ea:	4501                	li	a0,0
100060ec:	a8cd                	j	100061de <cdcd_control_xfer_cb+0x16e>
100060ee:	02300693          	li	a3,35
100060f2:	00d71a63          	bne	a4,a3,10006106 <cdcd_control_xfer_cb+0x96>
100060f6:	4705                	li	a4,1
100060f8:	0ae58b63          	beq	a1,a4,100061ae <cdcd_control_xfer_cb+0x13e>
100060fc:	470d                	li	a4,3
100060fe:	0ae58d63          	beq	a1,a4,100061b8 <cdcd_control_xfer_cb+0x148>
10006102:	4505                	li	a0,1
10006104:	a8e9                	j	100061de <cdcd_control_xfer_cb+0x16e>
10006106:	4501                	li	a0,0
10006108:	a8d9                	j	100061de <cdcd_control_xfer_cb+0x16e>
1000610a:	4705                	li	a4,1
1000610c:	00e58763          	beq	a1,a4,1000611a <cdcd_control_xfer_cb+0xaa>
10006110:	478d                	li	a5,3
10006112:	00f58c63          	beq	a1,a5,1000612a <cdcd_control_xfer_cb+0xba>
10006116:	4505                	li	a0,1
10006118:	a0d9                	j	100061de <cdcd_control_xfer_cb+0x16e>
1000611a:	469d                	li	a3,7
1000611c:	00880613          	addi	a2,a6,8
10006120:	85be                	mv	a1,a5
10006122:	dc4ff0ef          	jal	100056e6 <tud_control_xfer>
10006126:	4505                	li	a0,1
10006128:	a85d                	j	100061de <cdcd_control_xfer_cb+0x16e>
1000612a:	100047b7          	lui	a5,0x10004
1000612e:	a9078793          	addi	a5,a5,-1392 # 10003a90 <tud_cdc_line_coding_cb>
10006132:	cbd5                	beqz	a5,100061e6 <cdcd_control_xfer_cb+0x176>
10006134:	00880593          	addi	a1,a6,8
10006138:	8522                	mv	a0,s0
1000613a:	957fd0ef          	jal	10003a90 <tud_cdc_line_coding_cb>
1000613e:	4505                	li	a0,1
10006140:	a879                	j	100061de <cdcd_control_xfer_cb+0x16e>
10006142:	469d                	li	a3,7
10006144:	00880613          	addi	a2,a6,8
10006148:	85be                	mv	a1,a5
1000614a:	d9cff0ef          	jal	100056e6 <tud_control_xfer>
1000614e:	4505                	li	a0,1
10006150:	a079                	j	100061de <cdcd_control_xfer_cb+0x16e>
10006152:	4705                	li	a4,1
10006154:	00e58763          	beq	a1,a4,10006162 <cdcd_control_xfer_cb+0xf2>
10006158:	470d                	li	a4,3
1000615a:	00e58963          	beq	a1,a4,1000616c <cdcd_control_xfer_cb+0xfc>
1000615e:	4505                	li	a0,1
10006160:	a8bd                	j	100061de <cdcd_control_xfer_cb+0x16e>
10006162:	85be                	mv	a1,a5
10006164:	d20ff0ef          	jal	10005684 <tud_control_status>
10006168:	4505                	li	a0,1
1000616a:	a895                	j	100061de <cdcd_control_xfer_cb+0x16e>
1000616c:	c226                	sw	s1,4(sp)
1000616e:	c04a                	sw	s2,0(sp)
10006170:	0027c583          	lbu	a1,2(a5)
10006174:	0015f793          	andi	a5,a1,1
10006178:	893e                	mv	s2,a5
1000617a:	4815d793          	bexti	a5,a1,0x1
1000617e:	84be                	mv	s1,a5
10006180:	00b80223          	sb	a1,4(a6)
10006184:	4785                	li	a5,1
10006186:	40b7f5b3          	andn	a1,a5,a1
1000618a:	02480513          	addi	a0,a6,36
1000618e:	27a010ef          	jal	10007408 <tu_fifo_set_overwritable>
10006192:	00000793          	li	a5,0
10006196:	cbb1                	beqz	a5,100061ea <cdcd_control_xfer_cb+0x17a>
10006198:	8626                	mv	a2,s1
1000619a:	85ca                	mv	a1,s2
1000619c:	8522                	mv	a0,s0
1000619e:	00000097          	auipc	ra,0x0
100061a2:	000000e7          	jalr	zero # 0 <next_slot_number-0x5>
100061a6:	4505                	li	a0,1
100061a8:	4492                	lw	s1,4(sp)
100061aa:	4902                	lw	s2,0(sp)
100061ac:	a80d                	j	100061de <cdcd_control_xfer_cb+0x16e>
100061ae:	85be                	mv	a1,a5
100061b0:	cd4ff0ef          	jal	10005684 <tud_control_status>
100061b4:	4505                	li	a0,1
100061b6:	a025                	j	100061de <cdcd_control_xfer_cb+0x16e>
100061b8:	00000713          	li	a4,0
100061bc:	cb1d                	beqz	a4,100061f2 <cdcd_control_xfer_cb+0x182>
100061be:	0027c583          	lbu	a1,2(a5)
100061c2:	0037c783          	lbu	a5,3(a5)
100061c6:	07a2                	slli	a5,a5,0x8
100061c8:	8ddd                	or	a1,a1,a5
100061ca:	8522                	mv	a0,s0
100061cc:	00000097          	auipc	ra,0x0
100061d0:	000000e7          	jalr	zero # 0 <next_slot_number-0x5>
100061d4:	4505                	li	a0,1
100061d6:	a021                	j	100061de <cdcd_control_xfer_cb+0x16e>
100061d8:	4501                	li	a0,0
100061da:	8082                	ret
100061dc:	4501                	li	a0,0
100061de:	40b2                	lw	ra,12(sp)
100061e0:	4422                	lw	s0,8(sp)
100061e2:	0141                	addi	sp,sp,16
100061e4:	8082                	ret
100061e6:	4505                	li	a0,1
100061e8:	bfdd                	j	100061de <cdcd_control_xfer_cb+0x16e>
100061ea:	4505                	li	a0,1
100061ec:	4492                	lw	s1,4(sp)
100061ee:	4902                	lw	s2,0(sp)
100061f0:	b7fd                	j	100061de <cdcd_control_xfer_cb+0x16e>
100061f2:	4505                	li	a0,1
100061f4:	b7ed                	j	100061de <cdcd_control_xfer_cb+0x16e>

100061f6 <cdcd_xfer_cb>:
100061f6:	7179                	addi	sp,sp,-48
100061f8:	d606                	sw	ra,44(sp)
100061fa:	d422                	sw	s0,40(sp)
100061fc:	d226                	sw	s1,36(sp)
100061fe:	d04a                	sw	s2,32(sp)
10006200:	cc52                	sw	s4,24(sp)
10006202:	c85a                	sw	s6,16(sp)
10006204:	8b2a                	mv	s6,a0
10006206:	892e                	mv	s2,a1
10006208:	8a36                	mv	s4,a3
1000620a:	4401                	li	s0,0
1000620c:	c41d                	beqz	s0,1000623a <cdcd_xfer_cb+0x44>
1000620e:	ec21                	bnez	s0,10006266 <cdcd_xfer_cb+0x70>
10006210:	ca56                	sw	s5,20(sp)
10006212:	8aa2                	mv	s5,s0
10006214:	0034c783          	lbu	a5,3(s1)
10006218:	07278663          	beq	a5,s2,10006284 <cdcd_xfer_cb+0x8e>
1000621c:	0024c783          	lbu	a5,2(s1)
10006220:	0f278e63          	beq	a5,s2,1000631c <cdcd_xfer_cb+0x126>
10006224:	4405                	li	s0,1
10006226:	4ad2                	lw	s5,20(sp)
10006228:	8522                	mv	a0,s0
1000622a:	50b2                	lw	ra,44(sp)
1000622c:	5422                	lw	s0,40(sp)
1000622e:	5492                	lw	s1,36(sp)
10006230:	5902                	lw	s2,32(sp)
10006232:	4a62                	lw	s4,24(sp)
10006234:	4b42                	lw	s6,16(sp)
10006236:	6145                	addi	sp,sp,48
10006238:	8082                	ret
1000623a:	208444b3          	sh2add	s1,s0,s0
1000623e:	2094c4b3          	sh2add	s1,s1,s1
10006242:	200047b7          	lui	a5,0x20004
10006246:	bc078793          	addi	a5,a5,-1088 # 20003bc0 <_cdcd_itf>
1000624a:	20f4e4b3          	sh3add	s1,s1,a5
1000624e:	0034c783          	lbu	a5,3(s1)
10006252:	fb278ee3          	beq	a5,s2,1000620e <cdcd_xfer_cb+0x18>
10006256:	0024c783          	lbu	a5,2(s1)
1000625a:	fb278ae3          	beq	a5,s2,1000620e <cdcd_xfer_cb+0x18>
1000625e:	0405                	addi	s0,s0,1
10006260:	0ff47413          	zext.b	s0,s0
10006264:	b765                	j	1000620c <cdcd_xfer_cb+0x16>
10006266:	1cc00613          	li	a2,460
1000626a:	100095b7          	lui	a1,0x10009
1000626e:	92858593          	addi	a1,a1,-1752 # 10008928 <__func__.0>
10006272:	10008537          	lui	a0,0x10008
10006276:	34850513          	addi	a0,a0,840 # 10008348 <__EH_FRAME_BEGIN__+0xba8>
1000627a:	ed8fd0ef          	jal	10003952 <__wrap_printf>
1000627e:	9002                	ebreak
10006280:	4401                	li	s0,0
10006282:	b75d                	j	10006228 <cdcd_xfer_cb+0x32>
10006284:	c65e                	sw	s7,12(sp)
10006286:	01048793          	addi	a5,s1,16
1000628a:	8bbe                	mv	s7,a5
1000628c:	00741593          	slli	a1,s0,0x7
10006290:	080a4633          	zext.h	a2,s4
10006294:	200047b7          	lui	a5,0x20004
10006298:	b4078793          	addi	a5,a5,-1216 # 20003b40 <_cdcd_epbuf>
1000629c:	95be                	add	a1,a1,a5
1000629e:	855e                	mv	a0,s7
100062a0:	10a010ef          	jal	100073aa <tu_fifo_write_n>
100062a4:	00000793          	li	a5,0
100062a8:	cba1                	beqz	a5,100062f8 <cdcd_xfer_cb+0x102>
100062aa:	0054c703          	lbu	a4,5(s1)
100062ae:	0ff00793          	li	a5,255
100062b2:	04f70363          	beq	a4,a5,100062f8 <cdcd_xfer_cb+0x102>
100062b6:	ce4e                	sw	s3,28(sp)
100062b8:	4981                	li	s3,0
100062ba:	a011                	j	100062be <cdcd_xfer_cb+0xc8>
100062bc:	0985                	addi	s3,s3,1
100062be:	0349fc63          	bgeu	s3,s4,100062f6 <cdcd_xfer_cb+0x100>
100062c2:	0054c683          	lbu	a3,5(s1)
100062c6:	200047b7          	lui	a5,0x20004
100062ca:	007a9713          	slli	a4,s5,0x7
100062ce:	b4078793          	addi	a5,a5,-1216 # 20003b40 <_cdcd_epbuf>
100062d2:	97ba                	add	a5,a5,a4
100062d4:	97ce                	add	a5,a5,s3
100062d6:	0007c783          	lbu	a5,0(a5)
100062da:	fef691e3          	bne	a3,a5,100062bc <cdcd_xfer_cb+0xc6>
100062de:	855e                	mv	a0,s7
100062e0:	74b000ef          	jal	1000722a <tu_fifo_empty>
100062e4:	fd61                	bnez	a0,100062bc <cdcd_xfer_cb+0xc6>
100062e6:	0054c583          	lbu	a1,5(s1)
100062ea:	8522                	mv	a0,s0
100062ec:	00000097          	auipc	ra,0x0
100062f0:	000000e7          	jalr	zero # 0 <next_slot_number-0x5>
100062f4:	b7e1                	j	100062bc <cdcd_xfer_cb+0xc6>
100062f6:	49f2                	lw	s3,28(sp)
100062f8:	00000793          	li	a5,0
100062fc:	c789                	beqz	a5,10006306 <cdcd_xfer_cb+0x110>
100062fe:	855e                	mv	a0,s7
10006300:	72b000ef          	jal	1000722a <tu_fifo_empty>
10006304:	c511                	beqz	a0,10006310 <cdcd_xfer_cb+0x11a>
10006306:	8522                	mv	a0,s0
10006308:	e9aff0ef          	jal	100059a2 <_prep_out_transaction>
1000630c:	4bb2                	lw	s7,12(sp)
1000630e:	b739                	j	1000621c <cdcd_xfer_cb+0x26>
10006310:	8522                	mv	a0,s0
10006312:	00000097          	auipc	ra,0x0
10006316:	000000e7          	jalr	zero # 0 <next_slot_number-0x5>
1000631a:	b7f5                	j	10006306 <cdcd_xfer_cb+0x110>
1000631c:	00000793          	li	a5,0
10006320:	c791                	beqz	a5,1000632c <cdcd_xfer_cb+0x136>
10006322:	8522                	mv	a0,s0
10006324:	00000097          	auipc	ra,0x0
10006328:	000000e7          	jalr	zero # 0 <next_slot_number-0x5>
1000632c:	8522                	mv	a0,s0
1000632e:	823ff0ef          	jal	10005b50 <tud_cdc_n_write_flush>
10006332:	c501                	beqz	a0,1000633a <cdcd_xfer_cb+0x144>
10006334:	4405                	li	s0,1
10006336:	4ad2                	lw	s5,20(sp)
10006338:	bdc5                	j	10006228 <cdcd_xfer_cb+0x32>
1000633a:	02448513          	addi	a0,s1,36
1000633e:	6b9000ef          	jal	100071f6 <tu_fifo_count>
10006342:	ed05                	bnez	a0,1000637a <cdcd_xfer_cb+0x184>
10006344:	020a0e63          	beqz	s4,10006380 <cdcd_xfer_cb+0x18a>
10006348:	03fa7793          	andi	a5,s4,63
1000634c:	c781                	beqz	a5,10006354 <cdcd_xfer_cb+0x15e>
1000634e:	4405                	li	s0,1
10006350:	4ad2                	lw	s5,20(sp)
10006352:	bdd9                	j	10006228 <cdcd_xfer_cb+0x32>
10006354:	0024c583          	lbu	a1,2(s1)
10006358:	855a                	mv	a0,s6
1000635a:	9e1fe0ef          	jal	10004d3a <usbd_edpt_claim>
1000635e:	842a                	mv	s0,a0
10006360:	e501                	bnez	a0,10006368 <cdcd_xfer_cb+0x172>
10006362:	4405                	li	s0,1
10006364:	4ad2                	lw	s5,20(sp)
10006366:	b5c9                	j	10006228 <cdcd_xfer_cb+0x32>
10006368:	4681                	li	a3,0
1000636a:	4601                	li	a2,0
1000636c:	0024c583          	lbu	a1,2(s1)
10006370:	855a                	mv	a0,s6
10006372:	a21fe0ef          	jal	10004d92 <usbd_edpt_xfer>
10006376:	4ad2                	lw	s5,20(sp)
10006378:	bd45                	j	10006228 <cdcd_xfer_cb+0x32>
1000637a:	4405                	li	s0,1
1000637c:	4ad2                	lw	s5,20(sp)
1000637e:	b56d                	j	10006228 <cdcd_xfer_cb+0x32>
10006380:	4405                	li	s0,1
10006382:	4ad2                	lw	s5,20(sp)
10006384:	b555                	j	10006228 <cdcd_xfer_cb+0x32>

10006386 <tud_vendor_n_mounted>:
10006386:	e529                	bnez	a0,100063d0 <tud_vendor_n_mounted+0x4a>
10006388:	20004737          	lui	a4,0x20004
1000638c:	20a567b3          	sh3add	a5,a0,a0
10006390:	20a7e7b3          	sh3add	a5,a5,a0
10006394:	20a7a7b3          	sh1add	a5,a5,a0
10006398:	e9070713          	addi	a4,a4,-368 # 20003e90 <_vendord_itf>
1000639c:	20e7c7b3          	sh2add	a5,a5,a4
100063a0:	1297c783          	lbu	a5,297(a5)
100063a4:	e395                	bnez	a5,100063c8 <tud_vendor_n_mounted+0x42>
100063a6:	20004737          	lui	a4,0x20004
100063aa:	20a567b3          	sh3add	a5,a0,a0
100063ae:	20a7e7b3          	sh3add	a5,a5,a0
100063b2:	20a7a7b3          	sh1add	a5,a5,a0
100063b6:	e9070713          	addi	a4,a4,-368 # 20003e90 <_vendord_itf>
100063ba:	20e7c7b3          	sh2add	a5,a5,a4
100063be:	0057c783          	lbu	a5,5(a5)
100063c2:	c789                	beqz	a5,100063cc <tud_vendor_n_mounted+0x46>
100063c4:	4505                	li	a0,1
100063c6:	8082                	ret
100063c8:	4505                	li	a0,1
100063ca:	8082                	ret
100063cc:	4501                	li	a0,0
100063ce:	8082                	ret
100063d0:	4501                	li	a0,0
100063d2:	8082                	ret

100063d4 <tud_vendor_n_write_flush>:
100063d4:	c119                	beqz	a0,100063da <tud_vendor_n_write_flush+0x6>
100063d6:	4501                	li	a0,0
100063d8:	8082                	ret
100063da:	1141                	addi	sp,sp,-16
100063dc:	c606                	sw	ra,12(sp)
100063de:	20a565b3          	sh3add	a1,a0,a0
100063e2:	20a5e5b3          	sh3add	a1,a1,a0
100063e6:	20a5a5b3          	sh1add	a1,a1,a0
100063ea:	200047b7          	lui	a5,0x20004
100063ee:	e9078793          	addi	a5,a5,-368 # 20003e90 <_vendord_itf>
100063f2:	20f5c5b3          	sh2add	a1,a1,a5
100063f6:	0591                	addi	a1,a1,4
100063f8:	7c6000ef          	jal	10006bbe <tu_edpt_stream_write_xfer>
100063fc:	40b2                	lw	ra,12(sp)
100063fe:	0141                	addi	sp,sp,16
10006400:	8082                	ret

10006402 <vendord_init>:
10006402:	1101                	addi	sp,sp,-32
10006404:	ce06                	sw	ra,28(sp)
10006406:	cc22                	sw	s0,24(sp)
10006408:	24c00613          	li	a2,588
1000640c:	4581                	li	a1,0
1000640e:	20004537          	lui	a0,0x20004
10006412:	e9050513          	addi	a0,a0,-368 # 20003e90 <_vendord_itf>
10006416:	09e010ef          	jal	100074b4 <memset>
1000641a:	4401                	li	s0,0
1000641c:	c409                	beqz	s0,10006426 <vendord_init+0x24>
1000641e:	40f2                	lw	ra,28(sp)
10006420:	4462                	lw	s0,24(sp)
10006422:	6105                	addi	sp,sp,32
10006424:	8082                	ret
10006426:	ca26                	sw	s1,20(sp)
10006428:	c84a                	sw	s2,16(sp)
1000642a:	c64e                	sw	s3,12(sp)
1000642c:	c452                	sw	s4,8(sp)
1000642e:	208467b3          	sh3add	a5,s0,s0
10006432:	2087e7b3          	sh3add	a5,a5,s0
10006436:	00179493          	slli	s1,a5,0x1
1000643a:	2087a733          	sh1add	a4,a5,s0
1000643e:	070a                	slli	a4,a4,0x2
10006440:	14070713          	addi	a4,a4,320
10006444:	20004937          	lui	s2,0x20004
10006448:	e9090913          	addi	s2,s2,-368 # 20003e90 <_vendord_itf>
1000644c:	974a                	add	a4,a4,s2
1000644e:	00741993          	slli	s3,s0,0x7
10006452:	20004a37          	lui	s4,0x20004
10006456:	e10a0a13          	addi	s4,s4,-496 # 20003e10 <_vendord_epbuf>
1000645a:	2087a533          	sh1add	a0,a5,s0
1000645e:	050a                	slli	a0,a0,0x2
10006460:	12050513          	addi	a0,a0,288
10006464:	954a                	add	a0,a0,s2
10006466:	04000893          	li	a7,64
1000646a:	013a0833          	add	a6,s4,s3
1000646e:	10000793          	li	a5,256
10006472:	0731                	addi	a4,a4,12
10006474:	4681                	li	a3,0
10006476:	4601                	li	a2,0
10006478:	4581                	li	a1,0
1000647a:	0521                	addi	a0,a0,8
1000647c:	250d                	jal	10006a9e <tu_edpt_stream_init>
1000647e:	00848733          	add	a4,s1,s0
10006482:	070a                	slli	a4,a4,0x2
10006484:	02070713          	addi	a4,a4,32
10006488:	974a                	add	a4,a4,s2
1000648a:	04098813          	addi	a6,s3,64
1000648e:	00848533          	add	a0,s1,s0
10006492:	21254533          	sh2add	a0,a0,s2
10006496:	04000893          	li	a7,64
1000649a:	9852                	add	a6,a6,s4
1000649c:	10000793          	li	a5,256
100064a0:	0721                	addi	a4,a4,8
100064a2:	4681                	li	a3,0
100064a4:	4605                	li	a2,1
100064a6:	4581                	li	a1,0
100064a8:	0511                	addi	a0,a0,4
100064aa:	2bd5                	jal	10006a9e <tu_edpt_stream_init>
100064ac:	0405                	addi	s0,s0,1
100064ae:	0ff47413          	zext.b	s0,s0
100064b2:	44d2                	lw	s1,20(sp)
100064b4:	4942                	lw	s2,16(sp)
100064b6:	49b2                	lw	s3,12(sp)
100064b8:	4a22                	lw	s4,8(sp)
100064ba:	b78d                	j	1000641c <vendord_init+0x1a>

100064bc <vendord_deinit>:
100064bc:	1141                	addi	sp,sp,-16
100064be:	c606                	sw	ra,12(sp)
100064c0:	c422                	sw	s0,8(sp)
100064c2:	4401                	li	s0,0
100064c4:	c411                	beqz	s0,100064d0 <vendord_deinit+0x14>
100064c6:	4505                	li	a0,1
100064c8:	40b2                	lw	ra,12(sp)
100064ca:	4422                	lw	s0,8(sp)
100064cc:	0141                	addi	sp,sp,16
100064ce:	8082                	ret
100064d0:	c226                	sw	s1,4(sp)
100064d2:	c04a                	sw	s2,0(sp)
100064d4:	208467b3          	sh3add	a5,s0,s0
100064d8:	2087e7b3          	sh3add	a5,a5,s0
100064dc:	00179493          	slli	s1,a5,0x1
100064e0:	2087a533          	sh1add	a0,a5,s0
100064e4:	050a                	slli	a0,a0,0x2
100064e6:	12050513          	addi	a0,a0,288
100064ea:	20004937          	lui	s2,0x20004
100064ee:	e9090913          	addi	s2,s2,-368 # 20003e90 <_vendord_itf>
100064f2:	954a                	add	a0,a0,s2
100064f4:	0521                	addi	a0,a0,8
100064f6:	250d                	jal	10006b18 <tu_edpt_stream_deinit>
100064f8:	00848533          	add	a0,s1,s0
100064fc:	21254533          	sh2add	a0,a0,s2
10006500:	0511                	addi	a0,a0,4
10006502:	2d19                	jal	10006b18 <tu_edpt_stream_deinit>
10006504:	0405                	addi	s0,s0,1
10006506:	0ff47413          	zext.b	s0,s0
1000650a:	4492                	lw	s1,4(sp)
1000650c:	4902                	lw	s2,0(sp)
1000650e:	bf5d                	j	100064c4 <vendord_deinit+0x8>

10006510 <vendord_reset>:
10006510:	1101                	addi	sp,sp,-32
10006512:	ce06                	sw	ra,28(sp)
10006514:	cc22                	sw	s0,24(sp)
10006516:	4401                	li	s0,0
10006518:	c409                	beqz	s0,10006522 <vendord_reset+0x12>
1000651a:	40f2                	lw	ra,28(sp)
1000651c:	4462                	lw	s0,24(sp)
1000651e:	6105                	addi	sp,sp,32
10006520:	8082                	ret
10006522:	ca26                	sw	s1,20(sp)
10006524:	c84a                	sw	s2,16(sp)
10006526:	c64e                	sw	s3,12(sp)
10006528:	208467b3          	sh3add	a5,s0,s0
1000652c:	2087e7b3          	sh3add	a5,a5,s0
10006530:	2087a9b3          	sh1add	s3,a5,s0
10006534:	20004937          	lui	s2,0x20004
10006538:	e9090913          	addi	s2,s2,-368 # 20003e90 <_vendord_itf>
1000653c:	2129c9b3          	sh2add	s3,s3,s2
10006540:	00098023          	sb	zero,0(s3)
10006544:	2087a533          	sh1add	a0,a5,s0
10006548:	050a                	slli	a0,a0,0x2
1000654a:	12050513          	addi	a0,a0,288
1000654e:	954a                	add	a0,a0,s2
10006550:	0541                	addi	a0,a0,16
10006552:	669000ef          	jal	100073ba <tu_fifo_clear>
10006556:	00c98513          	addi	a0,s3,12
1000655a:	661000ef          	jal	100073ba <tu_fifo_clear>
1000655e:	120984a3          	sb	zero,297(s3)
10006562:	000982a3          	sb	zero,5(s3)
10006566:	0405                	addi	s0,s0,1
10006568:	0ff47413          	zext.b	s0,s0
1000656c:	44d2                	lw	s1,20(sp)
1000656e:	4942                	lw	s2,16(sp)
10006570:	49b2                	lw	s3,12(sp)
10006572:	b75d                	j	10006518 <vendord_reset+0x8>

10006574 <vendord_open>:
10006574:	0055c703          	lbu	a4,5(a1)
10006578:	0ff00793          	li	a5,255
1000657c:	18f71a63          	bne	a4,a5,10006710 <vendord_open+0x19c>
10006580:	1101                	addi	sp,sp,-32
10006582:	ce06                	sw	ra,28(sp)
10006584:	cc22                	sw	s0,24(sp)
10006586:	ca26                	sw	s1,20(sp)
10006588:	c84a                	sw	s2,16(sp)
1000658a:	c64e                	sw	s3,12(sp)
1000658c:	c452                	sw	s4,8(sp)
1000658e:	8a2a                	mv	s4,a0
10006590:	89ae                	mv	s3,a1
10006592:	0005c403          	lbu	s0,0(a1)
10006596:	942e                	add	s0,s0,a1
10006598:	00c404b3          	add	s1,s0,a2
1000659c:	4901                	li	s2,0
1000659e:	00090b63          	beqz	s2,100065b4 <vendord_open+0x40>
100065a2:	4501                	li	a0,0
100065a4:	40f2                	lw	ra,28(sp)
100065a6:	4462                	lw	s0,24(sp)
100065a8:	44d2                	lw	s1,20(sp)
100065aa:	4942                	lw	s2,16(sp)
100065ac:	49b2                	lw	s3,12(sp)
100065ae:	4a22                	lw	s4,8(sp)
100065b0:	6105                	addi	sp,sp,32
100065b2:	8082                	ret
100065b4:	854a                	mv	a0,s2
100065b6:	dd1ff0ef          	jal	10006386 <tud_vendor_n_mounted>
100065ba:	c509                	beqz	a0,100065c4 <vendord_open+0x50>
100065bc:	0905                	addi	s2,s2,1
100065be:	0ff97913          	zext.b	s2,s2
100065c2:	bff1                	j	1000659e <vendord_open+0x2a>
100065c4:	c256                	sw	s5,4(sp)
100065c6:	212967b3          	sh3add	a5,s2,s2
100065ca:	2127e7b3          	sh3add	a5,a5,s2
100065ce:	2127a7b3          	sh1add	a5,a5,s2
100065d2:	20004737          	lui	a4,0x20004
100065d6:	e9070713          	addi	a4,a4,-368 # 20003e90 <_vendord_itf>
100065da:	20e7c7b3          	sh2add	a5,a5,a4
100065de:	8abe                	mv	s5,a5
100065e0:	0029c783          	lbu	a5,2(s3)
100065e4:	00fa8023          	sb	a5,0(s5)
100065e8:	a095                	j	1000664c <vendord_open+0xd8>
100065ea:	10947d63          	bgeu	s0,s1,10006704 <vendord_open+0x190>
100065ee:	85a2                	mv	a1,s0
100065f0:	8552                	mv	a0,s4
100065f2:	e06fe0ef          	jal	10004bf8 <usbd_edpt_open>
100065f6:	c935                	beqz	a0,1000666a <vendord_open+0xf6>
100065f8:	0905                	addi	s2,s2,1
100065fa:	0ff97913          	zext.b	s2,s2
100065fe:	00244783          	lbu	a5,2(s0)
10006602:	839d                	srli	a5,a5,0x7
10006604:	e3d9                	bnez	a5,1000668a <vendord_open+0x116>
10006606:	130a8513          	addi	a0,s5,304
1000660a:	5b1000ef          	jal	100073ba <tu_fifo_clear>
1000660e:	00244783          	lbu	a5,2(s0)
10006612:	12fa84a3          	sb	a5,297(s5)
10006616:	00444703          	lbu	a4,4(s0)
1000661a:	00544783          	lbu	a5,5(s0)
1000661e:	07a2                	slli	a5,a5,0x8
10006620:	8fd9                	or	a5,a5,a4
10006622:	7ff7f793          	andi	a5,a5,2047
10006626:	e0078793          	addi	a5,a5,-512
1000662a:	0017b793          	seqz	a5,a5
1000662e:	0786                	slli	a5,a5,0x1
10006630:	128ac703          	lbu	a4,296(s5)
10006634:	9b75                	andi	a4,a4,-3
10006636:	8fd9                	or	a5,a5,a4
10006638:	12fa8423          	sb	a5,296(s5)
1000663c:	128a8593          	addi	a1,s5,296
10006640:	8552                	mv	a0,s4
10006642:	2d21                	jal	10006c5a <tu_edpt_stream_read_xfer>
10006644:	c145                	beqz	a0,100066e4 <vendord_open+0x170>
10006646:	00044783          	lbu	a5,0(s0)
1000664a:	943e                	add	s0,s0,a5
1000664c:	0049c783          	lbu	a5,4(s3)
10006650:	0af97a63          	bgeu	s2,a5,10006704 <vendord_open+0x190>
10006654:	00144703          	lbu	a4,1(s0)
10006658:	4795                	li	a5,5
1000665a:	f8f708e3          	beq	a4,a5,100065ea <vendord_open+0x76>
1000665e:	f89476e3          	bgeu	s0,s1,100065ea <vendord_open+0x76>
10006662:	00044783          	lbu	a5,0(s0)
10006666:	943e                	add	s0,s0,a5
10006668:	b7f5                	j	10006654 <vendord_open+0xe0>
1000666a:	0e000613          	li	a2,224
1000666e:	100095b7          	lui	a1,0x10009
10006672:	95c58593          	addi	a1,a1,-1700 # 1000895c <__func__.0>
10006676:	10008537          	lui	a0,0x10008
1000667a:	34850513          	addi	a0,a0,840 # 10008348 <__EH_FRAME_BEGIN__+0xba8>
1000667e:	ad4fd0ef          	jal	10003952 <__wrap_printf>
10006682:	9002                	ebreak
10006684:	4501                	li	a0,0
10006686:	4a92                	lw	s5,4(sp)
10006688:	bf31                	j	100065a4 <vendord_open+0x30>
1000668a:	00ca8513          	addi	a0,s5,12
1000668e:	52d000ef          	jal	100073ba <tu_fifo_clear>
10006692:	00244783          	lbu	a5,2(s0)
10006696:	00fa82a3          	sb	a5,5(s5)
1000669a:	00444703          	lbu	a4,4(s0)
1000669e:	00544783          	lbu	a5,5(s0)
100066a2:	07a2                	slli	a5,a5,0x8
100066a4:	8fd9                	or	a5,a5,a4
100066a6:	7ff7f793          	andi	a5,a5,2047
100066aa:	e0078793          	addi	a5,a5,-512
100066ae:	0017b793          	seqz	a5,a5
100066b2:	0786                	slli	a5,a5,0x1
100066b4:	004ac703          	lbu	a4,4(s5)
100066b8:	9b75                	andi	a4,a4,-3
100066ba:	8fd9                	or	a5,a5,a4
100066bc:	00fa8223          	sb	a5,4(s5)
100066c0:	20004537          	lui	a0,0x20004
100066c4:	e9050513          	addi	a0,a0,-368 # 20003e90 <_vendord_itf>
100066c8:	40aa8533          	sub	a0,s5,a0
100066cc:	8509                	srai	a0,a0,0x2
100066ce:	08b527b7          	lui	a5,0x8b52
100066d2:	d9b78793          	addi	a5,a5,-613 # 8b51d9b <HeapSize+0x8b5159b>
100066d6:	02f50533          	mul	a0,a0,a5
100066da:	0ff57513          	zext.b	a0,a0
100066de:	cf7ff0ef          	jal	100063d4 <tud_vendor_n_write_flush>
100066e2:	b795                	j	10006646 <vendord_open+0xd2>
100066e4:	0e800613          	li	a2,232
100066e8:	100095b7          	lui	a1,0x10009
100066ec:	95c58593          	addi	a1,a1,-1700 # 1000895c <__func__.0>
100066f0:	10008537          	lui	a0,0x10008
100066f4:	34850513          	addi	a0,a0,840 # 10008348 <__EH_FRAME_BEGIN__+0xba8>
100066f8:	a5afd0ef          	jal	10003952 <__wrap_printf>
100066fc:	9002                	ebreak
100066fe:	4501                	li	a0,0
10006700:	4a92                	lw	s5,4(sp)
10006702:	b54d                	j	100065a4 <vendord_open+0x30>
10006704:	413405b3          	sub	a1,s0,s3
10006708:	0805c533          	zext.h	a0,a1
1000670c:	4a92                	lw	s5,4(sp)
1000670e:	bd59                	j	100065a4 <vendord_open+0x30>
10006710:	4501                	li	a0,0
10006712:	8082                	ret

10006714 <vendord_xfer_cb>:
10006714:	1101                	addi	sp,sp,-32
10006716:	ce06                	sw	ra,28(sp)
10006718:	cc22                	sw	s0,24(sp)
1000671a:	ca26                	sw	s1,20(sp)
1000671c:	c84a                	sw	s2,16(sp)
1000671e:	c64e                	sw	s3,12(sp)
10006720:	892a                	mv	s2,a0
10006722:	89b6                	mv	s3,a3
10006724:	4401                	li	s0,0
10006726:	cc19                	beqz	s0,10006744 <vendord_xfer_cb+0x30>
10006728:	e079                	bnez	s0,100067ee <vendord_xfer_cb+0xda>
1000672a:	c452                	sw	s4,8(sp)
1000672c:	8a22                	mv	s4,s0
1000672e:	1294c783          	lbu	a5,297(s1)
10006732:	04b78163          	beq	a5,a1,10006774 <vendord_xfer_cb+0x60>
10006736:	0054c783          	lbu	a5,5(s1)
1000673a:	08b78163          	beq	a5,a1,100067bc <vendord_xfer_cb+0xa8>
1000673e:	4505                	li	a0,1
10006740:	4a22                	lw	s4,8(sp)
10006742:	a07d                	j	100067f0 <vendord_xfer_cb+0xdc>
10006744:	208464b3          	sh3add	s1,s0,s0
10006748:	2084e4b3          	sh3add	s1,s1,s0
1000674c:	2084a4b3          	sh1add	s1,s1,s0
10006750:	200047b7          	lui	a5,0x20004
10006754:	e9078793          	addi	a5,a5,-368 # 20003e90 <_vendord_itf>
10006758:	20f4c4b3          	sh2add	s1,s1,a5
1000675c:	1294c783          	lbu	a5,297(s1)
10006760:	fcb784e3          	beq	a5,a1,10006728 <vendord_xfer_cb+0x14>
10006764:	0054c783          	lbu	a5,5(s1)
10006768:	fcb780e3          	beq	a5,a1,10006728 <vendord_xfer_cb+0x14>
1000676c:	0405                	addi	s0,s0,1
1000676e:	0ff47413          	zext.b	s0,s0
10006772:	bf55                	j	10006726 <vendord_xfer_cb+0x12>
10006774:	1344d783          	lhu	a5,308(s1)
10006778:	eb8d                	bnez	a5,100067aa <vendord_xfer_cb+0x96>
1000677a:	00000793          	li	a5,0
1000677e:	cf99                	beqz	a5,1000679c <vendord_xfer_cb+0x88>
10006780:	007a1793          	slli	a5,s4,0x7
10006784:	0809c633          	zext.h	a2,s3
10006788:	200045b7          	lui	a1,0x20004
1000678c:	e1058593          	addi	a1,a1,-496 # 20003e10 <_vendord_epbuf>
10006790:	95be                	add	a1,a1,a5
10006792:	8522                	mv	a0,s0
10006794:	00000097          	auipc	ra,0x0
10006798:	000000e7          	jalr	zero # 0 <next_slot_number-0x5>
1000679c:	12848593          	addi	a1,s1,296
100067a0:	854a                	mv	a0,s2
100067a2:	2965                	jal	10006c5a <tu_edpt_stream_read_xfer>
100067a4:	4505                	li	a0,1
100067a6:	4a22                	lw	s4,8(sp)
100067a8:	a0a1                	j	100067f0 <vendord_xfer_cb+0xdc>
100067aa:	0809c633          	zext.h	a2,s3
100067ae:	12c4a583          	lw	a1,300(s1)
100067b2:	13048513          	addi	a0,s1,304
100067b6:	3f5000ef          	jal	100073aa <tu_fifo_write_n>
100067ba:	b7c1                	j	1000677a <vendord_xfer_cb+0x66>
100067bc:	00000793          	li	a5,0
100067c0:	cb81                	beqz	a5,100067d0 <vendord_xfer_cb+0xbc>
100067c2:	0809c5b3          	zext.h	a1,s3
100067c6:	8522                	mv	a0,s0
100067c8:	00000097          	auipc	ra,0x0
100067cc:	000000e7          	jalr	zero # 0 <next_slot_number-0x5>
100067d0:	0491                	addi	s1,s1,4
100067d2:	85a6                	mv	a1,s1
100067d4:	854a                	mv	a0,s2
100067d6:	26e5                	jal	10006bbe <tu_edpt_stream_write_xfer>
100067d8:	c501                	beqz	a0,100067e0 <vendord_xfer_cb+0xcc>
100067da:	4505                	li	a0,1
100067dc:	4a22                	lw	s4,8(sp)
100067de:	a809                	j	100067f0 <vendord_xfer_cb+0xdc>
100067e0:	864e                	mv	a2,s3
100067e2:	85a6                	mv	a1,s1
100067e4:	854a                	mv	a0,s2
100067e6:	2e1d                	jal	10006b1c <tu_edpt_stream_write_zlp_if_needed>
100067e8:	4505                	li	a0,1
100067ea:	4a22                	lw	s4,8(sp)
100067ec:	a011                	j	100067f0 <vendord_xfer_cb+0xdc>
100067ee:	4501                	li	a0,0
100067f0:	40f2                	lw	ra,28(sp)
100067f2:	4462                	lw	s0,24(sp)
100067f4:	44d2                	lw	s1,20(sp)
100067f6:	4942                	lw	s2,16(sp)
100067f8:	49b2                	lw	s3,12(sp)
100067fa:	6105                	addi	sp,sp,32
100067fc:	8082                	ret

100067fe <tusb_rhport_init>:
100067fe:	1101                	addi	sp,sp,-32
10006800:	ce06                	sw	ra,28(sp)
10006802:	cc22                	sw	s0,24(sp)
10006804:	c18d                	beqz	a1,10006826 <tusb_rhport_init+0x28>
10006806:	4785                	li	a5,1
10006808:	04a7ea63          	bltu	a5,a0,1000685c <tusb_rhport_init+0x5e>
1000680c:	4198                	lw	a4,0(a1)
1000680e:	c739                	beqz	a4,1000685c <tusb_rhport_init+0x5e>
10006810:	87b18793          	addi	a5,gp,-1925 # 200045f0 <_tusb_rhport_role>
10006814:	20f547b3          	sh2add	a5,a0,a5
10006818:	c398                	sw	a4,0(a5)
1000681a:	4785                	li	a5,1
1000681c:	06f70363          	beq	a4,a5,10006882 <tusb_rhport_init+0x84>
10006820:	4785                	li	a5,1
10006822:	843e                	mv	s0,a5
10006824:	a891                	j	10006878 <tusb_rhport_init+0x7a>
10006826:	4785                	li	a5,1
10006828:	c43e                	sw	a5,8(sp)
1000682a:	c602                	sw	zero,12(sp)
1000682c:	002c                	addi	a1,sp,8
1000682e:	4501                	li	a0,0
10006830:	a96fe0ef          	jal	10004ac6 <tud_rhport_init>
10006834:	842a                	mv	s0,a0
10006836:	c509                	beqz	a0,10006840 <tusb_rhport_init+0x42>
10006838:	4705                	li	a4,1
1000683a:	86e1ada3          	sw	a4,-1925(gp) # 200045f0 <_tusb_rhport_role>
1000683e:	a82d                	j	10006878 <tusb_rhport_init+0x7a>
10006840:	04700613          	li	a2,71
10006844:	100095b7          	lui	a1,0x10009
10006848:	9dc58593          	addi	a1,a1,-1572 # 100089dc <__func__.5>
1000684c:	10008537          	lui	a0,0x10008
10006850:	34850513          	addi	a0,a0,840 # 10008348 <__EH_FRAME_BEGIN__+0xba8>
10006854:	8fefd0ef          	jal	10003952 <__wrap_printf>
10006858:	9002                	ebreak
1000685a:	a839                	j	10006878 <tusb_rhport_init+0x7a>
1000685c:	05a00613          	li	a2,90
10006860:	100095b7          	lui	a1,0x10009
10006864:	9dc58593          	addi	a1,a1,-1572 # 100089dc <__func__.5>
10006868:	10008537          	lui	a0,0x10008
1000686c:	34850513          	addi	a0,a0,840 # 10008348 <__EH_FRAME_BEGIN__+0xba8>
10006870:	8e2fd0ef          	jal	10003952 <__wrap_printf>
10006874:	9002                	ebreak
10006876:	4401                	li	s0,0
10006878:	8522                	mv	a0,s0
1000687a:	40f2                	lw	ra,28(sp)
1000687c:	4462                	lw	s0,24(sp)
1000687e:	6105                	addi	sp,sp,32
10006880:	8082                	ret
10006882:	a44fe0ef          	jal	10004ac6 <tud_rhport_init>
10006886:	842a                	mv	s0,a0
10006888:	f965                	bnez	a0,10006878 <tusb_rhport_init+0x7a>
1000688a:	05f00613          	li	a2,95
1000688e:	100095b7          	lui	a1,0x10009
10006892:	9dc58593          	addi	a1,a1,-1572 # 100089dc <__func__.5>
10006896:	10008537          	lui	a0,0x10008
1000689a:	34850513          	addi	a0,a0,840 # 10008348 <__EH_FRAME_BEGIN__+0xba8>
1000689e:	8b4fd0ef          	jal	10003952 <__wrap_printf>
100068a2:	9002                	ebreak
100068a4:	bfd1                	j	10006878 <tusb_rhport_init+0x7a>

100068a6 <tu_edpt_claim>:
100068a6:	1141                	addi	sp,sp,-16
100068a8:	c606                	sw	ra,12(sp)
100068aa:	c422                	sw	s0,8(sp)
100068ac:	842a                	mv	s0,a0
100068ae:	00054783          	lbu	a5,0(a0)
100068b2:	0017f513          	andi	a0,a5,1
100068b6:	e125                	bnez	a0,10006916 <tu_edpt_claim+0x70>
100068b8:	c226                	sw	s1,4(sp)
100068ba:	c04a                	sw	s2,0(sp)
100068bc:	872e                	mv	a4,a1
100068be:	892e                	mv	s2,a1
100068c0:	00044783          	lbu	a5,0(s0)
100068c4:	4827d793          	bexti	a5,a5,0x2
100068c8:	84be                	mv	s1,a5
100068ca:	c781                	beqz	a5,100068d2 <tu_edpt_claim+0x2c>
100068cc:	4492                	lw	s1,4(sp)
100068ce:	4902                	lw	s2,0(sp)
100068d0:	a0a1                	j	10006918 <tu_edpt_claim+0x72>
100068d2:	55fd                	li	a1,-1
100068d4:	853a                	mv	a0,a4
100068d6:	0fffa097          	auipc	ra,0xfffa
100068da:	868080e7          	jalr	-1944(ra) # 2000013e <mutex_enter_timeout_ms>
100068de:	00044783          	lbu	a5,0(s0)
100068e2:	8b85                	andi	a5,a5,1
100068e4:	ef91                	bnez	a5,10006900 <tu_edpt_claim+0x5a>
100068e6:	00044703          	lbu	a4,0(s0)
100068ea:	48275713          	bexti	a4,a4,0x2
100068ee:	e315                	bnez	a4,10006912 <tu_edpt_claim+0x6c>
100068f0:	00044783          	lbu	a5,0(s0)
100068f4:	0047e793          	ori	a5,a5,4
100068f8:	00f40023          	sb	a5,0(s0)
100068fc:	4785                	li	a5,1
100068fe:	84be                	mv	s1,a5
10006900:	854a                	mv	a0,s2
10006902:	0fffa097          	auipc	ra,0xfffa
10006906:	886080e7          	jalr	-1914(ra) # 20000188 <mutex_exit>
1000690a:	8526                	mv	a0,s1
1000690c:	4492                	lw	s1,4(sp)
1000690e:	4902                	lw	s2,0(sp)
10006910:	a021                	j	10006918 <tu_edpt_claim+0x72>
10006912:	84be                	mv	s1,a5
10006914:	b7f5                	j	10006900 <tu_edpt_claim+0x5a>
10006916:	4501                	li	a0,0
10006918:	40b2                	lw	ra,12(sp)
1000691a:	4422                	lw	s0,8(sp)
1000691c:	0141                	addi	sp,sp,16
1000691e:	8082                	ret

10006920 <tu_edpt_release>:
10006920:	1141                	addi	sp,sp,-16
10006922:	c606                	sw	ra,12(sp)
10006924:	c422                	sw	s0,8(sp)
10006926:	c226                	sw	s1,4(sp)
10006928:	c04a                	sw	s2,0(sp)
1000692a:	84aa                	mv	s1,a0
1000692c:	852e                	mv	a0,a1
1000692e:	892e                	mv	s2,a1
10006930:	55fd                	li	a1,-1
10006932:	0fffa097          	auipc	ra,0xfffa
10006936:	80c080e7          	jalr	-2036(ra) # 2000013e <mutex_enter_timeout_ms>
1000693a:	0004c403          	lbu	s0,0(s1)
1000693e:	48245413          	bexti	s0,s0,0x2
10006942:	ec09                	bnez	s0,1000695c <tu_edpt_release+0x3c>
10006944:	854a                	mv	a0,s2
10006946:	0fffa097          	auipc	ra,0xfffa
1000694a:	842080e7          	jalr	-1982(ra) # 20000188 <mutex_exit>
1000694e:	8522                	mv	a0,s0
10006950:	40b2                	lw	ra,12(sp)
10006952:	4422                	lw	s0,8(sp)
10006954:	4492                	lw	s1,4(sp)
10006956:	4902                	lw	s2,0(sp)
10006958:	0141                	addi	sp,sp,16
1000695a:	8082                	ret
1000695c:	0004c783          	lbu	a5,0(s1)
10006960:	8b85                	andi	a5,a5,1
10006962:	e799                	bnez	a5,10006970 <tu_edpt_release+0x50>
10006964:	0004c783          	lbu	a5,0(s1)
10006968:	9bed                	andi	a5,a5,-5
1000696a:	00f48023          	sb	a5,0(s1)
1000696e:	bfd9                	j	10006944 <tu_edpt_release+0x24>
10006970:	4401                	li	s0,0
10006972:	bfc9                	j	10006944 <tu_edpt_release+0x24>

10006974 <tu_edpt_validate>:
10006974:	1141                	addi	sp,sp,-16
10006976:	c606                	sw	ra,12(sp)
10006978:	00454703          	lbu	a4,4(a0)
1000697c:	00554783          	lbu	a5,5(a0)
10006980:	07a2                	slli	a5,a5,0x8
10006982:	8fd9                	or	a5,a5,a4
10006984:	7ff7f793          	andi	a5,a5,2047
10006988:	00354703          	lbu	a4,3(a0)
1000698c:	8b0d                	andi	a4,a4,3
1000698e:	4689                	li	a3,2
10006990:	04d70363          	beq	a4,a3,100069d6 <tu_edpt_validate+0x62>
10006994:	468d                	li	a3,3
10006996:	08d70d63          	beq	a4,a3,10006a30 <tu_edpt_validate+0xbc>
1000699a:	4685                	li	a3,1
1000699c:	0cd71563          	bne	a4,a3,10006a66 <tu_edpt_validate+0xf2>
100069a0:	4709                	li	a4,2
100069a2:	00e58863          	beq	a1,a4,100069b2 <tu_edpt_validate+0x3e>
100069a6:	3ff00713          	li	a4,1023
100069aa:	00f76763          	bltu	a4,a5,100069b8 <tu_edpt_validate+0x44>
100069ae:	4505                	li	a0,1
100069b0:	a865                	j	10006a68 <tu_edpt_validate+0xf4>
100069b2:	40000713          	li	a4,1024
100069b6:	bfd5                	j	100069aa <tu_edpt_validate+0x36>
100069b8:	0d100613          	li	a2,209
100069bc:	100095b7          	lui	a1,0x10009
100069c0:	9c858593          	addi	a1,a1,-1592 # 100089c8 <__func__.4>
100069c4:	10008537          	lui	a0,0x10008
100069c8:	34850513          	addi	a0,a0,840 # 10008348 <__EH_FRAME_BEGIN__+0xba8>
100069cc:	f87fc0ef          	jal	10003952 <__wrap_printf>
100069d0:	9002                	ebreak
100069d2:	4501                	li	a0,0
100069d4:	a851                	j	10006a68 <tu_edpt_validate+0xf4>
100069d6:	4709                	li	a4,2
100069d8:	00e58863          	beq	a1,a4,100069e8 <tu_edpt_validate+0x74>
100069dc:	04000713          	li	a4,64
100069e0:	02f76963          	bltu	a4,a5,10006a12 <tu_edpt_validate+0x9e>
100069e4:	4505                	li	a0,1
100069e6:	a049                	j	10006a68 <tu_edpt_validate+0xf4>
100069e8:	20000713          	li	a4,512
100069ec:	00e79463          	bne	a5,a4,100069f4 <tu_edpt_validate+0x80>
100069f0:	4505                	li	a0,1
100069f2:	a89d                	j	10006a68 <tu_edpt_validate+0xf4>
100069f4:	0d800613          	li	a2,216
100069f8:	100095b7          	lui	a1,0x10009
100069fc:	9c858593          	addi	a1,a1,-1592 # 100089c8 <__func__.4>
10006a00:	10008537          	lui	a0,0x10008
10006a04:	34850513          	addi	a0,a0,840 # 10008348 <__EH_FRAME_BEGIN__+0xba8>
10006a08:	f4bfc0ef          	jal	10003952 <__wrap_printf>
10006a0c:	9002                	ebreak
10006a0e:	4501                	li	a0,0
10006a10:	a8a1                	j	10006a68 <tu_edpt_validate+0xf4>
10006a12:	0db00613          	li	a2,219
10006a16:	100095b7          	lui	a1,0x10009
10006a1a:	9c858593          	addi	a1,a1,-1592 # 100089c8 <__func__.4>
10006a1e:	10008537          	lui	a0,0x10008
10006a22:	34850513          	addi	a0,a0,840 # 10008348 <__EH_FRAME_BEGIN__+0xba8>
10006a26:	f2dfc0ef          	jal	10003952 <__wrap_printf>
10006a2a:	9002                	ebreak
10006a2c:	4501                	li	a0,0
10006a2e:	a82d                	j	10006a68 <tu_edpt_validate+0xf4>
10006a30:	4709                	li	a4,2
10006a32:	00e58863          	beq	a1,a4,10006a42 <tu_edpt_validate+0xce>
10006a36:	04000713          	li	a4,64
10006a3a:	00f76763          	bltu	a4,a5,10006a48 <tu_edpt_validate+0xd4>
10006a3e:	4505                	li	a0,1
10006a40:	a025                	j	10006a68 <tu_edpt_validate+0xf4>
10006a42:	40000713          	li	a4,1024
10006a46:	bfd5                	j	10006a3a <tu_edpt_validate+0xc6>
10006a48:	0e100613          	li	a2,225
10006a4c:	100095b7          	lui	a1,0x10009
10006a50:	9c858593          	addi	a1,a1,-1592 # 100089c8 <__func__.4>
10006a54:	10008537          	lui	a0,0x10008
10006a58:	34850513          	addi	a0,a0,840 # 10008348 <__EH_FRAME_BEGIN__+0xba8>
10006a5c:	ef7fc0ef          	jal	10003952 <__wrap_printf>
10006a60:	9002                	ebreak
10006a62:	4501                	li	a0,0
10006a64:	a011                	j	10006a68 <tu_edpt_validate+0xf4>
10006a66:	4501                	li	a0,0
10006a68:	40b2                	lw	ra,12(sp)
10006a6a:	0141                	addi	sp,sp,16
10006a6c:	8082                	ret

10006a6e <tu_edpt_bind_driver>:
10006a6e:	962e                	add	a2,a2,a1
10006a70:	a021                	j	10006a78 <tu_edpt_bind_driver+0xa>
10006a72:	0005c783          	lbu	a5,0(a1)
10006a76:	95be                	add	a1,a1,a5
10006a78:	02c5f263          	bgeu	a1,a2,10006a9c <tu_edpt_bind_driver+0x2e>
10006a7c:	0015c703          	lbu	a4,1(a1)
10006a80:	4795                	li	a5,5
10006a82:	fef718e3          	bne	a4,a5,10006a72 <tu_edpt_bind_driver+0x4>
10006a86:	0025c703          	lbu	a4,2(a1)
10006a8a:	07f77793          	andi	a5,a4,127
10006a8e:	20a7a7b3          	sh1add	a5,a5,a0
10006a92:	831d                	srli	a4,a4,0x7
10006a94:	97ba                	add	a5,a5,a4
10006a96:	00d78023          	sb	a3,0(a5)
10006a9a:	bfe1                	j	10006a72 <tu_edpt_bind_driver+0x4>
10006a9c:	8082                	ret

10006a9e <tu_edpt_stream_init>:
10006a9e:	1101                	addi	sp,sp,-32
10006aa0:	ce06                	sw	ra,28(sp)
10006aa2:	cc22                	sw	s0,24(sp)
10006aa4:	ca26                	sw	s1,20(sp)
10006aa6:	c84a                	sw	s2,16(sp)
10006aa8:	c64e                	sw	s3,12(sp)
10006aaa:	c452                	sw	s4,8(sp)
10006aac:	c256                	sw	s5,4(sp)
10006aae:	84aa                	mv	s1,a0
10006ab0:	8ab2                	mv	s5,a2
10006ab2:	843a                	mv	s0,a4
10006ab4:	893e                	mv	s2,a5
10006ab6:	89c2                	mv	s3,a6
10006ab8:	8a46                	mv	s4,a7
10006aba:	8985                	andi	a1,a1,1
10006abc:	00054783          	lbu	a5,0(a0)
10006ac0:	9bf9                	andi	a5,a5,-2
10006ac2:	8fcd                	or	a5,a5,a1
10006ac4:	00f50023          	sb	a5,0(a0)
10006ac8:	8736                	mv	a4,a3
10006aca:	4685                	li	a3,1
10006acc:	864a                	mv	a2,s2
10006ace:	85a2                	mv	a1,s0
10006ad0:	0521                	addi	a0,a0,8
10006ad2:	2dad                	jal	1000714c <tu_fifo_config>
10006ad4:	00803433          	snez	s0,s0
10006ad8:	01203933          	snez	s2,s2
10006adc:	01247433          	and	s0,s0,s2
10006ae0:	ec19                	bnez	s0,10006afe <tu_edpt_stream_init+0x60>
10006ae2:	0134a223          	sw	s3,4(s1)
10006ae6:	01449123          	sh	s4,2(s1)
10006aea:	4505                	li	a0,1
10006aec:	40f2                	lw	ra,28(sp)
10006aee:	4462                	lw	s0,24(sp)
10006af0:	44d2                	lw	s1,20(sp)
10006af2:	4942                	lw	s2,16(sp)
10006af4:	49b2                	lw	s3,12(sp)
10006af6:	4a22                	lw	s4,8(sp)
10006af8:	4a92                	lw	s5,4(sp)
10006afa:	6105                	addi	sp,sp,32
10006afc:	8082                	ret
10006afe:	01c48413          	addi	s0,s1,28
10006b02:	8522                	mv	a0,s0
10006b04:	d42fa0ef          	jal	10001046 <mutex_init>
10006b08:	87d6                	mv	a5,s5
10006b0a:	000a8463          	beqz	s5,10006b12 <tu_edpt_stream_init+0x74>
10006b0e:	87a2                	mv	a5,s0
10006b10:	4401                	li	s0,0
10006b12:	c8dc                	sw	a5,20(s1)
10006b14:	cc80                	sw	s0,24(s1)
10006b16:	b7f1                	j	10006ae2 <tu_edpt_stream_init+0x44>

10006b18 <tu_edpt_stream_deinit>:
10006b18:	4505                	li	a0,1
10006b1a:	8082                	ret

10006b1c <tu_edpt_stream_write_zlp_if_needed>:
10006b1c:	1101                	addi	sp,sp,-32
10006b1e:	ce06                	sw	ra,28(sp)
10006b20:	cc22                	sw	s0,24(sp)
10006b22:	ca26                	sw	s1,20(sp)
10006b24:	c84a                	sw	s2,16(sp)
10006b26:	c64e                	sw	s3,12(sp)
10006b28:	89aa                	mv	s3,a0
10006b2a:	842e                	mv	s0,a1
10006b2c:	84b2                	mv	s1,a2
10006b2e:	0005c783          	lbu	a5,0(a1)
10006b32:	8b89                	andi	a5,a5,2
10006b34:	c39d                	beqz	a5,10006b5a <tu_edpt_stream_write_zlp_if_needed+0x3e>
10006b36:	20000793          	li	a5,512
10006b3a:	893e                	mv	s2,a5
10006b3c:	00840513          	addi	a0,s0,8
10006b40:	2d5d                	jal	100071f6 <tu_fifo_count>
10006b42:	e135                	bnez	a0,10006ba6 <tu_edpt_stream_write_zlp_if_needed+0x8a>
10006b44:	c8ad                	beqz	s1,10006bb6 <tu_edpt_stream_write_zlp_if_needed+0x9a>
10006b46:	fff90793          	addi	a5,s2,-1
10006b4a:	8fe5                	and	a5,a5,s1
10006b4c:	e7bd                	bnez	a5,10006bba <tu_edpt_stream_write_zlp_if_needed+0x9e>
10006b4e:	00044783          	lbu	a5,0(s0)
10006b52:	8b85                	andi	a5,a5,1
10006b54:	c799                	beqz	a5,10006b62 <tu_edpt_stream_write_zlp_if_needed+0x46>
10006b56:	4501                	li	a0,0
10006b58:	a881                	j	10006ba8 <tu_edpt_stream_write_zlp_if_needed+0x8c>
10006b5a:	04000793          	li	a5,64
10006b5e:	893e                	mv	s2,a5
10006b60:	bff1                	j	10006b3c <tu_edpt_stream_write_zlp_if_needed+0x20>
10006b62:	00144583          	lbu	a1,1(s0)
10006b66:	854e                	mv	a0,s3
10006b68:	9d2fe0ef          	jal	10004d3a <usbd_edpt_claim>
10006b6c:	d56d                	beqz	a0,10006b56 <tu_edpt_stream_write_zlp_if_needed+0x3a>
10006b6e:	00044783          	lbu	a5,0(s0)
10006b72:	8b85                	andi	a5,a5,1
10006b74:	c385                	beqz	a5,10006b94 <tu_edpt_stream_write_zlp_if_needed+0x78>
10006b76:	16a00613          	li	a2,362
10006b7a:	100095b7          	lui	a1,0x10009
10006b7e:	9a458593          	addi	a1,a1,-1628 # 100089a4 <__func__.3>
10006b82:	10008537          	lui	a0,0x10008
10006b86:	34850513          	addi	a0,a0,840 # 10008348 <__EH_FRAME_BEGIN__+0xba8>
10006b8a:	dc9fc0ef          	jal	10003952 <__wrap_printf>
10006b8e:	9002                	ebreak
10006b90:	4501                	li	a0,0
10006b92:	a819                	j	10006ba8 <tu_edpt_stream_write_zlp_if_needed+0x8c>
10006b94:	4681                	li	a3,0
10006b96:	4601                	li	a2,0
10006b98:	00144583          	lbu	a1,1(s0)
10006b9c:	854e                	mv	a0,s3
10006b9e:	9f4fe0ef          	jal	10004d92 <usbd_edpt_xfer>
10006ba2:	e119                	bnez	a0,10006ba8 <tu_edpt_stream_write_zlp_if_needed+0x8c>
10006ba4:	bfc9                	j	10006b76 <tu_edpt_stream_write_zlp_if_needed+0x5a>
10006ba6:	4501                	li	a0,0
10006ba8:	40f2                	lw	ra,28(sp)
10006baa:	4462                	lw	s0,24(sp)
10006bac:	44d2                	lw	s1,20(sp)
10006bae:	4942                	lw	s2,16(sp)
10006bb0:	49b2                	lw	s3,12(sp)
10006bb2:	6105                	addi	sp,sp,32
10006bb4:	8082                	ret
10006bb6:	4501                	li	a0,0
10006bb8:	bfc5                	j	10006ba8 <tu_edpt_stream_write_zlp_if_needed+0x8c>
10006bba:	4501                	li	a0,0
10006bbc:	b7f5                	j	10006ba8 <tu_edpt_stream_write_zlp_if_needed+0x8c>

10006bbe <tu_edpt_stream_write_xfer>:
10006bbe:	1141                	addi	sp,sp,-16
10006bc0:	c606                	sw	ra,12(sp)
10006bc2:	c422                	sw	s0,8(sp)
10006bc4:	c226                	sw	s1,4(sp)
10006bc6:	c04a                	sw	s2,0(sp)
10006bc8:	892a                	mv	s2,a0
10006bca:	842e                	mv	s0,a1
10006bcc:	00858793          	addi	a5,a1,8
10006bd0:	84be                	mv	s1,a5
10006bd2:	853e                	mv	a0,a5
10006bd4:	250d                	jal	100071f6 <tu_fifo_count>
10006bd6:	c511                	beqz	a0,10006be2 <tu_edpt_stream_write_xfer+0x24>
10006bd8:	00044783          	lbu	a5,0(s0)
10006bdc:	8b85                	andi	a5,a5,1
10006bde:	cb81                	beqz	a5,10006bee <tu_edpt_stream_write_xfer+0x30>
10006be0:	4501                	li	a0,0
10006be2:	40b2                	lw	ra,12(sp)
10006be4:	4422                	lw	s0,8(sp)
10006be6:	4492                	lw	s1,4(sp)
10006be8:	4902                	lw	s2,0(sp)
10006bea:	0141                	addi	sp,sp,16
10006bec:	8082                	ret
10006bee:	00144583          	lbu	a1,1(s0)
10006bf2:	854a                	mv	a0,s2
10006bf4:	946fe0ef          	jal	10004d3a <usbd_edpt_claim>
10006bf8:	d565                	beqz	a0,10006be0 <tu_edpt_stream_write_xfer+0x22>
10006bfa:	00245603          	lhu	a2,2(s0)
10006bfe:	404c                	lw	a1,4(s0)
10006c00:	8526                	mv	a0,s1
10006c02:	2721                	jal	1000730a <tu_fifo_read_n>
10006c04:	84aa                	mv	s1,a0
10006c06:	cd15                	beqz	a0,10006c42 <tu_edpt_stream_write_xfer+0x84>
10006c08:	00044783          	lbu	a5,0(s0)
10006c0c:	8b85                	andi	a5,a5,1
10006c0e:	c385                	beqz	a5,10006c2e <tu_edpt_stream_write_xfer+0x70>
10006c10:	17800613          	li	a2,376
10006c14:	100095b7          	lui	a1,0x10009
10006c18:	98858593          	addi	a1,a1,-1656 # 10008988 <__func__.2>
10006c1c:	10008537          	lui	a0,0x10008
10006c20:	34850513          	addi	a0,a0,840 # 10008348 <__EH_FRAME_BEGIN__+0xba8>
10006c24:	d2ffc0ef          	jal	10003952 <__wrap_printf>
10006c28:	9002                	ebreak
10006c2a:	4501                	li	a0,0
10006c2c:	bf5d                	j	10006be2 <tu_edpt_stream_write_xfer+0x24>
10006c2e:	86aa                	mv	a3,a0
10006c30:	4050                	lw	a2,4(s0)
10006c32:	00144583          	lbu	a1,1(s0)
10006c36:	854a                	mv	a0,s2
10006c38:	95afe0ef          	jal	10004d92 <usbd_edpt_xfer>
10006c3c:	d971                	beqz	a0,10006c10 <tu_edpt_stream_write_xfer+0x52>
10006c3e:	8526                	mv	a0,s1
10006c40:	b74d                	j	10006be2 <tu_edpt_stream_write_xfer+0x24>
10006c42:	00044783          	lbu	a5,0(s0)
10006c46:	8b85                	andi	a5,a5,1
10006c48:	c399                	beqz	a5,10006c4e <tu_edpt_stream_write_xfer+0x90>
10006c4a:	4501                	li	a0,0
10006c4c:	bf59                	j	10006be2 <tu_edpt_stream_write_xfer+0x24>
10006c4e:	00144583          	lbu	a1,1(s0)
10006c52:	854a                	mv	a0,s2
10006c54:	912fe0ef          	jal	10004d66 <usbd_edpt_release>
10006c58:	bfcd                	j	10006c4a <tu_edpt_stream_write_xfer+0x8c>

10006c5a <tu_edpt_stream_read_xfer>:
10006c5a:	1101                	addi	sp,sp,-32
10006c5c:	ce06                	sw	ra,28(sp)
10006c5e:	cc22                	sw	s0,24(sp)
10006c60:	ca26                	sw	s1,20(sp)
10006c62:	84aa                	mv	s1,a0
10006c64:	842e                	mv	s0,a1
10006c66:	00c5d783          	lhu	a5,12(a1)
10006c6a:	e3b5                	bnez	a5,10006cce <tu_edpt_stream_read_xfer+0x74>
10006c6c:	0005c783          	lbu	a5,0(a1)
10006c70:	8b85                	andi	a5,a5,1
10006c72:	c799                	beqz	a5,10006c80 <tu_edpt_stream_read_xfer+0x26>
10006c74:	4501                	li	a0,0
10006c76:	40f2                	lw	ra,28(sp)
10006c78:	4462                	lw	s0,24(sp)
10006c7a:	44d2                	lw	s1,20(sp)
10006c7c:	6105                	addi	sp,sp,32
10006c7e:	8082                	ret
10006c80:	0015c583          	lbu	a1,1(a1)
10006c84:	8b6fe0ef          	jal	10004d3a <usbd_edpt_claim>
10006c88:	d575                	beqz	a0,10006c74 <tu_edpt_stream_read_xfer+0x1a>
10006c8a:	00245683          	lhu	a3,2(s0)
10006c8e:	00044783          	lbu	a5,0(s0)
10006c92:	8b85                	andi	a5,a5,1
10006c94:	c385                	beqz	a5,10006cb4 <tu_edpt_stream_read_xfer+0x5a>
10006c96:	1b200613          	li	a2,434
10006c9a:	100095b7          	lui	a1,0x10009
10006c9e:	96c58593          	addi	a1,a1,-1684 # 1000896c <__func__.0>
10006ca2:	10008537          	lui	a0,0x10008
10006ca6:	34850513          	addi	a0,a0,840 # 10008348 <__EH_FRAME_BEGIN__+0xba8>
10006caa:	ca9fc0ef          	jal	10003952 <__wrap_printf>
10006cae:	9002                	ebreak
10006cb0:	4501                	li	a0,0
10006cb2:	b7d1                	j	10006c76 <tu_edpt_stream_read_xfer+0x1c>
10006cb4:	00144583          	lbu	a1,1(s0)
10006cb8:	ca89                	beqz	a3,10006cca <tu_edpt_stream_read_xfer+0x70>
10006cba:	4050                	lw	a2,4(s0)
10006cbc:	8526                	mv	a0,s1
10006cbe:	8d4fe0ef          	jal	10004d92 <usbd_edpt_xfer>
10006cc2:	d971                	beqz	a0,10006c96 <tu_edpt_stream_read_xfer+0x3c>
10006cc4:	00245503          	lhu	a0,2(s0)
10006cc8:	b77d                	j	10006c76 <tu_edpt_stream_read_xfer+0x1c>
10006cca:	4601                	li	a2,0
10006ccc:	bfc5                	j	10006cbc <tu_edpt_stream_read_xfer+0x62>
10006cce:	c84a                	sw	s2,16(sp)
10006cd0:	c64e                	sw	s3,12(sp)
10006cd2:	0005c783          	lbu	a5,0(a1)
10006cd6:	8b89                	andi	a5,a5,2
10006cd8:	c39d                	beqz	a5,10006cfe <tu_edpt_stream_read_xfer+0xa4>
10006cda:	20000793          	li	a5,512
10006cde:	893e                	mv	s2,a5
10006ce0:	00840793          	addi	a5,s0,8
10006ce4:	89be                	mv	s3,a5
10006ce6:	853e                	mv	a0,a5
10006ce8:	2371                	jal	10007274 <tu_fifo_remaining>
10006cea:	0b256563          	bltu	a0,s2,10006d94 <tu_edpt_stream_read_xfer+0x13a>
10006cee:	00044783          	lbu	a5,0(s0)
10006cf2:	8b85                	andi	a5,a5,1
10006cf4:	cb89                	beqz	a5,10006d06 <tu_edpt_stream_read_xfer+0xac>
10006cf6:	4501                	li	a0,0
10006cf8:	4942                	lw	s2,16(sp)
10006cfa:	49b2                	lw	s3,12(sp)
10006cfc:	bfad                	j	10006c76 <tu_edpt_stream_read_xfer+0x1c>
10006cfe:	04000793          	li	a5,64
10006d02:	893e                	mv	s2,a5
10006d04:	bff1                	j	10006ce0 <tu_edpt_stream_read_xfer+0x86>
10006d06:	00144583          	lbu	a1,1(s0)
10006d0a:	8526                	mv	a0,s1
10006d0c:	82efe0ef          	jal	10004d3a <usbd_edpt_claim>
10006d10:	d17d                	beqz	a0,10006cf6 <tu_edpt_stream_read_xfer+0x9c>
10006d12:	854e                	mv	a0,s3
10006d14:	2385                	jal	10007274 <tu_fifo_remaining>
10006d16:	07256163          	bltu	a0,s2,10006d78 <tu_edpt_stream_read_xfer+0x11e>
10006d1a:	412007b3          	neg	a5,s2
10006d1e:	0807c7b3          	zext.h	a5,a5
10006d22:	00245703          	lhu	a4,2(s0)
10006d26:	8fe9                	and	a5,a5,a0
10006d28:	0ae7d7b3          	minu	a5,a5,a4
10006d2c:	893e                	mv	s2,a5
10006d2e:	00044783          	lbu	a5,0(s0)
10006d32:	8b85                	andi	a5,a5,1
10006d34:	c395                	beqz	a5,10006d58 <tu_edpt_stream_read_xfer+0xfe>
10006d36:	1c700613          	li	a2,455
10006d3a:	100095b7          	lui	a1,0x10009
10006d3e:	96c58593          	addi	a1,a1,-1684 # 1000896c <__func__.0>
10006d42:	10008537          	lui	a0,0x10008
10006d46:	34850513          	addi	a0,a0,840 # 10008348 <__EH_FRAME_BEGIN__+0xba8>
10006d4a:	c09fc0ef          	jal	10003952 <__wrap_printf>
10006d4e:	9002                	ebreak
10006d50:	4501                	li	a0,0
10006d52:	4942                	lw	s2,16(sp)
10006d54:	49b2                	lw	s3,12(sp)
10006d56:	b705                	j	10006c76 <tu_edpt_stream_read_xfer+0x1c>
10006d58:	00144583          	lbu	a1,1(s0)
10006d5c:	00090c63          	beqz	s2,10006d74 <tu_edpt_stream_read_xfer+0x11a>
10006d60:	4050                	lw	a2,4(s0)
10006d62:	86ca                	mv	a3,s2
10006d64:	8526                	mv	a0,s1
10006d66:	82cfe0ef          	jal	10004d92 <usbd_edpt_xfer>
10006d6a:	d571                	beqz	a0,10006d36 <tu_edpt_stream_read_xfer+0xdc>
10006d6c:	854a                	mv	a0,s2
10006d6e:	4942                	lw	s2,16(sp)
10006d70:	49b2                	lw	s3,12(sp)
10006d72:	b711                	j	10006c76 <tu_edpt_stream_read_xfer+0x1c>
10006d74:	4601                	li	a2,0
10006d76:	b7f5                	j	10006d62 <tu_edpt_stream_read_xfer+0x108>
10006d78:	00044783          	lbu	a5,0(s0)
10006d7c:	8b85                	andi	a5,a5,1
10006d7e:	c789                	beqz	a5,10006d88 <tu_edpt_stream_read_xfer+0x12e>
10006d80:	4501                	li	a0,0
10006d82:	4942                	lw	s2,16(sp)
10006d84:	49b2                	lw	s3,12(sp)
10006d86:	bdc5                	j	10006c76 <tu_edpt_stream_read_xfer+0x1c>
10006d88:	00144583          	lbu	a1,1(s0)
10006d8c:	8526                	mv	a0,s1
10006d8e:	fd9fd0ef          	jal	10004d66 <usbd_edpt_release>
10006d92:	b7fd                	j	10006d80 <tu_edpt_stream_read_xfer+0x126>
10006d94:	4501                	li	a0,0
10006d96:	4942                	lw	s2,16(sp)
10006d98:	49b2                	lw	s3,12(sp)
10006d9a:	bdf1                	j	10006c76 <tu_edpt_stream_read_xfer+0x1c>

10006d9c <advance_index>:
10006d9c:	87aa                	mv	a5,a0
10006d9e:	962e                	add	a2,a2,a1
10006da0:	08064533          	zext.h	a0,a2
10006da4:	00b56663          	bltu	a0,a1,10006db0 <advance_index+0x14>
10006da8:	00179713          	slli	a4,a5,0x1
10006dac:	00e54863          	blt	a0,a4,10006dbc <advance_index+0x20>
10006db0:	0786                	slli	a5,a5,0x1
10006db2:	0807c7b3          	zext.h	a5,a5
10006db6:	8d1d                	sub	a0,a0,a5
10006db8:	08054533          	zext.h	a0,a0
10006dbc:	8082                	ret

10006dbe <_tu_fifo_peek>:
10006dbe:	882a                	mv	a6,a0
10006dc0:	852e                	mv	a0,a1
10006dc2:	00485783          	lhu	a5,4(a6)
10006dc6:	02d66363          	bltu	a2,a3,10006dec <_tu_fifo_peek+0x2e>
10006dca:	40d60733          	sub	a4,a2,a3
10006dce:	08074733          	zext.h	a4,a4
10006dd2:	cf31                	beqz	a4,10006e2e <_tu_fifo_peek+0x70>
10006dd4:	1141                	addi	sp,sp,-16
10006dd6:	c606                	sw	ra,12(sp)
10006dd8:	02e7fa63          	bgeu	a5,a4,10006e0c <_tu_fifo_peek+0x4e>
10006ddc:	02f66163          	bltu	a2,a5,10006dfe <_tu_fifo_peek+0x40>
10006de0:	8e1d                	sub	a2,a2,a5
10006de2:	080646b3          	zext.h	a3,a2
10006de6:	00d81523          	sh	a3,10(a6)
10006dea:	a00d                	j	10006e0c <_tu_fifo_peek+0x4e>
10006dec:	40d60733          	sub	a4,a2,a3
10006df0:	08074733          	zext.h	a4,a4
10006df4:	20e7a733          	sh1add	a4,a5,a4
10006df8:	08074733          	zext.h	a4,a4
10006dfc:	bfd9                	j	10006dd2 <_tu_fifo_peek+0x14>
10006dfe:	963e                	add	a2,a2,a5
10006e00:	080646b3          	zext.h	a3,a2
10006e04:	b7cd                	j	10006de6 <_tu_fifo_peek+0x28>
10006e06:	8e9d                	sub	a3,a3,a5
10006e08:	0806c6b3          	zext.h	a3,a3
10006e0c:	fef6fde3          	bgeu	a3,a5,10006e06 <_tu_fifo_peek+0x48>
10006e10:	00082583          	lw	a1,0(a6)
10006e14:	00685603          	lhu	a2,6(a6)
10006e18:	67a1                	lui	a5,0x8
10006e1a:	17fd                	addi	a5,a5,-1 # 7fff <HeapSize+0x77ff>
10006e1c:	8e7d                	and	a2,a2,a5
10006e1e:	02c686b3          	mul	a3,a3,a2
10006e22:	95b6                	add	a1,a1,a3
10006e24:	2f25                	jal	1000755c <memcpy>
10006e26:	4505                	li	a0,1
10006e28:	40b2                	lw	ra,12(sp)
10006e2a:	0141                	addi	sp,sp,16
10006e2c:	8082                	ret
10006e2e:	4501                	li	a0,0
10006e30:	8082                	ret

10006e32 <_ff_pull_n>:
10006e32:	1101                	addi	sp,sp,-32
10006e34:	ce06                	sw	ra,28(sp)
10006e36:	cc22                	sw	s0,24(sp)
10006e38:	842a                	mv	s0,a0
10006e3a:	852e                	mv	a0,a1
10006e3c:	00445783          	lhu	a5,4(s0)
10006e40:	40d788b3          	sub	a7,a5,a3
10006e44:	0808c8b3          	zext.h	a7,a7
10006e48:	40f687b3          	sub	a5,a3,a5
10006e4c:	97b2                	add	a5,a5,a2
10006e4e:	0807c7b3          	zext.h	a5,a5
10006e52:	00645803          	lhu	a6,6(s0)
10006e56:	65a1                	lui	a1,0x8
10006e58:	15fd                	addi	a1,a1,-1 # 7fff <HeapSize+0x77ff>
10006e5a:	00b87833          	and	a6,a6,a1
10006e5e:	031805b3          	mul	a1,a6,a7
10006e62:	0805c333          	zext.h	t1,a1
10006e66:	02f807b3          	mul	a5,a6,a5
10006e6a:	400c                	lw	a1,0(s0)
10006e6c:	030686b3          	mul	a3,a3,a6
10006e70:	95b6                	add	a1,a1,a3
10006e72:	ef09                	bnez	a4,10006e8c <_ff_pull_n+0x5a>
10006e74:	ca26                	sw	s1,20(sp)
10006e76:	c64e                	sw	s3,12(sp)
10006e78:	0807c7b3          	zext.h	a5,a5
10006e7c:	89be                	mv	s3,a5
10006e7e:	00c8eb63          	bltu	a7,a2,10006e94 <_ff_pull_n+0x62>
10006e82:	03060633          	mul	a2,a2,a6
10006e86:	2dd9                	jal	1000755c <memcpy>
10006e88:	44d2                	lw	s1,20(sp)
10006e8a:	49b2                	lw	s3,12(sp)
10006e8c:	40f2                	lw	ra,28(sp)
10006e8e:	4462                	lw	s0,24(sp)
10006e90:	6105                	addi	sp,sp,32
10006e92:	8082                	ret
10006e94:	c84a                	sw	s2,16(sp)
10006e96:	891a                	mv	s2,t1
10006e98:	861a                	mv	a2,t1
10006e9a:	84aa                	mv	s1,a0
10006e9c:	25c1                	jal	1000755c <memcpy>
10006e9e:	864e                	mv	a2,s3
10006ea0:	400c                	lw	a1,0(s0)
10006ea2:	01248533          	add	a0,s1,s2
10006ea6:	2d5d                	jal	1000755c <memcpy>
10006ea8:	44d2                	lw	s1,20(sp)
10006eaa:	4942                	lw	s2,16(sp)
10006eac:	49b2                	lw	s3,12(sp)
10006eae:	bff9                	j	10006e8c <_ff_pull_n+0x5a>

10006eb0 <_tu_fifo_peek_n>:
10006eb0:	1141                	addi	sp,sp,-16
10006eb2:	c606                	sw	ra,12(sp)
10006eb4:	c422                	sw	s0,8(sp)
10006eb6:	88b6                	mv	a7,a3
10006eb8:	86ba                	mv	a3,a4
10006eba:	873e                	mv	a4,a5
10006ebc:	00455803          	lhu	a6,4(a0)
10006ec0:	02d8e663          	bltu	a7,a3,10006eec <_tu_fifo_peek_n+0x3c>
10006ec4:	40d88433          	sub	s0,a7,a3
10006ec8:	08044433          	zext.h	s0,s0
10006ecc:	c431                	beqz	s0,10006f18 <_tu_fifo_peek_n+0x68>
10006ece:	00887b63          	bgeu	a6,s0,10006ee4 <_tu_fifo_peek_n+0x34>
10006ed2:	0308e663          	bltu	a7,a6,10006efe <_tu_fifo_peek_n+0x4e>
10006ed6:	410888b3          	sub	a7,a7,a6
10006eda:	0808c6b3          	zext.h	a3,a7
10006ede:	00d51523          	sh	a3,10(a0)
10006ee2:	8442                	mv	s0,a6
10006ee4:	02c46563          	bltu	s0,a2,10006f0e <_tu_fifo_peek_n+0x5e>
10006ee8:	8432                	mv	s0,a2
10006eea:	a015                	j	10006f0e <_tu_fifo_peek_n+0x5e>
10006eec:	40d88433          	sub	s0,a7,a3
10006ef0:	08044433          	zext.h	s0,s0
10006ef4:	20882433          	sh1add	s0,a6,s0
10006ef8:	08044433          	zext.h	s0,s0
10006efc:	bfc1                	j	10006ecc <_tu_fifo_peek_n+0x1c>
10006efe:	98c2                	add	a7,a7,a6
10006f00:	0808c6b3          	zext.h	a3,a7
10006f04:	bfe9                	j	10006ede <_tu_fifo_peek_n+0x2e>
10006f06:	410686b3          	sub	a3,a3,a6
10006f0a:	0806c6b3          	zext.h	a3,a3
10006f0e:	ff06fce3          	bgeu	a3,a6,10006f06 <_tu_fifo_peek_n+0x56>
10006f12:	8622                	mv	a2,s0
10006f14:	f1fff0ef          	jal	10006e32 <_ff_pull_n>
10006f18:	8522                	mv	a0,s0
10006f1a:	40b2                	lw	ra,12(sp)
10006f1c:	4422                	lw	s0,8(sp)
10006f1e:	0141                	addi	sp,sp,16
10006f20:	8082                	ret

10006f22 <_tu_fifo_read_n>:
10006f22:	1101                	addi	sp,sp,-32
10006f24:	ce06                	sw	ra,28(sp)
10006f26:	cc22                	sw	s0,24(sp)
10006f28:	ca26                	sw	s1,20(sp)
10006f2a:	c84a                	sw	s2,16(sp)
10006f2c:	c64e                	sw	s3,12(sp)
10006f2e:	842a                	mv	s0,a0
10006f30:	84ae                	mv	s1,a1
10006f32:	8932                	mv	s2,a2
10006f34:	89b6                	mv	s3,a3
10006f36:	4908                	lw	a0,16(a0)
10006f38:	c511                	beqz	a0,10006f44 <_tu_fifo_read_n+0x22>
10006f3a:	55fd                	li	a1,-1
10006f3c:	0fff9097          	auipc	ra,0xfff9
10006f40:	202080e7          	jalr	514(ra) # 2000013e <mutex_enter_timeout_ms>
10006f44:	00845683          	lhu	a3,8(s0)
10006f48:	00a45703          	lhu	a4,10(s0)
10006f4c:	87ce                	mv	a5,s3
10006f4e:	864a                	mv	a2,s2
10006f50:	85a6                	mv	a1,s1
10006f52:	8522                	mv	a0,s0
10006f54:	f5dff0ef          	jal	10006eb0 <_tu_fifo_peek_n>
10006f58:	862a                	mv	a2,a0
10006f5a:	84aa                	mv	s1,a0
10006f5c:	00a45583          	lhu	a1,10(s0)
10006f60:	00445503          	lhu	a0,4(s0)
10006f64:	e39ff0ef          	jal	10006d9c <advance_index>
10006f68:	00a41523          	sh	a0,10(s0)
10006f6c:	4808                	lw	a0,16(s0)
10006f6e:	c509                	beqz	a0,10006f78 <_tu_fifo_read_n+0x56>
10006f70:	0fff9097          	auipc	ra,0xfff9
10006f74:	218080e7          	jalr	536(ra) # 20000188 <mutex_exit>
10006f78:	8526                	mv	a0,s1
10006f7a:	40f2                	lw	ra,28(sp)
10006f7c:	4462                	lw	s0,24(sp)
10006f7e:	44d2                	lw	s1,20(sp)
10006f80:	4942                	lw	s2,16(sp)
10006f82:	49b2                	lw	s3,12(sp)
10006f84:	6105                	addi	sp,sp,32
10006f86:	8082                	ret

10006f88 <_ff_push_n>:
10006f88:	1101                	addi	sp,sp,-32
10006f8a:	ce06                	sw	ra,28(sp)
10006f8c:	cc22                	sw	s0,24(sp)
10006f8e:	ca26                	sw	s1,20(sp)
10006f90:	842a                	mv	s0,a0
10006f92:	832e                	mv	t1,a1
10006f94:	84ae                	mv	s1,a1
10006f96:	00455783          	lhu	a5,4(a0)
10006f9a:	40d788b3          	sub	a7,a5,a3
10006f9e:	0808c8b3          	zext.h	a7,a7
10006fa2:	40f687b3          	sub	a5,a3,a5
10006fa6:	97b2                	add	a5,a5,a2
10006fa8:	0807c7b3          	zext.h	a5,a5
10006fac:	00655803          	lhu	a6,6(a0)
10006fb0:	65a1                	lui	a1,0x8
10006fb2:	15fd                	addi	a1,a1,-1 # 7fff <HeapSize+0x77ff>
10006fb4:	00b87833          	and	a6,a6,a1
10006fb8:	031805b3          	mul	a1,a6,a7
10006fbc:	0805c533          	zext.h	a0,a1
10006fc0:	85aa                	mv	a1,a0
10006fc2:	02f807b3          	mul	a5,a6,a5
10006fc6:	4008                	lw	a0,0(s0)
10006fc8:	030686b3          	mul	a3,a3,a6
10006fcc:	9536                	add	a0,a0,a3
10006fce:	ef01                	bnez	a4,10006fe6 <_ff_push_n+0x5e>
10006fd0:	c64e                	sw	s3,12(sp)
10006fd2:	0807c7b3          	zext.h	a5,a5
10006fd6:	89be                	mv	s3,a5
10006fd8:	00c8ec63          	bltu	a7,a2,10006ff0 <_ff_push_n+0x68>
10006fdc:	03060633          	mul	a2,a2,a6
10006fe0:	859a                	mv	a1,t1
10006fe2:	2bad                	jal	1000755c <memcpy>
10006fe4:	49b2                	lw	s3,12(sp)
10006fe6:	40f2                	lw	ra,28(sp)
10006fe8:	4462                	lw	s0,24(sp)
10006fea:	44d2                	lw	s1,20(sp)
10006fec:	6105                	addi	sp,sp,32
10006fee:	8082                	ret
10006ff0:	c84a                	sw	s2,16(sp)
10006ff2:	892e                	mv	s2,a1
10006ff4:	862e                	mv	a2,a1
10006ff6:	859a                	mv	a1,t1
10006ff8:	2395                	jal	1000755c <memcpy>
10006ffa:	864e                	mv	a2,s3
10006ffc:	012485b3          	add	a1,s1,s2
10007000:	4008                	lw	a0,0(s0)
10007002:	2ba9                	jal	1000755c <memcpy>
10007004:	4942                	lw	s2,16(sp)
10007006:	49b2                	lw	s3,12(sp)
10007008:	bff9                	j	10006fe6 <_ff_push_n+0x5e>

1000700a <_tu_fifo_write_n>:
1000700a:	1101                	addi	sp,sp,-32
1000700c:	ce06                	sw	ra,28(sp)
1000700e:	ca26                	sw	s1,20(sp)
10007010:	c84a                	sw	s2,16(sp)
10007012:	84b2                	mv	s1,a2
10007014:	12060563          	beqz	a2,1000713e <_tu_fifo_write_n+0x134>
10007018:	cc22                	sw	s0,24(sp)
1000701a:	c64e                	sw	s3,12(sp)
1000701c:	c452                	sw	s4,8(sp)
1000701e:	c256                	sw	s5,4(sp)
10007020:	842a                	mv	s0,a0
10007022:	8aae                	mv	s5,a1
10007024:	8a36                	mv	s4,a3
10007026:	4548                	lw	a0,12(a0)
10007028:	c511                	beqz	a0,10007034 <_tu_fifo_write_n+0x2a>
1000702a:	55fd                	li	a1,-1
1000702c:	0fff9097          	auipc	ra,0xfff9
10007030:	112080e7          	jalr	274(ra) # 2000013e <mutex_enter_timeout_ms>
10007034:	00845983          	lhu	s3,8(s0)
10007038:	0809c9b3          	zext.h	s3,s3
1000703c:	00a45783          	lhu	a5,10(s0)
10007040:	0807c5b3          	zext.h	a1,a5
10007044:	4058                	lw	a4,4(s0)
10007046:	04074163          	bltz	a4,10007088 <_tu_fifo_write_n+0x7e>
1000704a:	00445903          	lhu	s2,4(s0)
1000704e:	02b9e463          	bltu	s3,a1,10007076 <_tu_fifo_write_n+0x6c>
10007052:	40b987b3          	sub	a5,s3,a1
10007056:	0807c7b3          	zext.h	a5,a5
1000705a:	0f27f063          	bgeu	a5,s2,1000713a <_tu_fifo_write_n+0x130>
1000705e:	40f90933          	sub	s2,s2,a5
10007062:	08094933          	zext.h	s2,s2
10007066:	0b24d933          	minu	s2,s1,s2
1000706a:	0a090863          	beqz	s2,1000711a <_tu_fifo_write_n+0x110>
1000706e:	00445783          	lhu	a5,4(s0)
10007072:	86ce                	mv	a3,s3
10007074:	a059                	j	100070fa <_tu_fifo_write_n+0xf0>
10007076:	40b987b3          	sub	a5,s3,a1
1000707a:	0807c7b3          	zext.h	a5,a5
1000707e:	20f927b3          	sh1add	a5,s2,a5
10007082:	0807c7b3          	zext.h	a5,a5
10007086:	bfd1                	j	1000705a <_tu_fifo_write_n+0x50>
10007088:	00445903          	lhu	s2,4(s0)
1000708c:	0324e263          	bltu	s1,s2,100070b0 <_tu_fifo_write_n+0xa6>
10007090:	040a1e63          	bnez	s4,100070ec <_tu_fifo_write_n+0xe2>
10007094:	412484b3          	sub	s1,s1,s2
10007098:	00645703          	lhu	a4,6(s0)
1000709c:	66a1                	lui	a3,0x8
1000709e:	16fd                	addi	a3,a3,-1 # 7fff <HeapSize+0x77ff>
100070a0:	8f75                	and	a4,a4,a3
100070a2:	02e484b3          	mul	s1,s1,a4
100070a6:	009a87b3          	add	a5,s5,s1
100070aa:	8abe                	mv	s5,a5
100070ac:	89ae                	mv	s3,a1
100070ae:	bf75                	j	1000706a <_tu_fifo_write_n+0x60>
100070b0:	02b9e563          	bltu	s3,a1,100070da <_tu_fifo_write_n+0xd0>
100070b4:	40b98733          	sub	a4,s3,a1
100070b8:	08074733          	zext.h	a4,a4
100070bc:	9726                	add	a4,a4,s1
100070be:	00191693          	slli	a3,s2,0x1
100070c2:	02d74763          	blt	a4,a3,100070f0 <_tu_fifo_write_n+0xe6>
100070c6:	40990633          	sub	a2,s2,s1
100070ca:	08064633          	zext.h	a2,a2
100070ce:	854a                	mv	a0,s2
100070d0:	ccdff0ef          	jal	10006d9c <advance_index>
100070d4:	89aa                	mv	s3,a0
100070d6:	8926                	mv	s2,s1
100070d8:	bf49                	j	1000706a <_tu_fifo_write_n+0x60>
100070da:	40b98733          	sub	a4,s3,a1
100070de:	08074733          	zext.h	a4,a4
100070e2:	20e92733          	sh1add	a4,s2,a4
100070e6:	08074733          	zext.h	a4,a4
100070ea:	bfc9                	j	100070bc <_tu_fifo_write_n+0xb2>
100070ec:	89ae                	mv	s3,a1
100070ee:	bfb5                	j	1000706a <_tu_fifo_write_n+0x60>
100070f0:	8926                	mv	s2,s1
100070f2:	bfa5                	j	1000706a <_tu_fifo_write_n+0x60>
100070f4:	8e9d                	sub	a3,a3,a5
100070f6:	0806c6b3          	zext.h	a3,a3
100070fa:	fef6fde3          	bgeu	a3,a5,100070f4 <_tu_fifo_write_n+0xea>
100070fe:	8752                	mv	a4,s4
10007100:	864a                	mv	a2,s2
10007102:	85d6                	mv	a1,s5
10007104:	8522                	mv	a0,s0
10007106:	e83ff0ef          	jal	10006f88 <_ff_push_n>
1000710a:	864a                	mv	a2,s2
1000710c:	85ce                	mv	a1,s3
1000710e:	00445503          	lhu	a0,4(s0)
10007112:	c8bff0ef          	jal	10006d9c <advance_index>
10007116:	00a41423          	sh	a0,8(s0)
1000711a:	4448                	lw	a0,12(s0)
1000711c:	c11d                	beqz	a0,10007142 <_tu_fifo_write_n+0x138>
1000711e:	0fff9097          	auipc	ra,0xfff9
10007122:	06a080e7          	jalr	106(ra) # 20000188 <mutex_exit>
10007126:	4462                	lw	s0,24(sp)
10007128:	49b2                	lw	s3,12(sp)
1000712a:	4a22                	lw	s4,8(sp)
1000712c:	4a92                	lw	s5,4(sp)
1000712e:	854a                	mv	a0,s2
10007130:	40f2                	lw	ra,28(sp)
10007132:	44d2                	lw	s1,20(sp)
10007134:	4942                	lw	s2,16(sp)
10007136:	6105                	addi	sp,sp,32
10007138:	8082                	ret
1000713a:	4901                	li	s2,0
1000713c:	bff9                	j	1000711a <_tu_fifo_write_n+0x110>
1000713e:	8932                	mv	s2,a2
10007140:	b7fd                	j	1000712e <_tu_fifo_write_n+0x124>
10007142:	4462                	lw	s0,24(sp)
10007144:	49b2                	lw	s3,12(sp)
10007146:	4a22                	lw	s4,8(sp)
10007148:	4a92                	lw	s5,4(sp)
1000714a:	b7d5                	j	1000712e <_tu_fifo_write_n+0x124>

1000714c <tu_fifo_config>:
1000714c:	1101                	addi	sp,sp,-32
1000714e:	ce06                	sw	ra,28(sp)
10007150:	c64e                	sw	s3,12(sp)
10007152:	89b6                	mv	s3,a3
10007154:	66a1                	lui	a3,0x8
10007156:	08c6e863          	bltu	a3,a2,100071e6 <tu_fifo_config+0x9a>
1000715a:	cc22                	sw	s0,24(sp)
1000715c:	ca26                	sw	s1,20(sp)
1000715e:	c84a                	sw	s2,16(sp)
10007160:	c452                	sw	s4,8(sp)
10007162:	842a                	mv	s0,a0
10007164:	892e                	mv	s2,a1
10007166:	84b2                	mv	s1,a2
10007168:	8a3a                	mv	s4,a4
1000716a:	4548                	lw	a0,12(a0)
1000716c:	c511                	beqz	a0,10007178 <tu_fifo_config+0x2c>
1000716e:	55fd                	li	a1,-1
10007170:	0fff9097          	auipc	ra,0xfff9
10007174:	fce080e7          	jalr	-50(ra) # 2000013e <mutex_enter_timeout_ms>
10007178:	4808                	lw	a0,16(s0)
1000717a:	c511                	beqz	a0,10007186 <tu_fifo_config+0x3a>
1000717c:	55fd                	li	a1,-1
1000717e:	0fff9097          	auipc	ra,0xfff9
10007182:	fc0080e7          	jalr	-64(ra) # 2000013e <mutex_enter_timeout_ms>
10007186:	01242023          	sw	s2,0(s0)
1000718a:	00941223          	sh	s1,4(s0)
1000718e:	6621                	lui	a2,0x8
10007190:	167d                	addi	a2,a2,-1 # 7fff <HeapSize+0x77ff>
10007192:	00c9f6b3          	and	a3,s3,a2
10007196:	00645783          	lhu	a5,6(s0)
1000719a:	7761                	lui	a4,0xffff8
1000719c:	8ff9                	and	a5,a5,a4
1000719e:	8fd5                	or	a5,a5,a3
100071a0:	00f41323          	sh	a5,6(s0)
100071a4:	00fa1793          	slli	a5,s4,0xf
100071a8:	00645703          	lhu	a4,6(s0)
100071ac:	8f71                	and	a4,a4,a2
100071ae:	8f5d                	or	a4,a4,a5
100071b0:	00e41323          	sh	a4,6(s0)
100071b4:	00041523          	sh	zero,10(s0)
100071b8:	00041423          	sh	zero,8(s0)
100071bc:	4448                	lw	a0,12(s0)
100071be:	c509                	beqz	a0,100071c8 <tu_fifo_config+0x7c>
100071c0:	0fff9097          	auipc	ra,0xfff9
100071c4:	fc8080e7          	jalr	-56(ra) # 20000188 <mutex_exit>
100071c8:	4808                	lw	a0,16(s0)
100071ca:	c105                	beqz	a0,100071ea <tu_fifo_config+0x9e>
100071cc:	0fff9097          	auipc	ra,0xfff9
100071d0:	fbc080e7          	jalr	-68(ra) # 20000188 <mutex_exit>
100071d4:	4505                	li	a0,1
100071d6:	4462                	lw	s0,24(sp)
100071d8:	44d2                	lw	s1,20(sp)
100071da:	4942                	lw	s2,16(sp)
100071dc:	4a22                	lw	s4,8(sp)
100071de:	40f2                	lw	ra,28(sp)
100071e0:	49b2                	lw	s3,12(sp)
100071e2:	6105                	addi	sp,sp,32
100071e4:	8082                	ret
100071e6:	4501                	li	a0,0
100071e8:	bfdd                	j	100071de <tu_fifo_config+0x92>
100071ea:	4505                	li	a0,1
100071ec:	4462                	lw	s0,24(sp)
100071ee:	44d2                	lw	s1,20(sp)
100071f0:	4942                	lw	s2,16(sp)
100071f2:	4a22                	lw	s4,8(sp)
100071f4:	b7ed                	j	100071de <tu_fifo_config+0x92>

100071f6 <tu_fifo_count>:
100071f6:	00455603          	lhu	a2,4(a0)
100071fa:	00855703          	lhu	a4,8(a0)
100071fe:	080747b3          	zext.h	a5,a4
10007202:	00a55683          	lhu	a3,10(a0)
10007206:	0806c5b3          	zext.h	a1,a3
1000720a:	00d76863          	bltu	a4,a3,1000721a <tu_fifo_count+0x24>
1000720e:	8f8d                	sub	a5,a5,a1
10007210:	0807c533          	zext.h	a0,a5
10007214:	0aa65533          	minu	a0,a2,a0
10007218:	8082                	ret
1000721a:	8f8d                	sub	a5,a5,a1
1000721c:	0807c7b3          	zext.h	a5,a5
10007220:	20f627b3          	sh1add	a5,a2,a5
10007224:	0807c533          	zext.h	a0,a5
10007228:	b7f5                	j	10007214 <tu_fifo_count+0x1e>

1000722a <tu_fifo_empty>:
1000722a:	00855783          	lhu	a5,8(a0)
1000722e:	00a55703          	lhu	a4,10(a0)
10007232:	40e78533          	sub	a0,a5,a4
10007236:	00153513          	seqz	a0,a0
1000723a:	8082                	ret

1000723c <tu_fifo_full>:
1000723c:	00455703          	lhu	a4,4(a0)
10007240:	00855683          	lhu	a3,8(a0)
10007244:	0806c7b3          	zext.h	a5,a3
10007248:	00a55603          	lhu	a2,10(a0)
1000724c:	080645b3          	zext.h	a1,a2
10007250:	00c6ea63          	bltu	a3,a2,10007264 <tu_fifo_full+0x28>
10007254:	8f8d                	sub	a5,a5,a1
10007256:	0807c7b3          	zext.h	a5,a5
1000725a:	00e7b533          	sltu	a0,a5,a4
1000725e:	00154513          	xori	a0,a0,1
10007262:	8082                	ret
10007264:	8f8d                	sub	a5,a5,a1
10007266:	0807c7b3          	zext.h	a5,a5
1000726a:	20f727b3          	sh1add	a5,a4,a5
1000726e:	0807c7b3          	zext.h	a5,a5
10007272:	b7e5                	j	1000725a <tu_fifo_full+0x1e>

10007274 <tu_fifo_remaining>:
10007274:	00455703          	lhu	a4,4(a0)
10007278:	00855683          	lhu	a3,8(a0)
1000727c:	0806c7b3          	zext.h	a5,a3
10007280:	00a55603          	lhu	a2,10(a0)
10007284:	080645b3          	zext.h	a1,a2
10007288:	00c6ec63          	bltu	a3,a2,100072a0 <tu_fifo_remaining+0x2c>
1000728c:	8f8d                	sub	a5,a5,a1
1000728e:	0807c7b3          	zext.h	a5,a5
10007292:	00e7ff63          	bgeu	a5,a4,100072b0 <tu_fifo_remaining+0x3c>
10007296:	40f70533          	sub	a0,a4,a5
1000729a:	08054533          	zext.h	a0,a0
1000729e:	8082                	ret
100072a0:	8f8d                	sub	a5,a5,a1
100072a2:	0807c7b3          	zext.h	a5,a5
100072a6:	20f727b3          	sh1add	a5,a4,a5
100072aa:	0807c7b3          	zext.h	a5,a5
100072ae:	b7d5                	j	10007292 <tu_fifo_remaining+0x1e>
100072b0:	4501                	li	a0,0
100072b2:	8082                	ret

100072b4 <tu_fifo_read>:
100072b4:	1141                	addi	sp,sp,-16
100072b6:	c606                	sw	ra,12(sp)
100072b8:	c422                	sw	s0,8(sp)
100072ba:	c226                	sw	s1,4(sp)
100072bc:	842a                	mv	s0,a0
100072be:	84ae                	mv	s1,a1
100072c0:	4908                	lw	a0,16(a0)
100072c2:	c511                	beqz	a0,100072ce <tu_fifo_read+0x1a>
100072c4:	55fd                	li	a1,-1
100072c6:	0fff9097          	auipc	ra,0xfff9
100072ca:	e78080e7          	jalr	-392(ra) # 2000013e <mutex_enter_timeout_ms>
100072ce:	00845603          	lhu	a2,8(s0)
100072d2:	00a45683          	lhu	a3,10(s0)
100072d6:	85a6                	mv	a1,s1
100072d8:	8522                	mv	a0,s0
100072da:	ae5ff0ef          	jal	10006dbe <_tu_fifo_peek>
100072de:	862a                	mv	a2,a0
100072e0:	84aa                	mv	s1,a0
100072e2:	00a45583          	lhu	a1,10(s0)
100072e6:	00445503          	lhu	a0,4(s0)
100072ea:	ab3ff0ef          	jal	10006d9c <advance_index>
100072ee:	00a41523          	sh	a0,10(s0)
100072f2:	4808                	lw	a0,16(s0)
100072f4:	c509                	beqz	a0,100072fe <tu_fifo_read+0x4a>
100072f6:	0fff9097          	auipc	ra,0xfff9
100072fa:	e92080e7          	jalr	-366(ra) # 20000188 <mutex_exit>
100072fe:	8526                	mv	a0,s1
10007300:	40b2                	lw	ra,12(sp)
10007302:	4422                	lw	s0,8(sp)
10007304:	4492                	lw	s1,4(sp)
10007306:	0141                	addi	sp,sp,16
10007308:	8082                	ret

1000730a <tu_fifo_read_n>:
1000730a:	1141                	addi	sp,sp,-16
1000730c:	c606                	sw	ra,12(sp)
1000730e:	4681                	li	a3,0
10007310:	c13ff0ef          	jal	10006f22 <_tu_fifo_read_n>
10007314:	40b2                	lw	ra,12(sp)
10007316:	0141                	addi	sp,sp,16
10007318:	8082                	ret

1000731a <tu_fifo_write>:
1000731a:	1101                	addi	sp,sp,-32
1000731c:	ce06                	sw	ra,28(sp)
1000731e:	cc22                	sw	s0,24(sp)
10007320:	ca26                	sw	s1,20(sp)
10007322:	c84a                	sw	s2,16(sp)
10007324:	c64e                	sw	s3,12(sp)
10007326:	842a                	mv	s0,a0
10007328:	89ae                	mv	s3,a1
1000732a:	4548                	lw	a0,12(a0)
1000732c:	c511                	beqz	a0,10007338 <tu_fifo_write+0x1e>
1000732e:	55fd                	li	a1,-1
10007330:	0fff9097          	auipc	ra,0xfff9
10007334:	e0e080e7          	jalr	-498(ra) # 2000013e <mutex_enter_timeout_ms>
10007338:	00845783          	lhu	a5,8(s0)
1000733c:	0807c7b3          	zext.h	a5,a5
10007340:	893e                	mv	s2,a5
10007342:	8522                	mv	a0,s0
10007344:	ef9ff0ef          	jal	1000723c <tu_fifo_full>
10007348:	c511                	beqz	a0,10007354 <tu_fifo_write+0x3a>
1000734a:	405c                	lw	a5,4(s0)
1000734c:	01f7d493          	srli	s1,a5,0x1f
10007350:	0207df63          	bgez	a5,1000738e <tu_fifo_write+0x74>
10007354:	00445703          	lhu	a4,4(s0)
10007358:	87ca                	mv	a5,s2
1000735a:	a021                	j	10007362 <tu_fifo_write+0x48>
1000735c:	8f99                	sub	a5,a5,a4
1000735e:	0807c7b3          	zext.h	a5,a5
10007362:	fee7fde3          	bgeu	a5,a4,1000735c <tu_fifo_write+0x42>
10007366:	4008                	lw	a0,0(s0)
10007368:	00645603          	lhu	a2,6(s0)
1000736c:	6721                	lui	a4,0x8
1000736e:	177d                	addi	a4,a4,-1 # 7fff <HeapSize+0x77ff>
10007370:	8e79                	and	a2,a2,a4
10007372:	02c787b3          	mul	a5,a5,a2
10007376:	85ce                	mv	a1,s3
10007378:	953e                	add	a0,a0,a5
1000737a:	22cd                	jal	1000755c <memcpy>
1000737c:	4605                	li	a2,1
1000737e:	85ca                	mv	a1,s2
10007380:	00445503          	lhu	a0,4(s0)
10007384:	a19ff0ef          	jal	10006d9c <advance_index>
10007388:	00a41423          	sh	a0,8(s0)
1000738c:	4485                	li	s1,1
1000738e:	4448                	lw	a0,12(s0)
10007390:	c509                	beqz	a0,1000739a <tu_fifo_write+0x80>
10007392:	0fff9097          	auipc	ra,0xfff9
10007396:	df6080e7          	jalr	-522(ra) # 20000188 <mutex_exit>
1000739a:	8526                	mv	a0,s1
1000739c:	40f2                	lw	ra,28(sp)
1000739e:	4462                	lw	s0,24(sp)
100073a0:	44d2                	lw	s1,20(sp)
100073a2:	4942                	lw	s2,16(sp)
100073a4:	49b2                	lw	s3,12(sp)
100073a6:	6105                	addi	sp,sp,32
100073a8:	8082                	ret

100073aa <tu_fifo_write_n>:
100073aa:	1141                	addi	sp,sp,-16
100073ac:	c606                	sw	ra,12(sp)
100073ae:	4681                	li	a3,0
100073b0:	c5bff0ef          	jal	1000700a <_tu_fifo_write_n>
100073b4:	40b2                	lw	ra,12(sp)
100073b6:	0141                	addi	sp,sp,16
100073b8:	8082                	ret

100073ba <tu_fifo_clear>:
100073ba:	1141                	addi	sp,sp,-16
100073bc:	c606                	sw	ra,12(sp)
100073be:	c422                	sw	s0,8(sp)
100073c0:	842a                	mv	s0,a0
100073c2:	4548                	lw	a0,12(a0)
100073c4:	c511                	beqz	a0,100073d0 <tu_fifo_clear+0x16>
100073c6:	55fd                	li	a1,-1
100073c8:	0fff9097          	auipc	ra,0xfff9
100073cc:	d76080e7          	jalr	-650(ra) # 2000013e <mutex_enter_timeout_ms>
100073d0:	4808                	lw	a0,16(s0)
100073d2:	c511                	beqz	a0,100073de <tu_fifo_clear+0x24>
100073d4:	55fd                	li	a1,-1
100073d6:	0fff9097          	auipc	ra,0xfff9
100073da:	d68080e7          	jalr	-664(ra) # 2000013e <mutex_enter_timeout_ms>
100073de:	00041523          	sh	zero,10(s0)
100073e2:	00041423          	sh	zero,8(s0)
100073e6:	4448                	lw	a0,12(s0)
100073e8:	c509                	beqz	a0,100073f2 <tu_fifo_clear+0x38>
100073ea:	0fff9097          	auipc	ra,0xfff9
100073ee:	d9e080e7          	jalr	-610(ra) # 20000188 <mutex_exit>
100073f2:	4808                	lw	a0,16(s0)
100073f4:	c509                	beqz	a0,100073fe <tu_fifo_clear+0x44>
100073f6:	0fff9097          	auipc	ra,0xfff9
100073fa:	d92080e7          	jalr	-622(ra) # 20000188 <mutex_exit>
100073fe:	4505                	li	a0,1
10007400:	40b2                	lw	ra,12(sp)
10007402:	4422                	lw	s0,8(sp)
10007404:	0141                	addi	sp,sp,16
10007406:	8082                	ret

10007408 <tu_fifo_set_overwritable>:
10007408:	1141                	addi	sp,sp,-16
1000740a:	c606                	sw	ra,12(sp)
1000740c:	c422                	sw	s0,8(sp)
1000740e:	c226                	sw	s1,4(sp)
10007410:	842a                	mv	s0,a0
10007412:	84ae                	mv	s1,a1
10007414:	4548                	lw	a0,12(a0)
10007416:	c511                	beqz	a0,10007422 <tu_fifo_set_overwritable+0x1a>
10007418:	55fd                	li	a1,-1
1000741a:	0fff9097          	auipc	ra,0xfff9
1000741e:	d24080e7          	jalr	-732(ra) # 2000013e <mutex_enter_timeout_ms>
10007422:	4808                	lw	a0,16(s0)
10007424:	c511                	beqz	a0,10007430 <tu_fifo_set_overwritable+0x28>
10007426:	55fd                	li	a1,-1
10007428:	0fff9097          	auipc	ra,0xfff9
1000742c:	d16080e7          	jalr	-746(ra) # 2000013e <mutex_enter_timeout_ms>
10007430:	00f49593          	slli	a1,s1,0xf
10007434:	00645783          	lhu	a5,6(s0)
10007438:	6721                	lui	a4,0x8
1000743a:	177d                	addi	a4,a4,-1 # 7fff <HeapSize+0x77ff>
1000743c:	8ff9                	and	a5,a5,a4
1000743e:	8fcd                	or	a5,a5,a1
10007440:	00f41323          	sh	a5,6(s0)
10007444:	4448                	lw	a0,12(s0)
10007446:	c509                	beqz	a0,10007450 <tu_fifo_set_overwritable+0x48>
10007448:	0fff9097          	auipc	ra,0xfff9
1000744c:	d40080e7          	jalr	-704(ra) # 20000188 <mutex_exit>
10007450:	4808                	lw	a0,16(s0)
10007452:	c509                	beqz	a0,1000745c <tu_fifo_set_overwritable+0x54>
10007454:	0fff9097          	auipc	ra,0xfff9
10007458:	d34080e7          	jalr	-716(ra) # 20000188 <mutex_exit>
1000745c:	4505                	li	a0,1
1000745e:	40b2                	lw	ra,12(sp)
10007460:	4422                	lw	s0,8(sp)
10007462:	4492                	lw	s1,4(sp)
10007464:	0141                	addi	sp,sp,16
10007466:	8082                	ret

10007468 <atexit>:
10007468:	85aa                	mv	a1,a0
1000746a:	4681                	li	a3,0
1000746c:	4601                	li	a2,0
1000746e:	4501                	li	a0,0
10007470:	ac25                	j	100076a8 <__register_exitproc>

10007472 <__libc_fini_array>:
10007472:	00000797          	auipc	a5,0x0
10007476:	32e78793          	addi	a5,a5,814 # 100077a0 <__EH_FRAME_BEGIN__>
1000747a:	00000717          	auipc	a4,0x0
1000747e:	32670713          	addi	a4,a4,806 # 100077a0 <__EH_FRAME_BEGIN__>
10007482:	1141                	addi	sp,sp,-16
10007484:	8f99                	sub	a5,a5,a4
10007486:	c226                	sw	s1,4(sp)
10007488:	c606                	sw	ra,12(sp)
1000748a:	4027d493          	srai	s1,a5,0x2
1000748e:	cc89                	beqz	s1,100074a8 <__libc_fini_array+0x36>
10007490:	c422                	sw	s0,8(sp)
10007492:	00000417          	auipc	s0,0x0
10007496:	30a40413          	addi	s0,s0,778 # 1000779c <__frame_dummy_init_array_entry>
1000749a:	943e                	add	s0,s0,a5
1000749c:	401c                	lw	a5,0(s0)
1000749e:	14fd                	addi	s1,s1,-1
100074a0:	1471                	addi	s0,s0,-4
100074a2:	9782                	jalr	a5
100074a4:	fce5                	bnez	s1,1000749c <__libc_fini_array+0x2a>
100074a6:	4422                	lw	s0,8(sp)
100074a8:	40b2                	lw	ra,12(sp)
100074aa:	4492                	lw	s1,4(sp)
100074ac:	0141                	addi	sp,sp,16
100074ae:	8082                	ret

100074b0 <__retarget_lock_acquire_recursive>:
100074b0:	8082                	ret

100074b2 <__retarget_lock_release_recursive>:
100074b2:	8082                	ret

100074b4 <memset>:
100074b4:	433d                	li	t1,15
100074b6:	872a                	mv	a4,a0
100074b8:	02c37363          	bgeu	t1,a2,100074de <memset+0x2a>
100074bc:	00f77793          	andi	a5,a4,15
100074c0:	efbd                	bnez	a5,1000753e <memset+0x8a>
100074c2:	e5ad                	bnez	a1,1000752c <memset+0x78>
100074c4:	ff067693          	andi	a3,a2,-16
100074c8:	8a3d                	andi	a2,a2,15
100074ca:	96ba                	add	a3,a3,a4
100074cc:	c30c                	sw	a1,0(a4)
100074ce:	c34c                	sw	a1,4(a4)
100074d0:	c70c                	sw	a1,8(a4)
100074d2:	c74c                	sw	a1,12(a4)
100074d4:	0741                	addi	a4,a4,16
100074d6:	fed76be3          	bltu	a4,a3,100074cc <memset+0x18>
100074da:	e211                	bnez	a2,100074de <memset+0x2a>
100074dc:	8082                	ret
100074de:	40c306b3          	sub	a3,t1,a2
100074e2:	068a                	slli	a3,a3,0x2
100074e4:	00000297          	auipc	t0,0x0
100074e8:	9696                	add	a3,a3,t0
100074ea:	00a68067          	jr	10(a3) # 800a <HeapSize+0x780a>
100074ee:	00b70723          	sb	a1,14(a4)
100074f2:	00b706a3          	sb	a1,13(a4)
100074f6:	00b70623          	sb	a1,12(a4)
100074fa:	00b705a3          	sb	a1,11(a4)
100074fe:	00b70523          	sb	a1,10(a4)
10007502:	00b704a3          	sb	a1,9(a4)
10007506:	00b70423          	sb	a1,8(a4)
1000750a:	00b703a3          	sb	a1,7(a4)
1000750e:	00b70323          	sb	a1,6(a4)
10007512:	00b702a3          	sb	a1,5(a4)
10007516:	00b70223          	sb	a1,4(a4)
1000751a:	00b701a3          	sb	a1,3(a4)
1000751e:	00b70123          	sb	a1,2(a4)
10007522:	00b700a3          	sb	a1,1(a4)
10007526:	00b70023          	sb	a1,0(a4)
1000752a:	8082                	ret
1000752c:	0ff5f593          	zext.b	a1,a1
10007530:	00859693          	slli	a3,a1,0x8
10007534:	8dd5                	or	a1,a1,a3
10007536:	01059693          	slli	a3,a1,0x10
1000753a:	8dd5                	or	a1,a1,a3
1000753c:	b761                	j	100074c4 <memset+0x10>
1000753e:	00279693          	slli	a3,a5,0x2
10007542:	00000297          	auipc	t0,0x0
10007546:	9696                	add	a3,a3,t0
10007548:	8286                	mv	t0,ra
1000754a:	fa8680e7          	jalr	-88(a3)
1000754e:	8096                	mv	ra,t0
10007550:	17c1                	addi	a5,a5,-16
10007552:	8f1d                	sub	a4,a4,a5
10007554:	963e                	add	a2,a2,a5
10007556:	f8c374e3          	bgeu	t1,a2,100074de <memset+0x2a>
1000755a:	b7a5                	j	100074c2 <memset+0xe>

1000755c <memcpy>:
1000755c:	00a5c7b3          	xor	a5,a1,a0
10007560:	8b8d                	andi	a5,a5,3
10007562:	00c508b3          	add	a7,a0,a2
10007566:	e7b1                	bnez	a5,100075b2 <memcpy+0x56>
10007568:	00463613          	sltiu	a2,a2,4
1000756c:	e239                	bnez	a2,100075b2 <memcpy+0x56>
1000756e:	00357793          	andi	a5,a0,3
10007572:	872a                	mv	a4,a0
10007574:	e7cd                	bnez	a5,1000761e <memcpy+0xc2>
10007576:	ffc8f613          	andi	a2,a7,-4
1000757a:	40e606b3          	sub	a3,a2,a4
1000757e:	02000793          	li	a5,32
10007582:	04d7c463          	blt	a5,a3,100075ca <memcpy+0x6e>
10007586:	86ae                	mv	a3,a1
10007588:	87ba                	mv	a5,a4
1000758a:	02c77163          	bgeu	a4,a2,100075ac <memcpy+0x50>
1000758e:	0006a803          	lw	a6,0(a3)
10007592:	0791                	addi	a5,a5,4
10007594:	0691                	addi	a3,a3,4
10007596:	ff07ae23          	sw	a6,-4(a5)
1000759a:	fec7eae3          	bltu	a5,a2,1000758e <memcpy+0x32>
1000759e:	167d                	addi	a2,a2,-1
100075a0:	8e19                	sub	a2,a2,a4
100075a2:	9a71                	andi	a2,a2,-4
100075a4:	0591                	addi	a1,a1,4
100075a6:	0711                	addi	a4,a4,4
100075a8:	95b2                	add	a1,a1,a2
100075aa:	9732                	add	a4,a4,a2
100075ac:	01176663          	bltu	a4,a7,100075b8 <memcpy+0x5c>
100075b0:	8082                	ret
100075b2:	872a                	mv	a4,a0
100075b4:	ff157ee3          	bgeu	a0,a7,100075b0 <memcpy+0x54>
100075b8:	0005c783          	lbu	a5,0(a1)
100075bc:	0705                	addi	a4,a4,1
100075be:	0585                	addi	a1,a1,1
100075c0:	fef70fa3          	sb	a5,-1(a4)
100075c4:	fee89ae3          	bne	a7,a4,100075b8 <memcpy+0x5c>
100075c8:	8082                	ret
100075ca:	4194                	lw	a3,0(a1)
100075cc:	0045a283          	lw	t0,4(a1)
100075d0:	0085af83          	lw	t6,8(a1)
100075d4:	00c5af03          	lw	t5,12(a1)
100075d8:	0105ae83          	lw	t4,16(a1)
100075dc:	0145ae03          	lw	t3,20(a1)
100075e0:	0185a303          	lw	t1,24(a1)
100075e4:	01c5a803          	lw	a6,28(a1)
100075e8:	c314                	sw	a3,0(a4)
100075ea:	5194                	lw	a3,32(a1)
100075ec:	02470713          	addi	a4,a4,36
100075f0:	fe572023          	sw	t0,-32(a4)
100075f4:	fed72e23          	sw	a3,-4(a4)
100075f8:	fff72223          	sw	t6,-28(a4)
100075fc:	40e606b3          	sub	a3,a2,a4
10007600:	ffe72423          	sw	t5,-24(a4)
10007604:	ffd72623          	sw	t4,-20(a4)
10007608:	ffc72823          	sw	t3,-16(a4)
1000760c:	fe672a23          	sw	t1,-12(a4)
10007610:	ff072c23          	sw	a6,-8(a4)
10007614:	02458593          	addi	a1,a1,36
10007618:	fad7c9e3          	blt	a5,a3,100075ca <memcpy+0x6e>
1000761c:	b7ad                	j	10007586 <memcpy+0x2a>
1000761e:	0005c683          	lbu	a3,0(a1)
10007622:	0705                	addi	a4,a4,1
10007624:	00377793          	andi	a5,a4,3
10007628:	fed70fa3          	sb	a3,-1(a4)
1000762c:	0585                	addi	a1,a1,1
1000762e:	d7a1                	beqz	a5,10007576 <memcpy+0x1a>
10007630:	0005c683          	lbu	a3,0(a1)
10007634:	0705                	addi	a4,a4,1
10007636:	00377793          	andi	a5,a4,3
1000763a:	fed70fa3          	sb	a3,-1(a4)
1000763e:	0585                	addi	a1,a1,1
10007640:	fff9                	bnez	a5,1000761e <memcpy+0xc2>
10007642:	bf15                	j	10007576 <memcpy+0x1a>

10007644 <strlen>:
10007644:	00357793          	andi	a5,a0,3
10007648:	872a                	mv	a4,a0
1000764a:	ef9d                	bnez	a5,10007688 <strlen+0x44>
1000764c:	7f7f86b7          	lui	a3,0x7f7f8
10007650:	f7f68693          	addi	a3,a3,-129 # 7f7f7f7f <__StackTop+0x5f775f7f>
10007654:	55fd                	li	a1,-1
10007656:	4310                	lw	a2,0(a4)
10007658:	0711                	addi	a4,a4,4
1000765a:	00d677b3          	and	a5,a2,a3
1000765e:	97b6                	add	a5,a5,a3
10007660:	8fd1                	or	a5,a5,a2
10007662:	8fd5                	or	a5,a5,a3
10007664:	feb789e3          	beq	a5,a1,10007656 <strlen+0x12>
10007668:	ffc74683          	lbu	a3,-4(a4)
1000766c:	40a707b3          	sub	a5,a4,a0
10007670:	ca8d                	beqz	a3,100076a2 <strlen+0x5e>
10007672:	ffd74683          	lbu	a3,-3(a4)
10007676:	c29d                	beqz	a3,1000769c <strlen+0x58>
10007678:	ffe74503          	lbu	a0,-2(a4)
1000767c:	00a03533          	snez	a0,a0
10007680:	953e                	add	a0,a0,a5
10007682:	1579                	addi	a0,a0,-2
10007684:	8082                	ret
10007686:	d2f9                	beqz	a3,1000764c <strlen+0x8>
10007688:	00074783          	lbu	a5,0(a4)
1000768c:	0705                	addi	a4,a4,1
1000768e:	00377693          	andi	a3,a4,3
10007692:	fbf5                	bnez	a5,10007686 <strlen+0x42>
10007694:	8f09                	sub	a4,a4,a0
10007696:	fff70513          	addi	a0,a4,-1
1000769a:	8082                	ret
1000769c:	ffd78513          	addi	a0,a5,-3
100076a0:	8082                	ret
100076a2:	ffc78513          	addi	a0,a5,-4
100076a6:	8082                	ret

100076a8 <__register_exitproc>:
100076a8:	7179                	addi	sp,sp,-48
100076aa:	d422                	sw	s0,40(sp)
100076ac:	0fffc417          	auipc	s0,0xfffc
100076b0:	17440413          	addi	s0,s0,372 # 20003820 <__atexit_recursive_mutex>
100076b4:	d226                	sw	s1,36(sp)
100076b6:	84aa                	mv	s1,a0
100076b8:	4008                	lw	a0,0(s0)
100076ba:	d04a                	sw	s2,32(sp)
100076bc:	ce4e                	sw	s3,28(sp)
100076be:	c62e                	sw	a1,12(sp)
100076c0:	d606                	sw	ra,44(sp)
100076c2:	8932                	mv	s2,a2
100076c4:	89b6                	mv	s3,a3
100076c6:	debff0ef          	jal	100074b0 <__retarget_lock_acquire_recursive>
100076ca:	8871a783          	lw	a5,-1913(gp) # 200045fc <__atexit>
100076ce:	45b2                	lw	a1,12(sp)
100076d0:	c3a5                	beqz	a5,10007730 <__register_exitproc+0x88>
100076d2:	43d8                	lw	a4,4(a5)
100076d4:	46fd                	li	a3,31
100076d6:	4008                	lw	a0,0(s0)
100076d8:	06e6c363          	blt	a3,a4,1000773e <__register_exitproc+0x96>
100076dc:	00271693          	slli	a3,a4,0x2
100076e0:	ec99                	bnez	s1,100076fe <__register_exitproc+0x56>
100076e2:	0705                	addi	a4,a4,1
100076e4:	c3d8                	sw	a4,4(a5)
100076e6:	97b6                	add	a5,a5,a3
100076e8:	c78c                	sw	a1,8(a5)
100076ea:	dc9ff0ef          	jal	100074b2 <__retarget_lock_release_recursive>
100076ee:	4501                	li	a0,0
100076f0:	50b2                	lw	ra,44(sp)
100076f2:	5422                	lw	s0,40(sp)
100076f4:	5492                	lw	s1,36(sp)
100076f6:	5902                	lw	s2,32(sp)
100076f8:	49f2                	lw	s3,28(sp)
100076fa:	6145                	addi	sp,sp,48
100076fc:	8082                	ret
100076fe:	00d788b3          	add	a7,a5,a3
10007702:	0928a423          	sw	s2,136(a7)
10007706:	1887a803          	lw	a6,392(a5)
1000770a:	4605                	li	a2,1
1000770c:	00e61633          	sll	a2,a2,a4
10007710:	00c86833          	or	a6,a6,a2
10007714:	1907a423          	sw	a6,392(a5)
10007718:	1138a423          	sw	s3,264(a7)
1000771c:	4809                	li	a6,2
1000771e:	fd0492e3          	bne	s1,a6,100076e2 <__register_exitproc+0x3a>
10007722:	18c7a803          	lw	a6,396(a5)
10007726:	00c86633          	or	a2,a6,a2
1000772a:	18c7a623          	sw	a2,396(a5)
1000772e:	bf55                	j	100076e2 <__register_exitproc+0x3a>
10007730:	0fffc797          	auipc	a5,0xfffc
10007734:	28078793          	addi	a5,a5,640 # 200039b0 <__atexit0>
10007738:	88f1a3a3          	sw	a5,-1913(gp) # 200045fc <__atexit>
1000773c:	bf59                	j	100076d2 <__register_exitproc+0x2a>
1000773e:	d75ff0ef          	jal	100074b2 <__retarget_lock_release_recursive>
10007742:	557d                	li	a0,-1
10007744:	b775                	j	100076f0 <__register_exitproc+0x48>

10007746 <register_fini>:
10007746:	00000793          	li	a5,0
1000774a:	c799                	beqz	a5,10007758 <register_fini+0x12>
1000774c:	00000517          	auipc	a0,0x0
10007750:	d2650513          	addi	a0,a0,-730 # 10007472 <__libc_fini_array>
10007754:	d15ff06f          	j	10007468 <atexit>
10007758:	8082                	ret
	...

1000775c <__pre_init_runtime_init_bootrom_reset>:
1000775c:	1ffc 1000                                   ....

10007760 <__pre_init_runtime_init_early_resets>:
10007760:	1f94 1000                                   ....

10007764 <__pre_init_runtime_init_usb_power_down>:
10007764:	1fc2 1000                                   ....

10007768 <__pre_init_runtime_init_clocks>:
10007768:	2070 1000                                   p ..

1000776c <__pre_init_runtime_init_post_clock_resets>:
1000776c:	1fdc 1000                                   ....

10007770 <__pre_init_runtime_init_boot_locks_reset>:
10007770:	1f26 1000                                   &...

10007774 <__pre_init_runtime_init_spin_locks_reset>:
10007774:	202c 1000                                   , ..

10007778 <__pre_init_runtime_init_bootrom_locking_enable>:
10007778:	1ef4 1000                                   ....

1000777c <__pre_init_runtime_init_mutex>:
1000777c:	1092 1000                                   ....

10007780 <__pre_init_runtime_init_default_alarm_pool>:
10007780:	1abe 1000                                   ....

10007784 <__pre_init_first_per_core_initializer>:
10007784:	1f7e 1000                                   ~...

10007788 <__pre_init_runtime_init_per_core_bootrom_reset>:
10007788:	2014 1000                                   . ..

1000778c <__pre_init_runtime_init_per_core_h3_irq_registers>:
1000778c:	35aa 1000                                   .5..

10007790 <__pre_init_runtime_init_per_core_irq_priorities>:
10007790:	0e80 1000                                   ....

10007794 <__init_array_start>:
10007794:	7746                	.insn	2, 0x7746
10007796:	1000                	addi	s0,sp,32
10007798:	403e                	.insn	2, 0x403e
1000779a:	1000                	addi	s0,sp,32

1000779c <__frame_dummy_init_array_entry>:
1000779c:	00da 1000                                   ....

Disassembly of section .data:

20000000 <mutex_try_enter>:
20000000:	872a                	mv	a4,a0
20000002:	411c                	lw	a5,0(a0)
20000004:	300476f3          	csrrci	a3,mstatus,8
20000008:	00379613          	slli	a2,a5,0x3
2000000c:	28c01633          	bset	a2,zero,a2
20000010:	9bf1                	andi	a5,a5,-4
20000012:	44c7a52f          	amoor.w.aq	a0,a2,(a5)
20000016:	8d71                	and	a0,a0,a2
20000018:	fd6d                	bnez	a0,20000012 <mutex_try_enter+0x12>
2000001a:	0330000f          	fence	rw,rw
2000001e:	00470783          	lb	a5,4(a4)
20000022:	0007cf63          	bltz	a5,20000040 <mutex_try_enter+0x40>
20000026:	c58d                	beqz	a1,20000050 <mutex_try_enter+0x50>
20000028:	c19c                	sw	a5,0(a1)
2000002a:	4501                	li	a0,0
2000002c:	431c                	lw	a5,0(a4)
2000002e:	0330000f          	fence	rw,rw
20000032:	00078023          	sb	zero,0(a5)
20000036:	0086f793          	andi	a5,a3,8
2000003a:	3007a073          	csrs	mstatus,a5
2000003e:	8082                	ret
20000040:	d00007b7          	lui	a5,0xd0000
20000044:	00078783          	lb	a5,0(a5) # d0000000 <__StackTop+0xaff7e000>
20000048:	00f70223          	sb	a5,4(a4)
2000004c:	4505                	li	a0,1
2000004e:	bff9                	j	2000002c <mutex_try_enter+0x2c>
20000050:	4501                	li	a0,0
20000052:	bfe9                	j	2000002c <mutex_try_enter+0x2c>

20000054 <mutex_enter_block_until>:
20000054:	1101                	addi	sp,sp,-32
20000056:	ce06                	sw	ra,28(sp)
20000058:	cc22                	sw	s0,24(sp)
2000005a:	ca26                	sw	s1,20(sp)
2000005c:	c84a                	sw	s2,16(sp)
2000005e:	c64e                	sw	s3,12(sp)
20000060:	411c                	lw	a5,0(a0)
20000062:	cfa1                	beqz	a5,200000ba <mutex_enter_block_until+0x66>
20000064:	842a                	mv	s0,a0
20000066:	84ae                	mv	s1,a1
20000068:	8932                	mv	s2,a2
2000006a:	d00007b7          	lui	a5,0xd0000
2000006e:	00078783          	lb	a5,0(a5) # d0000000 <__StackTop+0xaff7e000>
20000072:	89be                	mv	s3,a5
20000074:	401c                	lw	a5,0(s0)
20000076:	30047773          	csrrci	a4,mstatus,8
2000007a:	00379693          	slli	a3,a5,0x3
2000007e:	28d016b3          	bset	a3,zero,a3
20000082:	9bf1                	andi	a5,a5,-4
20000084:	44d7a62f          	amoor.w.aq	a2,a3,(a5)
20000088:	8e75                	and	a2,a2,a3
2000008a:	fe6d                	bnez	a2,20000084 <mutex_enter_block_until+0x30>
2000008c:	0330000f          	fence	rw,rw
20000090:	00440783          	lb	a5,4(s0)
20000094:	0407c563          	bltz	a5,200000de <mutex_enter_block_until+0x8a>
20000098:	401c                	lw	a5,0(s0)
2000009a:	0330000f          	fence	rw,rw
2000009e:	00078023          	sb	zero,0(a5)
200000a2:	8b21                	andi	a4,a4,8
200000a4:	30072073          	csrs	mstatus,a4
200000a8:	8526                	mv	a0,s1
200000aa:	85ca                	mv	a1,s2
200000ac:	f0002097          	auipc	ra,0xf0002
200000b0:	8a4080e7          	jalr	-1884(ra) # 10001950 <best_effort_wfe_or_timeout>
200000b4:	d161                	beqz	a0,20000074 <mutex_enter_block_until+0x20>
200000b6:	4501                	li	a0,0
200000b8:	a835                	j	200000f4 <mutex_enter_block_until+0xa0>
200000ba:	100086b7          	lui	a3,0x10008
200000be:	d7068693          	addi	a3,a3,-656 # 10007d70 <__EH_FRAME_BEGIN__+0x5d0>
200000c2:	10008637          	lui	a2,0x10008
200000c6:	4d460613          	addi	a2,a2,1236 # 100084d4 <__func__.3>
200000ca:	0a600593          	li	a1,166
200000ce:	10008537          	lui	a0,0x10008
200000d2:	d2850513          	addi	a0,a0,-728 # 10007d28 <__EH_FRAME_BEGIN__+0x588>
200000d6:	f0003097          	auipc	ra,0xf0003
200000da:	4fe080e7          	jalr	1278(ra) # 100035d4 <__assert_func>
200000de:	01340223          	sb	s3,4(s0)
200000e2:	401c                	lw	a5,0(s0)
200000e4:	0330000f          	fence	rw,rw
200000e8:	00078023          	sb	zero,0(a5)
200000ec:	8b21                	andi	a4,a4,8
200000ee:	30072073          	csrs	mstatus,a4
200000f2:	4505                	li	a0,1
200000f4:	40f2                	lw	ra,28(sp)
200000f6:	4462                	lw	s0,24(sp)
200000f8:	44d2                	lw	s1,20(sp)
200000fa:	4942                	lw	s2,16(sp)
200000fc:	49b2                	lw	s3,12(sp)
200000fe:	6105                	addi	sp,sp,32
20000100:	8082                	ret

20000102 <mutex_try_enter_block_until>:
20000102:	1101                	addi	sp,sp,-32
20000104:	ce06                	sw	ra,28(sp)
20000106:	cc22                	sw	s0,24(sp)
20000108:	ca26                	sw	s1,20(sp)
2000010a:	c84a                	sw	s2,16(sp)
2000010c:	892a                	mv	s2,a0
2000010e:	84ae                	mv	s1,a1
20000110:	8432                	mv	s0,a2
20000112:	006c                	addi	a1,sp,12
20000114:	35f5                	jal	20000000 <mutex_try_enter>
20000116:	e909                	bnez	a0,20000128 <mutex_try_enter_block_until+0x26>
20000118:	00c10703          	lb	a4,12(sp)
2000011c:	d00007b7          	lui	a5,0xd0000
20000120:	00078783          	lb	a5,0(a5) # d0000000 <__StackTop+0xaff7e000>
20000124:	00f71863          	bne	a4,a5,20000134 <mutex_try_enter_block_until+0x32>
20000128:	40f2                	lw	ra,28(sp)
2000012a:	4462                	lw	s0,24(sp)
2000012c:	44d2                	lw	s1,20(sp)
2000012e:	4942                	lw	s2,16(sp)
20000130:	6105                	addi	sp,sp,32
20000132:	8082                	ret
20000134:	85a6                	mv	a1,s1
20000136:	8622                	mv	a2,s0
20000138:	854a                	mv	a0,s2
2000013a:	3f29                	jal	20000054 <mutex_enter_block_until>
2000013c:	b7f5                	j	20000128 <mutex_try_enter_block_until+0x26>

2000013e <mutex_enter_timeout_ms>:
2000013e:	1141                	addi	sp,sp,-16
20000140:	c606                	sw	ra,12(sp)
20000142:	c422                	sw	s0,8(sp)
20000144:	c226                	sw	s1,4(sp)
20000146:	84aa                	mv	s1,a0
20000148:	842e                	mv	s0,a1
2000014a:	f0002097          	auipc	ra,0xf0002
2000014e:	a08080e7          	jalr	-1528(ra) # 10001b52 <time_us_64>
20000152:	3e800713          	li	a4,1000
20000156:	02e407b3          	mul	a5,s0,a4
2000015a:	02e43433          	mulhu	s0,s0,a4
2000015e:	97aa                	add	a5,a5,a0
20000160:	00a7b633          	sltu	a2,a5,a0
20000164:	00858733          	add	a4,a1,s0
20000168:	85be                	mv	a1,a5
2000016a:	963a                	add	a2,a2,a4
2000016c:	00064963          	bltz	a2,2000017e <mutex_enter_timeout_ms+0x40>
20000170:	8526                	mv	a0,s1
20000172:	35cd                	jal	20000054 <mutex_enter_block_until>
20000174:	40b2                	lw	ra,12(sp)
20000176:	4422                	lw	s0,8(sp)
20000178:	4492                	lw	s1,4(sp)
2000017a:	0141                	addi	sp,sp,16
2000017c:	8082                	ret
2000017e:	55fd                	li	a1,-1
20000180:	80000637          	lui	a2,0x80000
20000184:	962e                	add	a2,a2,a1
20000186:	b7ed                	j	20000170 <mutex_enter_timeout_ms+0x32>

20000188 <mutex_exit>:
20000188:	411c                	lw	a5,0(a0)
2000018a:	30047773          	csrrci	a4,mstatus,8
2000018e:	00379693          	slli	a3,a5,0x3
20000192:	28d016b3          	bset	a3,zero,a3
20000196:	9bf1                	andi	a5,a5,-4
20000198:	44d7a62f          	amoor.w.aq	a2,a3,(a5)
2000019c:	8e75                	and	a2,a2,a3
2000019e:	fe6d                	bnez	a2,20000198 <mutex_exit+0x10>
200001a0:	0330000f          	fence	rw,rw
200001a4:	00450783          	lb	a5,4(a0)
200001a8:	0207c063          	bltz	a5,200001c8 <mutex_exit+0x40>
200001ac:	57fd                	li	a5,-1
200001ae:	00f50223          	sb	a5,4(a0)
200001b2:	411c                	lw	a5,0(a0)
200001b4:	0330000f          	fence	rw,rw
200001b8:	00078023          	sb	zero,0(a5)
200001bc:	8b21                	andi	a4,a4,8
200001be:	30072073          	csrs	mstatus,a4
200001c2:	00102033          	sgtz	zero,ra
200001c6:	8082                	ret
200001c8:	1141                	addi	sp,sp,-16
200001ca:	c606                	sw	ra,12(sp)
200001cc:	100086b7          	lui	a3,0x10008
200001d0:	d8468693          	addi	a3,a3,-636 # 10007d84 <__EH_FRAME_BEGIN__+0x5e4>
200001d4:	10008637          	lui	a2,0x10008
200001d8:	4c860613          	addi	a2,a2,1224 # 100084c8 <__func__.1>
200001dc:	0d500593          	li	a1,213
200001e0:	10008537          	lui	a0,0x10008
200001e4:	d2850513          	addi	a0,a0,-728 # 10007d28 <__EH_FRAME_BEGIN__+0x588>
200001e8:	f0003097          	auipc	ra,0xf0003
200001ec:	3ec080e7          	jalr	1004(ra) # 100035d4 <__assert_func>

200001f0 <reset_non_control_endpoints>:
200001f0:	1141                	addi	sp,sp,-16
200001f2:	c606                	sw	ra,12(sp)
200001f4:	4781                	li	a5,0
200001f6:	a821                	j	2000020e <reset_non_control_endpoints+0x1e>
200001f8:	50100737          	lui	a4,0x50100
200001fc:	20e7e733          	sh3add	a4,a5,a4
20000200:	00072423          	sw	zero,8(a4) # 50100008 <__StackTop+0x3007e008>
20000204:	00072623          	sw	zero,12(a4)
20000208:	0785                	addi	a5,a5,1
2000020a:	0ff7f793          	zext.b	a5,a5
2000020e:	4739                	li	a4,14
20000210:	fef774e3          	bgeu	a4,a5,200001f8 <reset_non_control_endpoints+0x8>
20000214:	3c000613          	li	a2,960
20000218:	4581                	li	a1,0
2000021a:	20004537          	lui	a0,0x20004
2000021e:	16c50513          	addi	a0,a0,364 # 2000416c <hw_endpoints+0x40>
20000222:	f0007097          	auipc	ra,0xf0007
20000226:	292080e7          	jalr	658(ra) # 100074b4 <memset>
2000022a:	501007b7          	lui	a5,0x50100
2000022e:	18078793          	addi	a5,a5,384 # 50100180 <__StackTop+0x3007e180>
20000232:	84f1a9a3          	sw	a5,-1965(gp) # 200045c8 <next_buffer_ptr>
20000236:	40b2                	lw	ra,12(sp)
20000238:	0141                	addi	sp,sp,16
2000023a:	8082                	ret

2000023c <hw_handle_buff_status>:
2000023c:	7179                	addi	sp,sp,-48
2000023e:	d606                	sw	ra,44(sp)
20000240:	d422                	sw	s0,40(sp)
20000242:	d226                	sw	s1,36(sp)
20000244:	d04a                	sw	s2,32(sp)
20000246:	ce4e                	sw	s3,28(sp)
20000248:	cc52                	sw	s4,24(sp)
2000024a:	ca56                	sw	s5,20(sp)
2000024c:	501107b7          	lui	a5,0x50110
20000250:	0587a983          	lw	s3,88(a5) # 50110058 <__StackTop+0x3008e058>
20000254:	4401                	li	s0,0
20000256:	4905                	li	s2,1
20000258:	a039                	j	20000266 <hw_handle_buff_status+0x2a>
2000025a:	4129f9b3          	andn	s3,s3,s2
2000025e:	0906                	slli	s2,s2,0x1
20000260:	0405                	addi	s0,s0,1
20000262:	0ff47413          	zext.b	s0,s0
20000266:	02043793          	sltiu	a5,s0,32
2000026a:	06098763          	beqz	s3,200002d8 <hw_handle_buff_status+0x9c>
2000026e:	c7ad                	beqz	a5,200002d8 <hw_handle_buff_status+0x9c>
20000270:	0129f7b3          	and	a5,s3,s2
20000274:	d7ed                	beqz	a5,2000025e <hw_handle_buff_status+0x22>
20000276:	501137b7          	lui	a5,0x50113
2000027a:	0527ac23          	sw	s2,88(a5) # 50113058 <__StackTop+0x30091058>
2000027e:	00145a13          	srli	s4,s0,0x1
20000282:	4785                	li	a5,1
20000284:	4087fab3          	andn	s5,a5,s0
20000288:	0fe47493          	andi	s1,s0,254
2000028c:	94d6                	add	s1,s1,s5
2000028e:	0496                	slli	s1,s1,0x5
20000290:	200047b7          	lui	a5,0x20004
20000294:	12c78793          	addi	a5,a5,300 # 2000412c <hw_endpoints>
20000298:	94be                	add	s1,s1,a5
2000029a:	8526                	mv	a0,s1
2000029c:	2b35                	jal	200007d8 <hw_endpoint_xfer_continue>
2000029e:	dd55                	beqz	a0,2000025a <hw_handle_buff_status+0x1e>
200002a0:	200047b7          	lui	a5,0x20004
200002a4:	215a2a33          	sh1add	s4,s4,s5
200002a8:	0a16                	slli	s4,s4,0x5
200002aa:	12c78793          	addi	a5,a5,300 # 2000412c <hw_endpoints>
200002ae:	97d2                	add	a5,a5,s4
200002b0:	0027c703          	lbu	a4,2(a5)
200002b4:	0167d783          	lhu	a5,22(a5)
200002b8:	00010223          	sb	zero,4(sp)
200002bc:	469d                	li	a3,7
200002be:	00d102a3          	sb	a3,5(sp)
200002c2:	00e10423          	sb	a4,8(sp)
200002c6:	c63e                	sw	a5,12(sp)
200002c8:	000104a3          	sb	zero,9(sp)
200002cc:	4585                	li	a1,1
200002ce:	0048                	addi	a0,sp,4
200002d0:	2ba1                	jal	20000828 <dcd_event_handler>
200002d2:	8526                	mv	a0,s1
200002d4:	2911                	jal	200006e8 <hw_endpoint_reset_transfer>
200002d6:	b751                	j	2000025a <hw_handle_buff_status+0x1e>
200002d8:	50b2                	lw	ra,44(sp)
200002da:	5422                	lw	s0,40(sp)
200002dc:	5492                	lw	s1,36(sp)
200002de:	5902                	lw	s2,32(sp)
200002e0:	49f2                	lw	s3,28(sp)
200002e2:	4a62                	lw	s4,24(sp)
200002e4:	4ad2                	lw	s5,20(sp)
200002e6:	6145                	addi	sp,sp,48
200002e8:	8082                	ret

200002ea <dcd_rp2040_irq>:
200002ea:	7179                	addi	sp,sp,-48
200002ec:	d606                	sw	ra,44(sp)
200002ee:	d422                	sw	s0,40(sp)
200002f0:	d226                	sw	s1,36(sp)
200002f2:	501107b7          	lui	a5,0x50110
200002f6:	0987a483          	lw	s1,152(a5) # 50110098 <__StackTop+0x3008e098>
200002fa:	00020437          	lui	s0,0x20
200002fe:	8c65                	and	s0,s0,s1
20000300:	c845                	beqz	s0,200003b0 <dcd_rp2040_irq+0xc6>
20000302:	d04a                	sw	s2,32(sp)
20000304:	400b07b7          	lui	a5,0x400b0
20000308:	5798                	lw	a4,40(a5)
2000030a:	84e1aba3          	sw	a4,-1961(gp) # 200045cc <e15_last_sof>
2000030e:	4401                	li	s0,0
20000310:	4601                	li	a2,0
20000312:	a829                	j	2000032c <dcd_rp2040_irq+0x42>
20000314:	200047b7          	lui	a5,0x20004
20000318:	12c78793          	addi	a5,a5,300 # 2000412c <hw_endpoints>
2000031c:	97ba                	add	a5,a5,a4
2000031e:	02078e23          	sb	zero,60(a5)
20000322:	290d                	jal	20000754 <hw_endpoint_start_next_buffer>
20000324:	864a                	mv	a2,s2
20000326:	0405                	addi	s0,s0,1 # 20001 <HeapSize+0x1f801>
20000328:	0ff47413          	zext.b	s0,s0
2000032c:	47bd                	li	a5,15
2000032e:	0487e663          	bltu	a5,s0,2000037a <dcd_rp2040_irq+0x90>
20000332:	00641713          	slli	a4,s0,0x6
20000336:	02070513          	addi	a0,a4,32
2000033a:	200047b7          	lui	a5,0x20004
2000033e:	12c78793          	addi	a5,a5,300 # 2000412c <hw_endpoints>
20000342:	953e                	add	a0,a0,a5
20000344:	97ba                	add	a5,a5,a4
20000346:	03b7c703          	lbu	a4,59(a5)
2000034a:	4789                	li	a5,2
2000034c:	fcf71de3          	bne	a4,a5,20000326 <dcd_rp2040_irq+0x3c>
20000350:	200047b7          	lui	a5,0x20004
20000354:	00641713          	slli	a4,s0,0x6
20000358:	12c78793          	addi	a5,a5,300 # 2000412c <hw_endpoints>
2000035c:	97ba                	add	a5,a5,a4
2000035e:	03a7c903          	lbu	s2,58(a5)
20000362:	fc0902e3          	beqz	s2,20000326 <dcd_rp2040_irq+0x3c>
20000366:	200047b7          	lui	a5,0x20004
2000036a:	12c78793          	addi	a5,a5,300 # 2000412c <hw_endpoints>
2000036e:	97ba                	add	a5,a5,a4
20000370:	03c7c783          	lbu	a5,60(a5)
20000374:	f3c5                	bnez	a5,20000314 <dcd_rp2040_irq+0x2a>
20000376:	864a                	mv	a2,s2
20000378:	b77d                	j	20000326 <dcd_rp2040_irq+0x3c>
2000037a:	ea11                	bnez	a2,2000038e <dcd_rp2040_irq+0xa4>
2000037c:	84f1c783          	lbu	a5,-1969(gp) # 200045c4 <_sof_enable>
20000380:	e799                	bnez	a5,2000038e <dcd_rp2040_irq+0xa4>
20000382:	501137b7          	lui	a5,0x50113
20000386:	00020737          	lui	a4,0x20
2000038a:	08e7a823          	sw	a4,144(a5) # 50113090 <__StackTop+0x30091090>
2000038e:	501107b7          	lui	a5,0x50110
20000392:	47bc                	lw	a5,72(a5)
20000394:	7ff7f793          	andi	a5,a5,2047
20000398:	00010223          	sb	zero,4(sp)
2000039c:	470d                	li	a4,3
2000039e:	00e102a3          	sb	a4,5(sp)
200003a2:	c43e                	sw	a5,8(sp)
200003a4:	4585                	li	a1,1
200003a6:	0048                	addi	a0,sp,4
200003a8:	2141                	jal	20000828 <dcd_event_handler>
200003aa:	00020437          	lui	s0,0x20
200003ae:	5902                	lw	s2,32(sp)
200003b0:	0104f793          	andi	a5,s1,16
200003b4:	ef81                	bnez	a5,200003cc <dcd_rp2040_irq+0xe2>
200003b6:	00f49793          	slli	a5,s1,0xf
200003ba:	0a07dc63          	bgez	a5,20000472 <dcd_rp2040_irq+0x188>
200003be:	d04a                	sw	s2,32(sp)
200003c0:	ce4e                	sw	s3,28(sp)
200003c2:	ca56                	sw	s5,20(sp)
200003c4:	29041413          	bseti	s0,s0,0x10
200003c8:	4901                	li	s2,0
200003ca:	a899                	j	20000420 <dcd_rp2040_irq+0x136>
200003cc:	01046413          	ori	s0,s0,16
200003d0:	35b5                	jal	2000023c <hw_handle_buff_status>
200003d2:	b7d5                	j	200003b6 <dcd_rp2040_irq+0xcc>
200003d4:	4a09                	li	s4,2
200003d6:	501127b7          	lui	a5,0x50112
200003da:	0747a023          	sw	s4,96(a5) # 50112060 <__StackTop+0x30090060>
200003de:	501107b7          	lui	a5,0x50110
200003e2:	53fc                	lw	a5,100(a5)
200003e4:	00fa77b3          	and	a5,s4,a5
200003e8:	fefa1be3          	bne	s4,a5,200003de <dcd_rp2040_irq+0xf4>
200003ec:	660d                	lui	a2,0x3
200003ee:	4581                	li	a1,0
200003f0:	854e                	mv	a0,s3
200003f2:	2629                	jal	200006fc <_hw_endpoint_buffer_control_update32>
200003f4:	854e                	mv	a0,s3
200003f6:	2ccd                	jal	200006e8 <hw_endpoint_reset_transfer>
200003f8:	501137b7          	lui	a5,0x50113
200003fc:	0747a223          	sw	s4,100(a5) # 50113064 <__StackTop+0x30091064>
20000400:	0747a023          	sw	s4,96(a5)
20000404:	4a62                	lw	s4,24(sp)
20000406:	200047b7          	lui	a5,0x20004
2000040a:	005a9713          	slli	a4,s5,0x5
2000040e:	12c78793          	addi	a5,a5,300 # 2000412c <hw_endpoints>
20000412:	97ba                	add	a5,a5,a4
20000414:	4705                	li	a4,1
20000416:	00e781a3          	sb	a4,3(a5)
2000041a:	993a                	add	s2,s2,a4
2000041c:	0ff97913          	zext.b	s2,s2
20000420:	4785                	li	a5,1
20000422:	0327e263          	bltu	a5,s2,20000446 <dcd_rp2040_irq+0x15c>
20000426:	8aca                	mv	s5,s2
20000428:	00591993          	slli	s3,s2,0x5
2000042c:	200047b7          	lui	a5,0x20004
20000430:	12c78793          	addi	a5,a5,300 # 2000412c <hw_endpoints>
20000434:	99be                	add	s3,s3,a5
20000436:	01a9c783          	lbu	a5,26(s3)
2000043a:	d7f1                	beqz	a5,20000406 <dcd_rp2040_irq+0x11c>
2000043c:	cc52                	sw	s4,24(sp)
2000043e:	f8090be3          	beqz	s2,200003d4 <dcd_rp2040_irq+0xea>
20000442:	4a05                	li	s4,1
20000444:	bf49                	j	200003d6 <dcd_rp2040_irq+0xec>
20000446:	00010223          	sb	zero,4(sp)
2000044a:	4799                	li	a5,6
2000044c:	00f102a3          	sb	a5,5(sp)
20000450:	501007b7          	lui	a5,0x50100
20000454:	4398                	lw	a4,0(a5)
20000456:	c43a                	sw	a4,8(sp)
20000458:	43dc                	lw	a5,4(a5)
2000045a:	c63e                	sw	a5,12(sp)
2000045c:	4585                	li	a1,1
2000045e:	0048                	addi	a0,sp,4
20000460:	26e1                	jal	20000828 <dcd_event_handler>
20000462:	501137b7          	lui	a5,0x50113
20000466:	00020737          	lui	a4,0x20
2000046a:	cbb8                	sw	a4,80(a5)
2000046c:	5902                	lw	s2,32(sp)
2000046e:	49f2                	lw	s3,28(sp)
20000470:	4ad2                	lw	s5,20(sp)
20000472:	01349793          	slli	a5,s1,0x13
20000476:	0207c163          	bltz	a5,20000498 <dcd_rp2040_irq+0x1ae>
2000047a:	01149793          	slli	a5,s1,0x11
2000047e:	0407c363          	bltz	a5,200004c4 <dcd_rp2040_irq+0x1da>
20000482:	01049793          	slli	a5,s1,0x10
20000486:	0407cf63          	bltz	a5,200004e4 <dcd_rp2040_irq+0x1fa>
2000048a:	06941d63          	bne	s0,s1,20000504 <dcd_rp2040_irq+0x21a>
2000048e:	50b2                	lw	ra,44(sp)
20000490:	5422                	lw	s0,40(sp)
20000492:	5492                	lw	s1,36(sp)
20000494:	6145                	addi	sp,sp,48
20000496:	8082                	ret
20000498:	28c41413          	bseti	s0,s0,0xc
2000049c:	501107b7          	lui	a5,0x50110
200004a0:	0007a023          	sw	zero,0(a5) # 50110000 <__StackTop+0x3008e000>
200004a4:	33b1                	jal	200001f0 <reset_non_control_endpoints>
200004a6:	00010223          	sb	zero,4(sp)
200004aa:	4785                	li	a5,1
200004ac:	00f102a3          	sb	a5,5(sp)
200004b0:	c402                	sw	zero,8(sp)
200004b2:	85be                	mv	a1,a5
200004b4:	0048                	addi	a0,sp,4
200004b6:	2e8d                	jal	20000828 <dcd_event_handler>
200004b8:	501137b7          	lui	a5,0x50113
200004bc:	00080737          	lui	a4,0x80
200004c0:	cbb8                	sw	a4,80(a5)
200004c2:	bf65                	j	2000047a <dcd_rp2040_irq+0x190>
200004c4:	28e41413          	bseti	s0,s0,0xe
200004c8:	00010223          	sb	zero,4(sp)
200004cc:	4791                	li	a5,4
200004ce:	00f102a3          	sb	a5,5(sp)
200004d2:	4585                	li	a1,1
200004d4:	00f10533          	add	a0,sp,a5
200004d8:	2e81                	jal	20000828 <dcd_event_handler>
200004da:	501137b7          	lui	a5,0x50113
200004de:	4741                	li	a4,16
200004e0:	cbb8                	sw	a4,80(a5)
200004e2:	b745                	j	20000482 <dcd_rp2040_irq+0x198>
200004e4:	28f41413          	bseti	s0,s0,0xf
200004e8:	00010223          	sb	zero,4(sp)
200004ec:	4795                	li	a5,5
200004ee:	00f102a3          	sb	a5,5(sp)
200004f2:	4585                	li	a1,1
200004f4:	0048                	addi	a0,sp,4
200004f6:	2e0d                	jal	20000828 <dcd_event_handler>
200004f8:	501137b7          	lui	a5,0x50113
200004fc:	28b01713          	bseti	a4,zero,0xb
20000500:	cbb8                	sw	a4,80(a5)
20000502:	b761                	j	2000048a <dcd_rp2040_irq+0x1a0>
20000504:	d04a                	sw	s2,32(sp)
20000506:	ce4e                	sw	s3,28(sp)
20000508:	cc52                	sw	s4,24(sp)
2000050a:	ca56                	sw	s5,20(sp)
2000050c:	009445b3          	xor	a1,s0,s1
20000510:	10008537          	lui	a0,0x10008
20000514:	20c50513          	addi	a0,a0,524 # 1000820c <__EH_FRAME_BEGIN__+0xa6c>
20000518:	f0000097          	auipc	ra,0xf0000
2000051c:	220080e7          	jalr	544(ra) # 10000738 <panic>

20000520 <prepare_ep_buffer>:
20000520:	1101                	addi	sp,sp,-32
20000522:	ce06                	sw	ra,28(sp)
20000524:	cc22                	sw	s0,24(sp)
20000526:	ca26                	sw	s1,20(sp)
20000528:	c84a                	sw	s2,16(sp)
2000052a:	c64e                	sw	s3,12(sp)
2000052c:	842a                	mv	s0,a0
2000052e:	89ae                	mv	s3,a1
20000530:	01455783          	lhu	a5,20(a0)
20000534:	01855903          	lhu	s2,24(a0)
20000538:	0b27d933          	minu	s2,a5,s2
2000053c:	412787b3          	sub	a5,a5,s2
20000540:	00f51a23          	sh	a5,20(a0)
20000544:	40096713          	ori	a4,s2,1024
20000548:	00354783          	lbu	a5,3(a0)
2000054c:	cb95                	beqz	a5,20000580 <prepare_ep_buffer+0x60>
2000054e:	6489                	lui	s1,0x2
20000550:	8cd9                	or	s1,s1,a4
20000552:	0017c793          	xori	a5,a5,1
20000556:	00f401a3          	sb	a5,3(s0) # 20003 <HeapSize+0x1f803>
2000055a:	00144783          	lbu	a5,1(s0)
2000055e:	c39d                	beqz	a5,20000584 <prepare_ep_buffer+0x64>
20000560:	01445783          	lhu	a5,20(s0)
20000564:	e399                	bnez	a5,2000056a <prepare_ep_buffer+0x4a>
20000566:	28e49493          	bseti	s1,s1,0xe
2000056a:	00098363          	beqz	s3,20000570 <prepare_ep_buffer+0x50>
2000056e:	04c2                	slli	s1,s1,0x10
20000570:	8526                	mv	a0,s1
20000572:	40f2                	lw	ra,28(sp)
20000574:	4462                	lw	s0,24(sp)
20000576:	44d2                	lw	s1,20(sp)
20000578:	4942                	lw	s2,16(sp)
2000057a:	49b2                	lw	s3,12(sp)
2000057c:	6105                	addi	sp,sp,32
2000057e:	8082                	ret
20000580:	4481                	li	s1,0
20000582:	b7f9                	j	20000550 <prepare_ep_buffer+0x30>
20000584:	445c                	lw	a5,12(s0)
20000586:	00699513          	slli	a0,s3,0x6
2000058a:	864a                	mv	a2,s2
2000058c:	480c                	lw	a1,16(s0)
2000058e:	953e                	add	a0,a0,a5
20000590:	f0004097          	auipc	ra,0xf0004
20000594:	f96080e7          	jalr	-106(ra) # 10004526 <unaligned_memcpy>
20000598:	481c                	lw	a5,16(s0)
2000059a:	97ca                	add	a5,a5,s2
2000059c:	c81c                	sw	a5,16(s0)
2000059e:	28f49493          	bseti	s1,s1,0xf
200005a2:	bf7d                	j	20000560 <prepare_ep_buffer+0x40>

200005a4 <e15_is_bulkin_ep>:
200005a4:	501107b7          	lui	a5,0x50110
200005a8:	43bc                	lw	a5,64(a5)
200005aa:	8b89                	andi	a5,a5,2
200005ac:	e385                	bnez	a5,200005cc <e15_is_bulkin_ep+0x28>
200005ae:	00254783          	lbu	a5,2(a0)
200005b2:	839d                	srli	a5,a5,0x7
200005b4:	e399                	bnez	a5,200005ba <e15_is_bulkin_ep+0x16>
200005b6:	4501                	li	a0,0
200005b8:	8082                	ret
200005ba:	01b54703          	lbu	a4,27(a0)
200005be:	4789                	li	a5,2
200005c0:	00f70463          	beq	a4,a5,200005c8 <e15_is_bulkin_ep+0x24>
200005c4:	4501                	li	a0,0
200005c6:	8082                	ret
200005c8:	4505                	li	a0,1
200005ca:	8082                	ret
200005cc:	4501                	li	a0,0
200005ce:	8082                	ret

200005d0 <e15_is_critical_frame_period>:
200005d0:	1141                	addi	sp,sp,-16
200005d2:	c606                	sw	ra,12(sp)
200005d4:	3fc1                	jal	200005a4 <e15_is_bulkin_ep>
200005d6:	cd09                	beqz	a0,200005f0 <e15_is_critical_frame_period+0x20>
200005d8:	400b07b7          	lui	a5,0x400b0
200005dc:	579c                	lw	a5,40(a5)
200005de:	8571a703          	lw	a4,-1961(gp) # 200045cc <e15_last_sof>
200005e2:	8f99                	sub	a5,a5,a4
200005e4:	ce078793          	addi	a5,a5,-800 # 400afce0 <__StackTop+0x2002dce0>
200005e8:	0c600713          	li	a4,198
200005ec:	00f76563          	bltu	a4,a5,200005f6 <e15_is_critical_frame_period+0x26>
200005f0:	40b2                	lw	ra,12(sp)
200005f2:	0141                	addi	sp,sp,16
200005f4:	8082                	ret
200005f6:	4501                	li	a0,0
200005f8:	bfe5                	j	200005f0 <e15_is_critical_frame_period+0x20>

200005fa <sync_ep_buffer>:
200005fa:	1141                	addi	sp,sp,-16
200005fc:	c606                	sw	ra,12(sp)
200005fe:	c422                	sw	s0,8(sp)
20000600:	c226                	sw	s1,4(sp)
20000602:	842a                	mv	s0,a0
20000604:	451c                	lw	a5,8(a0)
20000606:	439c                	lw	a5,0(a5)
20000608:	c191                	beqz	a1,2000060c <sync_ep_buffer+0x12>
2000060a:	83c1                	srli	a5,a5,0x10
2000060c:	3ff7f493          	andi	s1,a5,1023
20000610:	00144703          	lbu	a4,1(s0)
20000614:	eb21                	bnez	a4,20000664 <sync_ep_buffer+0x6a>
20000616:	01079713          	slli	a4,a5,0x10
2000061a:	02074363          	bltz	a4,20000640 <sync_ep_buffer+0x46>
2000061e:	01645783          	lhu	a5,22(s0)
20000622:	97a6                	add	a5,a5,s1
20000624:	00f41b23          	sh	a5,22(s0)
20000628:	01845783          	lhu	a5,24(s0)
2000062c:	00f4f463          	bgeu	s1,a5,20000634 <sync_ep_buffer+0x3a>
20000630:	00041a23          	sh	zero,20(s0)
20000634:	8526                	mv	a0,s1
20000636:	40b2                	lw	ra,12(sp)
20000638:	4422                	lw	s0,8(sp)
2000063a:	4492                	lw	s1,4(sp)
2000063c:	0141                	addi	sp,sp,16
2000063e:	8082                	ret
20000640:	100086b7          	lui	a3,0x10008
20000644:	22c68693          	addi	a3,a3,556 # 1000822c <__EH_FRAME_BEGIN__+0xa8c>
20000648:	10008637          	lui	a2,0x10008
2000064c:	7f460613          	addi	a2,a2,2036 # 100087f4 <__func__.0>
20000650:	0e800593          	li	a1,232
20000654:	10008537          	lui	a0,0x10008
20000658:	24c50513          	addi	a0,a0,588 # 1000824c <__EH_FRAME_BEGIN__+0xaac>
2000065c:	f0003097          	auipc	ra,0xf0003
20000660:	f78080e7          	jalr	-136(ra) # 100035d4 <__assert_func>
20000664:	01079713          	slli	a4,a5,0x10
20000668:	02075463          	bgez	a4,20000690 <sync_ep_buffer+0x96>
2000066c:	445c                	lw	a5,12(s0)
2000066e:	059a                	slli	a1,a1,0x6
20000670:	8626                	mv	a2,s1
20000672:	95be                	add	a1,a1,a5
20000674:	4808                	lw	a0,16(s0)
20000676:	f0004097          	auipc	ra,0xf0004
2000067a:	eb0080e7          	jalr	-336(ra) # 10004526 <unaligned_memcpy>
2000067e:	01645783          	lhu	a5,22(s0)
20000682:	97a6                	add	a5,a5,s1
20000684:	00f41b23          	sh	a5,22(s0)
20000688:	481c                	lw	a5,16(s0)
2000068a:	97a6                	add	a5,a5,s1
2000068c:	c81c                	sw	a5,16(s0)
2000068e:	bf69                	j	20000628 <sync_ep_buffer+0x2e>
20000690:	100086b7          	lui	a3,0x10008
20000694:	2a868693          	addi	a3,a3,680 # 100082a8 <__EH_FRAME_BEGIN__+0xb08>
20000698:	10008637          	lui	a2,0x10008
2000069c:	7f460613          	addi	a2,a2,2036 # 100087f4 <__func__.0>
200006a0:	0ee00593          	li	a1,238
200006a4:	10008537          	lui	a0,0x10008
200006a8:	24c50513          	addi	a0,a0,588 # 1000824c <__EH_FRAME_BEGIN__+0xaac>
200006ac:	f0003097          	auipc	ra,0xf0003
200006b0:	f28080e7          	jalr	-216(ra) # 100035d4 <__assert_func>

200006b4 <_hw_endpoint_xfer_sync>:
200006b4:	1141                	addi	sp,sp,-16
200006b6:	c606                	sw	ra,12(sp)
200006b8:	c422                	sw	s0,8(sp)
200006ba:	842a                	mv	s0,a0
200006bc:	451c                	lw	a5,8(a0)
200006be:	439c                	lw	a5,0(a5)
200006c0:	4581                	li	a1,0
200006c2:	3f25                	jal	200005fa <sync_ep_buffer>
200006c4:	405c                	lw	a5,4(s0)
200006c6:	439c                	lw	a5,0(a5)
200006c8:	00179713          	slli	a4,a5,0x1
200006cc:	00075663          	bgez	a4,200006d8 <_hw_endpoint_xfer_sync+0x24>
200006d0:	01845783          	lhu	a5,24(s0)
200006d4:	00a78663          	beq	a5,a0,200006e0 <_hw_endpoint_xfer_sync+0x2c>
200006d8:	40b2                	lw	ra,12(sp)
200006da:	4422                	lw	s0,8(sp)
200006dc:	0141                	addi	sp,sp,16
200006de:	8082                	ret
200006e0:	4585                	li	a1,1
200006e2:	8522                	mv	a0,s0
200006e4:	3f19                	jal	200005fa <sync_ep_buffer>
200006e6:	bfcd                	j	200006d8 <_hw_endpoint_xfer_sync+0x24>

200006e8 <hw_endpoint_reset_transfer>:
200006e8:	00050d23          	sb	zero,26(a0)
200006ec:	00051a23          	sh	zero,20(a0)
200006f0:	00051b23          	sh	zero,22(a0)
200006f4:	00052823          	sw	zero,16(a0)
200006f8:	8082                	ret
	...

200006fc <_hw_endpoint_buffer_control_update32>:
200006fc:	c581                	beqz	a1,20000704 <_hw_endpoint_buffer_control_update32+0x8>
200006fe:	451c                	lw	a5,8(a0)
20000700:	439c                	lw	a5,0(a5)
20000702:	8dfd                	and	a1,a1,a5
20000704:	ca05                	beqz	a2,20000734 <_hw_endpoint_buffer_control_update32+0x38>
20000706:	8dd1                	or	a1,a1,a2
20000708:	40067613          	andi	a2,a2,1024
2000070c:	c605                	beqz	a2,20000734 <_hw_endpoint_buffer_control_update32+0x38>
2000070e:	4518                	lw	a4,8(a0)
20000710:	431c                	lw	a5,0(a4)
20000712:	4007f793          	andi	a5,a5,1024
20000716:	e395                	bnez	a5,2000073a <_hw_endpoint_buffer_control_update32+0x3e>
20000718:	bff5f793          	andi	a5,a1,-1025
2000071c:	c31c                	sw	a5,0(a4)
2000071e:	501107b7          	lui	a5,0x50110
20000722:	43bc                	lw	a5,64(a5)
20000724:	8b89                	andi	a5,a5,2
20000726:	e799                	bnez	a5,20000734 <_hw_endpoint_buffer_control_update32+0x38>
20000728:	47b1                	li	a5,12
2000072a:	0001                	nop
2000072c:	ffe78793          	addi	a5,a5,-2 # 5010fffe <__StackTop+0x3008dffe>
20000730:	fe07dee3          	bgez	a5,2000072c <_hw_endpoint_buffer_control_update32+0x30>
20000734:	451c                	lw	a5,8(a0)
20000736:	c38c                	sw	a1,0(a5)
20000738:	8082                	ret
2000073a:	1141                	addi	sp,sp,-16
2000073c:	c606                	sw	ra,12(sp)
2000073e:	00254583          	lbu	a1,2(a0)
20000742:	10008537          	lui	a0,0x10008
20000746:	2c850513          	addi	a0,a0,712 # 100082c8 <__EH_FRAME_BEGIN__+0xb28>
2000074a:	f0000097          	auipc	ra,0xf0000
2000074e:	fee080e7          	jalr	-18(ra) # 10000738 <panic>
20000752:	0001                	nop

20000754 <hw_endpoint_start_next_buffer>:
20000754:	1141                	addi	sp,sp,-16
20000756:	c606                	sw	ra,12(sp)
20000758:	c422                	sw	s0,8(sp)
2000075a:	c226                	sw	s1,4(sp)
2000075c:	c04a                	sw	s2,0(sp)
2000075e:	842a                	mv	s0,a0
20000760:	415c                	lw	a5,4(a0)
20000762:	4384                	lw	s1,0(a5)
20000764:	4581                	li	a1,0
20000766:	3b6d                	jal	20000520 <prepare_ep_buffer>
20000768:	28c51913          	bseti	s2,a0,0xc
2000076c:	501107b7          	lui	a5,0x50110
20000770:	43bc                	lw	a5,64(a5)
20000772:	8b89                	andi	a5,a5,2
20000774:	cf85                	beqz	a5,200007ac <hw_endpoint_start_next_buffer+0x58>
20000776:	00244783          	lbu	a5,2(s0)
2000077a:	07f7f793          	andi	a5,a5,127
2000077e:	ef8d                	bnez	a5,200007b8 <hw_endpoint_start_next_buffer+0x64>
20000780:	01445703          	lhu	a4,20(s0)
20000784:	c311                	beqz	a4,20000788 <hw_endpoint_start_next_buffer+0x34>
20000786:	cf8d                	beqz	a5,200007c0 <hw_endpoint_start_next_buffer+0x6c>
20000788:	49c49493          	bclri	s1,s1,0x1c
2000078c:	49e49493          	bclri	s1,s1,0x1e
20000790:	29d49493          	bseti	s1,s1,0x1d
20000794:	405c                	lw	a5,4(s0)
20000796:	c384                	sw	s1,0(a5)
20000798:	864a                	mv	a2,s2
2000079a:	4581                	li	a1,0
2000079c:	8522                	mv	a0,s0
2000079e:	3fb9                	jal	200006fc <_hw_endpoint_buffer_control_update32>
200007a0:	40b2                	lw	ra,12(sp)
200007a2:	4422                	lw	s0,8(sp)
200007a4:	4492                	lw	s1,4(sp)
200007a6:	4902                	lw	s2,0(sp)
200007a8:	0141                	addi	sp,sp,16
200007aa:	8082                	ret
200007ac:	00244783          	lbu	a5,2(s0)
200007b0:	839d                	srli	a5,a5,0x7
200007b2:	e789                	bnez	a5,200007bc <hw_endpoint_start_next_buffer+0x68>
200007b4:	4785                	li	a5,1
200007b6:	b7e9                	j	20000780 <hw_endpoint_start_next_buffer+0x2c>
200007b8:	4785                	li	a5,1
200007ba:	b7d9                	j	20000780 <hw_endpoint_start_next_buffer+0x2c>
200007bc:	4781                	li	a5,0
200007be:	b7c9                	j	20000780 <hw_endpoint_start_next_buffer+0x2c>
200007c0:	4585                	li	a1,1
200007c2:	8522                	mv	a0,s0
200007c4:	3bb1                	jal	20000520 <prepare_ep_buffer>
200007c6:	00a96933          	or	s2,s2,a0
200007ca:	49d49493          	bclri	s1,s1,0x1d
200007ce:	29c49493          	bseti	s1,s1,0x1c
200007d2:	29e49493          	bseti	s1,s1,0x1e
200007d6:	bf7d                	j	20000794 <hw_endpoint_start_next_buffer+0x40>

200007d8 <hw_endpoint_xfer_continue>:
200007d8:	1141                	addi	sp,sp,-16
200007da:	c606                	sw	ra,12(sp)
200007dc:	c422                	sw	s0,8(sp)
200007de:	c226                	sw	s1,4(sp)
200007e0:	842a                	mv	s0,a0
200007e2:	01a54483          	lbu	s1,26(a0)
200007e6:	c899                	beqz	s1,200007fc <hw_endpoint_xfer_continue+0x24>
200007e8:	35f1                	jal	200006b4 <_hw_endpoint_xfer_sync>
200007ea:	01445783          	lhu	a5,20(s0)
200007ee:	e38d                	bnez	a5,20000810 <hw_endpoint_xfer_continue+0x38>
200007f0:	8526                	mv	a0,s1
200007f2:	40b2                	lw	ra,12(sp)
200007f4:	4422                	lw	s0,8(sp)
200007f6:	4492                	lw	s1,4(sp)
200007f8:	0141                	addi	sp,sp,16
200007fa:	8082                	ret
200007fc:	00254583          	lbu	a1,2(a0)
20000800:	10008537          	lui	a0,0x10008
20000804:	2e850513          	addi	a0,a0,744 # 100082e8 <__EH_FRAME_BEGIN__+0xb48>
20000808:	f0000097          	auipc	ra,0xf0000
2000080c:	f30080e7          	jalr	-208(ra) # 10000738 <panic>
20000810:	8522                	mv	a0,s0
20000812:	3b7d                	jal	200005d0 <e15_is_critical_frame_period>
20000814:	84aa                	mv	s1,a0
20000816:	c511                	beqz	a0,20000822 <hw_endpoint_xfer_continue+0x4a>
20000818:	4785                	li	a5,1
2000081a:	00f40e23          	sb	a5,28(s0)
2000081e:	4481                	li	s1,0
20000820:	bfc1                	j	200007f0 <hw_endpoint_xfer_continue+0x18>
20000822:	8522                	mv	a0,s0
20000824:	3f05                	jal	20000754 <hw_endpoint_start_next_buffer>
20000826:	b7e9                	j	200007f0 <hw_endpoint_xfer_continue+0x18>

20000828 <dcd_event_handler>:
20000828:	1101                	addi	sp,sp,-32
2000082a:	ce06                	sw	ra,28(sp)
2000082c:	ca26                	sw	s1,20(sp)
2000082e:	c84a                	sw	s2,16(sp)
20000830:	84aa                	mv	s1,a0
20000832:	892e                	mv	s2,a1
20000834:	00154783          	lbu	a5,1(a0)
20000838:	4711                	li	a4,4
2000083a:	0ce78263          	beq	a5,a4,200008fe <dcd_event_handler+0xd6>
2000083e:	02f77163          	bgeu	a4,a5,20000860 <dcd_event_handler+0x38>
20000842:	4715                	li	a4,5
20000844:	0ce78f63          	beq	a5,a4,20000922 <dcd_event_handler+0xfa>
20000848:	cc22                	sw	s0,24(sp)
2000084a:	4719                	li	a4,6
2000084c:	04e79863          	bne	a5,a4,2000089c <dcd_event_handler+0x74>
20000850:	8731c783          	lbu	a5,-1933(gp) # 200045e8 <_usbd_queued_setup>
20000854:	0785                	addi	a5,a5,1 # 50110001 <__StackTop+0x3008e001>
20000856:	0ff7f793          	zext.b	a5,a5
2000085a:	86f189a3          	sb	a5,-1933(gp) # 200045e8 <_usbd_queued_setup>
2000085e:	a83d                	j	2000089c <dcd_event_handler+0x74>
20000860:	cc22                	sw	s0,24(sp)
20000862:	4709                	li	a4,2
20000864:	00e78763          	beq	a5,a4,20000872 <dcd_event_handler+0x4a>
20000868:	470d                	li	a4,3
2000086a:	02e79963          	bne	a5,a4,2000089c <dcd_event_handler+0x74>
2000086e:	4401                	li	s0,0
20000870:	a8d5                	j	20000964 <dcd_event_handler+0x13c>
20000872:	200047b7          	lui	a5,0x20004
20000876:	cfc78793          	addi	a5,a5,-772 # 20003cfc <_usbd_dev>
2000087a:	0007c703          	lbu	a4,0(a5)
2000087e:	9b79                	andi	a4,a4,-2
20000880:	00e78023          	sb	a4,0(a5)
20000884:	0007c703          	lbu	a4,0(a5)
20000888:	9b75                	andi	a4,a4,-3
2000088a:	00e78023          	sb	a4,0(a5)
2000088e:	000780a3          	sb	zero,1(a5)
20000892:	0007c703          	lbu	a4,0(a5)
20000896:	9b6d                	andi	a4,a4,-5
20000898:	00e78023          	sb	a4,0(a5)
2000089c:	8671a403          	lw	s0,-1945(gp) # 200045dc <_usbd_q>
200008a0:	485c                	lw	a5,20(s0)
200008a2:	30047773          	csrrci	a4,mstatus,8
200008a6:	00379693          	slli	a3,a5,0x3
200008aa:	28d016b3          	bset	a3,zero,a3
200008ae:	9bf1                	andi	a5,a5,-4
200008b0:	44d7a62f          	amoor.w.aq	a2,a3,(a5)
200008b4:	8e75                	and	a2,a2,a3
200008b6:	fe6d                	bnez	a2,200008b0 <dcd_event_handler+0x88>
200008b8:	0330000f          	fence	rw,rw
200008bc:	cc18                	sw	a4,24(s0)
200008be:	85a6                	mv	a1,s1
200008c0:	8522                	mv	a0,s0
200008c2:	f0007097          	auipc	ra,0xf0007
200008c6:	a58080e7          	jalr	-1448(ra) # 1000731a <tu_fifo_write>
200008ca:	4858                	lw	a4,20(s0)
200008cc:	4c1c                	lw	a5,24(s0)
200008ce:	0330000f          	fence	rw,rw
200008d2:	00070023          	sb	zero,0(a4) # 80000 <HeapSize+0x7f800>
200008d6:	8ba1                	andi	a5,a5,8
200008d8:	3007a073          	csrs	mstatus,a5
200008dc:	1e050963          	beqz	a0,20000ace <dcd_event_handler+0x2a6>
200008e0:	864a                	mv	a2,s2
200008e2:	0014c583          	lbu	a1,1(s1) # 2001 <HeapSize+0x1801>
200008e6:	0004c503          	lbu	a0,0(s1)
200008ea:	f0004097          	auipc	ra,0xf0004
200008ee:	068080e7          	jalr	104(ra) # 10004952 <tud_event_hook_cb>
200008f2:	4462                	lw	s0,24(sp)
200008f4:	40f2                	lw	ra,28(sp)
200008f6:	44d2                	lw	s1,20(sp)
200008f8:	4942                	lw	s2,16(sp)
200008fa:	6105                	addi	sp,sp,32
200008fc:	8082                	ret
200008fe:	200047b7          	lui	a5,0x20004
20000902:	cfc7a783          	lw	a5,-772(a5) # 20003cfc <_usbd_dev>
20000906:	8b85                	andi	a5,a5,1
20000908:	d7f5                	beqz	a5,200008f4 <dcd_event_handler+0xcc>
2000090a:	cc22                	sw	s0,24(sp)
2000090c:	200047b7          	lui	a5,0x20004
20000910:	cfc78793          	addi	a5,a5,-772 # 20003cfc <_usbd_dev>
20000914:	0007c703          	lbu	a4,0(a5)
20000918:	00476713          	ori	a4,a4,4
2000091c:	00e78023          	sb	a4,0(a5)
20000920:	bfb5                	j	2000089c <dcd_event_handler+0x74>
20000922:	200047b7          	lui	a5,0x20004
20000926:	cfc7a783          	lw	a5,-772(a5) # 20003cfc <_usbd_dev>
2000092a:	8b85                	andi	a5,a5,1
2000092c:	d7e1                	beqz	a5,200008f4 <dcd_event_handler+0xcc>
2000092e:	cc22                	sw	s0,24(sp)
20000930:	200047b7          	lui	a5,0x20004
20000934:	cfc78793          	addi	a5,a5,-772 # 20003cfc <_usbd_dev>
20000938:	0007c703          	lbu	a4,0(a5)
2000093c:	9b6d                	andi	a4,a4,-5
2000093e:	00e78023          	sb	a4,0(a5)
20000942:	bfa9                	j	2000089c <dcd_event_handler+0x74>
20000944:	8f99                	sub	a5,a5,a4
20000946:	0796                	slli	a5,a5,0x5
20000948:	10009737          	lui	a4,0x10009
2000094c:	8bc70713          	addi	a4,a4,-1860 # 100088bc <_usbd_driver>
20000950:	97ba                	add	a5,a5,a4
20000952:	4fdc                	lw	a5,28(a5)
20000954:	c789                	beqz	a5,2000095e <dcd_event_handler+0x136>
20000956:	40cc                	lw	a1,4(s1)
20000958:	0004c503          	lbu	a0,0(s1)
2000095c:	9782                	jalr	a5
2000095e:	0405                	addi	s0,s0,1
20000960:	0ff47413          	zext.b	s0,s0
20000964:	86b1c703          	lbu	a4,-1941(gp) # 200045e0 <_app_driver_count>
20000968:	87a2                	mv	a5,s0
2000096a:	00170693          	addi	a3,a4,1
2000096e:	0086cb63          	blt	a3,s0,20000984 <dcd_event_handler+0x15c>
20000972:	fce479e3          	bgeu	s0,a4,20000944 <dcd_event_handler+0x11c>
20000976:	86f1a783          	lw	a5,-1937(gp) # 200045e4 <_app_driver>
2000097a:	00541713          	slli	a4,s0,0x5
2000097e:	97ba                	add	a5,a5,a4
20000980:	fbe9                	bnez	a5,20000952 <dcd_event_handler+0x12a>
20000982:	bff1                	j	2000095e <dcd_event_handler+0x136>
20000984:	200047b7          	lui	a5,0x20004
20000988:	cfc7a783          	lw	a5,-772(a5) # 20003cfc <_usbd_dev>
2000098c:	4827d793          	bexti	a5,a5,0x2
20000990:	eb99                	bnez	a5,200009a6 <dcd_event_handler+0x17e>
20000992:	200047b7          	lui	a5,0x20004
20000996:	cfc78793          	addi	a5,a5,-772 # 20003cfc <_usbd_dev>
2000099a:	0037c783          	lbu	a5,3(a5)
2000099e:	8b85                	andi	a5,a5,1
200009a0:	e3cd                	bnez	a5,20000a42 <dcd_event_handler+0x21a>
200009a2:	4462                	lw	s0,24(sp)
200009a4:	bf81                	j	200008f4 <dcd_event_handler+0xcc>
200009a6:	200047b7          	lui	a5,0x20004
200009aa:	cfc78793          	addi	a5,a5,-772 # 20003cfc <_usbd_dev>
200009ae:	0007c703          	lbu	a4,0(a5)
200009b2:	9b6d                	andi	a4,a4,-5
200009b4:	00e78023          	sb	a4,0(a5)
200009b8:	c202                	sw	zero,4(sp)
200009ba:	c402                	sw	zero,8(sp)
200009bc:	c602                	sw	zero,12(sp)
200009be:	0004c783          	lbu	a5,0(s1)
200009c2:	00f10223          	sb	a5,4(sp)
200009c6:	4795                	li	a5,5
200009c8:	00f102a3          	sb	a5,5(sp)
200009cc:	8671a403          	lw	s0,-1945(gp) # 200045dc <_usbd_q>
200009d0:	485c                	lw	a5,20(s0)
200009d2:	30047773          	csrrci	a4,mstatus,8
200009d6:	00379693          	slli	a3,a5,0x3
200009da:	28d016b3          	bset	a3,zero,a3
200009de:	9bf1                	andi	a5,a5,-4
200009e0:	44d7a62f          	amoor.w.aq	a2,a3,(a5)
200009e4:	8e75                	and	a2,a2,a3
200009e6:	fe6d                	bnez	a2,200009e0 <dcd_event_handler+0x1b8>
200009e8:	0330000f          	fence	rw,rw
200009ec:	cc18                	sw	a4,24(s0)
200009ee:	004c                	addi	a1,sp,4
200009f0:	8522                	mv	a0,s0
200009f2:	f0007097          	auipc	ra,0xf0007
200009f6:	928080e7          	jalr	-1752(ra) # 1000731a <tu_fifo_write>
200009fa:	4858                	lw	a4,20(s0)
200009fc:	4c1c                	lw	a5,24(s0)
200009fe:	0330000f          	fence	rw,rw
20000a02:	00070023          	sb	zero,0(a4)
20000a06:	8ba1                	andi	a5,a5,8
20000a08:	3007a073          	csrs	mstatus,a5
20000a0c:	c919                	beqz	a0,20000a22 <dcd_event_handler+0x1fa>
20000a0e:	864a                	mv	a2,s2
20000a10:	00514583          	lbu	a1,5(sp)
20000a14:	00414503          	lbu	a0,4(sp)
20000a18:	f0004097          	auipc	ra,0xf0004
20000a1c:	f3a080e7          	jalr	-198(ra) # 10004952 <tud_event_hook_cb>
20000a20:	bf8d                	j	20000992 <dcd_event_handler+0x16a>
20000a22:	16500613          	li	a2,357
20000a26:	100095b7          	lui	a1,0x10009
20000a2a:	83858593          	addi	a1,a1,-1992 # 10008838 <__func__.6>
20000a2e:	10008537          	lui	a0,0x10008
20000a32:	34850513          	addi	a0,a0,840 # 10008348 <__EH_FRAME_BEGIN__+0xba8>
20000a36:	f0003097          	auipc	ra,0xf0003
20000a3a:	f1c080e7          	jalr	-228(ra) # 10003952 <__wrap_printf>
20000a3e:	9002                	ebreak
20000a40:	bf89                	j	20000992 <dcd_event_handler+0x16a>
20000a42:	0004c783          	lbu	a5,0(s1)
20000a46:	00f10223          	sb	a5,4(sp)
20000a4a:	478d                	li	a5,3
20000a4c:	00f102a3          	sb	a5,5(sp)
20000a50:	40dc                	lw	a5,4(s1)
20000a52:	c43e                	sw	a5,8(sp)
20000a54:	8671a403          	lw	s0,-1945(gp) # 200045dc <_usbd_q>
20000a58:	485c                	lw	a5,20(s0)
20000a5a:	30047773          	csrrci	a4,mstatus,8
20000a5e:	00379693          	slli	a3,a5,0x3
20000a62:	28d016b3          	bset	a3,zero,a3
20000a66:	9bf1                	andi	a5,a5,-4
20000a68:	44d7a62f          	amoor.w.aq	a2,a3,(a5)
20000a6c:	8e75                	and	a2,a2,a3
20000a6e:	fe6d                	bnez	a2,20000a68 <dcd_event_handler+0x240>
20000a70:	0330000f          	fence	rw,rw
20000a74:	cc18                	sw	a4,24(s0)
20000a76:	004c                	addi	a1,sp,4
20000a78:	8522                	mv	a0,s0
20000a7a:	f0007097          	auipc	ra,0xf0007
20000a7e:	8a0080e7          	jalr	-1888(ra) # 1000731a <tu_fifo_write>
20000a82:	4858                	lw	a4,20(s0)
20000a84:	4c1c                	lw	a5,24(s0)
20000a86:	0330000f          	fence	rw,rw
20000a8a:	00070023          	sb	zero,0(a4)
20000a8e:	8ba1                	andi	a5,a5,8
20000a90:	3007a073          	csrs	mstatus,a5
20000a94:	cd01                	beqz	a0,20000aac <dcd_event_handler+0x284>
20000a96:	864a                	mv	a2,s2
20000a98:	00514583          	lbu	a1,5(sp)
20000a9c:	00414503          	lbu	a0,4(sp)
20000aa0:	f0004097          	auipc	ra,0xf0004
20000aa4:	eb2080e7          	jalr	-334(ra) # 10004952 <tud_event_hook_cb>
20000aa8:	4462                	lw	s0,24(sp)
20000aaa:	b5a9                	j	200008f4 <dcd_event_handler+0xcc>
20000aac:	16500613          	li	a2,357
20000ab0:	100095b7          	lui	a1,0x10009
20000ab4:	83858593          	addi	a1,a1,-1992 # 10008838 <__func__.6>
20000ab8:	10008537          	lui	a0,0x10008
20000abc:	34850513          	addi	a0,a0,840 # 10008348 <__EH_FRAME_BEGIN__+0xba8>
20000ac0:	f0003097          	auipc	ra,0xf0003
20000ac4:	e92080e7          	jalr	-366(ra) # 10003952 <__wrap_printf>
20000ac8:	9002                	ebreak
20000aca:	4462                	lw	s0,24(sp)
20000acc:	b525                	j	200008f4 <dcd_event_handler+0xcc>
20000ace:	16500613          	li	a2,357
20000ad2:	100095b7          	lui	a1,0x10009
20000ad6:	83858593          	addi	a1,a1,-1992 # 10008838 <__func__.6>
20000ada:	10008537          	lui	a0,0x10008
20000ade:	34850513          	addi	a0,a0,840 # 10008348 <__EH_FRAME_BEGIN__+0xba8>
20000ae2:	f0003097          	auipc	ra,0xf0003
20000ae6:	e70080e7          	jalr	-400(ra) # 10003952 <__wrap_printf>
20000aea:	9002                	ebreak
20000aec:	4462                	lw	s0,24(sp)
20000aee:	b519                	j	200008f4 <dcd_event_handler+0xcc>

20000af0 <__udivdi3>:
20000af0:	8832                	mv	a6,a2
20000af2:	87aa                	mv	a5,a0
20000af4:	88ae                	mv	a7,a1
20000af6:	e6d5                	bnez	a3,20000ba2 <__udivdi3+0xb2>
20000af8:	1cc5f363          	bgeu	a1,a2,20000cbe <__udivdi3+0x1ce>
20000afc:	6741                	lui	a4,0x10
20000afe:	2ce66463          	bltu	a2,a4,20000dc6 <__udivdi3+0x2d6>
20000b02:	01000737          	lui	a4,0x1000
20000b06:	4361                	li	t1,24
20000b08:	00e67363          	bgeu	a2,a4,20000b0e <__udivdi3+0x1e>
20000b0c:	4341                	li	t1,16
20000b0e:	006656b3          	srl	a3,a2,t1
20000b12:	00003717          	auipc	a4,0x3
20000b16:	9aa70713          	addi	a4,a4,-1622 # 200034bc <__clz_tab>
20000b1a:	9736                	add	a4,a4,a3
20000b1c:	00074703          	lbu	a4,0(a4)
20000b20:	02000693          	li	a3,32
20000b24:	971a                	add	a4,a4,t1
20000b26:	00d70d63          	beq	a4,a3,20000b40 <__udivdi3+0x50>
20000b2a:	8e99                	sub	a3,a3,a4
20000b2c:	00d598b3          	sll	a7,a1,a3
20000b30:	00e55733          	srl	a4,a0,a4
20000b34:	00d61833          	sll	a6,a2,a3
20000b38:	00d517b3          	sll	a5,a0,a3
20000b3c:	011768b3          	or	a7,a4,a7
20000b40:	01085613          	srli	a2,a6,0x10
20000b44:	02c8d533          	divu	a0,a7,a2
20000b48:	01081693          	slli	a3,a6,0x10
20000b4c:	82c1                	srli	a3,a3,0x10
20000b4e:	0107d713          	srli	a4,a5,0x10
20000b52:	02c8f8b3          	remu	a7,a7,a2
20000b56:	02a685b3          	mul	a1,a3,a0
20000b5a:	08c2                	slli	a7,a7,0x10
20000b5c:	01176733          	or	a4,a4,a7
20000b60:	00b77a63          	bgeu	a4,a1,20000b74 <__udivdi3+0x84>
20000b64:	00e808b3          	add	a7,a6,a4
20000b68:	8746                	mv	a4,a7
20000b6a:	00b8f463          	bgeu	a7,a1,20000b72 <__udivdi3+0x82>
20000b6e:	2d08f163          	bgeu	a7,a6,20000e30 <__udivdi3+0x340>
20000b72:	157d                	addi	a0,a0,-1
20000b74:	8f0d                	sub	a4,a4,a1
20000b76:	02c755b3          	divu	a1,a4,a2
20000b7a:	07c2                	slli	a5,a5,0x10
20000b7c:	83c1                	srli	a5,a5,0x10
20000b7e:	02c77733          	remu	a4,a4,a2
20000b82:	02b686b3          	mul	a3,a3,a1
20000b86:	0742                	slli	a4,a4,0x10
20000b88:	8fd9                	or	a5,a5,a4
20000b8a:	00d7f863          	bgeu	a5,a3,20000b9a <__udivdi3+0xaa>
20000b8e:	97c2                	add	a5,a5,a6
20000b90:	00d7f463          	bgeu	a5,a3,20000b98 <__udivdi3+0xa8>
20000b94:	2907fc63          	bgeu	a5,a6,20000e2c <__udivdi3+0x33c>
20000b98:	15fd                	addi	a1,a1,-1
20000b9a:	0542                	slli	a0,a0,0x10
20000b9c:	8d4d                	or	a0,a0,a1
20000b9e:	4581                	li	a1,0
20000ba0:	8082                	ret
20000ba2:	00d5f563          	bgeu	a1,a3,20000bac <__udivdi3+0xbc>
20000ba6:	4581                	li	a1,0
20000ba8:	4501                	li	a0,0
20000baa:	8082                	ret
20000bac:	67c1                	lui	a5,0x10
20000bae:	22f6e563          	bltu	a3,a5,20000dd8 <__udivdi3+0x2e8>
20000bb2:	01000737          	lui	a4,0x1000
20000bb6:	47e1                	li	a5,24
20000bb8:	00e6f363          	bgeu	a3,a4,20000bbe <__udivdi3+0xce>
20000bbc:	47c1                	li	a5,16
20000bbe:	00f6d833          	srl	a6,a3,a5
20000bc2:	00003717          	auipc	a4,0x3
20000bc6:	8fa70713          	addi	a4,a4,-1798 # 200034bc <__clz_tab>
20000bca:	9742                	add	a4,a4,a6
20000bcc:	00074703          	lbu	a4,0(a4)
20000bd0:	02000813          	li	a6,32
20000bd4:	973e                	add	a4,a4,a5
20000bd6:	21070763          	beq	a4,a6,20000de4 <__udivdi3+0x2f4>
20000bda:	40e80833          	sub	a6,a6,a4
20000bde:	00e658b3          	srl	a7,a2,a4
20000be2:	010696b3          	sll	a3,a3,a6
20000be6:	00d8e8b3          	or	a7,a7,a3
20000bea:	00e5d333          	srl	t1,a1,a4
20000bee:	0108de93          	srli	t4,a7,0x10
20000bf2:	03d357b3          	divu	a5,t1,t4
20000bf6:	01089e13          	slli	t3,a7,0x10
20000bfa:	010595b3          	sll	a1,a1,a6
20000bfe:	010e5e13          	srli	t3,t3,0x10
20000c02:	00e55733          	srl	a4,a0,a4
20000c06:	8f4d                	or	a4,a4,a1
20000c08:	01075693          	srli	a3,a4,0x10
20000c0c:	01061633          	sll	a2,a2,a6
20000c10:	03d37333          	remu	t1,t1,t4
20000c14:	02fe05b3          	mul	a1,t3,a5
20000c18:	0342                	slli	t1,t1,0x10
20000c1a:	0066e6b3          	or	a3,a3,t1
20000c1e:	00b6fa63          	bgeu	a3,a1,20000c32 <__udivdi3+0x142>
20000c22:	00d88333          	add	t1,a7,a3
20000c26:	869a                	mv	a3,t1
20000c28:	00b37463          	bgeu	t1,a1,20000c30 <__udivdi3+0x140>
20000c2c:	23137563          	bgeu	t1,a7,20000e56 <__udivdi3+0x366>
20000c30:	17fd                	addi	a5,a5,-1 # ffff <HeapSize+0xf7ff>
20000c32:	8e8d                	sub	a3,a3,a1
20000c34:	03d6d333          	divu	t1,a3,t4
20000c38:	0742                	slli	a4,a4,0x10
20000c3a:	8341                	srli	a4,a4,0x10
20000c3c:	03d6f6b3          	remu	a3,a3,t4
20000c40:	026e05b3          	mul	a1,t3,t1
20000c44:	06c2                	slli	a3,a3,0x10
20000c46:	8f55                	or	a4,a4,a3
20000c48:	00b77a63          	bgeu	a4,a1,20000c5c <__udivdi3+0x16c>
20000c4c:	00e886b3          	add	a3,a7,a4
20000c50:	8736                	mv	a4,a3
20000c52:	00b6f463          	bgeu	a3,a1,20000c5a <__udivdi3+0x16a>
20000c56:	1f16f863          	bgeu	a3,a7,20000e46 <__udivdi3+0x356>
20000c5a:	137d                	addi	t1,t1,-1
20000c5c:	07c2                	slli	a5,a5,0x10
20000c5e:	0067e6b3          	or	a3,a5,t1
20000c62:	8f0d                	sub	a4,a4,a1
20000c64:	01061793          	slli	a5,a2,0x10
20000c68:	01031593          	slli	a1,t1,0x10
20000c6c:	83c1                	srli	a5,a5,0x10
20000c6e:	81c1                	srli	a1,a1,0x10
20000c70:	0106d313          	srli	t1,a3,0x10
20000c74:	8241                	srli	a2,a2,0x10
20000c76:	02f30e33          	mul	t3,t1,a5
20000c7a:	02f588b3          	mul	a7,a1,a5
20000c7e:	02c585b3          	mul	a1,a1,a2
20000c82:	0108d793          	srli	a5,a7,0x10
20000c86:	95f2                	add	a1,a1,t3
20000c88:	97ae                	add	a5,a5,a1
20000c8a:	02c30333          	mul	t1,t1,a2
20000c8e:	01c7f463          	bgeu	a5,t3,20000c96 <__udivdi3+0x1a6>
20000c92:	6641                	lui	a2,0x10
20000c94:	9332                	add	t1,t1,a2
20000c96:	0107d613          	srli	a2,a5,0x10
20000c9a:	961a                	add	a2,a2,t1
20000c9c:	00c76d63          	bltu	a4,a2,20000cb6 <__udivdi3+0x1c6>
20000ca0:	08c2                	slli	a7,a7,0x10
20000ca2:	0108d893          	srli	a7,a7,0x10
20000ca6:	07c2                	slli	a5,a5,0x10
20000ca8:	01051533          	sll	a0,a0,a6
20000cac:	97c6                	add	a5,a5,a7
20000cae:	18f57563          	bgeu	a0,a5,20000e38 <__udivdi3+0x348>
20000cb2:	18c71363          	bne	a4,a2,20000e38 <__udivdi3+0x348>
20000cb6:	fff68513          	addi	a0,a3,-1
20000cba:	4581                	li	a1,0
20000cbc:	8082                	ret
20000cbe:	10060a63          	beqz	a2,20000dd2 <__udivdi3+0x2e2>
20000cc2:	6741                	lui	a4,0x10
20000cc4:	14e67263          	bgeu	a2,a4,20000e08 <__udivdi3+0x318>
20000cc8:	10063893          	sltiu	a7,a2,256
20000ccc:	0018b893          	seqz	a7,a7
20000cd0:	088e                	slli	a7,a7,0x3
20000cd2:	011656b3          	srl	a3,a2,a7
20000cd6:	00002717          	auipc	a4,0x2
20000cda:	7e670713          	addi	a4,a4,2022 # 200034bc <__clz_tab>
20000cde:	9736                	add	a4,a4,a3
20000ce0:	00074703          	lbu	a4,0(a4)
20000ce4:	02000693          	li	a3,32
20000ce8:	9746                	add	a4,a4,a7
20000cea:	10d70763          	beq	a4,a3,20000df8 <__udivdi3+0x308>
20000cee:	40e687b3          	sub	a5,a3,a4
20000cf2:	00f61833          	sll	a6,a2,a5
20000cf6:	00e5d333          	srl	t1,a1,a4
20000cfa:	01085893          	srli	a7,a6,0x10
20000cfe:	03135e33          	divu	t3,t1,a7
20000d02:	01081613          	slli	a2,a6,0x10
20000d06:	00f595b3          	sll	a1,a1,a5
20000d0a:	8241                	srli	a2,a2,0x10
20000d0c:	00e55733          	srl	a4,a0,a4
20000d10:	8f4d                	or	a4,a4,a1
20000d12:	01075693          	srli	a3,a4,0x10
20000d16:	00f517b3          	sll	a5,a0,a5
20000d1a:	03137333          	remu	t1,t1,a7
20000d1e:	03c605b3          	mul	a1,a2,t3
20000d22:	0342                	slli	t1,t1,0x10
20000d24:	0066e6b3          	or	a3,a3,t1
20000d28:	00b6fa63          	bgeu	a3,a1,20000d3c <__udivdi3+0x24c>
20000d2c:	00d80533          	add	a0,a6,a3
20000d30:	86aa                	mv	a3,a0
20000d32:	00b57463          	bgeu	a0,a1,20000d3a <__udivdi3+0x24a>
20000d36:	11057463          	bgeu	a0,a6,20000e3e <__udivdi3+0x34e>
20000d3a:	1e7d                	addi	t3,t3,-1
20000d3c:	8e8d                	sub	a3,a3,a1
20000d3e:	0316d533          	divu	a0,a3,a7
20000d42:	0742                	slli	a4,a4,0x10
20000d44:	8341                	srli	a4,a4,0x10
20000d46:	0316f6b3          	remu	a3,a3,a7
20000d4a:	02a60333          	mul	t1,a2,a0
20000d4e:	06c2                	slli	a3,a3,0x10
20000d50:	8f55                	or	a4,a4,a3
20000d52:	00677a63          	bgeu	a4,t1,20000d66 <__udivdi3+0x276>
20000d56:	00e806b3          	add	a3,a6,a4
20000d5a:	8736                	mv	a4,a3
20000d5c:	0066f463          	bgeu	a3,t1,20000d64 <__udivdi3+0x274>
20000d60:	0f06f763          	bgeu	a3,a6,20000e4e <__udivdi3+0x35e>
20000d64:	157d                	addi	a0,a0,-1
20000d66:	010e1593          	slli	a1,t3,0x10
20000d6a:	8dc9                	or	a1,a1,a0
20000d6c:	40670733          	sub	a4,a4,t1
20000d70:	03175533          	divu	a0,a4,a7
20000d74:	0107d693          	srli	a3,a5,0x10
20000d78:	03177733          	remu	a4,a4,a7
20000d7c:	02c50333          	mul	t1,a0,a2
20000d80:	0742                	slli	a4,a4,0x10
20000d82:	8f55                	or	a4,a4,a3
20000d84:	00677a63          	bgeu	a4,t1,20000d98 <__udivdi3+0x2a8>
20000d88:	00e806b3          	add	a3,a6,a4
20000d8c:	8736                	mv	a4,a3
20000d8e:	0066f463          	bgeu	a3,t1,20000d96 <__udivdi3+0x2a6>
20000d92:	0906f963          	bgeu	a3,a6,20000e24 <__udivdi3+0x334>
20000d96:	157d                	addi	a0,a0,-1
20000d98:	40670733          	sub	a4,a4,t1
20000d9c:	031756b3          	divu	a3,a4,a7
20000da0:	07c2                	slli	a5,a5,0x10
20000da2:	83c1                	srli	a5,a5,0x10
20000da4:	03177733          	remu	a4,a4,a7
20000da8:	02c68633          	mul	a2,a3,a2
20000dac:	0742                	slli	a4,a4,0x10
20000dae:	8fd9                	or	a5,a5,a4
20000db0:	00c7f863          	bgeu	a5,a2,20000dc0 <__udivdi3+0x2d0>
20000db4:	97c2                	add	a5,a5,a6
20000db6:	00c7f463          	bgeu	a5,a2,20000dbe <__udivdi3+0x2ce>
20000dba:	0707f363          	bgeu	a5,a6,20000e20 <__udivdi3+0x330>
20000dbe:	16fd                	addi	a3,a3,-1
20000dc0:	0542                	slli	a0,a0,0x10
20000dc2:	8d55                	or	a0,a0,a3
20000dc4:	8082                	ret
20000dc6:	10063313          	sltiu	t1,a2,256
20000dca:	00133313          	seqz	t1,t1
20000dce:	030e                	slli	t1,t1,0x3
20000dd0:	bb3d                	j	20000b0e <__udivdi3+0x1e>
20000dd2:	4681                	li	a3,0
20000dd4:	4881                	li	a7,0
20000dd6:	b701                	j	20000cd6 <__udivdi3+0x1e6>
20000dd8:	1006b793          	sltiu	a5,a3,256
20000ddc:	0017b793          	seqz	a5,a5
20000de0:	078e                	slli	a5,a5,0x3
20000de2:	bbf1                	j	20000bbe <__udivdi3+0xce>
20000de4:	00c53633          	sltu	a2,a0,a2
20000de8:	00b6b6b3          	sltu	a3,a3,a1
20000dec:	00163613          	seqz	a2,a2
20000df0:	00c6e533          	or	a0,a3,a2
20000df4:	4581                	li	a1,0
20000df6:	8082                	ret
20000df8:	40c58733          	sub	a4,a1,a2
20000dfc:	01065893          	srli	a7,a2,0x10
20000e00:	0642                	slli	a2,a2,0x10
20000e02:	8241                	srli	a2,a2,0x10
20000e04:	4585                	li	a1,1
20000e06:	b7ad                	j	20000d70 <__udivdi3+0x280>
20000e08:	01000737          	lui	a4,0x1000
20000e0c:	00e67663          	bgeu	a2,a4,20000e18 <__udivdi3+0x328>
20000e10:	01065693          	srli	a3,a2,0x10
20000e14:	48c1                	li	a7,16
20000e16:	b5c1                	j	20000cd6 <__udivdi3+0x1e6>
20000e18:	01865693          	srli	a3,a2,0x18
20000e1c:	48e1                	li	a7,24
20000e1e:	bd65                	j	20000cd6 <__udivdi3+0x1e6>
20000e20:	16f9                	addi	a3,a3,-2
20000e22:	bf79                	j	20000dc0 <__udivdi3+0x2d0>
20000e24:	1579                	addi	a0,a0,-2
20000e26:	01068733          	add	a4,a3,a6
20000e2a:	b7bd                	j	20000d98 <__udivdi3+0x2a8>
20000e2c:	15f9                	addi	a1,a1,-2
20000e2e:	b3b5                	j	20000b9a <__udivdi3+0xaa>
20000e30:	1579                	addi	a0,a0,-2
20000e32:	01088733          	add	a4,a7,a6
20000e36:	bb3d                	j	20000b74 <__udivdi3+0x84>
20000e38:	8536                	mv	a0,a3
20000e3a:	4581                	li	a1,0
20000e3c:	8082                	ret
20000e3e:	1e79                	addi	t3,t3,-2
20000e40:	010506b3          	add	a3,a0,a6
20000e44:	bde5                	j	20000d3c <__udivdi3+0x24c>
20000e46:	1379                	addi	t1,t1,-2
20000e48:	01168733          	add	a4,a3,a7
20000e4c:	bd01                	j	20000c5c <__udivdi3+0x16c>
20000e4e:	1579                	addi	a0,a0,-2
20000e50:	01068733          	add	a4,a3,a6
20000e54:	bf09                	j	20000d66 <__udivdi3+0x276>
20000e56:	17f9                	addi	a5,a5,-2
20000e58:	011306b3          	add	a3,t1,a7
20000e5c:	bbd9                	j	20000c32 <__udivdi3+0x142>

20000e5e <__umoddi3>:
20000e5e:	8832                	mv	a6,a2
20000e60:	88aa                	mv	a7,a0
20000e62:	832e                	mv	t1,a1
20000e64:	872e                	mv	a4,a1
20000e66:	e6e1                	bnez	a3,20000f2e <__umoddi3+0xd0>
20000e68:	20c5f463          	bgeu	a1,a2,20001070 <__umoddi3+0x212>
20000e6c:	67c1                	lui	a5,0x10
20000e6e:	32f66b63          	bltu	a2,a5,200011a4 <__umoddi3+0x346>
20000e72:	010007b7          	lui	a5,0x1000
20000e76:	46e1                	li	a3,24
20000e78:	00f67363          	bgeu	a2,a5,20000e7e <__umoddi3+0x20>
20000e7c:	46c1                	li	a3,16
20000e7e:	00d65333          	srl	t1,a2,a3
20000e82:	00002797          	auipc	a5,0x2
20000e86:	63a78793          	addi	a5,a5,1594 # 200034bc <__clz_tab>
20000e8a:	979a                	add	a5,a5,t1
20000e8c:	0007c783          	lbu	a5,0(a5)
20000e90:	02000313          	li	t1,32
20000e94:	97b6                	add	a5,a5,a3
20000e96:	40f306b3          	sub	a3,t1,a5
20000e9a:	00678b63          	beq	a5,t1,20000eb0 <__umoddi3+0x52>
20000e9e:	00d59733          	sll	a4,a1,a3
20000ea2:	00f557b3          	srl	a5,a0,a5
20000ea6:	8f5d                	or	a4,a4,a5
20000ea8:	00d61833          	sll	a6,a2,a3
20000eac:	00d518b3          	sll	a7,a0,a3
20000eb0:	01085593          	srli	a1,a6,0x10
20000eb4:	02b75633          	divu	a2,a4,a1
20000eb8:	01081313          	slli	t1,a6,0x10
20000ebc:	01035313          	srli	t1,t1,0x10
20000ec0:	0108d793          	srli	a5,a7,0x10
20000ec4:	02b77733          	remu	a4,a4,a1
20000ec8:	02660633          	mul	a2,a2,t1
20000ecc:	0742                	slli	a4,a4,0x10
20000ece:	8fd9                	or	a5,a5,a4
20000ed0:	00c7ff63          	bgeu	a5,a2,20000eee <__umoddi3+0x90>
20000ed4:	97c2                	add	a5,a5,a6
20000ed6:	0107b533          	sltu	a0,a5,a6
20000eda:	00c7b733          	sltu	a4,a5,a2
20000ede:	00153513          	seqz	a0,a0
20000ee2:	8f69                	and	a4,a4,a0
20000ee4:	40e00733          	neg	a4,a4
20000ee8:	01077733          	and	a4,a4,a6
20000eec:	97ba                	add	a5,a5,a4
20000eee:	8f91                	sub	a5,a5,a2
20000ef0:	02b7d733          	divu	a4,a5,a1
20000ef4:	01089513          	slli	a0,a7,0x10
20000ef8:	8141                	srli	a0,a0,0x10
20000efa:	02b7f7b3          	remu	a5,a5,a1
20000efe:	02670733          	mul	a4,a4,t1
20000f02:	07c2                	slli	a5,a5,0x10
20000f04:	8d5d                	or	a0,a0,a5
20000f06:	00e57f63          	bgeu	a0,a4,20000f24 <__umoddi3+0xc6>
20000f0a:	9542                	add	a0,a0,a6
20000f0c:	01053633          	sltu	a2,a0,a6
20000f10:	00e537b3          	sltu	a5,a0,a4
20000f14:	00163613          	seqz	a2,a2
20000f18:	8ff1                	and	a5,a5,a2
20000f1a:	40f007b3          	neg	a5,a5
20000f1e:	0107f7b3          	and	a5,a5,a6
20000f22:	953e                	add	a0,a0,a5
20000f24:	8d19                	sub	a0,a0,a4
20000f26:	00d55533          	srl	a0,a0,a3
20000f2a:	4581                	li	a1,0
20000f2c:	8082                	ret
20000f2e:	8e2a                	mv	t3,a0
20000f30:	00d5f363          	bgeu	a1,a3,20000f36 <__umoddi3+0xd8>
20000f34:	8082                	ret
20000f36:	67c1                	lui	a5,0x10
20000f38:	26f6ef63          	bltu	a3,a5,200011b6 <__umoddi3+0x358>
20000f3c:	01000737          	lui	a4,0x1000
20000f40:	47e1                	li	a5,24
20000f42:	00e6f363          	bgeu	a3,a4,20000f48 <__umoddi3+0xea>
20000f46:	47c1                	li	a5,16
20000f48:	00f6d833          	srl	a6,a3,a5
20000f4c:	00002717          	auipc	a4,0x2
20000f50:	57070713          	addi	a4,a4,1392 # 200034bc <__clz_tab>
20000f54:	9742                	add	a4,a4,a6
20000f56:	00074883          	lbu	a7,0(a4)
20000f5a:	02000813          	li	a6,32
20000f5e:	98be                	add	a7,a7,a5
20000f60:	27088163          	beq	a7,a6,200011c2 <__umoddi3+0x364>
20000f64:	41180833          	sub	a6,a6,a7
20000f68:	010696b3          	sll	a3,a3,a6
20000f6c:	01165333          	srl	t1,a2,a7
20000f70:	00d36333          	or	t1,t1,a3
20000f74:	0115deb3          	srl	t4,a1,a7
20000f78:	01035f93          	srli	t6,t1,0x10
20000f7c:	03fed7b3          	divu	a5,t4,t6
20000f80:	01031f13          	slli	t5,t1,0x10
20000f84:	010595b3          	sll	a1,a1,a6
20000f88:	010f5f13          	srli	t5,t5,0x10
20000f8c:	011556b3          	srl	a3,a0,a7
20000f90:	8ecd                	or	a3,a3,a1
20000f92:	0106d713          	srli	a4,a3,0x10
20000f96:	01061633          	sll	a2,a2,a6
20000f9a:	01051e33          	sll	t3,a0,a6
20000f9e:	03fefeb3          	remu	t4,t4,t6
20000fa2:	02ff05b3          	mul	a1,t5,a5
20000fa6:	0ec2                	slli	t4,t4,0x10
20000fa8:	01d76733          	or	a4,a4,t4
20000fac:	00b77a63          	bgeu	a4,a1,20000fc0 <__umoddi3+0x162>
20000fb0:	00e30533          	add	a0,t1,a4
20000fb4:	872a                	mv	a4,a0
20000fb6:	00b57463          	bgeu	a0,a1,20000fbe <__umoddi3+0x160>
20000fba:	24657b63          	bgeu	a0,t1,20001210 <__umoddi3+0x3b2>
20000fbe:	17fd                	addi	a5,a5,-1 # ffff <HeapSize+0xf7ff>
20000fc0:	8f0d                	sub	a4,a4,a1
20000fc2:	03f75533          	divu	a0,a4,t6
20000fc6:	06c2                	slli	a3,a3,0x10
20000fc8:	82c1                	srli	a3,a3,0x10
20000fca:	03f77733          	remu	a4,a4,t6
20000fce:	02af05b3          	mul	a1,t5,a0
20000fd2:	0742                	slli	a4,a4,0x10
20000fd4:	8f55                	or	a4,a4,a3
20000fd6:	00b77a63          	bgeu	a4,a1,20000fea <__umoddi3+0x18c>
20000fda:	00e306b3          	add	a3,t1,a4
20000fde:	8736                	mv	a4,a3
20000fe0:	00b6f463          	bgeu	a3,a1,20000fe8 <__umoddi3+0x18a>
20000fe4:	2266f263          	bgeu	a3,t1,20001208 <__umoddi3+0x3aa>
20000fe8:	157d                	addi	a0,a0,-1
20000fea:	07c2                	slli	a5,a5,0x10
20000fec:	8fc9                	or	a5,a5,a0
20000fee:	8f0d                	sub	a4,a4,a1
20000ff0:	01061693          	slli	a3,a2,0x10
20000ff4:	01051593          	slli	a1,a0,0x10
20000ff8:	81c1                	srli	a1,a1,0x10
20000ffa:	82c1                	srli	a3,a3,0x10
20000ffc:	83c1                	srli	a5,a5,0x10
20000ffe:	01065e93          	srli	t4,a2,0x10
20001002:	02d78f33          	mul	t5,a5,a3
20001006:	02d586b3          	mul	a3,a1,a3
2000100a:	03d585b3          	mul	a1,a1,t4
2000100e:	0106d513          	srli	a0,a3,0x10
20001012:	95fa                	add	a1,a1,t5
20001014:	952e                	add	a0,a0,a1
20001016:	03d787b3          	mul	a5,a5,t4
2000101a:	01e57463          	bgeu	a0,t5,20001022 <__umoddi3+0x1c4>
2000101e:	65c1                	lui	a1,0x10
20001020:	97ae                	add	a5,a5,a1
20001022:	01055593          	srli	a1,a0,0x10
20001026:	06c2                	slli	a3,a3,0x10
20001028:	82c1                	srli	a3,a3,0x10
2000102a:	0542                	slli	a0,a0,0x10
2000102c:	97ae                	add	a5,a5,a1
2000102e:	9536                	add	a0,a0,a3
20001030:	00f76863          	bltu	a4,a5,20001040 <__umoddi3+0x1e2>
20001034:	40f705b3          	sub	a1,a4,a5
20001038:	00f71d63          	bne	a4,a5,20001052 <__umoddi3+0x1f4>
2000103c:	00ae7b63          	bgeu	t3,a0,20001052 <__umoddi3+0x1f4>
20001040:	40c50633          	sub	a2,a0,a2
20001044:	00c53533          	sltu	a0,a0,a2
20001048:	951a                	add	a0,a0,t1
2000104a:	8f89                	sub	a5,a5,a0
2000104c:	40f705b3          	sub	a1,a4,a5
20001050:	8532                	mv	a0,a2
20001052:	40ae0533          	sub	a0,t3,a0
20001056:	00ae3e33          	sltu	t3,t3,a0
2000105a:	41c585b3          	sub	a1,a1,t3
2000105e:	011598b3          	sll	a7,a1,a7
20001062:	01055533          	srl	a0,a0,a6
20001066:	0105d5b3          	srl	a1,a1,a6
2000106a:	00a8e533          	or	a0,a7,a0
2000106e:	8082                	ret
20001070:	14060063          	beqz	a2,200011b0 <__umoddi3+0x352>
20001074:	67c1                	lui	a5,0x10
20001076:	16f67463          	bgeu	a2,a5,200011de <__umoddi3+0x380>
2000107a:	10063713          	sltiu	a4,a2,256
2000107e:	00173713          	seqz	a4,a4
20001082:	070e                	slli	a4,a4,0x3
20001084:	00e656b3          	srl	a3,a2,a4
20001088:	00002797          	auipc	a5,0x2
2000108c:	43478793          	addi	a5,a5,1076 # 200034bc <__clz_tab>
20001090:	97b6                	add	a5,a5,a3
20001092:	0007c783          	lbu	a5,0(a5)
20001096:	02000313          	li	t1,32
2000109a:	97ba                	add	a5,a5,a4
2000109c:	40f306b3          	sub	a3,t1,a5
200010a0:	12678863          	beq	a5,t1,200011d0 <__umoddi3+0x372>
200010a4:	00d61833          	sll	a6,a2,a3
200010a8:	00f5de33          	srl	t3,a1,a5
200010ac:	01085313          	srli	t1,a6,0x10
200010b0:	026e5eb3          	divu	t4,t3,t1
200010b4:	01081613          	slli	a2,a6,0x10
200010b8:	00d595b3          	sll	a1,a1,a3
200010bc:	00f55733          	srl	a4,a0,a5
200010c0:	8241                	srli	a2,a2,0x10
200010c2:	8f4d                	or	a4,a4,a1
200010c4:	01075793          	srli	a5,a4,0x10
200010c8:	00d518b3          	sll	a7,a0,a3
200010cc:	026e7e33          	remu	t3,t3,t1
200010d0:	02ce85b3          	mul	a1,t4,a2
200010d4:	0e42                	slli	t3,t3,0x10
200010d6:	01c7e7b3          	or	a5,a5,t3
200010da:	02b7f063          	bgeu	a5,a1,200010fa <__umoddi3+0x29c>
200010de:	97c2                	add	a5,a5,a6
200010e0:	0107be33          	sltu	t3,a5,a6
200010e4:	00b7b533          	sltu	a0,a5,a1
200010e8:	001e3e13          	seqz	t3,t3
200010ec:	01c57533          	and	a0,a0,t3
200010f0:	40a00533          	neg	a0,a0
200010f4:	01057533          	and	a0,a0,a6
200010f8:	97aa                	add	a5,a5,a0
200010fa:	8f8d                	sub	a5,a5,a1
200010fc:	0267d5b3          	divu	a1,a5,t1
20001100:	0742                	slli	a4,a4,0x10
20001102:	8341                	srli	a4,a4,0x10
20001104:	0267f7b3          	remu	a5,a5,t1
20001108:	02c585b3          	mul	a1,a1,a2
2000110c:	07c2                	slli	a5,a5,0x10
2000110e:	8f5d                	or	a4,a4,a5
20001110:	00b77f63          	bgeu	a4,a1,2000112e <__umoddi3+0x2d0>
20001114:	9742                	add	a4,a4,a6
20001116:	01073533          	sltu	a0,a4,a6
2000111a:	00b737b3          	sltu	a5,a4,a1
2000111e:	00153513          	seqz	a0,a0
20001122:	8fe9                	and	a5,a5,a0
20001124:	40f007b3          	neg	a5,a5
20001128:	0107f7b3          	and	a5,a5,a6
2000112c:	973e                	add	a4,a4,a5
2000112e:	8f0d                	sub	a4,a4,a1
20001130:	026755b3          	divu	a1,a4,t1
20001134:	0108d793          	srli	a5,a7,0x10
20001138:	02677733          	remu	a4,a4,t1
2000113c:	02c585b3          	mul	a1,a1,a2
20001140:	0742                	slli	a4,a4,0x10
20001142:	8fd9                	or	a5,a5,a4
20001144:	00b7ff63          	bgeu	a5,a1,20001162 <__umoddi3+0x304>
20001148:	97c2                	add	a5,a5,a6
2000114a:	0107b533          	sltu	a0,a5,a6
2000114e:	00b7b733          	sltu	a4,a5,a1
20001152:	00153513          	seqz	a0,a0
20001156:	8f69                	and	a4,a4,a0
20001158:	40e00733          	neg	a4,a4
2000115c:	01077733          	and	a4,a4,a6
20001160:	97ba                	add	a5,a5,a4
20001162:	8f8d                	sub	a5,a5,a1
20001164:	0267d733          	divu	a4,a5,t1
20001168:	08c2                	slli	a7,a7,0x10
2000116a:	0108d893          	srli	a7,a7,0x10
2000116e:	0267f533          	remu	a0,a5,t1
20001172:	02c707b3          	mul	a5,a4,a2
20001176:	0542                	slli	a0,a0,0x10
20001178:	00a8e533          	or	a0,a7,a0
2000117c:	00f57f63          	bgeu	a0,a5,2000119a <__umoddi3+0x33c>
20001180:	9542                	add	a0,a0,a6
20001182:	01053633          	sltu	a2,a0,a6
20001186:	00f53733          	sltu	a4,a0,a5
2000118a:	00163613          	seqz	a2,a2
2000118e:	8f71                	and	a4,a4,a2
20001190:	40e00733          	neg	a4,a4
20001194:	01077733          	and	a4,a4,a6
20001198:	953a                	add	a0,a0,a4
2000119a:	8d1d                	sub	a0,a0,a5
2000119c:	00d55533          	srl	a0,a0,a3
200011a0:	4581                	li	a1,0
200011a2:	8082                	ret
200011a4:	10063693          	sltiu	a3,a2,256
200011a8:	0016b693          	seqz	a3,a3
200011ac:	068e                	slli	a3,a3,0x3
200011ae:	b9c1                	j	20000e7e <__umoddi3+0x20>
200011b0:	4681                	li	a3,0
200011b2:	4701                	li	a4,0
200011b4:	bdd1                	j	20001088 <__umoddi3+0x22a>
200011b6:	1006b793          	sltiu	a5,a3,256
200011ba:	0017b793          	seqz	a5,a5
200011be:	078e                	slli	a5,a5,0x3
200011c0:	b361                	j	20000f48 <__umoddi3+0xea>
200011c2:	02b6ea63          	bltu	a3,a1,200011f6 <__umoddi3+0x398>
200011c6:	02c57863          	bgeu	a0,a2,200011f6 <__umoddi3+0x398>
200011ca:	8572                	mv	a0,t3
200011cc:	859a                	mv	a1,t1
200011ce:	8082                	ret
200011d0:	40c58733          	sub	a4,a1,a2
200011d4:	01065313          	srli	t1,a2,0x10
200011d8:	0642                	slli	a2,a2,0x10
200011da:	8241                	srli	a2,a2,0x10
200011dc:	bf91                	j	20001130 <__umoddi3+0x2d2>
200011de:	010007b7          	lui	a5,0x1000
200011e2:	00f67663          	bgeu	a2,a5,200011ee <__umoddi3+0x390>
200011e6:	01065693          	srli	a3,a2,0x10
200011ea:	4741                	li	a4,16
200011ec:	bd71                	j	20001088 <__umoddi3+0x22a>
200011ee:	01865693          	srli	a3,a2,0x18
200011f2:	4761                	li	a4,24
200011f4:	bd51                	j	20001088 <__umoddi3+0x22a>
200011f6:	40c50e33          	sub	t3,a0,a2
200011fa:	01c53333          	sltu	t1,a0,t3
200011fe:	40d586b3          	sub	a3,a1,a3
20001202:	40668333          	sub	t1,a3,t1
20001206:	b7d1                	j	200011ca <__umoddi3+0x36c>
20001208:	1579                	addi	a0,a0,-2
2000120a:	00668733          	add	a4,a3,t1
2000120e:	bbf1                	j	20000fea <__umoddi3+0x18c>
20001210:	17f9                	addi	a5,a5,-2 # fffffe <HeapSize+0xfff7fe>
20001212:	00650733          	add	a4,a0,t1
20001216:	b36d                	j	20000fc0 <__umoddi3+0x162>

20001218 <__adddf3>:
20001218:	00100337          	lui	t1,0x100
2000121c:	137d                	addi	t1,t1,-1 # fffff <HeapSize+0xff7ff>
2000121e:	00b377b3          	and	a5,t1,a1
20001222:	00d37e33          	and	t3,t1,a3
20001226:	0145d813          	srli	a6,a1,0x14
2000122a:	0146d893          	srli	a7,a3,0x14
2000122e:	078e                	slli	a5,a5,0x3
20001230:	1101                	addi	sp,sp,-32
20001232:	01d55713          	srli	a4,a0,0x1d
20001236:	8f5d                	or	a4,a4,a5
20001238:	0e0e                	slli	t3,t3,0x3
2000123a:	01d65793          	srli	a5,a2,0x1d
2000123e:	7ff87813          	andi	a6,a6,2047
20001242:	7ff8f893          	andi	a7,a7,2047
20001246:	ce06                	sw	ra,28(sp)
20001248:	81fd                	srli	a1,a1,0x1f
2000124a:	82fd                	srli	a3,a3,0x1f
2000124c:	01c7e7b3          	or	a5,a5,t3
20001250:	41180eb3          	sub	t4,a6,a7
20001254:	00351f13          	slli	t5,a0,0x3
20001258:	00361f93          	slli	t6,a2,0x3
2000125c:	14d58d63          	beq	a1,a3,200013b6 <__adddf3+0x19e>
20001260:	832a                	mv	t1,a0
20001262:	0dd05763          	blez	t4,20001330 <__adddf3+0x118>
20001266:	1e088763          	beqz	a7,20001454 <__adddf3+0x23c>
2000126a:	7ff00693          	li	a3,2047
2000126e:	40d80463          	beq	a6,a3,20001676 <__adddf3+0x45e>
20001272:	03800693          	li	a3,56
20001276:	1fd6cf63          	blt	a3,t4,20001474 <__adddf3+0x25c>
2000127a:	008006b7          	lui	a3,0x800
2000127e:	8fd5                	or	a5,a5,a3
20001280:	46fd                	li	a3,31
20001282:	4fd6c863          	blt	a3,t4,20001772 <__adddf3+0x55a>
20001286:	02000693          	li	a3,32
2000128a:	41d686b3          	sub	a3,a3,t4
2000128e:	00d79633          	sll	a2,a5,a3
20001292:	00df96b3          	sll	a3,t6,a3
20001296:	01dfdfb3          	srl	t6,t6,t4
2000129a:	00d036b3          	snez	a3,a3
2000129e:	01f66633          	or	a2,a2,t6
200012a2:	01d7deb3          	srl	t4,a5,t4
200012a6:	8e55                	or	a2,a2,a3
200012a8:	41d70733          	sub	a4,a4,t4
200012ac:	40cf0633          	sub	a2,t5,a2
200012b0:	00cf37b3          	sltu	a5,t5,a2
200012b4:	8f1d                	sub	a4,a4,a5
200012b6:	00871793          	slli	a5,a4,0x8
200012ba:	3607d263          	bgez	a5,2000161e <__adddf3+0x406>
200012be:	0726                	slli	a4,a4,0x9
200012c0:	8325                	srli	a4,a4,0x9
200012c2:	1c071763          	bnez	a4,20001490 <__adddf3+0x278>
200012c6:	8532                	mv	a0,a2
200012c8:	c63a                	sw	a4,12(sp)
200012ca:	c442                	sw	a6,8(sp)
200012cc:	c22e                	sw	a1,4(sp)
200012ce:	c032                	sw	a2,0(sp)
200012d0:	13e020ef          	jal	2000340e <__clzsi2>
200012d4:	01850693          	addi	a3,a0,24
200012d8:	48fd                	li	a7,31
200012da:	4602                	lw	a2,0(sp)
200012dc:	4592                	lw	a1,4(sp)
200012de:	4822                	lw	a6,8(sp)
200012e0:	4701                	li	a4,0
200012e2:	1cd8d463          	bge	a7,a3,200014aa <__adddf3+0x292>
200012e6:	ff850793          	addi	a5,a0,-8
200012ea:	00f617b3          	sll	a5,a2,a5
200012ee:	4b06c863          	blt	a3,a6,2000179e <__adddf3+0x586>
200012f2:	41068633          	sub	a2,a3,a6
200012f6:	00160693          	addi	a3,a2,1 # 10001 <HeapSize+0xf801>
200012fa:	7ad8da63          	bge	a7,a3,20001aae <__adddf3+0x896>
200012fe:	1605                	addi	a2,a2,-31
20001300:	02000513          	li	a0,32
20001304:	00c7d633          	srl	a2,a5,a2
20001308:	00a68b63          	beq	a3,a0,2000131e <__adddf3+0x106>
2000130c:	04000513          	li	a0,64
20001310:	40d506b3          	sub	a3,a0,a3
20001314:	00d797b3          	sll	a5,a5,a3
20001318:	00f037b3          	snez	a5,a5
2000131c:	8e5d                	or	a2,a2,a5
2000131e:	26060763          	beqz	a2,2000158c <__adddf3+0x374>
20001322:	00767793          	andi	a5,a2,7
20001326:	1c079863          	bnez	a5,200014f6 <__adddf3+0x2de>
2000132a:	8f32                	mv	t5,a2
2000132c:	4701                	li	a4,0
2000132e:	a409                	j	20001530 <__adddf3+0x318>
20001330:	1e0e8063          	beqz	t4,20001510 <__adddf3+0x2f8>
20001334:	41088333          	sub	t1,a7,a6
20001338:	38081e63          	bnez	a6,200016d4 <__adddf3+0x4bc>
2000133c:	01e765b3          	or	a1,a4,t5
20001340:	50058563          	beqz	a1,2000184a <__adddf3+0x632>
20001344:	fff30593          	addi	a1,t1,-1
20001348:	62058c63          	beqz	a1,20001980 <__adddf3+0x768>
2000134c:	7ff00513          	li	a0,2047
20001350:	5aa30863          	beq	t1,a0,20001900 <__adddf3+0x6e8>
20001354:	03800613          	li	a2,56
20001358:	72b65563          	bge	a2,a1,20001a82 <__adddf3+0x86a>
2000135c:	ffff8613          	addi	a2,t6,-1
20001360:	00cfbfb3          	sltu	t6,t6,a2
20001364:	41f78733          	sub	a4,a5,t6
20001368:	00871593          	slli	a1,a4,0x8
2000136c:	008007b7          	lui	a5,0x800
20001370:	7805c563          	bltz	a1,20001afa <__adddf3+0x8e2>
20001374:	85b6                	mv	a1,a3
20001376:	881a                	mv	a6,t1
20001378:	00460793          	addi	a5,a2,4
2000137c:	00c7b633          	sltu	a2,a5,a2
20001380:	9732                	add	a4,a4,a2
20001382:	863e                	mv	a2,a5
20001384:	00871793          	slli	a5,a4,0x8
20001388:	2a07d363          	bgez	a5,2000162e <__adddf3+0x416>
2000138c:	00180693          	addi	a3,a6,1
20001390:	7ff00793          	li	a5,2047
20001394:	0015fe13          	andi	t3,a1,1
20001398:	24f69b63          	bne	a3,a5,200015ee <__adddf3+0x3d6>
2000139c:	01469713          	slli	a4,a3,0x14
200013a0:	40f2                	lw	ra,28(sp)
200013a2:	4781                	li	a5,0
200013a4:	8fd9                	or	a5,a5,a4
200013a6:	01fe1713          	slli	a4,t3,0x1f
200013aa:	00e7e6b3          	or	a3,a5,a4
200013ae:	4501                	li	a0,0
200013b0:	85b6                	mv	a1,a3
200013b2:	6105                	addi	sp,sp,32
200013b4:	8082                	ret
200013b6:	8e2e                	mv	t3,a1
200013b8:	1fd05a63          	blez	t4,200015ac <__adddf3+0x394>
200013bc:	1a089363          	bnez	a7,20001562 <__adddf3+0x34a>
200013c0:	01f7e6b3          	or	a3,a5,t6
200013c4:	52068b63          	beqz	a3,200018fa <__adddf3+0x6e2>
200013c8:	fff80e93          	addi	t4,a6,-1
200013cc:	480e8f63          	beqz	t4,2000186a <__adddf3+0x652>
200013d0:	7ff00693          	li	a3,2047
200013d4:	50d80b63          	beq	a6,a3,200018ea <__adddf3+0x6d2>
200013d8:	03800693          	li	a3,56
200013dc:	19d6cf63          	blt	a3,t4,2000157a <__adddf3+0x362>
200013e0:	46fd                	li	a3,31
200013e2:	53d6cf63          	blt	a3,t4,20001920 <__adddf3+0x708>
200013e6:	02000613          	li	a2,32
200013ea:	41d60633          	sub	a2,a2,t4
200013ee:	00c796b3          	sll	a3,a5,a2
200013f2:	00cf9633          	sll	a2,t6,a2
200013f6:	01dfdfb3          	srl	t6,t6,t4
200013fa:	00c03633          	snez	a2,a2
200013fe:	01f6e6b3          	or	a3,a3,t6
20001402:	01d7deb3          	srl	t4,a5,t4
20001406:	8ed1                	or	a3,a3,a2
20001408:	9776                	add	a4,a4,t4
2000140a:	01e687b3          	add	a5,a3,t5
2000140e:	00d7b6b3          	sltu	a3,a5,a3
20001412:	9736                	add	a4,a4,a3
20001414:	863e                	mv	a2,a5
20001416:	00871793          	slli	a5,a4,0x8
2000141a:	2007d263          	bgez	a5,2000161e <__adddf3+0x406>
2000141e:	0805                	addi	a6,a6,1
20001420:	7ff00793          	li	a5,2047
20001424:	4ef80763          	beq	a6,a5,20001912 <__adddf3+0x6fa>
20001428:	ff8007b7          	lui	a5,0xff800
2000142c:	00165693          	srli	a3,a2,0x1
20001430:	17fd                	addi	a5,a5,-1 # ff7fffff <__StackTop+0xdf77dfff>
20001432:	8a05                	andi	a2,a2,1
20001434:	8ed1                	or	a3,a3,a2
20001436:	8ff9                	and	a5,a5,a4
20001438:	01f79613          	slli	a2,a5,0x1f
2000143c:	0076f513          	andi	a0,a3,7
20001440:	0017d713          	srli	a4,a5,0x1
20001444:	8e55                	or	a2,a2,a3
20001446:	dd1d                	beqz	a0,20001384 <__adddf3+0x16c>
20001448:	00f67793          	andi	a5,a2,15
2000144c:	4691                	li	a3,4
2000144e:	f2d78be3          	beq	a5,a3,20001384 <__adddf3+0x16c>
20001452:	b71d                	j	20001378 <__adddf3+0x160>
20001454:	01f7e6b3          	or	a3,a5,t6
20001458:	30068863          	beqz	a3,20001768 <__adddf3+0x550>
2000145c:	fff80e93          	addi	t4,a6,-1
20001460:	440e8963          	beqz	t4,200018b2 <__adddf3+0x69a>
20001464:	7ff00693          	li	a3,2047
20001468:	20d80763          	beq	a6,a3,20001676 <__adddf3+0x45e>
2000146c:	03800693          	li	a3,56
20001470:	e1d6d8e3          	bge	a3,t4,20001280 <__adddf3+0x68>
20001474:	ffff0613          	addi	a2,t5,-1
20001478:	00cf37b3          	sltu	a5,t5,a2
2000147c:	8f1d                	sub	a4,a4,a5
2000147e:	00871693          	slli	a3,a4,0x8
20001482:	008007b7          	lui	a5,0x800
20001486:	ee06d9e3          	bgez	a3,20001378 <__adddf3+0x160>
2000148a:	fff78713          	addi	a4,a5,-1 # 7fffff <HeapSize+0x7ff7ff>
2000148e:	567d                	li	a2,-1
20001490:	853a                	mv	a0,a4
20001492:	c632                	sw	a2,12(sp)
20001494:	c442                	sw	a6,8(sp)
20001496:	c22e                	sw	a1,4(sp)
20001498:	c03a                	sw	a4,0(sp)
2000149a:	775010ef          	jal	2000340e <__clzsi2>
2000149e:	4702                	lw	a4,0(sp)
200014a0:	4592                	lw	a1,4(sp)
200014a2:	4822                	lw	a6,8(sp)
200014a4:	4632                	lw	a2,12(sp)
200014a6:	ff850693          	addi	a3,a0,-8
200014aa:	02000513          	li	a0,32
200014ae:	40d507b3          	sub	a5,a0,a3
200014b2:	00f657b3          	srl	a5,a2,a5
200014b6:	00d71733          	sll	a4,a4,a3
200014ba:	8fd9                	or	a5,a5,a4
200014bc:	00d61633          	sll	a2,a2,a3
200014c0:	2906c963          	blt	a3,a6,20001752 <__adddf3+0x53a>
200014c4:	410686b3          	sub	a3,a3,a6
200014c8:	0685                	addi	a3,a3,1 # 800001 <HeapSize+0x7ff801>
200014ca:	8d15                	sub	a0,a0,a3
200014cc:	00a61733          	sll	a4,a2,a0
200014d0:	00e03833          	snez	a6,a4
200014d4:	00d65733          	srl	a4,a2,a3
200014d8:	00a79533          	sll	a0,a5,a0
200014dc:	00e86733          	or	a4,a6,a4
200014e0:	00e56633          	or	a2,a0,a4
200014e4:	00d7d733          	srl	a4,a5,a3
200014e8:	00e667b3          	or	a5,a2,a4
200014ec:	c3c5                	beqz	a5,2000158c <__adddf3+0x374>
200014ee:	00767793          	andi	a5,a2,7
200014f2:	60078e63          	beqz	a5,20001b0e <__adddf3+0x8f6>
200014f6:	00f67793          	andi	a5,a2,15
200014fa:	4691                	li	a3,4
200014fc:	28d79f63          	bne	a5,a3,2000179a <__adddf3+0x582>
20001500:	00871793          	slli	a5,a4,0x8
20001504:	5e07d063          	bgez	a5,20001ae4 <__adddf3+0x8cc>
20001508:	0015fe13          	andi	t3,a1,1
2000150c:	4685                	li	a3,1
2000150e:	a0cd                	j	200015f0 <__adddf3+0x3d8>
20001510:	00180513          	addi	a0,a6,1
20001514:	7fe57513          	andi	a0,a0,2046
20001518:	20051863          	bnez	a0,20001728 <__adddf3+0x510>
2000151c:	01e768b3          	or	a7,a4,t5
20001520:	01f7e533          	or	a0,a5,t6
20001524:	32081a63          	bnez	a6,20001858 <__adddf3+0x640>
20001528:	48088363          	beqz	a7,200019ae <__adddf3+0x796>
2000152c:	48051763          	bnez	a0,200019ba <__adddf3+0x7a2>
20001530:	003f5793          	srli	a5,t5,0x3
20001534:	01d71513          	slli	a0,a4,0x1d
20001538:	8d5d                	or	a0,a0,a5
2000153a:	4801                	li	a6,0
2000153c:	00375793          	srli	a5,a4,0x3
20001540:	7ff87693          	andi	a3,a6,2047
20001544:	07b2                	slli	a5,a5,0xc
20001546:	01469713          	slli	a4,a3,0x14
2000154a:	40f2                	lw	ra,28(sp)
2000154c:	0015fe13          	andi	t3,a1,1
20001550:	83b1                	srli	a5,a5,0xc
20001552:	8fd9                	or	a5,a5,a4
20001554:	01fe1713          	slli	a4,t3,0x1f
20001558:	00e7e6b3          	or	a3,a5,a4
2000155c:	85b6                	mv	a1,a3
2000155e:	6105                	addi	sp,sp,32
20001560:	8082                	ret
20001562:	7ff00693          	li	a3,2047
20001566:	38d80263          	beq	a6,a3,200018ea <__adddf3+0x6d2>
2000156a:	03800693          	li	a3,56
2000156e:	01d6c663          	blt	a3,t4,2000157a <__adddf3+0x362>
20001572:	008006b7          	lui	a3,0x800
20001576:	8fd5                	or	a5,a5,a3
20001578:	b5a5                	j	200013e0 <__adddf3+0x1c8>
2000157a:	00871793          	slli	a5,a4,0x8
2000157e:	001f0613          	addi	a2,t5,1
20001582:	de07dbe3          	bgez	a5,20001378 <__adddf3+0x160>
20001586:	00800737          	lui	a4,0x800
2000158a:	bd51                	j	2000141e <__adddf3+0x206>
2000158c:	0015fe13          	andi	t3,a1,1
20001590:	4681                	li	a3,0
20001592:	4781                	li	a5,0
20001594:	4501                	li	a0,0
20001596:	01469713          	slli	a4,a3,0x14
2000159a:	40f2                	lw	ra,28(sp)
2000159c:	8fd9                	or	a5,a5,a4
2000159e:	01fe1713          	slli	a4,t3,0x1f
200015a2:	00e7e6b3          	or	a3,a5,a4
200015a6:	85b6                	mv	a1,a3
200015a8:	6105                	addi	sp,sp,32
200015aa:	8082                	ret
200015ac:	0c0e8f63          	beqz	t4,2000168a <__adddf3+0x472>
200015b0:	410886b3          	sub	a3,a7,a6
200015b4:	1e081f63          	bnez	a6,200017b2 <__adddf3+0x59a>
200015b8:	01e76533          	or	a0,a4,t5
200015bc:	48050d63          	beqz	a0,20001a56 <__adddf3+0x83e>
200015c0:	fff68513          	addi	a0,a3,-1 # 7fffff <HeapSize+0x7ff7ff>
200015c4:	2a050363          	beqz	a0,2000186a <__adddf3+0x652>
200015c8:	7ff00813          	li	a6,2047
200015cc:	37068e63          	beq	a3,a6,20001948 <__adddf3+0x730>
200015d0:	03800613          	li	a2,56
200015d4:	52a65163          	bge	a2,a0,20001af6 <__adddf3+0x8de>
200015d8:	8836                	mv	a6,a3
200015da:	00879693          	slli	a3,a5,0x8
200015de:	001f8613          	addi	a2,t6,1
200015e2:	00800737          	lui	a4,0x800
200015e6:	e206cce3          	bltz	a3,2000141e <__adddf3+0x206>
200015ea:	873e                	mv	a4,a5
200015ec:	b371                	j	20001378 <__adddf3+0x160>
200015ee:	8efd                	and	a3,a3,a5
200015f0:	ff8007b7          	lui	a5,0xff800
200015f4:	17fd                	addi	a5,a5,-1 # ff7fffff <__StackTop+0xdf77dfff>
200015f6:	8ff9                	and	a5,a5,a4
200015f8:	00979713          	slli	a4,a5,0x9
200015fc:	40f2                	lw	ra,28(sp)
200015fe:	01d79513          	slli	a0,a5,0x1d
20001602:	00c75793          	srli	a5,a4,0xc
20001606:	01469713          	slli	a4,a3,0x14
2000160a:	8fd9                	or	a5,a5,a4
2000160c:	01fe1713          	slli	a4,t3,0x1f
20001610:	820d                	srli	a2,a2,0x3
20001612:	00e7e6b3          	or	a3,a5,a4
20001616:	8d51                	or	a0,a0,a2
20001618:	85b6                	mv	a1,a3
2000161a:	6105                	addi	sp,sp,32
2000161c:	8082                	ret
2000161e:	00767793          	andi	a5,a2,7
20001622:	c791                	beqz	a5,2000162e <__adddf3+0x416>
20001624:	00f67793          	andi	a5,a2,15
20001628:	4691                	li	a3,4
2000162a:	d4d797e3          	bne	a5,a3,20001378 <__adddf3+0x160>
2000162e:	00365513          	srli	a0,a2,0x3
20001632:	01d71793          	slli	a5,a4,0x1d
20001636:	7ff00693          	li	a3,2047
2000163a:	8d5d                	or	a0,a0,a5
2000163c:	00375793          	srli	a5,a4,0x3
20001640:	f0d810e3          	bne	a6,a3,20001540 <__adddf3+0x328>
20001644:	8d5d                	or	a0,a0,a5
20001646:	c115                	beqz	a0,2000166a <__adddf3+0x452>
20001648:	7ff00693          	li	a3,2047
2000164c:	01469713          	slli	a4,a3,0x14
20001650:	40f2                	lw	ra,28(sp)
20001652:	4e01                	li	t3,0
20001654:	000807b7          	lui	a5,0x80
20001658:	8fd9                	or	a5,a5,a4
2000165a:	01fe1713          	slli	a4,t3,0x1f
2000165e:	00e7e6b3          	or	a3,a5,a4
20001662:	4501                	li	a0,0
20001664:	85b6                	mv	a1,a3
20001666:	6105                	addi	sp,sp,32
20001668:	8082                	ret
2000166a:	0015fe13          	andi	t3,a1,1
2000166e:	7ff00693          	li	a3,2047
20001672:	4781                	li	a5,0
20001674:	b70d                	j	20001596 <__adddf3+0x37e>
20001676:	030e                	slli	t1,t1,0x3
20001678:	00335313          	srli	t1,t1,0x3
2000167c:	01d71513          	slli	a0,a4,0x1d
20001680:	00656533          	or	a0,a0,t1
20001684:	00375793          	srli	a5,a4,0x3
20001688:	bf75                	j	20001644 <__adddf3+0x42c>
2000168a:	00180693          	addi	a3,a6,1
2000168e:	7fe6f893          	andi	a7,a3,2046
20001692:	16089263          	bnez	a7,200017f6 <__adddf3+0x5de>
20001696:	01e766b3          	or	a3,a4,t5
2000169a:	24081363          	bnez	a6,200018e0 <__adddf3+0x6c8>
2000169e:	01f7e633          	or	a2,a5,t6
200016a2:	3c068b63          	beqz	a3,20001a78 <__adddf3+0x860>
200016a6:	e80605e3          	beqz	a2,20001530 <__adddf3+0x318>
200016aa:	9ffa                	add	t6,t6,t5
200016ac:	97ba                	add	a5,a5,a4
200016ae:	01efbf33          	sltu	t5,t6,t5
200016b2:	97fa                	add	a5,a5,t5
200016b4:	00879713          	slli	a4,a5,0x8
200016b8:	40074763          	bltz	a4,20001ac6 <__adddf3+0x8ae>
200016bc:	00ffe733          	or	a4,t6,a5
200016c0:	ec0706e3          	beqz	a4,2000158c <__adddf3+0x374>
200016c4:	01d79513          	slli	a0,a5,0x1d
200016c8:	003fdf93          	srli	t6,t6,0x3
200016cc:	00afe533          	or	a0,t6,a0
200016d0:	838d                	srli	a5,a5,0x3
200016d2:	b5bd                	j	20001540 <__adddf3+0x328>
200016d4:	7ff00593          	li	a1,2047
200016d8:	22b88463          	beq	a7,a1,20001900 <__adddf3+0x6e8>
200016dc:	03800613          	li	a2,56
200016e0:	0e664c63          	blt	a2,t1,200017d8 <__adddf3+0x5c0>
200016e4:	00800637          	lui	a2,0x800
200016e8:	8f51                	or	a4,a4,a2
200016ea:	467d                	li	a2,31
200016ec:	26664663          	blt	a2,t1,20001958 <__adddf3+0x740>
200016f0:	02000593          	li	a1,32
200016f4:	406585b3          	sub	a1,a1,t1
200016f8:	00b71633          	sll	a2,a4,a1
200016fc:	00bf15b3          	sll	a1,t5,a1
20001700:	006f5f33          	srl	t5,t5,t1
20001704:	00b035b3          	snez	a1,a1
20001708:	01e66633          	or	a2,a2,t5
2000170c:	00675333          	srl	t1,a4,t1
20001710:	8e4d                	or	a2,a2,a1
20001712:	406787b3          	sub	a5,a5,t1
20001716:	40cf8633          	sub	a2,t6,a2
2000171a:	00cfbfb3          	sltu	t6,t6,a2
2000171e:	41f78733          	sub	a4,a5,t6
20001722:	8846                	mv	a6,a7
20001724:	85b6                	mv	a1,a3
20001726:	be41                	j	200012b6 <__adddf3+0x9e>
20001728:	41ff0633          	sub	a2,t5,t6
2000172c:	00cf3533          	sltu	a0,t5,a2
20001730:	40f708b3          	sub	a7,a4,a5
20001734:	40a888b3          	sub	a7,a7,a0
20001738:	00889513          	slli	a0,a7,0x8
2000173c:	0e054d63          	bltz	a0,20001836 <__adddf3+0x61e>
20001740:	01166533          	or	a0,a2,a7
20001744:	8746                	mv	a4,a7
20001746:	b6051ee3          	bnez	a0,200012c2 <__adddf3+0xaa>
2000174a:	4e01                	li	t3,0
2000174c:	4681                	li	a3,0
2000174e:	4781                	li	a5,0
20001750:	b599                	j	20001596 <__adddf3+0x37e>
20001752:	ff800737          	lui	a4,0xff800
20001756:	177d                	addi	a4,a4,-1 # ff7fffff <__StackTop+0xdf77dfff>
20001758:	8f7d                	and	a4,a4,a5
2000175a:	00767793          	andi	a5,a2,7
2000175e:	40d80833          	sub	a6,a6,a3
20001762:	ec0791e3          	bnez	a5,20001624 <__adddf3+0x40c>
20001766:	b5e1                	j	2000162e <__adddf3+0x416>
20001768:	00351313          	slli	t1,a0,0x3
2000176c:	00335513          	srli	a0,t1,0x3
20001770:	b5c9                	j	20001632 <__adddf3+0x41a>
20001772:	fe0e8693          	addi	a3,t4,-32
20001776:	02000613          	li	a2,32
2000177a:	00d7d6b3          	srl	a3,a5,a3
2000177e:	00ce8a63          	beq	t4,a2,20001792 <__adddf3+0x57a>
20001782:	04000613          	li	a2,64
20001786:	41d60633          	sub	a2,a2,t4
2000178a:	00c797b3          	sll	a5,a5,a2
2000178e:	00ffefb3          	or	t6,t6,a5
20001792:	01f03633          	snez	a2,t6
20001796:	8e55                	or	a2,a2,a3
20001798:	be11                	j	200012ac <__adddf3+0x94>
2000179a:	4801                	li	a6,0
2000179c:	bef1                	j	20001378 <__adddf3+0x160>
2000179e:	ff800737          	lui	a4,0xff800
200017a2:	177d                	addi	a4,a4,-1 # ff7fffff <__StackTop+0xdf77dfff>
200017a4:	8ff9                	and	a5,a5,a4
200017a6:	01d79513          	slli	a0,a5,0x1d
200017aa:	40d80833          	sub	a6,a6,a3
200017ae:	838d                	srli	a5,a5,0x3
200017b0:	bb41                	j	20001540 <__adddf3+0x328>
200017b2:	7ff00513          	li	a0,2047
200017b6:	18a88963          	beq	a7,a0,20001948 <__adddf3+0x730>
200017ba:	03800613          	li	a2,56
200017be:	22d65e63          	bge	a2,a3,200019fa <__adddf3+0x7e2>
200017c2:	00879693          	slli	a3,a5,0x8
200017c6:	001f8613          	addi	a2,t6,1
200017ca:	8846                	mv	a6,a7
200017cc:	00800737          	lui	a4,0x800
200017d0:	c406c7e3          	bltz	a3,2000141e <__adddf3+0x206>
200017d4:	873e                	mv	a4,a5
200017d6:	b64d                	j	20001378 <__adddf3+0x160>
200017d8:	ffff8613          	addi	a2,t6,-1
200017dc:	00cfbfb3          	sltu	t6,t6,a2
200017e0:	41f78733          	sub	a4,a5,t6
200017e4:	00871593          	slli	a1,a4,0x8
200017e8:	008007b7          	lui	a5,0x800
200017ec:	2405c663          	bltz	a1,20001a38 <__adddf3+0x820>
200017f0:	85b6                	mv	a1,a3
200017f2:	8846                	mv	a6,a7
200017f4:	b651                	j	20001378 <__adddf3+0x160>
200017f6:	7ff00613          	li	a2,2047
200017fa:	bac681e3          	beq	a3,a2,2000139c <__adddf3+0x184>
200017fe:	9ffa                	add	t6,t6,t5
20001800:	97ba                	add	a5,a5,a4
20001802:	01efbf33          	sltu	t5,t6,t5
20001806:	001fd713          	srli	a4,t6,0x1
2000180a:	97fa                	add	a5,a5,t5
2000180c:	01f79613          	slli	a2,a5,0x1f
20001810:	00777513          	andi	a0,a4,7
20001814:	8e59                	or	a2,a2,a4
20001816:	0017d713          	srli	a4,a5,0x1
2000181a:	2e050363          	beqz	a0,20001b00 <__adddf3+0x8e8>
2000181e:	8836                	mv	a6,a3
20001820:	4891                	li	a7,4
20001822:	00f67693          	andi	a3,a2,15
20001826:	b51699e3          	bne	a3,a7,20001378 <__adddf3+0x160>
2000182a:	00365513          	srli	a0,a2,0x3
2000182e:	0776                	slli	a4,a4,0x1d
20001830:	8d59                	or	a0,a0,a4
20001832:	8391                	srli	a5,a5,0x4
20001834:	b331                	j	20001540 <__adddf3+0x328>
20001836:	41ef8f33          	sub	t5,t6,t5
2000183a:	01efbfb3          	sltu	t6,t6,t5
2000183e:	8f99                	sub	a5,a5,a4
20001840:	867a                	mv	a2,t5
20001842:	41f78733          	sub	a4,a5,t6
20001846:	85b6                	mv	a1,a3
20001848:	bcad                	j	200012c2 <__adddf3+0xaa>
2000184a:	060e                	slli	a2,a2,0x3
2000184c:	00365513          	srli	a0,a2,0x3
20001850:	85b6                	mv	a1,a3
20001852:	881a                	mv	a6,t1
20001854:	873e                	mv	a4,a5
20001856:	bbf1                	j	20001632 <__adddf3+0x41a>
20001858:	20089563          	bnez	a7,20001a62 <__adddf3+0x84a>
2000185c:	e155                	bnez	a0,20001900 <__adddf3+0x6e8>
2000185e:	4e01                	li	t3,0
20001860:	7ff00693          	li	a3,2047
20001864:	000807b7          	lui	a5,0x80
20001868:	b33d                	j	20001596 <__adddf3+0x37e>
2000186a:	9ffa                	add	t6,t6,t5
2000186c:	01efbf33          	sltu	t5,t6,t5
20001870:	97ba                	add	a5,a5,a4
20001872:	97fa                	add	a5,a5,t5
20001874:	00879693          	slli	a3,a5,0x8
20001878:	1c06d663          	bgez	a3,20001a44 <__adddf3+0x82c>
2000187c:	ff8006b7          	lui	a3,0xff800
20001880:	16fd                	addi	a3,a3,-1 # ff7fffff <__StackTop+0xdf77dfff>
20001882:	001fd713          	srli	a4,t6,0x1
20001886:	8ff5                	and	a5,a5,a3
20001888:	01f79693          	slli	a3,a5,0x1f
2000188c:	00777613          	andi	a2,a4,7
20001890:	8ed9                	or	a3,a3,a4
20001892:	0017d713          	srli	a4,a5,0x1
20001896:	24060963          	beqz	a2,20001ae8 <__adddf3+0x8d0>
2000189a:	00f6f613          	andi	a2,a3,15
2000189e:	4511                	li	a0,4
200018a0:	24a60463          	beq	a2,a0,20001ae8 <__adddf3+0x8d0>
200018a4:	00a68633          	add	a2,a3,a0
200018a8:	00d636b3          	sltu	a3,a2,a3
200018ac:	9736                	add	a4,a4,a3
200018ae:	4809                	li	a6,2
200018b0:	bbbd                	j	2000162e <__adddf3+0x416>
200018b2:	41ff0fb3          	sub	t6,t5,t6
200018b6:	40f707b3          	sub	a5,a4,a5
200018ba:	01ff3f33          	sltu	t5,t5,t6
200018be:	41e78733          	sub	a4,a5,t5
200018c2:	00871793          	slli	a5,a4,0x8
200018c6:	867e                	mv	a2,t6
200018c8:	0407ca63          	bltz	a5,2000191c <__adddf3+0x704>
200018cc:	003fdf93          	srli	t6,t6,0x3
200018d0:	01d71513          	slli	a0,a4,0x1d
200018d4:	01f56533          	or	a0,a0,t6
200018d8:	00375793          	srli	a5,a4,0x3
200018dc:	4805                	li	a6,1
200018de:	b18d                	j	20001540 <__adddf3+0x328>
200018e0:	c6a5                	beqz	a3,20001948 <__adddf3+0x730>
200018e2:	01f7efb3          	or	t6,a5,t6
200018e6:	d60f91e3          	bnez	t6,20001648 <__adddf3+0x430>
200018ea:	050e                	slli	a0,a0,0x3
200018ec:	01d71793          	slli	a5,a4,0x1d
200018f0:	810d                	srli	a0,a0,0x3
200018f2:	8d5d                	or	a0,a0,a5
200018f4:	00375793          	srli	a5,a4,0x3
200018f8:	b3b1                	j	20001644 <__adddf3+0x42c>
200018fa:	050e                	slli	a0,a0,0x3
200018fc:	810d                	srli	a0,a0,0x3
200018fe:	bb15                	j	20001632 <__adddf3+0x41a>
20001900:	060e                	slli	a2,a2,0x3
20001902:	01d79513          	slli	a0,a5,0x1d
20001906:	00365713          	srli	a4,a2,0x3
2000190a:	85b6                	mv	a1,a3
2000190c:	8d59                	or	a0,a0,a4
2000190e:	838d                	srli	a5,a5,0x3
20001910:	bb15                	j	20001644 <__adddf3+0x42c>
20001912:	86c2                	mv	a3,a6
20001914:	4781                	li	a5,0
20001916:	4501                	li	a0,0
20001918:	b9bd                	j	20001596 <__adddf3+0x37e>
2000191a:	85b6                	mv	a1,a3
2000191c:	4805                	li	a6,1
2000191e:	b245                	j	200012be <__adddf3+0xa6>
20001920:	fe0e8613          	addi	a2,t4,-32
20001924:	02000693          	li	a3,32
20001928:	00c7d633          	srl	a2,a5,a2
2000192c:	00de8a63          	beq	t4,a3,20001940 <__adddf3+0x728>
20001930:	04000693          	li	a3,64
20001934:	41d686b3          	sub	a3,a3,t4
20001938:	00d797b3          	sll	a5,a5,a3
2000193c:	00ffefb3          	or	t6,t6,a5
20001940:	01f036b3          	snez	a3,t6
20001944:	8ed1                	or	a3,a3,a2
20001946:	b4d1                	j	2000140a <__adddf3+0x1f2>
20001948:	00361713          	slli	a4,a2,0x3
2000194c:	01d79513          	slli	a0,a5,0x1d
20001950:	830d                	srli	a4,a4,0x3
20001952:	8d59                	or	a0,a0,a4
20001954:	838d                	srli	a5,a5,0x3
20001956:	b1fd                	j	20001644 <__adddf3+0x42c>
20001958:	fe030593          	addi	a1,t1,-32
2000195c:	02000613          	li	a2,32
20001960:	00b755b3          	srl	a1,a4,a1
20001964:	00c30a63          	beq	t1,a2,20001978 <__adddf3+0x760>
20001968:	04000613          	li	a2,64
2000196c:	40660633          	sub	a2,a2,t1
20001970:	00c71733          	sll	a4,a4,a2
20001974:	00ef6f33          	or	t5,t5,a4
20001978:	01e03633          	snez	a2,t5
2000197c:	8e4d                	or	a2,a2,a1
2000197e:	bb61                	j	20001716 <__adddf3+0x4fe>
20001980:	41ef8f33          	sub	t5,t6,t5
20001984:	8f99                	sub	a5,a5,a4
20001986:	01efbfb3          	sltu	t6,t6,t5
2000198a:	41f78733          	sub	a4,a5,t6
2000198e:	00871793          	slli	a5,a4,0x8
20001992:	867a                	mv	a2,t5
20001994:	f807c3e3          	bltz	a5,2000191a <__adddf3+0x702>
20001998:	003f5f13          	srli	t5,t5,0x3
2000199c:	01d71513          	slli	a0,a4,0x1d
200019a0:	85b6                	mv	a1,a3
200019a2:	00af6533          	or	a0,t5,a0
200019a6:	00375793          	srli	a5,a4,0x3
200019aa:	4805                	li	a6,1
200019ac:	be51                	j	20001540 <__adddf3+0x328>
200019ae:	d8050ee3          	beqz	a0,2000174a <__adddf3+0x532>
200019b2:	873e                	mv	a4,a5
200019b4:	8f7e                	mv	t5,t6
200019b6:	85b6                	mv	a1,a3
200019b8:	bea5                	j	20001530 <__adddf3+0x318>
200019ba:	41ff0833          	sub	a6,t5,t6
200019be:	010f3533          	sltu	a0,t5,a6
200019c2:	40f70633          	sub	a2,a4,a5
200019c6:	8e09                	sub	a2,a2,a0
200019c8:	00861513          	slli	a0,a2,0x8
200019cc:	0e055663          	bgez	a0,20001ab8 <__adddf3+0x8a0>
200019d0:	41ef8f33          	sub	t5,t6,t5
200019d4:	8f99                	sub	a5,a5,a4
200019d6:	01efbfb3          	sltu	t6,t6,t5
200019da:	41f78733          	sub	a4,a5,t6
200019de:	00ef67b3          	or	a5,t5,a4
200019e2:	867a                	mv	a2,t5
200019e4:	85b6                	mv	a1,a3
200019e6:	ba0783e3          	beqz	a5,2000158c <__adddf3+0x374>
200019ea:	00871793          	slli	a5,a4,0x8
200019ee:	1207d263          	bgez	a5,20001b12 <__adddf3+0x8fa>
200019f2:	0016fe13          	andi	t3,a3,1
200019f6:	4685                	li	a3,1
200019f8:	bee5                	j	200015f0 <__adddf3+0x3d8>
200019fa:	00800637          	lui	a2,0x800
200019fe:	8f51                	or	a4,a4,a2
20001a00:	467d                	li	a2,31
20001a02:	08d64263          	blt	a2,a3,20001a86 <__adddf3+0x86e>
20001a06:	02000513          	li	a0,32
20001a0a:	8d15                	sub	a0,a0,a3
20001a0c:	00a71633          	sll	a2,a4,a0
20001a10:	00af1533          	sll	a0,t5,a0
20001a14:	00df5f33          	srl	t5,t5,a3
20001a18:	00a03533          	snez	a0,a0
20001a1c:	00d756b3          	srl	a3,a4,a3
20001a20:	01e66633          	or	a2,a2,t5
20001a24:	00a66733          	or	a4,a2,a0
20001a28:	97b6                	add	a5,a5,a3
20001a2a:	9fba                	add	t6,t6,a4
20001a2c:	00efb733          	sltu	a4,t6,a4
20001a30:	973e                	add	a4,a4,a5
20001a32:	867e                	mv	a2,t6
20001a34:	8846                	mv	a6,a7
20001a36:	b2c5                	j	20001416 <__adddf3+0x1fe>
20001a38:	8846                	mv	a6,a7
20001a3a:	85b6                	mv	a1,a3
20001a3c:	fff78713          	addi	a4,a5,-1 # 7ffff <HeapSize+0x7f7ff>
20001a40:	567d                	li	a2,-1
20001a42:	b4b9                	j	20001490 <__adddf3+0x278>
20001a44:	01d79513          	slli	a0,a5,0x1d
20001a48:	003fdf93          	srli	t6,t6,0x3
20001a4c:	01f56533          	or	a0,a0,t6
20001a50:	838d                	srli	a5,a5,0x3
20001a52:	4805                	li	a6,1
20001a54:	b4f5                	j	20001540 <__adddf3+0x328>
20001a56:	00361513          	slli	a0,a2,0x3
20001a5a:	810d                	srli	a0,a0,0x3
20001a5c:	8836                	mv	a6,a3
20001a5e:	873e                	mv	a4,a5
20001a60:	bec9                	j	20001632 <__adddf3+0x41a>
20001a62:	be0513e3          	bnez	a0,20001648 <__adddf3+0x430>
20001a66:	00331793          	slli	a5,t1,0x3
20001a6a:	838d                	srli	a5,a5,0x3
20001a6c:	01d71513          	slli	a0,a4,0x1d
20001a70:	8d5d                	or	a0,a0,a5
20001a72:	00375793          	srli	a5,a4,0x3
20001a76:	b6f9                	j	20001644 <__adddf3+0x42c>
20001a78:	b0060ae3          	beqz	a2,2000158c <__adddf3+0x374>
20001a7c:	873e                	mv	a4,a5
20001a7e:	8f7e                	mv	t5,t6
20001a80:	bc45                	j	20001530 <__adddf3+0x318>
20001a82:	832e                	mv	t1,a1
20001a84:	b19d                	j	200016ea <__adddf3+0x4d2>
20001a86:	fe068613          	addi	a2,a3,-32
20001a8a:	02000513          	li	a0,32
20001a8e:	00c75633          	srl	a2,a4,a2
20001a92:	00a68a63          	beq	a3,a0,20001aa6 <__adddf3+0x88e>
20001a96:	04000513          	li	a0,64
20001a9a:	40d506b3          	sub	a3,a0,a3
20001a9e:	00d71733          	sll	a4,a4,a3
20001aa2:	00ef6f33          	or	t5,t5,a4
20001aa6:	01e03733          	snez	a4,t5
20001aaa:	8f51                	or	a4,a4,a2
20001aac:	bfbd                	j	20001a2a <__adddf3+0x812>
20001aae:	02000513          	li	a0,32
20001ab2:	8d15                	sub	a0,a0,a3
20001ab4:	4801                	li	a6,0
20001ab6:	b40d                	j	200014d8 <__adddf3+0x2c0>
20001ab8:	00c86533          	or	a0,a6,a2
20001abc:	c80507e3          	beqz	a0,2000174a <__adddf3+0x532>
20001ac0:	8732                	mv	a4,a2
20001ac2:	8f42                	mv	t5,a6
20001ac4:	b4b5                	j	20001530 <__adddf3+0x318>
20001ac6:	ff800737          	lui	a4,0xff800
20001aca:	177d                	addi	a4,a4,-1 # ff7fffff <__StackTop+0xdf77dfff>
20001acc:	8ff9                	and	a5,a5,a4
20001ace:	01d79513          	slli	a0,a5,0x1d
20001ad2:	003fdf93          	srli	t6,t6,0x3
20001ad6:	838d                	srli	a5,a5,0x3
20001ad8:	01f56533          	or	a0,a0,t6
20001adc:	0067f7b3          	and	a5,a5,t1
20001ae0:	4685                	li	a3,1
20001ae2:	bc55                	j	20001596 <__adddf3+0x37e>
20001ae4:	4801                	li	a6,0
20001ae6:	b6a1                	j	2000162e <__adddf3+0x416>
20001ae8:	828d                	srli	a3,a3,0x3
20001aea:	0776                	slli	a4,a4,0x1d
20001aec:	00d76533          	or	a0,a4,a3
20001af0:	8391                	srli	a5,a5,0x4
20001af2:	4809                	li	a6,2
20001af4:	b4b1                	j	20001540 <__adddf3+0x328>
20001af6:	86aa                	mv	a3,a0
20001af8:	b721                	j	20001a00 <__adddf3+0x7e8>
20001afa:	881a                	mv	a6,t1
20001afc:	85b6                	mv	a1,a3
20001afe:	b271                	j	2000148a <__adddf3+0x272>
20001b00:	00365513          	srli	a0,a2,0x3
20001b04:	0776                	slli	a4,a4,0x1d
20001b06:	8d59                	or	a0,a0,a4
20001b08:	8391                	srli	a5,a5,0x4
20001b0a:	8836                	mv	a6,a3
20001b0c:	bc15                	j	20001540 <__adddf3+0x328>
20001b0e:	86ae                	mv	a3,a1
20001b10:	bde9                	j	200019ea <__adddf3+0x7d2>
20001b12:	85b6                	mv	a1,a3
20001b14:	8f32                	mv	t5,a2
20001b16:	bc29                	j	20001530 <__adddf3+0x318>

20001b18 <__divdf3>:
20001b18:	0145d713          	srli	a4,a1,0x14
20001b1c:	7139                	addi	sp,sp,-64
20001b1e:	00c59793          	slli	a5,a1,0xc
20001b22:	de06                	sw	ra,60(sp)
20001b24:	7ff77713          	andi	a4,a4,2047
20001b28:	882a                	mv	a6,a0
20001b2a:	83b1                	srli	a5,a5,0xc
20001b2c:	81fd                	srli	a1,a1,0x1f
20001b2e:	16070063          	beqz	a4,20001c8e <__divdf3+0x176>
20001b32:	8eaa                	mv	t4,a0
20001b34:	7ff00513          	li	a0,2047
20001b38:	06a70b63          	beq	a4,a0,20001bae <__divdf3+0x96>
20001b3c:	078e                	slli	a5,a5,0x3
20001b3e:	01d85e13          	srli	t3,a6,0x1d
20001b42:	00fe6e33          	or	t3,t3,a5
20001b46:	008007b7          	lui	a5,0x800
20001b4a:	00381e93          	slli	t4,a6,0x3
20001b4e:	00fe6e33          	or	t3,t3,a5
20001b52:	c0170893          	addi	a7,a4,-1023
20001b56:	4801                	li	a6,0
20001b58:	4f01                	li	t5,0
20001b5a:	0146d713          	srli	a4,a3,0x14
20001b5e:	00c69793          	slli	a5,a3,0xc
20001b62:	7ff77713          	andi	a4,a4,2047
20001b66:	83b1                	srli	a5,a5,0xc
20001b68:	82fd                	srli	a3,a3,0x1f
20001b6a:	c33d                	beqz	a4,20001bd0 <__divdf3+0xb8>
20001b6c:	7ff00513          	li	a0,2047
20001b70:	16a70963          	beq	a4,a0,20001ce2 <__divdf3+0x1ca>
20001b74:	078e                	slli	a5,a5,0x3
20001b76:	01d65513          	srli	a0,a2,0x1d
20001b7a:	c0170713          	addi	a4,a4,-1023
20001b7e:	8d5d                	or	a0,a0,a5
20001b80:	008007b7          	lui	a5,0x800
20001b84:	40e888b3          	sub	a7,a7,a4
20001b88:	8fc9                	or	a5,a5,a0
20001b8a:	00361713          	slli	a4,a2,0x3
20001b8e:	4f81                	li	t6,0
20001b90:	463d                	li	a2,15
20001b92:	00d5c533          	xor	a0,a1,a3
20001b96:	1f066763          	bltu	a2,a6,20001d84 <__divdf3+0x26c>
20001b9a:	00002317          	auipc	t1,0x2
20001b9e:	8e230313          	addi	t1,t1,-1822 # 2000347c <__clzsi2+0x6e>
20001ba2:	080a                	slli	a6,a6,0x2
20001ba4:	981a                	add	a6,a6,t1
20001ba6:	00082603          	lw	a2,0(a6)
20001baa:	961a                	add	a2,a2,t1
20001bac:	8602                	jr	a2
20001bae:	0107ee33          	or	t3,a5,a6
20001bb2:	1a0e1563          	bnez	t3,20001d5c <__divdf3+0x244>
20001bb6:	88ba                	mv	a7,a4
20001bb8:	0146d713          	srli	a4,a3,0x14
20001bbc:	00c69793          	slli	a5,a3,0xc
20001bc0:	7ff77713          	andi	a4,a4,2047
20001bc4:	4e81                	li	t4,0
20001bc6:	4821                	li	a6,8
20001bc8:	4f09                	li	t5,2
20001bca:	83b1                	srli	a5,a5,0xc
20001bcc:	82fd                	srli	a3,a3,0x1f
20001bce:	ff59                	bnez	a4,20001b6c <__divdf3+0x54>
20001bd0:	00c7e733          	or	a4,a5,a2
20001bd4:	18070963          	beqz	a4,20001d66 <__divdf3+0x24e>
20001bd8:	3c078a63          	beqz	a5,20001fac <__divdf3+0x494>
20001bdc:	853e                	mv	a0,a5
20001bde:	d632                	sw	a2,44(sp)
20001be0:	d446                	sw	a7,40(sp)
20001be2:	d242                	sw	a6,36(sp)
20001be4:	d036                	sw	a3,32(sp)
20001be6:	ce7a                	sw	t5,28(sp)
20001be8:	cc72                	sw	t3,24(sp)
20001bea:	ca76                	sw	t4,20(sp)
20001bec:	c82e                	sw	a1,16(sp)
20001bee:	c63e                	sw	a5,12(sp)
20001bf0:	01f010ef          	jal	2000340e <__clzsi2>
20001bf4:	47b2                	lw	a5,12(sp)
20001bf6:	45c2                	lw	a1,16(sp)
20001bf8:	4ed2                	lw	t4,20(sp)
20001bfa:	4e62                	lw	t3,24(sp)
20001bfc:	4f72                	lw	t5,28(sp)
20001bfe:	5682                	lw	a3,32(sp)
20001c00:	5812                	lw	a6,36(sp)
20001c02:	58a2                	lw	a7,40(sp)
20001c04:	5632                	lw	a2,44(sp)
20001c06:	832a                	mv	t1,a0
20001c08:	ff550713          	addi	a4,a0,-11
20001c0c:	4575                	li	a0,29
20001c0e:	8d19                	sub	a0,a0,a4
20001c10:	ff830713          	addi	a4,t1,-8
20001c14:	00e797b3          	sll	a5,a5,a4
20001c18:	00a65533          	srl	a0,a2,a0
20001c1c:	8fc9                	or	a5,a5,a0
20001c1e:	00e61733          	sll	a4,a2,a4
20001c22:	9346                	add	t1,t1,a7
20001c24:	3f330893          	addi	a7,t1,1011
20001c28:	4f81                	li	t6,0
20001c2a:	b79d                	j	20001b90 <__divdf3+0x78>
20001c2c:	44038063          	beqz	t2,2000206c <__divdf3+0x554>
20001c30:	fc900693          	li	a3,-55
20001c34:	48d3d463          	bge	t2,a3,200020bc <__divdf3+0x5a4>
20001c38:	4701                	li	a4,0
20001c3a:	4781                	li	a5,0
20001c3c:	4681                	li	a3,0
20001c3e:	50f2                	lw	ra,60(sp)
20001c40:	0752                	slli	a4,a4,0x14
20001c42:	8f5d                	or	a4,a4,a5
20001c44:	01f51793          	slli	a5,a0,0x1f
20001c48:	00f765b3          	or	a1,a4,a5
20001c4c:	8536                	mv	a0,a3
20001c4e:	6121                	addi	sp,sp,64
20001c50:	8082                	ret
20001c52:	50f2                	lw	ra,60(sp)
20001c54:	7ff00713          	li	a4,2047
20001c58:	4781                	li	a5,0
20001c5a:	0752                	slli	a4,a4,0x14
20001c5c:	8f5d                	or	a4,a4,a5
20001c5e:	4681                	li	a3,0
20001c60:	01f51793          	slli	a5,a0,0x1f
20001c64:	00f765b3          	or	a1,a4,a5
20001c68:	8536                	mv	a0,a3
20001c6a:	6121                	addi	sp,sp,64
20001c6c:	8082                	ret
20001c6e:	50f2                	lw	ra,60(sp)
20001c70:	7ff00713          	li	a4,2047
20001c74:	4501                	li	a0,0
20001c76:	000807b7          	lui	a5,0x80
20001c7a:	0752                	slli	a4,a4,0x14
20001c7c:	8f5d                	or	a4,a4,a5
20001c7e:	4681                	li	a3,0
20001c80:	01f51793          	slli	a5,a0,0x1f
20001c84:	00f765b3          	or	a1,a4,a5
20001c88:	8536                	mv	a0,a3
20001c8a:	6121                	addi	sp,sp,64
20001c8c:	8082                	ret
20001c8e:	00a7ee33          	or	t3,a5,a0
20001c92:	0e0e0463          	beqz	t3,20001d7a <__divdf3+0x262>
20001c96:	ce36                	sw	a3,28(sp)
20001c98:	cc32                	sw	a2,24(sp)
20001c9a:	34078a63          	beqz	a5,20001fee <__divdf3+0x4d6>
20001c9e:	ca2a                	sw	a0,20(sp)
20001ca0:	853e                	mv	a0,a5
20001ca2:	c82e                	sw	a1,16(sp)
20001ca4:	c63e                	sw	a5,12(sp)
20001ca6:	768010ef          	jal	2000340e <__clzsi2>
20001caa:	47b2                	lw	a5,12(sp)
20001cac:	45c2                	lw	a1,16(sp)
20001cae:	4852                	lw	a6,20(sp)
20001cb0:	4662                	lw	a2,24(sp)
20001cb2:	46f2                	lw	a3,28(sp)
20001cb4:	832a                	mv	t1,a0
20001cb6:	ff550713          	addi	a4,a0,-11
20001cba:	4e75                	li	t3,29
20001cbc:	ff830e93          	addi	t4,t1,-8
20001cc0:	40ee0e33          	sub	t3,t3,a4
20001cc4:	01d797b3          	sll	a5,a5,t4
20001cc8:	01c85e33          	srl	t3,a6,t3
20001ccc:	00fe6e33          	or	t3,t3,a5
20001cd0:	01d81eb3          	sll	t4,a6,t4
20001cd4:	c0d00713          	li	a4,-1011
20001cd8:	406708b3          	sub	a7,a4,t1
20001cdc:	4801                	li	a6,0
20001cde:	4f01                	li	t5,0
20001ce0:	bdad                	j	20001b5a <__divdf3+0x42>
20001ce2:	00c7e733          	or	a4,a5,a2
20001ce6:	80188893          	addi	a7,a7,-2047
20001cea:	e359                	bnez	a4,20001d70 <__divdf3+0x258>
20001cec:	00286813          	ori	a6,a6,2
20001cf0:	4781                	li	a5,0
20001cf2:	4f89                	li	t6,2
20001cf4:	bd71                	j	20001b90 <__divdf3+0x78>
20001cf6:	87f2                	mv	a5,t3
20001cf8:	8776                	mv	a4,t4
20001cfa:	4689                	li	a3,2
20001cfc:	30df0f63          	beq	t5,a3,2000201a <__divdf3+0x502>
20001d00:	468d                	li	a3,3
20001d02:	f6df06e3          	beq	t5,a3,20001c6e <__divdf3+0x156>
20001d06:	4685                	li	a3,1
20001d08:	852e                	mv	a0,a1
20001d0a:	f2df07e3          	beq	t5,a3,20001c38 <__divdf3+0x120>
20001d0e:	3ff88393          	addi	t2,a7,1023
20001d12:	869e                	mv	a3,t2
20001d14:	f0705ce3          	blez	t2,20001c2c <__divdf3+0x114>
20001d18:	00777613          	andi	a2,a4,7
20001d1c:	32061c63          	bnez	a2,20002054 <__divdf3+0x53c>
20001d20:	00375593          	srli	a1,a4,0x3
20001d24:	00779713          	slli	a4,a5,0x7
20001d28:	00075863          	bgez	a4,20001d38 <__divdf3+0x220>
20001d2c:	ff000737          	lui	a4,0xff000
20001d30:	177d                	addi	a4,a4,-1 # feffffff <__StackTop+0xdef7dfff>
20001d32:	40088693          	addi	a3,a7,1024
20001d36:	8ff9                	and	a5,a5,a4
20001d38:	7fe00713          	li	a4,2046
20001d3c:	f0d74be3          	blt	a4,a3,20001c52 <__divdf3+0x13a>
20001d40:	01d79613          	slli	a2,a5,0x1d
20001d44:	7ff6f713          	andi	a4,a3,2047
20001d48:	00b666b3          	or	a3,a2,a1
20001d4c:	00979613          	slli	a2,a5,0x9
20001d50:	00c65793          	srli	a5,a2,0xc
20001d54:	b5ed                	j	20001c3e <__divdf3+0x126>
20001d56:	85b6                	mv	a1,a3
20001d58:	8f7e                	mv	t5,t6
20001d5a:	b745                	j	20001cfa <__divdf3+0x1e2>
20001d5c:	8e3e                	mv	t3,a5
20001d5e:	88ba                	mv	a7,a4
20001d60:	4831                	li	a6,12
20001d62:	4f0d                	li	t5,3
20001d64:	bbdd                	j	20001b5a <__divdf3+0x42>
20001d66:	00186813          	ori	a6,a6,1
20001d6a:	4781                	li	a5,0
20001d6c:	4f85                	li	t6,1
20001d6e:	b50d                	j	20001b90 <__divdf3+0x78>
20001d70:	00386813          	ori	a6,a6,3
20001d74:	8732                	mv	a4,a2
20001d76:	4f8d                	li	t6,3
20001d78:	bd21                	j	20001b90 <__divdf3+0x78>
20001d7a:	4e81                	li	t4,0
20001d7c:	4811                	li	a6,4
20001d7e:	4881                	li	a7,0
20001d80:	4f05                	li	t5,1
20001d82:	bbe1                	j	20001b5a <__divdf3+0x42>
20001d84:	dc22                	sw	s0,56(sp)
20001d86:	da26                	sw	s1,52(sp)
20001d88:	01c7e663          	bltu	a5,t3,20001d94 <__divdf3+0x27c>
20001d8c:	3afe1c63          	bne	t3,a5,20002144 <__divdf3+0x62c>
20001d90:	3aeeea63          	bltu	t4,a4,20002144 <__divdf3+0x62c>
20001d94:	01fe1613          	slli	a2,t3,0x1f
20001d98:	001ed693          	srli	a3,t4,0x1
20001d9c:	8e55                	or	a2,a2,a3
20001d9e:	001e5e13          	srli	t3,t3,0x1
20001da2:	01fe9693          	slli	a3,t4,0x1f
20001da6:	07a2                	slli	a5,a5,0x8
20001da8:	0107df13          	srli	t5,a5,0x10
20001dac:	03ee52b3          	divu	t0,t3,t5
20001db0:	01875813          	srli	a6,a4,0x18
20001db4:	00f86833          	or	a6,a6,a5
20001db8:	01081e93          	slli	t4,a6,0x10
20001dbc:	010ede93          	srli	t4,t4,0x10
20001dc0:	00871313          	slli	t1,a4,0x8
20001dc4:	01065793          	srli	a5,a2,0x10
20001dc8:	03ee7e33          	remu	t3,t3,t5
20001dcc:	025e8733          	mul	a4,t4,t0
20001dd0:	0e42                	slli	t3,t3,0x10
20001dd2:	01c7e7b3          	or	a5,a5,t3
20001dd6:	00e7f863          	bgeu	a5,a4,20001de6 <__divdf3+0x2ce>
20001dda:	97c2                	add	a5,a5,a6
20001ddc:	0107e463          	bltu	a5,a6,20001de4 <__divdf3+0x2cc>
20001de0:	36e7e963          	bltu	a5,a4,20002152 <__divdf3+0x63a>
20001de4:	12fd                	addi	t0,t0,-1 # 10007541 <memset+0x8d>
20001de6:	8f99                	sub	a5,a5,a4
20001de8:	03e7d5b3          	divu	a1,a5,t5
20001dec:	01061713          	slli	a4,a2,0x10
20001df0:	8341                	srli	a4,a4,0x10
20001df2:	03e7f7b3          	remu	a5,a5,t5
20001df6:	02be8633          	mul	a2,t4,a1
20001dfa:	07c2                	slli	a5,a5,0x10
20001dfc:	8f5d                	or	a4,a4,a5
20001dfe:	00c77863          	bgeu	a4,a2,20001e0e <__divdf3+0x2f6>
20001e02:	9742                	add	a4,a4,a6
20001e04:	01076463          	bltu	a4,a6,20001e0c <__divdf3+0x2f4>
20001e08:	34c76263          	bltu	a4,a2,2000214c <__divdf3+0x634>
20001e0c:	15fd                	addi	a1,a1,-1 # ffff <HeapSize+0xf7ff>
20001e0e:	02c2                	slli	t0,t0,0x10
20001e10:	00b2e2b3          	or	t0,t0,a1
20001e14:	01029793          	slli	a5,t0,0x10
20001e18:	01031e13          	slli	t3,t1,0x10
20001e1c:	83c1                	srli	a5,a5,0x10
20001e1e:	010e5e13          	srli	t3,t3,0x10
20001e22:	01035f93          	srli	t6,t1,0x10
20001e26:	8f11                	sub	a4,a4,a2
20001e28:	0102d613          	srli	a2,t0,0x10
20001e2c:	03c783b3          	mul	t2,a5,t3
20001e30:	03c60433          	mul	s0,a2,t3
20001e34:	0103d593          	srli	a1,t2,0x10
20001e38:	02ff87b3          	mul	a5,t6,a5
20001e3c:	97a2                	add	a5,a5,s0
20001e3e:	95be                	add	a1,a1,a5
20001e40:	03f607b3          	mul	a5,a2,t6
20001e44:	0085f463          	bgeu	a1,s0,20001e4c <__divdf3+0x334>
20001e48:	6641                	lui	a2,0x10
20001e4a:	97b2                	add	a5,a5,a2
20001e4c:	01059613          	slli	a2,a1,0x10
20001e50:	03c2                	slli	t2,t2,0x10
20001e52:	81c1                	srli	a1,a1,0x10
20001e54:	0103d393          	srli	t2,t2,0x10
20001e58:	95be                	add	a1,a1,a5
20001e5a:	961e                	add	a2,a2,t2
20001e5c:	00b76863          	bltu	a4,a1,20001e6c <__divdf3+0x354>
20001e60:	40b704b3          	sub	s1,a4,a1
20001e64:	2cb71e63          	bne	a4,a1,20002140 <__divdf3+0x628>
20001e68:	2cc6fc63          	bgeu	a3,a2,20002140 <__divdf3+0x628>
20001e6c:	006683b3          	add	t2,a3,t1
20001e70:	00d3b7b3          	sltu	a5,t2,a3
20001e74:	d84a                	sw	s2,48(sp)
20001e76:	893e                	mv	s2,a5
20001e78:	97c2                	add	a5,a5,a6
20001e7a:	973e                	add	a4,a4,a5
20001e7c:	869e                	mv	a3,t2
20001e7e:	fff28793          	addi	a5,t0,-1
20001e82:	00e86963          	bltu	a6,a4,20001e94 <__divdf3+0x37c>
20001e86:	40b70433          	sub	s0,a4,a1
20001e8a:	84a2                	mv	s1,s0
20001e8c:	02e81963          	bne	a6,a4,20001ebe <__divdf3+0x3a6>
20001e90:	02091763          	bnez	s2,20001ebe <__divdf3+0x3a6>
20001e94:	00b76963          	bltu	a4,a1,20001ea6 <__divdf3+0x38e>
20001e98:	40b70433          	sub	s0,a4,a1
20001e9c:	84a2                	mv	s1,s0
20001e9e:	02e59063          	bne	a1,a4,20001ebe <__divdf3+0x3a6>
20001ea2:	00c3fe63          	bgeu	t2,a2,20001ebe <__divdf3+0x3a6>
20001ea6:	007306b3          	add	a3,t1,t2
20001eaa:	0066b7b3          	sltu	a5,a3,t1
20001eae:	97c2                	add	a5,a5,a6
20001eb0:	973e                	add	a4,a4,a5
20001eb2:	5942                	lw	s2,48(sp)
20001eb4:	ffe28793          	addi	a5,t0,-2
20001eb8:	40b704b3          	sub	s1,a4,a1
20001ebc:	a011                	j	20001ec0 <__divdf3+0x3a8>
20001ebe:	5942                	lw	s2,48(sp)
20001ec0:	40c68633          	sub	a2,a3,a2
20001ec4:	00c6b6b3          	sltu	a3,a3,a2
20001ec8:	40d482b3          	sub	t0,s1,a3
20001ecc:	3ff88393          	addi	t2,a7,1023
20001ed0:	869e                	mv	a3,t2
20001ed2:	14580a63          	beq	a6,t0,20002026 <__divdf3+0x50e>
20001ed6:	03e2d733          	divu	a4,t0,t5
20001eda:	01065593          	srli	a1,a2,0x10
20001ede:	03e2f2b3          	remu	t0,t0,t5
20001ee2:	02c2                	slli	t0,t0,0x10
20001ee4:	0055e5b3          	or	a1,a1,t0
20001ee8:	02ee82b3          	mul	t0,t4,a4
20001eec:	0055f863          	bgeu	a1,t0,20001efc <__divdf3+0x3e4>
20001ef0:	95c2                	add	a1,a1,a6
20001ef2:	0105e463          	bltu	a1,a6,20001efa <__divdf3+0x3e2>
20001ef6:	2655e463          	bltu	a1,t0,2000215e <__divdf3+0x646>
20001efa:	177d                	addi	a4,a4,-1
20001efc:	405585b3          	sub	a1,a1,t0
20001f00:	03e5f2b3          	remu	t0,a1,t5
20001f04:	0642                	slli	a2,a2,0x10
20001f06:	8241                	srli	a2,a2,0x10
20001f08:	03e5d5b3          	divu	a1,a1,t5
20001f0c:	01029f13          	slli	t5,t0,0x10
20001f10:	01e66633          	or	a2,a2,t5
20001f14:	02be8eb3          	mul	t4,t4,a1
20001f18:	01d67863          	bgeu	a2,t4,20001f28 <__divdf3+0x410>
20001f1c:	9642                	add	a2,a2,a6
20001f1e:	01066463          	bltu	a2,a6,20001f26 <__divdf3+0x40e>
20001f22:	23d66b63          	bltu	a2,t4,20002158 <__divdf3+0x640>
20001f26:	15fd                	addi	a1,a1,-1
20001f28:	0742                	slli	a4,a4,0x10
20001f2a:	8f4d                	or	a4,a4,a1
20001f2c:	01071593          	slli	a1,a4,0x10
20001f30:	81c1                	srli	a1,a1,0x10
20001f32:	01075293          	srli	t0,a4,0x10
20001f36:	03c28f33          	mul	t5,t0,t3
20001f3a:	41d60633          	sub	a2,a2,t4
20001f3e:	02be0e33          	mul	t3,t3,a1
20001f42:	02bf8eb3          	mul	t4,t6,a1
20001f46:	010e5593          	srli	a1,t3,0x10
20001f4a:	9efa                	add	t4,t4,t5
20001f4c:	95f6                	add	a1,a1,t4
20001f4e:	025f8fb3          	mul	t6,t6,t0
20001f52:	01e5f463          	bgeu	a1,t5,20001f5a <__divdf3+0x442>
20001f56:	6ec1                	lui	t4,0x10
20001f58:	9ff6                	add	t6,t6,t4
20001f5a:	0105de93          	srli	t4,a1,0x10
20001f5e:	0e42                	slli	t3,t3,0x10
20001f60:	010e5e13          	srli	t3,t3,0x10
20001f64:	05c2                	slli	a1,a1,0x10
20001f66:	9efe                	add	t4,t4,t6
20001f68:	95f2                	add	a1,a1,t3
20001f6a:	01d66a63          	bltu	a2,t4,20001f7e <__divdf3+0x466>
20001f6e:	00b03f33          	snez	t5,a1
20001f72:	41d60e33          	sub	t3,a2,t4
20001f76:	03d61463          	bne	a2,t4,20001f9e <__divdf3+0x486>
20001f7a:	020f0263          	beqz	t5,20001f9e <__divdf3+0x486>
20001f7e:	9642                	add	a2,a2,a6
20001f80:	01066863          	bltu	a2,a6,20001f90 <__divdf3+0x478>
20001f84:	11d66e63          	bltu	a2,t4,200020a0 <__divdf3+0x588>
20001f88:	01d61463          	bne	a2,t4,20001f90 <__divdf3+0x478>
20001f8c:	10b36a63          	bltu	t1,a1,200020a0 <__divdf3+0x588>
20001f90:	40b305b3          	sub	a1,t1,a1
20001f94:	00b03f33          	snez	t5,a1
20001f98:	177d                	addi	a4,a4,-1
20001f9a:	41d60e33          	sub	t3,a2,t4
20001f9e:	080e1c63          	bnez	t3,20002036 <__divdf3+0x51e>
20001fa2:	080f1a63          	bnez	t5,20002036 <__divdf3+0x51e>
20001fa6:	5462                	lw	s0,56(sp)
20001fa8:	54d2                	lw	s1,52(sp)
20001faa:	b3a5                	j	20001d12 <__divdf3+0x1fa>
20001fac:	8532                	mv	a0,a2
20001fae:	d646                	sw	a7,44(sp)
20001fb0:	d442                	sw	a6,40(sp)
20001fb2:	d23e                	sw	a5,36(sp)
20001fb4:	d036                	sw	a3,32(sp)
20001fb6:	ce7a                	sw	t5,28(sp)
20001fb8:	cc72                	sw	t3,24(sp)
20001fba:	ca76                	sw	t4,20(sp)
20001fbc:	c82e                	sw	a1,16(sp)
20001fbe:	c632                	sw	a2,12(sp)
20001fc0:	44e010ef          	jal	2000340e <__clzsi2>
20001fc4:	01550713          	addi	a4,a0,21
20001fc8:	4ff1                	li	t6,28
20001fca:	4632                	lw	a2,12(sp)
20001fcc:	45c2                	lw	a1,16(sp)
20001fce:	4ed2                	lw	t4,20(sp)
20001fd0:	4e62                	lw	t3,24(sp)
20001fd2:	4f72                	lw	t5,28(sp)
20001fd4:	5682                	lw	a3,32(sp)
20001fd6:	5822                	lw	a6,40(sp)
20001fd8:	58b2                	lw	a7,44(sp)
20001fda:	02050313          	addi	t1,a0,32
20001fde:	4781                	li	a5,0
20001fe0:	c2efd6e3          	bge	t6,a4,20001c0c <__divdf3+0xf4>
20001fe4:	1561                	addi	a0,a0,-8
20001fe6:	00a617b3          	sll	a5,a2,a0
20001fea:	4701                	li	a4,0
20001fec:	b91d                	j	20001c22 <__divdf3+0x10a>
20001fee:	ca3e                	sw	a5,20(sp)
20001ff0:	c82e                	sw	a1,16(sp)
20001ff2:	c62a                	sw	a0,12(sp)
20001ff4:	41a010ef          	jal	2000340e <__clzsi2>
20001ff8:	01550713          	addi	a4,a0,21
20001ffc:	48f1                	li	a7,28
20001ffe:	4832                	lw	a6,12(sp)
20002000:	45c2                	lw	a1,16(sp)
20002002:	4662                	lw	a2,24(sp)
20002004:	46f2                	lw	a3,28(sp)
20002006:	02050313          	addi	t1,a0,32
2000200a:	4781                	li	a5,0
2000200c:	cae8d7e3          	bge	a7,a4,20001cba <__divdf3+0x1a2>
20002010:	1561                	addi	a0,a0,-8
20002012:	00a81e33          	sll	t3,a6,a0
20002016:	4e81                	li	t4,0
20002018:	b975                	j	20001cd4 <__divdf3+0x1bc>
2000201a:	852e                	mv	a0,a1
2000201c:	7ff00713          	li	a4,2047
20002020:	4781                	li	a5,0
20002022:	4681                	li	a3,0
20002024:	b929                	j	20001c3e <__divdf3+0x126>
20002026:	4581                	li	a1,0
20002028:	4705                	li	a4,1
2000202a:	0e705063          	blez	t2,2000210a <__divdf3+0x5f2>
2000202e:	5462                	lw	s0,56(sp)
20002030:	54d2                	lw	s1,52(sp)
20002032:	97ba                	add	a5,a5,a4
20002034:	b9c5                	j	20001d24 <__divdf3+0x20c>
20002036:	c0200613          	li	a2,-1022
2000203a:	00176713          	ori	a4,a4,1
2000203e:	0ec8c863          	blt	a7,a2,2000212e <__divdf3+0x616>
20002042:	00470593          	addi	a1,a4,4
20002046:	00e5b733          	sltu	a4,a1,a4
2000204a:	5462                	lw	s0,56(sp)
2000204c:	54d2                	lw	s1,52(sp)
2000204e:	818d                	srli	a1,a1,0x3
20002050:	97ba                	add	a5,a5,a4
20002052:	b9c9                	j	20001d24 <__divdf3+0x20c>
20002054:	00f77613          	andi	a2,a4,15
20002058:	4591                	li	a1,4
2000205a:	ccb603e3          	beq	a2,a1,20001d20 <__divdf3+0x208>
2000205e:	00470593          	addi	a1,a4,4
20002062:	00e5b733          	sltu	a4,a1,a4
20002066:	97ba                	add	a5,a5,a4
20002068:	818d                	srli	a1,a1,0x3
2000206a:	b96d                	j	20001d24 <__divdf3+0x20c>
2000206c:	00777693          	andi	a3,a4,7
20002070:	00175593          	srli	a1,a4,0x1
20002074:	48fd                	li	a7,31
20002076:	4605                	li	a2,1
20002078:	10069f63          	bnez	a3,20002196 <__divdf3+0x67e>
2000207c:	011798b3          	sll	a7,a5,a7
20002080:	8dd5                	or	a1,a1,a3
20002082:	00b8e733          	or	a4,a7,a1
20002086:	00777693          	andi	a3,a4,7
2000208a:	00c7d7b3          	srl	a5,a5,a2
2000208e:	e2f5                	bnez	a3,20002172 <__divdf3+0x65a>
20002090:	00879693          	slli	a3,a5,0x8
20002094:	1006d463          	bgez	a3,2000219c <__divdf3+0x684>
20002098:	4705                	li	a4,1
2000209a:	4781                	li	a5,0
2000209c:	4681                	li	a3,0
2000209e:	b645                	j	20001c3e <__divdf3+0x126>
200020a0:	00131e13          	slli	t3,t1,0x1
200020a4:	006e3333          	sltu	t1,t3,t1
200020a8:	9342                	add	t1,t1,a6
200020aa:	41c585b3          	sub	a1,a1,t3
200020ae:	961a                	add	a2,a2,t1
200020b0:	1779                	addi	a4,a4,-2
200020b2:	41d60e33          	sub	t3,a2,t4
200020b6:	00b03f33          	snez	t5,a1
200020ba:	b5d5                	j	20001f9e <__divdf3+0x486>
200020bc:	5689                	li	a3,-30
200020be:	0cd3d063          	bge	t2,a3,2000217e <__divdf3+0x666>
200020c2:	5605                	li	a2,-31
200020c4:	407606b3          	sub	a3,a2,t2
200020c8:	00d7d6b3          	srl	a3,a5,a3
200020cc:	00c38763          	beq	t2,a2,200020da <__divdf3+0x5c2>
200020d0:	43e88893          	addi	a7,a7,1086
200020d4:	011797b3          	sll	a5,a5,a7
200020d8:	8f5d                	or	a4,a4,a5
200020da:	00e03733          	snez	a4,a4
200020de:	8f55                	or	a4,a4,a3
200020e0:	00777693          	andi	a3,a4,7
200020e4:	4781                	li	a5,0
200020e6:	ce91                	beqz	a3,20002102 <__divdf3+0x5ea>
200020e8:	00f77613          	andi	a2,a4,15
200020ec:	4591                	li	a1,4
200020ee:	4681                	li	a3,0
200020f0:	00b60963          	beq	a2,a1,20002102 <__divdf3+0x5ea>
200020f4:	00b70633          	add	a2,a4,a1
200020f8:	00e63733          	sltu	a4,a2,a4
200020fc:	01d71693          	slli	a3,a4,0x1d
20002100:	8732                	mv	a4,a2
20002102:	830d                	srli	a4,a4,0x3
20002104:	8ed9                	or	a3,a3,a4
20002106:	4701                	li	a4,0
20002108:	be1d                	j	20001c3e <__divdf3+0x126>
2000210a:	04039d63          	bnez	t2,20002164 <__divdf3+0x64c>
2000210e:	800006b7          	lui	a3,0x80000
20002112:	16fd                	addi	a3,a3,-1 # 7fffffff <__StackTop+0x5ff7dfff>
20002114:	5462                	lw	s0,56(sp)
20002116:	54d2                	lw	s1,52(sp)
20002118:	01f79713          	slli	a4,a5,0x1f
2000211c:	8f55                	or	a4,a4,a3
2000211e:	8385                	srli	a5,a5,0x1
20002120:	00470693          	addi	a3,a4,4
20002124:	00e6b733          	sltu	a4,a3,a4
20002128:	97ba                	add	a5,a5,a4
2000212a:	8736                	mv	a4,a3
2000212c:	b795                	j	20002090 <__divdf3+0x578>
2000212e:	c0100693          	li	a3,-1023
20002132:	02d89d63          	bne	a7,a3,2000216c <__divdf3+0x654>
20002136:	00175693          	srli	a3,a4,0x1
2000213a:	0016e693          	ori	a3,a3,1
2000213e:	bfd9                	j	20002114 <__divdf3+0x5fc>
20002140:	8796                	mv	a5,t0
20002142:	bbbd                	j	20001ec0 <__divdf3+0x3a8>
20002144:	18fd                	addi	a7,a7,-1
20002146:	8676                	mv	a2,t4
20002148:	4681                	li	a3,0
2000214a:	b9b1                	j	20001da6 <__divdf3+0x28e>
2000214c:	15f9                	addi	a1,a1,-2
2000214e:	9742                	add	a4,a4,a6
20002150:	b97d                	j	20001e0e <__divdf3+0x2f6>
20002152:	12f9                	addi	t0,t0,-2
20002154:	97c2                	add	a5,a5,a6
20002156:	b941                	j	20001de6 <__divdf3+0x2ce>
20002158:	15f9                	addi	a1,a1,-2
2000215a:	9642                	add	a2,a2,a6
2000215c:	b3f1                	j	20001f28 <__divdf3+0x410>
2000215e:	1779                	addi	a4,a4,-2
20002160:	95c2                	add	a1,a1,a6
20002162:	bb69                	j	20001efc <__divdf3+0x3e4>
20002164:	5462                	lw	s0,56(sp)
20002166:	54d2                	lw	s1,52(sp)
20002168:	577d                	li	a4,-1
2000216a:	b4d9                	j	20001c30 <__divdf3+0x118>
2000216c:	5462                	lw	s0,56(sp)
2000216e:	54d2                	lw	s1,52(sp)
20002170:	b4c1                	j	20001c30 <__divdf3+0x118>
20002172:	00f77693          	andi	a3,a4,15
20002176:	4611                	li	a2,4
20002178:	f0c68ce3          	beq	a3,a2,20002090 <__divdf3+0x578>
2000217c:	b755                	j	20002120 <__divdf3+0x608>
2000217e:	41e88893          	addi	a7,a7,1054
20002182:	4605                	li	a2,1
20002184:	011716b3          	sll	a3,a4,a7
20002188:	40760633          	sub	a2,a2,t2
2000218c:	00d036b3          	snez	a3,a3
20002190:	00c755b3          	srl	a1,a4,a2
20002194:	b5e5                	j	2000207c <__divdf3+0x564>
20002196:	00c776b3          	and	a3,a4,a2
2000219a:	b5cd                	j	2000207c <__divdf3+0x564>
2000219c:	00979613          	slli	a2,a5,0x9
200021a0:	01d79693          	slli	a3,a5,0x1d
200021a4:	00c65793          	srli	a5,a2,0xc
200021a8:	bfa9                	j	20002102 <__divdf3+0x5ea>

200021aa <__gedf2>:
200021aa:	0145d813          	srli	a6,a1,0x14
200021ae:	001007b7          	lui	a5,0x100
200021b2:	0146d713          	srli	a4,a3,0x14
200021b6:	17fd                	addi	a5,a5,-1 # fffff <HeapSize+0xff7ff>
200021b8:	7ff00893          	li	a7,2047
200021bc:	7ff87813          	andi	a6,a6,2047
200021c0:	00b7f333          	and	t1,a5,a1
200021c4:	01177733          	and	a4,a4,a7
200021c8:	8ff5                	and	a5,a5,a3
200021ca:	81fd                	srli	a1,a1,0x1f
200021cc:	82fd                	srli	a3,a3,0x1f
200021ce:	05180263          	beq	a6,a7,20002212 <__gedf2+0x68>
200021d2:	03170263          	beq	a4,a7,200021f6 <__gedf2+0x4c>
200021d6:	04081f63          	bnez	a6,20002234 <__gedf2+0x8a>
200021da:	00a36833          	or	a6,t1,a0
200021de:	e731                	bnez	a4,2000222a <__gedf2+0x80>
200021e0:	00c7e8b3          	or	a7,a5,a2
200021e4:	06088f63          	beqz	a7,20002262 <__gedf2+0xb8>
200021e8:	08081a63          	bnez	a6,2000227c <__gedf2+0xd2>
200021ec:	00169713          	slli	a4,a3,0x1
200021f0:	177d                	addi	a4,a4,-1
200021f2:	853a                	mv	a0,a4
200021f4:	8082                	ret
200021f6:	8fd1                	or	a5,a5,a2
200021f8:	e3c1                	bnez	a5,20002278 <__gedf2+0xce>
200021fa:	00081663          	bnez	a6,20002206 <__gedf2+0x5c>
200021fe:	00a36333          	or	t1,t1,a0
20002202:	fe0305e3          	beqz	t1,200021ec <__gedf2+0x42>
20002206:	00d59c63          	bne	a1,a3,2000221e <__gedf2+0x74>
2000220a:	00159713          	slli	a4,a1,0x1
2000220e:	177d                	addi	a4,a4,-1
20002210:	a819                	j	20002226 <__gedf2+0x7c>
20002212:	00a368b3          	or	a7,t1,a0
20002216:	06089163          	bnez	a7,20002278 <__gedf2+0xce>
2000221a:	05070863          	beq	a4,a6,2000226a <__gedf2+0xc0>
2000221e:	40b005b3          	neg	a1,a1
20002222:	0015e713          	ori	a4,a1,1
20002226:	853a                	mv	a0,a4
20002228:	8082                	ret
2000222a:	fc0801e3          	beqz	a6,200021ec <__gedf2+0x42>
2000222e:	fed598e3          	bne	a1,a3,2000221e <__gedf2+0x74>
20002232:	bfe1                	j	2000220a <__gedf2+0x60>
20002234:	d76d                	beqz	a4,2000221e <__gedf2+0x74>
20002236:	fed594e3          	bne	a1,a3,2000221e <__gedf2+0x74>
2000223a:	ff0742e3          	blt	a4,a6,2000221e <__gedf2+0x74>
2000223e:	fce846e3          	blt	a6,a4,2000220a <__gedf2+0x60>
20002242:	fc67eee3          	bltu	a5,t1,2000221e <__gedf2+0x74>
20002246:	40f30733          	sub	a4,t1,a5
2000224a:	00173713          	seqz	a4,a4
2000224e:	00a67363          	bgeu	a2,a0,20002254 <__gedf2+0xaa>
20002252:	f771                	bnez	a4,2000221e <__gedf2+0x74>
20002254:	faf36be3          	bltu	t1,a5,2000220a <__gedf2+0x60>
20002258:	00c57363          	bgeu	a0,a2,2000225e <__gedf2+0xb4>
2000225c:	f75d                	bnez	a4,2000220a <__gedf2+0x60>
2000225e:	4701                	li	a4,0
20002260:	b7d9                	j	20002226 <__gedf2+0x7c>
20002262:	fa081ee3          	bnez	a6,2000221e <__gedf2+0x74>
20002266:	853a                	mv	a0,a4
20002268:	8082                	ret
2000226a:	00c7e733          	or	a4,a5,a2
2000226e:	e709                	bnez	a4,20002278 <__gedf2+0xce>
20002270:	4705                	li	a4,1
20002272:	fad596e3          	bne	a1,a3,2000221e <__gedf2+0x74>
20002276:	bff9                	j	20002254 <__gedf2+0xaa>
20002278:	5779                	li	a4,-2
2000227a:	b775                	j	20002226 <__gedf2+0x7c>
2000227c:	fad591e3          	bne	a1,a3,2000221e <__gedf2+0x74>
20002280:	b7c9                	j	20002242 <__gedf2+0x98>

20002282 <__ledf2>:
20002282:	0145d813          	srli	a6,a1,0x14
20002286:	001007b7          	lui	a5,0x100
2000228a:	0146d713          	srli	a4,a3,0x14
2000228e:	17fd                	addi	a5,a5,-1 # fffff <HeapSize+0xff7ff>
20002290:	7ff00893          	li	a7,2047
20002294:	7ff87813          	andi	a6,a6,2047
20002298:	00b7f333          	and	t1,a5,a1
2000229c:	01177733          	and	a4,a4,a7
200022a0:	8ff5                	and	a5,a5,a3
200022a2:	81fd                	srli	a1,a1,0x1f
200022a4:	82fd                	srli	a3,a3,0x1f
200022a6:	05180563          	beq	a6,a7,200022f0 <__ledf2+0x6e>
200022aa:	03170263          	beq	a4,a7,200022ce <__ledf2+0x4c>
200022ae:	06081863          	bnez	a6,2000231e <__ledf2+0x9c>
200022b2:	00a36833          	or	a6,t1,a0
200022b6:	e749                	bnez	a4,20002340 <__ledf2+0xbe>
200022b8:	00c7e8b3          	or	a7,a5,a2
200022bc:	08088a63          	beqz	a7,20002350 <__ledf2+0xce>
200022c0:	08081d63          	bnez	a6,2000235a <__ledf2+0xd8>
200022c4:	00169713          	slli	a4,a3,0x1
200022c8:	177d                	addi	a4,a4,-1
200022ca:	853a                	mv	a0,a4
200022cc:	8082                	ret
200022ce:	8fd1                	or	a5,a5,a2
200022d0:	4709                	li	a4,2
200022d2:	ffe5                	bnez	a5,200022ca <__ledf2+0x48>
200022d4:	00081663          	bnez	a6,200022e0 <__ledf2+0x5e>
200022d8:	00a36333          	or	t1,t1,a0
200022dc:	fe0304e3          	beqz	t1,200022c4 <__ledf2+0x42>
200022e0:	02d58b63          	beq	a1,a3,20002316 <__ledf2+0x94>
200022e4:	40b005b3          	neg	a1,a1
200022e8:	0015e713          	ori	a4,a1,1
200022ec:	853a                	mv	a0,a4
200022ee:	8082                	ret
200022f0:	00a368b3          	or	a7,t1,a0
200022f4:	04089b63          	bnez	a7,2000234a <__ledf2+0xc8>
200022f8:	ff0716e3          	bne	a4,a6,200022e4 <__ledf2+0x62>
200022fc:	00c7e833          	or	a6,a5,a2
20002300:	4709                	li	a4,2
20002302:	fc0814e3          	bnez	a6,200022ca <__ledf2+0x48>
20002306:	4705                	li	a4,1
20002308:	fcd59ee3          	bne	a1,a3,200022e4 <__ledf2+0x62>
2000230c:	00f36563          	bltu	t1,a5,20002316 <__ledf2+0x94>
20002310:	04c57363          	bgeu	a0,a2,20002356 <__ledf2+0xd4>
20002314:	c329                	beqz	a4,20002356 <__ledf2+0xd4>
20002316:	00159713          	slli	a4,a1,0x1
2000231a:	177d                	addi	a4,a4,-1
2000231c:	b77d                	j	200022ca <__ledf2+0x48>
2000231e:	d379                	beqz	a4,200022e4 <__ledf2+0x62>
20002320:	fcd592e3          	bne	a1,a3,200022e4 <__ledf2+0x62>
20002324:	fd0740e3          	blt	a4,a6,200022e4 <__ledf2+0x62>
20002328:	fee847e3          	blt	a6,a4,20002316 <__ledf2+0x94>
2000232c:	fa67ece3          	bltu	a5,t1,200022e4 <__ledf2+0x62>
20002330:	40f30733          	sub	a4,t1,a5
20002334:	00173713          	seqz	a4,a4
20002338:	fca67ae3          	bgeu	a2,a0,2000230c <__ledf2+0x8a>
2000233c:	f745                	bnez	a4,200022e4 <__ledf2+0x62>
2000233e:	b7f9                	j	2000230c <__ledf2+0x8a>
20002340:	f80802e3          	beqz	a6,200022c4 <__ledf2+0x42>
20002344:	fad590e3          	bne	a1,a3,200022e4 <__ledf2+0x62>
20002348:	b7f9                	j	20002316 <__ledf2+0x94>
2000234a:	4709                	li	a4,2
2000234c:	853a                	mv	a0,a4
2000234e:	8082                	ret
20002350:	f6080de3          	beqz	a6,200022ca <__ledf2+0x48>
20002354:	bf41                	j	200022e4 <__ledf2+0x62>
20002356:	4701                	li	a4,0
20002358:	bf8d                	j	200022ca <__ledf2+0x48>
2000235a:	f8d595e3          	bne	a1,a3,200022e4 <__ledf2+0x62>
2000235e:	b7f9                	j	2000232c <__ledf2+0xaa>

20002360 <__muldf3>:
20002360:	0145d793          	srli	a5,a1,0x14
20002364:	7139                	addi	sp,sp,-64
20002366:	00c59713          	slli	a4,a1,0xc
2000236a:	de06                	sw	ra,60(sp)
2000236c:	7ff7f793          	andi	a5,a5,2047
20002370:	882a                	mv	a6,a0
20002372:	8331                	srli	a4,a4,0xc
20002374:	81fd                	srli	a1,a1,0x1f
20002376:	36078463          	beqz	a5,200026de <__muldf3+0x37e>
2000237a:	7ff00513          	li	a0,2047
2000237e:	22a78963          	beq	a5,a0,200025b0 <__muldf3+0x250>
20002382:	070e                	slli	a4,a4,0x3
20002384:	01d85513          	srli	a0,a6,0x1d
20002388:	8d59                	or	a0,a0,a4
2000238a:	00800737          	lui	a4,0x800
2000238e:	8f49                	or	a4,a4,a0
20002390:	c0178313          	addi	t1,a5,-1023
20002394:	00381893          	slli	a7,a6,0x3
20002398:	4e01                	li	t3,0
2000239a:	4f81                	li	t6,0
2000239c:	0146d793          	srli	a5,a3,0x14
200023a0:	00c69813          	slli	a6,a3,0xc
200023a4:	7ff7f793          	andi	a5,a5,2047
200023a8:	00c85813          	srli	a6,a6,0xc
200023ac:	82fd                	srli	a3,a3,0x1f
200023ae:	22078463          	beqz	a5,200025d6 <__muldf3+0x276>
200023b2:	7ff00513          	li	a0,2047
200023b6:	30a78063          	beq	a5,a0,200026b6 <__muldf3+0x356>
200023ba:	c0178793          	addi	a5,a5,-1023
200023be:	4529                	li	a0,10
200023c0:	933e                	add	t1,t1,a5
200023c2:	29c54863          	blt	a0,t3,20002652 <__muldf3+0x2f2>
200023c6:	080e                	slli	a6,a6,0x3
200023c8:	01d65793          	srli	a5,a2,0x1d
200023cc:	0107e7b3          	or	a5,a5,a6
200023d0:	00800837          	lui	a6,0x800
200023d4:	00d5c533          	xor	a0,a1,a3
200023d8:	0107e833          	or	a6,a5,a6
200023dc:	4789                	li	a5,2
200023de:	00361e93          	slli	t4,a2,0x3
200023e2:	85aa                	mv	a1,a0
200023e4:	4f01                	li	t5,0
200023e6:	03c7d163          	bge	a5,t3,20002408 <__muldf3+0xa8>
200023ea:	4785                	li	a5,1
200023ec:	01c797b3          	sll	a5,a5,t3
200023f0:	5307f613          	andi	a2,a5,1328
200023f4:	24061f63          	bnez	a2,20002652 <__muldf3+0x2f2>
200023f8:	2407f593          	andi	a1,a5,576
200023fc:	40059463          	bnez	a1,20002804 <__muldf3+0x4a4>
20002400:	0887f793          	andi	a5,a5,136
20002404:	24079363          	bnez	a5,2000264a <__muldf3+0x2ea>
20002408:	01089793          	slli	a5,a7,0x10
2000240c:	010e9f93          	slli	t6,t4,0x10
20002410:	0108d613          	srli	a2,a7,0x10
20002414:	83c1                	srli	a5,a5,0x10
20002416:	010fdf93          	srli	t6,t6,0x10
2000241a:	010ede93          	srli	t4,t4,0x10
2000241e:	03f785b3          	mul	a1,a5,t6
20002422:	dc22                	sw	s0,56(sp)
20002424:	03f60e33          	mul	t3,a2,t6
20002428:	0105d693          	srli	a3,a1,0x10
2000242c:	02fe88b3          	mul	a7,t4,a5
20002430:	98f2                	add	a7,a7,t3
20002432:	96c6                	add	a3,a3,a7
20002434:	03d602b3          	mul	t0,a2,t4
20002438:	35c6ee63          	bltu	a3,t3,20002794 <__muldf3+0x434>
2000243c:	01081393          	slli	t2,a6,0x10
20002440:	05c2                	slli	a1,a1,0x10
20002442:	01069e13          	slli	t3,a3,0x10
20002446:	0103d393          	srli	t2,t2,0x10
2000244a:	01085813          	srli	a6,a6,0x10
2000244e:	81c1                	srli	a1,a1,0x10
20002450:	00be0433          	add	s0,t3,a1
20002454:	82c1                	srli	a3,a3,0x10
20002456:	02778f33          	mul	t5,a5,t2
2000245a:	02760e33          	mul	t3,a2,t2
2000245e:	010f5593          	srli	a1,t5,0x10
20002462:	02f807b3          	mul	a5,a6,a5
20002466:	97f2                	add	a5,a5,t3
20002468:	95be                	add	a1,a1,a5
2000246a:	030608b3          	mul	a7,a2,a6
2000246e:	01c5f463          	bgeu	a1,t3,20002476 <__muldf3+0x116>
20002472:	67c1                	lui	a5,0x10
20002474:	98be                	add	a7,a7,a5
20002476:	01071613          	slli	a2,a4,0x10
2000247a:	8241                	srli	a2,a2,0x10
2000247c:	8341                	srli	a4,a4,0x10
2000247e:	01059793          	slli	a5,a1,0x10
20002482:	81c1                	srli	a1,a1,0x10
20002484:	95c6                	add	a1,a1,a7
20002486:	02ce8e33          	mul	t3,t4,a2
2000248a:	0f42                	slli	t5,t5,0x10
2000248c:	010f5f13          	srli	t5,t5,0x10
20002490:	97fa                	add	a5,a5,t5
20002492:	96be                	add	a3,a3,a5
20002494:	03f608b3          	mul	a7,a2,t6
20002498:	03f70fb3          	mul	t6,a4,t6
2000249c:	0108df13          	srli	t5,a7,0x10
200024a0:	9e7e                	add	t3,t3,t6
200024a2:	9f72                	add	t5,t5,t3
200024a4:	02ee8eb3          	mul	t4,t4,a4
200024a8:	01ff7463          	bgeu	t5,t6,200024b0 <__muldf3+0x150>
200024ac:	6fc1                	lui	t6,0x10
200024ae:	9efe                	add	t4,t4,t6
200024b0:	08c2                	slli	a7,a7,0x10
200024b2:	010f1f93          	slli	t6,t5,0x10
200024b6:	0108d893          	srli	a7,a7,0x10
200024ba:	010f5f13          	srli	t5,t5,0x10
200024be:	011f8e33          	add	t3,t6,a7
200024c2:	9f76                	add	t5,t5,t4
200024c4:	027708b3          	mul	a7,a4,t2
200024c8:	02760eb3          	mul	t4,a2,t2
200024cc:	02c80633          	mul	a2,a6,a2
200024d0:	010edf93          	srli	t6,t4,0x10
200024d4:	9646                	add	a2,a2,a7
200024d6:	9fb2                	add	t6,t6,a2
200024d8:	02e80833          	mul	a6,a6,a4
200024dc:	011ff463          	bgeu	t6,a7,200024e4 <__muldf3+0x184>
200024e0:	6741                	lui	a4,0x10
200024e2:	983a                	add	a6,a6,a4
200024e4:	010e9893          	slli	a7,t4,0x10
200024e8:	0108d893          	srli	a7,a7,0x10
200024ec:	010f9713          	slli	a4,t6,0x10
200024f0:	9696                	add	a3,a3,t0
200024f2:	9746                	add	a4,a4,a7
200024f4:	95ba                	add	a1,a1,a4
200024f6:	00f6b7b3          	sltu	a5,a3,a5
200024fa:	01c68eb3          	add	t4,a3,t3
200024fe:	97ae                	add	a5,a5,a1
20002500:	01e78633          	add	a2,a5,t5
20002504:	00deb6b3          	sltu	a3,t4,a3
20002508:	96b2                	add	a3,a3,a2
2000250a:	00e5b733          	sltu	a4,a1,a4
2000250e:	00b7b5b3          	sltu	a1,a5,a1
20002512:	8f4d                	or	a4,a4,a1
20002514:	00f637b3          	sltu	a5,a2,a5
20002518:	010fd593          	srli	a1,t6,0x10
2000251c:	00c6b633          	sltu	a2,a3,a2
20002520:	8fd1                	or	a5,a5,a2
20002522:	972e                	add	a4,a4,a1
20002524:	009e9893          	slli	a7,t4,0x9
20002528:	97ba                	add	a5,a5,a4
2000252a:	0088e8b3          	or	a7,a7,s0
2000252e:	97c2                	add	a5,a5,a6
20002530:	011038b3          	snez	a7,a7
20002534:	017ed613          	srli	a2,t4,0x17
20002538:	07a6                	slli	a5,a5,0x9
2000253a:	0176d713          	srli	a4,a3,0x17
2000253e:	00c8e8b3          	or	a7,a7,a2
20002542:	06a6                	slli	a3,a3,0x9
20002544:	00d8e8b3          	or	a7,a7,a3
20002548:	00779693          	slli	a3,a5,0x7
2000254c:	8f5d                	or	a4,a4,a5
2000254e:	1206c963          	bltz	a3,20002680 <__muldf3+0x320>
20002552:	3ff30793          	addi	a5,t1,1023
20002556:	24f05963          	blez	a5,200027a8 <__muldf3+0x448>
2000255a:	0078f693          	andi	a3,a7,7
2000255e:	38068763          	beqz	a3,200028ec <__muldf3+0x58c>
20002562:	00f8f693          	andi	a3,a7,15
20002566:	4611                	li	a2,4
20002568:	5462                	lw	s0,56(sp)
2000256a:	02c68263          	beq	a3,a2,2000258e <__muldf3+0x22e>
2000256e:	00488693          	addi	a3,a7,4
20002572:	0116b8b3          	sltu	a7,a3,a7
20002576:	9746                	add	a4,a4,a7
20002578:	88b6                	mv	a7,a3
2000257a:	00771693          	slli	a3,a4,0x7
2000257e:	0006d863          	bgez	a3,2000258e <__muldf3+0x22e>
20002582:	ff0006b7          	lui	a3,0xff000
20002586:	16fd                	addi	a3,a3,-1 # feffffff <__StackTop+0xdef7dfff>
20002588:	40030793          	addi	a5,t1,1024
2000258c:	8f75                	and	a4,a4,a3
2000258e:	7fe00693          	li	a3,2046
20002592:	28f6c563          	blt	a3,a5,2000281c <__muldf3+0x4bc>
20002596:	01d71613          	slli	a2,a4,0x1d
2000259a:	0038d893          	srli	a7,a7,0x3
2000259e:	00971693          	slli	a3,a4,0x9
200025a2:	7ff7f793          	andi	a5,a5,2047
200025a6:	01166633          	or	a2,a2,a7
200025aa:	00c6d713          	srli	a4,a3,0xc
200025ae:	a87d                	j	2000266c <__muldf3+0x30c>
200025b0:	010768b3          	or	a7,a4,a6
200025b4:	1c089b63          	bnez	a7,2000278a <__muldf3+0x42a>
200025b8:	833e                	mv	t1,a5
200025ba:	0146d793          	srli	a5,a3,0x14
200025be:	00c69813          	slli	a6,a3,0xc
200025c2:	7ff7f793          	andi	a5,a5,2047
200025c6:	4701                	li	a4,0
200025c8:	4e21                	li	t3,8
200025ca:	4f89                	li	t6,2
200025cc:	00c85813          	srli	a6,a6,0xc
200025d0:	82fd                	srli	a3,a3,0x1f
200025d2:	de0790e3          	bnez	a5,200023b2 <__muldf3+0x52>
200025d6:	00c86eb3          	or	t4,a6,a2
200025da:	160e8063          	beqz	t4,2000273a <__muldf3+0x3da>
200025de:	26080a63          	beqz	a6,20002852 <__muldf3+0x4f2>
200025e2:	8542                	mv	a0,a6
200025e4:	d632                	sw	a2,44(sp)
200025e6:	d472                	sw	t3,40(sp)
200025e8:	d21a                	sw	t1,36(sp)
200025ea:	d03a                	sw	a4,32(sp)
200025ec:	ce46                	sw	a7,28(sp)
200025ee:	cc7e                	sw	t6,24(sp)
200025f0:	ca36                	sw	a3,20(sp)
200025f2:	c82e                	sw	a1,16(sp)
200025f4:	c642                	sw	a6,12(sp)
200025f6:	619000ef          	jal	2000340e <__clzsi2>
200025fa:	4832                	lw	a6,12(sp)
200025fc:	45c2                	lw	a1,16(sp)
200025fe:	46d2                	lw	a3,20(sp)
20002600:	4fe2                	lw	t6,24(sp)
20002602:	48f2                	lw	a7,28(sp)
20002604:	5702                	lw	a4,32(sp)
20002606:	5312                	lw	t1,36(sp)
20002608:	5e22                	lw	t3,40(sp)
2000260a:	5632                	lw	a2,44(sp)
2000260c:	87aa                	mv	a5,a0
2000260e:	ff550e93          	addi	t4,a0,-11
20002612:	4575                	li	a0,29
20002614:	41d50533          	sub	a0,a0,t4
20002618:	ff878e93          	addi	t4,a5,-8 # fff8 <HeapSize+0xf7f8>
2000261c:	01d81833          	sll	a6,a6,t4
20002620:	00a65533          	srl	a0,a2,a0
20002624:	01056833          	or	a6,a0,a6
20002628:	01d61eb3          	sll	t4,a2,t4
2000262c:	40f307b3          	sub	a5,t1,a5
20002630:	4629                	li	a2,10
20002632:	c0d78313          	addi	t1,a5,-1011
20002636:	01c64e63          	blt	a2,t3,20002652 <__muldf3+0x2f2>
2000263a:	4789                	li	a5,2
2000263c:	00d5c533          	xor	a0,a1,a3
20002640:	ddc7d4e3          	bge	a5,t3,20002408 <__muldf3+0xa8>
20002644:	85aa                	mv	a1,a0
20002646:	4f01                	li	t5,0
20002648:	b34d                	j	200023ea <__muldf3+0x8a>
2000264a:	85b6                	mv	a1,a3
2000264c:	8742                	mv	a4,a6
2000264e:	88f6                	mv	a7,t4
20002650:	8ffa                	mv	t6,t5
20002652:	4789                	li	a5,2
20002654:	1aff8e63          	beq	t6,a5,20002810 <__muldf3+0x4b0>
20002658:	478d                	li	a5,3
2000265a:	14ff8063          	beq	t6,a5,2000279a <__muldf3+0x43a>
2000265e:	4785                	li	a5,1
20002660:	852e                	mv	a0,a1
20002662:	02ff9b63          	bne	t6,a5,20002698 <__muldf3+0x338>
20002666:	4781                	li	a5,0
20002668:	4701                	li	a4,0
2000266a:	4601                	li	a2,0
2000266c:	50f2                	lw	ra,60(sp)
2000266e:	07d2                	slli	a5,a5,0x14
20002670:	01f51593          	slli	a1,a0,0x1f
20002674:	8fd9                	or	a5,a5,a4
20002676:	8fcd                	or	a5,a5,a1
20002678:	8532                	mv	a0,a2
2000267a:	85be                	mv	a1,a5
2000267c:	6121                	addi	sp,sp,64
2000267e:	8082                	ret
20002680:	0018d793          	srli	a5,a7,0x1
20002684:	5462                	lw	s0,56(sp)
20002686:	0018f893          	andi	a7,a7,1
2000268a:	0117e7b3          	or	a5,a5,a7
2000268e:	01f71893          	slli	a7,a4,0x1f
20002692:	0117e8b3          	or	a7,a5,a7
20002696:	8305                	srli	a4,a4,0x1
20002698:	40030793          	addi	a5,t1,1024
2000269c:	0305                	addi	t1,t1,1
2000269e:	10f05663          	blez	a5,200027aa <__muldf3+0x44a>
200026a2:	0078f693          	andi	a3,a7,7
200026a6:	ec068ae3          	beqz	a3,2000257a <__muldf3+0x21a>
200026aa:	00f8f693          	andi	a3,a7,15
200026ae:	4611                	li	a2,4
200026b0:	eac69fe3          	bne	a3,a2,2000256e <__muldf3+0x20e>
200026b4:	b5d9                	j	2000257a <__muldf3+0x21a>
200026b6:	00c86eb3          	or	t4,a6,a2
200026ba:	7ff30313          	addi	t1,t1,2047
200026be:	0a0e9563          	bnez	t4,20002768 <__muldf3+0x408>
200026c2:	002e6793          	ori	a5,t3,2
200026c6:	4629                	li	a2,10
200026c8:	f8f645e3          	blt	a2,a5,20002652 <__muldf3+0x2f2>
200026cc:	8db5                	xor	a1,a1,a3
200026ce:	852e                	mv	a0,a1
200026d0:	4f09                	li	t5,2
200026d2:	080e0063          	beqz	t3,20002752 <__muldf3+0x3f2>
200026d6:	8e3e                	mv	t3,a5
200026d8:	4801                	li	a6,0
200026da:	4f09                	li	t5,2
200026dc:	b339                	j	200023ea <__muldf3+0x8a>
200026de:	00a768b3          	or	a7,a4,a0
200026e2:	04088763          	beqz	a7,20002730 <__muldf3+0x3d0>
200026e6:	ce36                	sw	a3,28(sp)
200026e8:	cc32                	sw	a2,24(sp)
200026ea:	12070e63          	beqz	a4,20002826 <__muldf3+0x4c6>
200026ee:	ca2a                	sw	a0,20(sp)
200026f0:	853a                	mv	a0,a4
200026f2:	c82e                	sw	a1,16(sp)
200026f4:	c63a                	sw	a4,12(sp)
200026f6:	519000ef          	jal	2000340e <__clzsi2>
200026fa:	4732                	lw	a4,12(sp)
200026fc:	45c2                	lw	a1,16(sp)
200026fe:	4852                	lw	a6,20(sp)
20002700:	4662                	lw	a2,24(sp)
20002702:	46f2                	lw	a3,28(sp)
20002704:	8e2a                	mv	t3,a0
20002706:	ff550893          	addi	a7,a0,-11
2000270a:	47f5                	li	a5,29
2000270c:	411787b3          	sub	a5,a5,a7
20002710:	ff8e0893          	addi	a7,t3,-8
20002714:	01171733          	sll	a4,a4,a7
20002718:	00f857b3          	srl	a5,a6,a5
2000271c:	8f5d                	or	a4,a4,a5
2000271e:	011818b3          	sll	a7,a6,a7
20002722:	c0d00793          	li	a5,-1011
20002726:	41c78333          	sub	t1,a5,t3
2000272a:	4f81                	li	t6,0
2000272c:	4e01                	li	t3,0
2000272e:	b1bd                	j	2000239c <__muldf3+0x3c>
20002730:	4701                	li	a4,0
20002732:	4e11                	li	t3,4
20002734:	4301                	li	t1,0
20002736:	4f85                	li	t6,1
20002738:	b195                	j	2000239c <__muldf3+0x3c>
2000273a:	001e6e13          	ori	t3,t3,1
2000273e:	47a9                	li	a5,10
20002740:	f1c7c9e3          	blt	a5,t3,20002652 <__muldf3+0x2f2>
20002744:	8db5                	xor	a1,a1,a3
20002746:	4789                	li	a5,2
20002748:	852e                	mv	a0,a1
2000274a:	4801                	li	a6,0
2000274c:	4f05                	li	t5,1
2000274e:	c9c7cee3          	blt	a5,t3,200023ea <__muldf3+0x8a>
20002752:	4789                	li	a5,2
20002754:	0aff0e63          	beq	t5,a5,20002810 <__muldf3+0x4b0>
20002758:	4f85                	li	t6,1
2000275a:	4785                	li	a5,1
2000275c:	4701                	li	a4,0
2000275e:	4881                	li	a7,0
20002760:	852e                	mv	a0,a1
20002762:	f2ff9be3          	bne	t6,a5,20002698 <__muldf3+0x338>
20002766:	b701                	j	20002666 <__muldf3+0x306>
20002768:	003e6e13          	ori	t3,t3,3
2000276c:	4529                	li	a0,10
2000276e:	17c54a63          	blt	a0,t3,200028e2 <__muldf3+0x582>
20002772:	4785                	li	a5,1
20002774:	01c797b3          	sll	a5,a5,t3
20002778:	0887f793          	andi	a5,a5,136
2000277c:	00d5c533          	xor	a0,a1,a3
20002780:	8eb2                	mv	t4,a2
20002782:	4f0d                	li	t5,3
20002784:	c80782e3          	beqz	a5,20002408 <__muldf3+0xa8>
20002788:	b5c9                	j	2000264a <__muldf3+0x2ea>
2000278a:	88c2                	mv	a7,a6
2000278c:	833e                	mv	t1,a5
2000278e:	4e31                	li	t3,12
20002790:	4f8d                	li	t6,3
20002792:	b129                	j	2000239c <__muldf3+0x3c>
20002794:	68c1                	lui	a7,0x10
20002796:	92c6                	add	t0,t0,a7
20002798:	b155                	j	2000243c <__muldf3+0xdc>
2000279a:	4501                	li	a0,0
2000279c:	7ff00793          	li	a5,2047
200027a0:	00080737          	lui	a4,0x80
200027a4:	4601                	li	a2,0
200027a6:	b5d9                	j	2000266c <__muldf3+0x30c>
200027a8:	5462                	lw	s0,56(sp)
200027aa:	c7ed                	beqz	a5,20002894 <__muldf3+0x534>
200027ac:	fc900693          	li	a3,-55
200027b0:	ead7cbe3          	blt	a5,a3,20002666 <__muldf3+0x306>
200027b4:	5689                	li	a3,-30
200027b6:	12d7dd63          	bge	a5,a3,200028f0 <__muldf3+0x590>
200027ba:	5605                	li	a2,-31
200027bc:	40f606b3          	sub	a3,a2,a5
200027c0:	00d756b3          	srl	a3,a4,a3
200027c4:	00c78863          	beq	a5,a2,200027d4 <__muldf3+0x474>
200027c8:	43e30313          	addi	t1,t1,1086
200027cc:	00671333          	sll	t1,a4,t1
200027d0:	0068e8b3          	or	a7,a7,t1
200027d4:	01103633          	snez	a2,a7
200027d8:	8e55                	or	a2,a2,a3
200027da:	00767793          	andi	a5,a2,7
200027de:	4701                	li	a4,0
200027e0:	cf91                	beqz	a5,200027fc <__muldf3+0x49c>
200027e2:	00f67693          	andi	a3,a2,15
200027e6:	4591                	li	a1,4
200027e8:	4781                	li	a5,0
200027ea:	00b68963          	beq	a3,a1,200027fc <__muldf3+0x49c>
200027ee:	00b606b3          	add	a3,a2,a1
200027f2:	00c6b633          	sltu	a2,a3,a2
200027f6:	01d61793          	slli	a5,a2,0x1d
200027fa:	8636                	mv	a2,a3
200027fc:	820d                	srli	a2,a2,0x3
200027fe:	8e5d                	or	a2,a2,a5
20002800:	4781                	li	a5,0
20002802:	b5ad                	j	2000266c <__muldf3+0x30c>
20002804:	4501                	li	a0,0
20002806:	7ff00793          	li	a5,2047
2000280a:	00080737          	lui	a4,0x80
2000280e:	bdb9                	j	2000266c <__muldf3+0x30c>
20002810:	852e                	mv	a0,a1
20002812:	7ff00793          	li	a5,2047
20002816:	4701                	li	a4,0
20002818:	4601                	li	a2,0
2000281a:	bd89                	j	2000266c <__muldf3+0x30c>
2000281c:	7ff00793          	li	a5,2047
20002820:	4701                	li	a4,0
20002822:	4601                	li	a2,0
20002824:	b5a1                	j	2000266c <__muldf3+0x30c>
20002826:	ca3a                	sw	a4,20(sp)
20002828:	c82e                	sw	a1,16(sp)
2000282a:	c62a                	sw	a0,12(sp)
2000282c:	3e3000ef          	jal	2000340e <__clzsi2>
20002830:	01550893          	addi	a7,a0,21
20002834:	47f1                	li	a5,28
20002836:	4832                	lw	a6,12(sp)
20002838:	45c2                	lw	a1,16(sp)
2000283a:	4662                	lw	a2,24(sp)
2000283c:	46f2                	lw	a3,28(sp)
2000283e:	02050e13          	addi	t3,a0,32
20002842:	4701                	li	a4,0
20002844:	ed17d3e3          	bge	a5,a7,2000270a <__muldf3+0x3aa>
20002848:	1561                	addi	a0,a0,-8
2000284a:	00a81733          	sll	a4,a6,a0
2000284e:	4881                	li	a7,0
20002850:	bdc9                	j	20002722 <__muldf3+0x3c2>
20002852:	8532                	mv	a0,a2
20002854:	d672                	sw	t3,44(sp)
20002856:	d41a                	sw	t1,40(sp)
20002858:	d242                	sw	a6,36(sp)
2000285a:	d03a                	sw	a4,32(sp)
2000285c:	ce46                	sw	a7,28(sp)
2000285e:	cc7e                	sw	t6,24(sp)
20002860:	ca36                	sw	a3,20(sp)
20002862:	c82e                	sw	a1,16(sp)
20002864:	c632                	sw	a2,12(sp)
20002866:	3a9000ef          	jal	2000340e <__clzsi2>
2000286a:	01550e93          	addi	t4,a0,21
2000286e:	4f71                	li	t5,28
20002870:	4632                	lw	a2,12(sp)
20002872:	45c2                	lw	a1,16(sp)
20002874:	46d2                	lw	a3,20(sp)
20002876:	4fe2                	lw	t6,24(sp)
20002878:	48f2                	lw	a7,28(sp)
2000287a:	5702                	lw	a4,32(sp)
2000287c:	5322                	lw	t1,40(sp)
2000287e:	5e32                	lw	t3,44(sp)
20002880:	02050793          	addi	a5,a0,32
20002884:	4801                	li	a6,0
20002886:	d9df56e3          	bge	t5,t4,20002612 <__muldf3+0x2b2>
2000288a:	1561                	addi	a0,a0,-8
2000288c:	00a61833          	sll	a6,a2,a0
20002890:	4e81                	li	t4,0
20002892:	bb69                	j	2000262c <__muldf3+0x2cc>
20002894:	4685                	li	a3,1
20002896:	41e30313          	addi	t1,t1,1054
2000289a:	00689633          	sll	a2,a7,t1
2000289e:	00c03633          	snez	a2,a2
200028a2:	00671333          	sll	t1,a4,t1
200028a6:	00d8d8b3          	srl	a7,a7,a3
200028aa:	00666633          	or	a2,a2,t1
200028ae:	01166633          	or	a2,a2,a7
200028b2:	00767793          	andi	a5,a2,7
200028b6:	00d756b3          	srl	a3,a4,a3
200028ba:	cf81                	beqz	a5,200028d2 <__muldf3+0x572>
200028bc:	00f67793          	andi	a5,a2,15
200028c0:	4711                	li	a4,4
200028c2:	00e78863          	beq	a5,a4,200028d2 <__muldf3+0x572>
200028c6:	00e607b3          	add	a5,a2,a4
200028ca:	00c7b633          	sltu	a2,a5,a2
200028ce:	96b2                	add	a3,a3,a2
200028d0:	863e                	mv	a2,a5
200028d2:	00869793          	slli	a5,a3,0x8
200028d6:	0207d063          	bgez	a5,200028f6 <__muldf3+0x596>
200028da:	4785                	li	a5,1
200028dc:	4701                	li	a4,0
200028de:	4601                	li	a2,0
200028e0:	b371                	j	2000266c <__muldf3+0x30c>
200028e2:	4501                	li	a0,0
200028e4:	00080737          	lui	a4,0x80
200028e8:	4601                	li	a2,0
200028ea:	b349                	j	2000266c <__muldf3+0x30c>
200028ec:	5462                	lw	s0,56(sp)
200028ee:	b145                	j	2000258e <__muldf3+0x22e>
200028f0:	4685                	li	a3,1
200028f2:	8e9d                	sub	a3,a3,a5
200028f4:	b74d                	j	20002896 <__muldf3+0x536>
200028f6:	00969593          	slli	a1,a3,0x9
200028fa:	01d69793          	slli	a5,a3,0x1d
200028fe:	00c5d713          	srli	a4,a1,0xc
20002902:	bded                	j	200027fc <__muldf3+0x49c>

20002904 <__subdf3>:
20002904:	001007b7          	lui	a5,0x100
20002908:	17fd                	addi	a5,a5,-1 # fffff <HeapSize+0xff7ff>
2000290a:	00b7f333          	and	t1,a5,a1
2000290e:	8ff5                	and	a5,a5,a3
20002910:	00379813          	slli	a6,a5,0x3
20002914:	0146d893          	srli	a7,a3,0x14
20002918:	030e                	slli	t1,t1,0x3
2000291a:	1101                	addi	sp,sp,-32
2000291c:	01d55713          	srli	a4,a0,0x1d
20002920:	01d65793          	srli	a5,a2,0x1d
20002924:	00676733          	or	a4,a4,t1
20002928:	0107e7b3          	or	a5,a5,a6
2000292c:	7ff00313          	li	t1,2047
20002930:	0145d813          	srli	a6,a1,0x14
20002934:	ce06                	sw	ra,28(sp)
20002936:	81fd                	srli	a1,a1,0x1f
20002938:	7ff8f893          	andi	a7,a7,2047
2000293c:	82fd                	srli	a3,a3,0x1f
2000293e:	00687833          	and	a6,a6,t1
20002942:	8fae                	mv	t6,a1
20002944:	00351e93          	slli	t4,a0,0x3
20002948:	00361e13          	slli	t3,a2,0x3
2000294c:	14688c63          	beq	a7,t1,20002aa4 <__subdf3+0x1a0>
20002950:	0016c693          	xori	a3,a3,1
20002954:	41180f33          	sub	t5,a6,a7
20002958:	0ad58763          	beq	a1,a3,20002a06 <__subdf3+0x102>
2000295c:	5fe05663          	blez	t5,20002f48 <__subdf3+0x644>
20002960:	18088d63          	beqz	a7,20002afa <__subdf3+0x1f6>
20002964:	42680b63          	beq	a6,t1,20002d9a <__subdf3+0x496>
20002968:	03800693          	li	a3,56
2000296c:	1be6c863          	blt	a3,t5,20002b1c <__subdf3+0x218>
20002970:	008006b7          	lui	a3,0x800
20002974:	8fd5                	or	a5,a5,a3
20002976:	46fd                	li	a3,31
20002978:	4fe6cf63          	blt	a3,t5,20002e76 <__subdf3+0x572>
2000297c:	02000693          	li	a3,32
20002980:	41e686b3          	sub	a3,a3,t5
20002984:	00d79333          	sll	t1,a5,a3
20002988:	00de16b3          	sll	a3,t3,a3
2000298c:	01ee5e33          	srl	t3,t3,t5
20002990:	00d036b3          	snez	a3,a3
20002994:	01c36333          	or	t1,t1,t3
20002998:	01e7df33          	srl	t5,a5,t5
2000299c:	00d36333          	or	t1,t1,a3
200029a0:	41e70733          	sub	a4,a4,t5
200029a4:	406e8333          	sub	t1,t4,t1
200029a8:	006eb7b3          	sltu	a5,t4,t1
200029ac:	8f1d                	sub	a4,a4,a5
200029ae:	00871793          	slli	a5,a4,0x8
200029b2:	3607c563          	bltz	a5,20002d1c <__subdf3+0x418>
200029b6:	00737793          	andi	a5,t1,7
200029ba:	2e078863          	beqz	a5,20002caa <__subdf3+0x3a6>
200029be:	00f37793          	andi	a5,t1,15
200029c2:	4691                	li	a3,4
200029c4:	2ed78363          	beq	a5,a3,20002caa <__subdf3+0x3a6>
200029c8:	00430793          	addi	a5,t1,4
200029cc:	0067b333          	sltu	t1,a5,t1
200029d0:	971a                	add	a4,a4,t1
200029d2:	833e                	mv	t1,a5
200029d4:	00871793          	slli	a5,a4,0x8
200029d8:	2c07d963          	bgez	a5,20002caa <__subdf3+0x3a6>
200029dc:	00180693          	addi	a3,a6,1 # 800001 <HeapSize+0x7ff801>
200029e0:	7ff00793          	li	a5,2047
200029e4:	0015ff93          	andi	t6,a1,1
200029e8:	2ef69e63          	bne	a3,a5,20002ce4 <__subdf3+0x3e0>
200029ec:	4781                	li	a5,0
200029ee:	4881                	li	a7,0
200029f0:	40f2                	lw	ra,28(sp)
200029f2:	01469713          	slli	a4,a3,0x14
200029f6:	8fd9                	or	a5,a5,a4
200029f8:	01ff9693          	slli	a3,t6,0x1f
200029fc:	8546                	mv	a0,a7
200029fe:	00d7e5b3          	or	a1,a5,a3
20002a02:	6105                	addi	sp,sp,32
20002a04:	8082                	ret
20002a06:	63e05a63          	blez	t5,2000303a <__subdf3+0x736>
20002a0a:	22089463          	bnez	a7,20002c32 <__subdf3+0x32e>
20002a0e:	01c7e6b3          	or	a3,a5,t3
20002a12:	58068b63          	beqz	a3,20002fa8 <__subdf3+0x6a4>
20002a16:	fff80f13          	addi	t5,a6,-1
20002a1a:	240f0563          	beqz	t5,20002c64 <__subdf3+0x360>
20002a1e:	60680463          	beq	a6,t1,20003026 <__subdf3+0x722>
20002a22:	03800693          	li	a3,56
20002a26:	23e6c063          	blt	a3,t5,20002c46 <__subdf3+0x342>
20002a2a:	46fd                	li	a3,31
20002a2c:	59e6c663          	blt	a3,t5,20002fb8 <__subdf3+0x6b4>
20002a30:	02000613          	li	a2,32
20002a34:	41e60633          	sub	a2,a2,t5
20002a38:	00c796b3          	sll	a3,a5,a2
20002a3c:	00ce1633          	sll	a2,t3,a2
20002a40:	01ee5e33          	srl	t3,t3,t5
20002a44:	00c03633          	snez	a2,a2
20002a48:	01c6e6b3          	or	a3,a3,t3
20002a4c:	01e7df33          	srl	t5,a5,t5
20002a50:	8ed1                	or	a3,a3,a2
20002a52:	977a                	add	a4,a4,t5
20002a54:	01d687b3          	add	a5,a3,t4
20002a58:	00d7b6b3          	sltu	a3,a5,a3
20002a5c:	9736                	add	a4,a4,a3
20002a5e:	833e                	mv	t1,a5
20002a60:	00871793          	slli	a5,a4,0x8
20002a64:	f407d9e3          	bgez	a5,200029b6 <__subdf3+0xb2>
20002a68:	0805                	addi	a6,a6,1
20002a6a:	7ff00793          	li	a5,2047
20002a6e:	54f80163          	beq	a6,a5,20002fb0 <__subdf3+0x6ac>
20002a72:	ff8007b7          	lui	a5,0xff800
20002a76:	00135693          	srli	a3,t1,0x1
20002a7a:	17fd                	addi	a5,a5,-1 # ff7fffff <__StackTop+0xdf77dfff>
20002a7c:	00137313          	andi	t1,t1,1
20002a80:	0066e6b3          	or	a3,a3,t1
20002a84:	8ff9                	and	a5,a5,a4
20002a86:	01f79313          	slli	t1,a5,0x1f
20002a8a:	0076f613          	andi	a2,a3,7
20002a8e:	0017d713          	srli	a4,a5,0x1
20002a92:	00d36333          	or	t1,t1,a3
20002a96:	de1d                	beqz	a2,200029d4 <__subdf3+0xd0>
20002a98:	00f37793          	andi	a5,t1,15
20002a9c:	4691                	li	a3,4
20002a9e:	f2d795e3          	bne	a5,a3,200029c8 <__subdf3+0xc4>
20002aa2:	bf0d                	j	200029d4 <__subdf3+0xd0>
20002aa4:	01c7e333          	or	t1,a5,t3
20002aa8:	80180f13          	addi	t5,a6,-2047
20002aac:	10030663          	beqz	t1,20002bb8 <__subdf3+0x2b4>
20002ab0:	10d58863          	beq	a1,a3,20002bc0 <__subdf3+0x2bc>
20002ab4:	140f0563          	beqz	t5,20002bfe <__subdf3+0x2fa>
20002ab8:	38080063          	beqz	a6,20002e38 <__subdf3+0x534>
20002abc:	00361713          	slli	a4,a2,0x3
20002ac0:	00375513          	srli	a0,a4,0x3
20002ac4:	01d79713          	slli	a4,a5,0x1d
20002ac8:	85b6                	mv	a1,a3
20002aca:	00e568b3          	or	a7,a0,a4
20002ace:	838d                	srli	a5,a5,0x3
20002ad0:	00f8e8b3          	or	a7,a7,a5
20002ad4:	2a088d63          	beqz	a7,20002d8e <__subdf3+0x48a>
20002ad8:	40f2                	lw	ra,28(sp)
20002ada:	7ff00693          	li	a3,2047
20002ade:	01469713          	slli	a4,a3,0x14
20002ae2:	4f81                	li	t6,0
20002ae4:	000807b7          	lui	a5,0x80
20002ae8:	4881                	li	a7,0
20002aea:	8fd9                	or	a5,a5,a4
20002aec:	01ff9693          	slli	a3,t6,0x1f
20002af0:	8546                	mv	a0,a7
20002af2:	00d7e5b3          	or	a1,a5,a3
20002af6:	6105                	addi	sp,sp,32
20002af8:	8082                	ret
20002afa:	00351613          	slli	a2,a0,0x3
20002afe:	01c7e6b3          	or	a3,a5,t3
20002b02:	820d                	srli	a2,a2,0x3
20002b04:	1a068563          	beqz	a3,20002cae <__subdf3+0x3aa>
20002b08:	fff80f13          	addi	t5,a6,-1
20002b0c:	460f0763          	beqz	t5,20002f7a <__subdf3+0x676>
20002b10:	28680563          	beq	a6,t1,20002d9a <__subdf3+0x496>
20002b14:	03800693          	li	a3,56
20002b18:	e5e6dfe3          	bge	a3,t5,20002976 <__subdf3+0x72>
20002b1c:	fffe8313          	addi	t1,t4,-1 # ffff <HeapSize+0xf7ff>
20002b20:	006eb7b3          	sltu	a5,t4,t1
20002b24:	8f1d                	sub	a4,a4,a5
20002b26:	00871693          	slli	a3,a4,0x8
20002b2a:	008007b7          	lui	a5,0x800
20002b2e:	e806dde3          	bgez	a3,200029c8 <__subdf3+0xc4>
20002b32:	fff78713          	addi	a4,a5,-1 # 7fffff <HeapSize+0x7ff7ff>
20002b36:	537d                	li	t1,-1
20002b38:	853a                	mv	a0,a4
20002b3a:	c62e                	sw	a1,12(sp)
20002b3c:	c41a                	sw	t1,8(sp)
20002b3e:	c242                	sw	a6,4(sp)
20002b40:	c03a                	sw	a4,0(sp)
20002b42:	0cd000ef          	jal	2000340e <__clzsi2>
20002b46:	4702                	lw	a4,0(sp)
20002b48:	4812                	lw	a6,4(sp)
20002b4a:	4322                	lw	t1,8(sp)
20002b4c:	45b2                	lw	a1,12(sp)
20002b4e:	ff850693          	addi	a3,a0,-8
20002b52:	02000613          	li	a2,32
20002b56:	40d607b3          	sub	a5,a2,a3
20002b5a:	00f357b3          	srl	a5,t1,a5
20002b5e:	00d71733          	sll	a4,a4,a3
20002b62:	8fd9                	or	a5,a5,a4
20002b64:	00d31333          	sll	t1,t1,a3
20002b68:	2b06cb63          	blt	a3,a6,20002e1e <__subdf3+0x51a>
20002b6c:	410686b3          	sub	a3,a3,a6
20002b70:	0685                	addi	a3,a3,1 # 800001 <HeapSize+0x7ff801>
20002b72:	8e15                	sub	a2,a2,a3
20002b74:	00c31733          	sll	a4,t1,a2
20002b78:	00e03533          	snez	a0,a4
20002b7c:	00d35733          	srl	a4,t1,a3
20002b80:	00c79633          	sll	a2,a5,a2
20002b84:	8f49                	or	a4,a4,a0
20002b86:	00e66333          	or	t1,a2,a4
20002b8a:	00d7d733          	srl	a4,a5,a3
20002b8e:	00e367b3          	or	a5,t1,a4
20002b92:	c3f9                	beqz	a5,20002c58 <__subdf3+0x354>
20002b94:	00737793          	andi	a5,t1,7
20002b98:	66078e63          	beqz	a5,20003214 <__subdf3+0x910>
20002b9c:	00f37793          	andi	a5,t1,15
20002ba0:	4691                	li	a3,4
20002ba2:	4801                	li	a6,0
20002ba4:	e2d792e3          	bne	a5,a3,200029c8 <__subdf3+0xc4>
20002ba8:	00871793          	slli	a5,a4,0x8
20002bac:	0e07df63          	bgez	a5,20002caa <__subdf3+0x3a6>
20002bb0:	0015ff93          	andi	t6,a1,1
20002bb4:	4685                	li	a3,1
20002bb6:	aa05                	j	20002ce6 <__subdf3+0x3e2>
20002bb8:	0016c693          	xori	a3,a3,1
20002bbc:	eed59ce3          	bne	a1,a3,20002ab4 <__subdf3+0x1b0>
20002bc0:	1e0f0663          	beqz	t5,20002dac <__subdf3+0x4a8>
20002bc4:	2e081863          	bnez	a6,20002eb4 <__subdf3+0x5b0>
20002bc8:	86c6                	mv	a3,a7
20002bca:	01d76533          	or	a0,a4,t4
20002bce:	58050963          	beqz	a0,20003160 <__subdf3+0x85c>
20002bd2:	fff68513          	addi	a0,a3,-1
20002bd6:	c559                	beqz	a0,20002c64 <__subdf3+0x360>
20002bd8:	7ff00813          	li	a6,2047
20002bdc:	2d068c63          	beq	a3,a6,20002eb4 <__subdf3+0x5b0>
20002be0:	03800613          	li	a2,56
20002be4:	62a65363          	bge	a2,a0,2000320a <__subdf3+0x906>
20002be8:	8836                	mv	a6,a3
20002bea:	00879693          	slli	a3,a5,0x8
20002bee:	001e0313          	addi	t1,t3,1
20002bf2:	00800737          	lui	a4,0x800
20002bf6:	e606c9e3          	bltz	a3,20002a68 <__subdf3+0x164>
20002bfa:	873e                	mv	a4,a5
20002bfc:	b3f1                	j	200029c8 <__subdf3+0xc4>
20002bfe:	00180893          	addi	a7,a6,1
20002c02:	7fe8f893          	andi	a7,a7,2046
20002c06:	1e089863          	bnez	a7,20002df6 <__subdf3+0x4f2>
20002c0a:	01c7e8b3          	or	a7,a5,t3
20002c0e:	01d76333          	or	t1,a4,t4
20002c12:	30081d63          	bnez	a6,20002f2c <__subdf3+0x628>
20002c16:	4a030963          	beqz	t1,200030c8 <__subdf3+0x7c4>
20002c1a:	4a089d63          	bnez	a7,200030d4 <__subdf3+0x7d0>
20002c1e:	003ed793          	srli	a5,t4,0x3
20002c22:	01d71613          	slli	a2,a4,0x1d
20002c26:	00f668b3          	or	a7,a2,a5
20002c2a:	4801                	li	a6,0
20002c2c:	00375793          	srli	a5,a4,0x3
20002c30:	a849                	j	20002cc2 <__subdf3+0x3be>
20002c32:	16680463          	beq	a6,t1,20002d9a <__subdf3+0x496>
20002c36:	03800693          	li	a3,56
20002c3a:	01e6c663          	blt	a3,t5,20002c46 <__subdf3+0x342>
20002c3e:	008006b7          	lui	a3,0x800
20002c42:	8fd5                	or	a5,a5,a3
20002c44:	b3dd                	j	20002a2a <__subdf3+0x126>
20002c46:	00871793          	slli	a5,a4,0x8
20002c4a:	001e8313          	addi	t1,t4,1
20002c4e:	d607dde3          	bgez	a5,200029c8 <__subdf3+0xc4>
20002c52:	00800737          	lui	a4,0x800
20002c56:	bd09                	j	20002a68 <__subdf3+0x164>
20002c58:	0015ff93          	andi	t6,a1,1
20002c5c:	4681                	li	a3,0
20002c5e:	4781                	li	a5,0
20002c60:	4881                	li	a7,0
20002c62:	b379                	j	200029f0 <__subdf3+0xec>
20002c64:	9e76                	add	t3,t3,t4
20002c66:	01de3eb3          	sltu	t4,t3,t4
20002c6a:	97ba                	add	a5,a5,a4
20002c6c:	97f6                	add	a5,a5,t4
20002c6e:	00879693          	slli	a3,a5,0x8
20002c72:	4e06dc63          	bgez	a3,2000316a <__subdf3+0x866>
20002c76:	ff8006b7          	lui	a3,0xff800
20002c7a:	16fd                	addi	a3,a3,-1 # ff7fffff <__StackTop+0xdf77dfff>
20002c7c:	001e5713          	srli	a4,t3,0x1
20002c80:	8ff5                	and	a5,a5,a3
20002c82:	01f79693          	slli	a3,a5,0x1f
20002c86:	00777613          	andi	a2,a4,7
20002c8a:	8ed9                	or	a3,a3,a4
20002c8c:	0017d713          	srli	a4,a5,0x1
20002c90:	54060f63          	beqz	a2,200031ee <__subdf3+0x8ea>
20002c94:	00f6f613          	andi	a2,a3,15
20002c98:	4511                	li	a0,4
20002c9a:	54a60a63          	beq	a2,a0,200031ee <__subdf3+0x8ea>
20002c9e:	00a68333          	add	t1,a3,a0
20002ca2:	00d336b3          	sltu	a3,t1,a3
20002ca6:	9736                	add	a4,a4,a3
20002ca8:	4809                	li	a6,2
20002caa:	00335613          	srli	a2,t1,0x3
20002cae:	01d71793          	slli	a5,a4,0x1d
20002cb2:	7ff00693          	li	a3,2047
20002cb6:	00c7e8b3          	or	a7,a5,a2
20002cba:	00375793          	srli	a5,a4,0x3
20002cbe:	e0d809e3          	beq	a6,a3,20002ad0 <__subdf3+0x1cc>
20002cc2:	40f2                	lw	ra,28(sp)
20002cc4:	7ff87693          	andi	a3,a6,2047
20002cc8:	07b2                	slli	a5,a5,0xc
20002cca:	0015ff93          	andi	t6,a1,1
20002cce:	01469713          	slli	a4,a3,0x14
20002cd2:	83b1                	srli	a5,a5,0xc
20002cd4:	8fd9                	or	a5,a5,a4
20002cd6:	01ff9693          	slli	a3,t6,0x1f
20002cda:	8546                	mv	a0,a7
20002cdc:	00d7e5b3          	or	a1,a5,a3
20002ce0:	6105                	addi	sp,sp,32
20002ce2:	8082                	ret
20002ce4:	8efd                	and	a3,a3,a5
20002ce6:	ff8007b7          	lui	a5,0xff800
20002cea:	17fd                	addi	a5,a5,-1 # ff7fffff <__StackTop+0xdf77dfff>
20002cec:	8ff9                	and	a5,a5,a4
20002cee:	01d79713          	slli	a4,a5,0x1d
20002cf2:	00335313          	srli	t1,t1,0x3
20002cf6:	40f2                	lw	ra,28(sp)
20002cf8:	006768b3          	or	a7,a4,t1
20002cfc:	00979713          	slli	a4,a5,0x9
20002d00:	00c75793          	srli	a5,a4,0xc
20002d04:	01469713          	slli	a4,a3,0x14
20002d08:	8fd9                	or	a5,a5,a4
20002d0a:	01ff9693          	slli	a3,t6,0x1f
20002d0e:	8546                	mv	a0,a7
20002d10:	00d7e5b3          	or	a1,a5,a3
20002d14:	6105                	addi	sp,sp,32
20002d16:	8082                	ret
20002d18:	85b6                	mv	a1,a3
20002d1a:	4805                	li	a6,1
20002d1c:	0726                	slli	a4,a4,0x9
20002d1e:	8325                	srli	a4,a4,0x9
20002d20:	e0071ce3          	bnez	a4,20002b38 <__subdf3+0x234>
20002d24:	851a                	mv	a0,t1
20002d26:	c62e                	sw	a1,12(sp)
20002d28:	c43a                	sw	a4,8(sp)
20002d2a:	c242                	sw	a6,4(sp)
20002d2c:	c01a                	sw	t1,0(sp)
20002d2e:	25c5                	jal	2000340e <__clzsi2>
20002d30:	01850693          	addi	a3,a0,24
20002d34:	467d                	li	a2,31
20002d36:	4302                	lw	t1,0(sp)
20002d38:	4812                	lw	a6,4(sp)
20002d3a:	45b2                	lw	a1,12(sp)
20002d3c:	4701                	li	a4,0
20002d3e:	e0d65ae3          	bge	a2,a3,20002b52 <__subdf3+0x24e>
20002d42:	ff850793          	addi	a5,a0,-8
20002d46:	00f317b3          	sll	a5,t1,a5
20002d4a:	1506cb63          	blt	a3,a6,20002ea0 <__subdf3+0x59c>
20002d4e:	41068333          	sub	t1,a3,a6
20002d52:	00130693          	addi	a3,t1,1
20002d56:	44d65f63          	bge	a2,a3,200031b4 <__subdf3+0x8b0>
20002d5a:	1305                	addi	t1,t1,-31
20002d5c:	02000613          	li	a2,32
20002d60:	0067d333          	srl	t1,a5,t1
20002d64:	00c68c63          	beq	a3,a2,20002d7c <__subdf3+0x478>
20002d68:	04000613          	li	a2,64
20002d6c:	40d606b3          	sub	a3,a2,a3
20002d70:	00d797b3          	sll	a5,a5,a3
20002d74:	00f037b3          	snez	a5,a5
20002d78:	00f36333          	or	t1,t1,a5
20002d7c:	ec030ee3          	beqz	t1,20002c58 <__subdf3+0x354>
20002d80:	00737793          	andi	a5,t1,7
20002d84:	e0079ce3          	bnez	a5,20002b9c <__subdf3+0x298>
20002d88:	8e9a                	mv	t4,t1
20002d8a:	4701                	li	a4,0
20002d8c:	bd49                	j	20002c1e <__subdf3+0x31a>
20002d8e:	0015ff93          	andi	t6,a1,1
20002d92:	7ff00693          	li	a3,2047
20002d96:	4781                	li	a5,0
20002d98:	b9a1                	j	200029f0 <__subdf3+0xec>
20002d9a:	050e                	slli	a0,a0,0x3
20002d9c:	810d                	srli	a0,a0,0x3
20002d9e:	01d71613          	slli	a2,a4,0x1d
20002da2:	00a668b3          	or	a7,a2,a0
20002da6:	00375793          	srli	a5,a4,0x3
20002daa:	b31d                	j	20002ad0 <__subdf3+0x1cc>
20002dac:	00180693          	addi	a3,a6,1
20002db0:	7fe6f893          	andi	a7,a3,2046
20002db4:	10089a63          	bnez	a7,20002ec8 <__subdf3+0x5c4>
20002db8:	01d766b3          	or	a3,a4,t4
20002dbc:	2c081863          	bnez	a6,2000308c <__subdf3+0x788>
20002dc0:	01c7e633          	or	a2,a5,t3
20002dc4:	3a068c63          	beqz	a3,2000317c <__subdf3+0x878>
20002dc8:	e4060be3          	beqz	a2,20002c1e <__subdf3+0x31a>
20002dcc:	9e76                	add	t3,t3,t4
20002dce:	97ba                	add	a5,a5,a4
20002dd0:	01de3eb3          	sltu	t4,t3,t4
20002dd4:	97f6                	add	a5,a5,t4
20002dd6:	00879713          	slli	a4,a5,0x8
20002dda:	3e074963          	bltz	a4,200031cc <__subdf3+0x8c8>
20002dde:	00fe6733          	or	a4,t3,a5
20002de2:	e6070be3          	beqz	a4,20002c58 <__subdf3+0x354>
20002de6:	01d79713          	slli	a4,a5,0x1d
20002dea:	003e5e13          	srli	t3,t3,0x3
20002dee:	00ee68b3          	or	a7,t3,a4
20002df2:	838d                	srli	a5,a5,0x3
20002df4:	b5f9                	j	20002cc2 <__subdf3+0x3be>
20002df6:	41ce8333          	sub	t1,t4,t3
20002dfa:	006eb533          	sltu	a0,t4,t1
20002dfe:	40f70633          	sub	a2,a4,a5
20002e02:	8e09                	sub	a2,a2,a0
20002e04:	00861513          	slli	a0,a2,0x8
20002e08:	10054263          	bltz	a0,20002f0c <__subdf3+0x608>
20002e0c:	00c368b3          	or	a7,t1,a2
20002e10:	8732                	mv	a4,a2
20002e12:	f00897e3          	bnez	a7,20002d20 <__subdf3+0x41c>
20002e16:	4f81                	li	t6,0
20002e18:	4681                	li	a3,0
20002e1a:	4781                	li	a5,0
20002e1c:	bed1                	j	200029f0 <__subdf3+0xec>
20002e1e:	ff800737          	lui	a4,0xff800
20002e22:	177d                	addi	a4,a4,-1 # ff7fffff <__StackTop+0xdf77dfff>
20002e24:	8f7d                	and	a4,a4,a5
20002e26:	00737793          	andi	a5,t1,7
20002e2a:	40d80833          	sub	a6,a6,a3
20002e2e:	b80798e3          	bnez	a5,200029be <__subdf3+0xba>
20002e32:	00335613          	srli	a2,t1,0x3
20002e36:	bda5                	j	20002cae <__subdf3+0x3aa>
20002e38:	8546                	mv	a0,a7
20002e3a:	01d765b3          	or	a1,a4,t4
20002e3e:	c1ed                	beqz	a1,20002f20 <__subdf3+0x61c>
20002e40:	fff50813          	addi	a6,a0,-1
20002e44:	24080b63          	beqz	a6,2000309a <__subdf3+0x796>
20002e48:	7ff00593          	li	a1,2047
20002e4c:	c6b508e3          	beq	a0,a1,20002abc <__subdf3+0x1b8>
20002e50:	03800613          	li	a2,56
20002e54:	33065963          	bge	a2,a6,20003186 <__subdf3+0x882>
20002e58:	fffe0313          	addi	t1,t3,-1
20002e5c:	006e3e33          	sltu	t3,t3,t1
20002e60:	41c78733          	sub	a4,a5,t3
20002e64:	00871613          	slli	a2,a4,0x8
20002e68:	008007b7          	lui	a5,0x800
20002e6c:	3a064163          	bltz	a2,2000320e <__subdf3+0x90a>
20002e70:	85b6                	mv	a1,a3
20002e72:	882a                	mv	a6,a0
20002e74:	be91                	j	200029c8 <__subdf3+0xc4>
20002e76:	fe0f0693          	addi	a3,t5,-32
20002e7a:	02000613          	li	a2,32
20002e7e:	00d7d6b3          	srl	a3,a5,a3
20002e82:	00cf0a63          	beq	t5,a2,20002e96 <__subdf3+0x592>
20002e86:	04000613          	li	a2,64
20002e8a:	41e60633          	sub	a2,a2,t5
20002e8e:	00c797b3          	sll	a5,a5,a2
20002e92:	00fe6e33          	or	t3,t3,a5
20002e96:	01c03333          	snez	t1,t3
20002e9a:	00d36333          	or	t1,t1,a3
20002e9e:	b619                	j	200029a4 <__subdf3+0xa0>
20002ea0:	ff800737          	lui	a4,0xff800
20002ea4:	177d                	addi	a4,a4,-1 # ff7fffff <__StackTop+0xdf77dfff>
20002ea6:	8ff9                	and	a5,a5,a4
20002ea8:	01d79893          	slli	a7,a5,0x1d
20002eac:	40d80833          	sub	a6,a6,a3
20002eb0:	838d                	srli	a5,a5,0x3
20002eb2:	bd01                	j	20002cc2 <__subdf3+0x3be>
20002eb4:	00361713          	slli	a4,a2,0x3
20002eb8:	00375693          	srli	a3,a4,0x3
20002ebc:	01d79713          	slli	a4,a5,0x1d
20002ec0:	00d768b3          	or	a7,a4,a3
20002ec4:	838d                	srli	a5,a5,0x3
20002ec6:	b129                	j	20002ad0 <__subdf3+0x1cc>
20002ec8:	7ff00613          	li	a2,2047
20002ecc:	b2c680e3          	beq	a3,a2,200029ec <__subdf3+0xe8>
20002ed0:	9e76                	add	t3,t3,t4
20002ed2:	97ba                	add	a5,a5,a4
20002ed4:	01de3eb3          	sltu	t4,t3,t4
20002ed8:	001e5713          	srli	a4,t3,0x1
20002edc:	97f6                	add	a5,a5,t4
20002ede:	01f79313          	slli	t1,a5,0x1f
20002ee2:	00777613          	andi	a2,a4,7
20002ee6:	00e36333          	or	t1,t1,a4
20002eea:	0017d713          	srli	a4,a5,0x1
20002eee:	32060563          	beqz	a2,20003218 <__subdf3+0x914>
20002ef2:	8836                	mv	a6,a3
20002ef4:	4511                	li	a0,4
20002ef6:	00f37693          	andi	a3,t1,15
20002efa:	aca697e3          	bne	a3,a0,200029c8 <__subdf3+0xc4>
20002efe:	00335313          	srli	t1,t1,0x3
20002f02:	0776                	slli	a4,a4,0x1d
20002f04:	00e368b3          	or	a7,t1,a4
20002f08:	8391                	srli	a5,a5,0x4
20002f0a:	bb65                	j	20002cc2 <__subdf3+0x3be>
20002f0c:	41de0eb3          	sub	t4,t3,t4
20002f10:	01de3e33          	sltu	t3,t3,t4
20002f14:	8f99                	sub	a5,a5,a4
20002f16:	8376                	mv	t1,t4
20002f18:	41c78733          	sub	a4,a5,t3
20002f1c:	85b6                	mv	a1,a3
20002f1e:	b509                	j	20002d20 <__subdf3+0x41c>
20002f20:	060e                	slli	a2,a2,0x3
20002f22:	820d                	srli	a2,a2,0x3
20002f24:	85b6                	mv	a1,a3
20002f26:	882a                	mv	a6,a0
20002f28:	873e                	mv	a4,a5
20002f2a:	b351                	j	20002cae <__subdf3+0x3aa>
20002f2c:	0e031b63          	bnez	t1,20003022 <__subdf3+0x71e>
20002f30:	2c088663          	beqz	a7,200031fc <__subdf3+0x8f8>
20002f34:	00361713          	slli	a4,a2,0x3
20002f38:	830d                	srli	a4,a4,0x3
20002f3a:	01d79613          	slli	a2,a5,0x1d
20002f3e:	85b6                	mv	a1,a3
20002f40:	00c768b3          	or	a7,a4,a2
20002f44:	838d                	srli	a5,a5,0x3
20002f46:	b669                	j	20002ad0 <__subdf3+0x1cc>
20002f48:	ca0f0be3          	beqz	t5,20002bfe <__subdf3+0x2fa>
20002f4c:	41088533          	sub	a0,a7,a6
20002f50:	ee0805e3          	beqz	a6,20002e3a <__subdf3+0x536>
20002f54:	03800613          	li	a2,56
20002f58:	08a65463          	bge	a2,a0,20002fe0 <__subdf3+0x6dc>
20002f5c:	fffe0313          	addi	t1,t3,-1
20002f60:	006e3e33          	sltu	t3,t3,t1
20002f64:	41c78733          	sub	a4,a5,t3
20002f68:	00871613          	slli	a2,a4,0x8
20002f6c:	008007b7          	lui	a5,0x800
20002f70:	1e064263          	bltz	a2,20003154 <__subdf3+0x850>
20002f74:	85b6                	mv	a1,a3
20002f76:	8846                	mv	a6,a7
20002f78:	bc81                	j	200029c8 <__subdf3+0xc4>
20002f7a:	41ce8e33          	sub	t3,t4,t3
20002f7e:	40f707b3          	sub	a5,a4,a5
20002f82:	01cebeb3          	sltu	t4,t4,t3
20002f86:	41d78733          	sub	a4,a5,t4
20002f8a:	00871793          	slli	a5,a4,0x8
20002f8e:	8372                	mv	t1,t3
20002f90:	d807c5e3          	bltz	a5,20002d1a <__subdf3+0x416>
20002f94:	003e5e13          	srli	t3,t3,0x3
20002f98:	01d71613          	slli	a2,a4,0x1d
20002f9c:	00ce68b3          	or	a7,t3,a2
20002fa0:	00375793          	srli	a5,a4,0x3
20002fa4:	4805                	li	a6,1
20002fa6:	bb31                	j	20002cc2 <__subdf3+0x3be>
20002fa8:	050e                	slli	a0,a0,0x3
20002faa:	00355613          	srli	a2,a0,0x3
20002fae:	b301                	j	20002cae <__subdf3+0x3aa>
20002fb0:	86c2                	mv	a3,a6
20002fb2:	4781                	li	a5,0
20002fb4:	4881                	li	a7,0
20002fb6:	bc2d                	j	200029f0 <__subdf3+0xec>
20002fb8:	fe0f0613          	addi	a2,t5,-32
20002fbc:	02000693          	li	a3,32
20002fc0:	00c7d633          	srl	a2,a5,a2
20002fc4:	00df0a63          	beq	t5,a3,20002fd8 <__subdf3+0x6d4>
20002fc8:	04000693          	li	a3,64
20002fcc:	41e686b3          	sub	a3,a3,t5
20002fd0:	00d797b3          	sll	a5,a5,a3
20002fd4:	00fe6e33          	or	t3,t3,a5
20002fd8:	01c036b3          	snez	a3,t3
20002fdc:	8ed1                	or	a3,a3,a2
20002fde:	bc9d                	j	20002a54 <__subdf3+0x150>
20002fe0:	00800637          	lui	a2,0x800
20002fe4:	85b6                	mv	a1,a3
20002fe6:	8f51                	or	a4,a4,a2
20002fe8:	46fd                	li	a3,31
20002fea:	06a6cd63          	blt	a3,a0,20003064 <__subdf3+0x760>
20002fee:	02000693          	li	a3,32
20002ff2:	8e89                	sub	a3,a3,a0
20002ff4:	00d71333          	sll	t1,a4,a3
20002ff8:	00de96b3          	sll	a3,t4,a3
20002ffc:	00aedeb3          	srl	t4,t4,a0
20003000:	00d036b3          	snez	a3,a3
20003004:	01d36333          	or	t1,t1,t4
20003008:	00a75533          	srl	a0,a4,a0
2000300c:	00d36333          	or	t1,t1,a3
20003010:	8f89                	sub	a5,a5,a0
20003012:	406e0333          	sub	t1,t3,t1
20003016:	006e3e33          	sltu	t3,t3,t1
2000301a:	41c78733          	sub	a4,a5,t3
2000301e:	8846                	mv	a6,a7
20003020:	b279                	j	200029ae <__subdf3+0xaa>
20003022:	aa089be3          	bnez	a7,20002ad8 <__subdf3+0x1d4>
20003026:	050e                	slli	a0,a0,0x3
20003028:	00355793          	srli	a5,a0,0x3
2000302c:	01d71613          	slli	a2,a4,0x1d
20003030:	00c7e8b3          	or	a7,a5,a2
20003034:	00375793          	srli	a5,a4,0x3
20003038:	bc61                	j	20002ad0 <__subdf3+0x1cc>
2000303a:	d60f09e3          	beqz	t5,20002dac <__subdf3+0x4a8>
2000303e:	410886b3          	sub	a3,a7,a6
20003042:	b80804e3          	beqz	a6,20002bca <__subdf3+0x2c6>
20003046:	03800613          	li	a2,56
2000304a:	0cd65663          	bge	a2,a3,20003116 <__subdf3+0x812>
2000304e:	00879693          	slli	a3,a5,0x8
20003052:	001e0313          	addi	t1,t3,1
20003056:	8846                	mv	a6,a7
20003058:	00800737          	lui	a4,0x800
2000305c:	a006c6e3          	bltz	a3,20002a68 <__subdf3+0x164>
20003060:	873e                	mv	a4,a5
20003062:	b29d                	j	200029c8 <__subdf3+0xc4>
20003064:	fe050693          	addi	a3,a0,-32
20003068:	02000613          	li	a2,32
2000306c:	00d756b3          	srl	a3,a4,a3
20003070:	00c50963          	beq	a0,a2,20003082 <__subdf3+0x77e>
20003074:	04000613          	li	a2,64
20003078:	8e09                	sub	a2,a2,a0
2000307a:	00c71733          	sll	a4,a4,a2
2000307e:	00eeeeb3          	or	t4,t4,a4
20003082:	01d03333          	snez	t1,t4
20003086:	00d36333          	or	t1,t1,a3
2000308a:	b761                	j	20003012 <__subdf3+0x70e>
2000308c:	e20684e3          	beqz	a3,20002eb4 <__subdf3+0x5b0>
20003090:	01c7ee33          	or	t3,a5,t3
20003094:	a40e12e3          	bnez	t3,20002ad8 <__subdf3+0x1d4>
20003098:	b779                	j	20003026 <__subdf3+0x722>
2000309a:	41de0eb3          	sub	t4,t3,t4
2000309e:	8f99                	sub	a5,a5,a4
200030a0:	01de3e33          	sltu	t3,t3,t4
200030a4:	41c78733          	sub	a4,a5,t3
200030a8:	00871793          	slli	a5,a4,0x8
200030ac:	8376                	mv	t1,t4
200030ae:	c607c5e3          	bltz	a5,20002d18 <__subdf3+0x414>
200030b2:	003ede93          	srli	t4,t4,0x3
200030b6:	01d71613          	slli	a2,a4,0x1d
200030ba:	85b6                	mv	a1,a3
200030bc:	01d668b3          	or	a7,a2,t4
200030c0:	00375793          	srli	a5,a4,0x3
200030c4:	4805                	li	a6,1
200030c6:	bef5                	j	20002cc2 <__subdf3+0x3be>
200030c8:	d40887e3          	beqz	a7,20002e16 <__subdf3+0x512>
200030cc:	873e                	mv	a4,a5
200030ce:	8ef2                	mv	t4,t3
200030d0:	85b6                	mv	a1,a3
200030d2:	b6b1                	j	20002c1e <__subdf3+0x31a>
200030d4:	41ce8533          	sub	a0,t4,t3
200030d8:	00aeb833          	sltu	a6,t4,a0
200030dc:	40f70633          	sub	a2,a4,a5
200030e0:	41060633          	sub	a2,a2,a6
200030e4:	00861813          	slli	a6,a2,0x8
200030e8:	0c085b63          	bgez	a6,200031be <__subdf3+0x8ba>
200030ec:	41de0eb3          	sub	t4,t3,t4
200030f0:	8f99                	sub	a5,a5,a4
200030f2:	01de3e33          	sltu	t3,t3,t4
200030f6:	41c78733          	sub	a4,a5,t3
200030fa:	00eee7b3          	or	a5,t4,a4
200030fe:	8376                	mv	t1,t4
20003100:	85b6                	mv	a1,a3
20003102:	b4078be3          	beqz	a5,20002c58 <__subdf3+0x354>
20003106:	00871793          	slli	a5,a4,0x8
2000310a:	1007df63          	bgez	a5,20003228 <__subdf3+0x924>
2000310e:	0016ff93          	andi	t6,a3,1
20003112:	4685                	li	a3,1
20003114:	bec9                	j	20002ce6 <__subdf3+0x3e2>
20003116:	00800637          	lui	a2,0x800
2000311a:	8f51                	or	a4,a4,a2
2000311c:	467d                	li	a2,31
2000311e:	06d64763          	blt	a2,a3,2000318c <__subdf3+0x888>
20003122:	02000513          	li	a0,32
20003126:	8d15                	sub	a0,a0,a3
20003128:	00a71633          	sll	a2,a4,a0
2000312c:	00ae9533          	sll	a0,t4,a0
20003130:	00dedeb3          	srl	t4,t4,a3
20003134:	00a03533          	snez	a0,a0
20003138:	00d756b3          	srl	a3,a4,a3
2000313c:	01d66633          	or	a2,a2,t4
20003140:	00a66733          	or	a4,a2,a0
20003144:	97b6                	add	a5,a5,a3
20003146:	9e3a                	add	t3,t3,a4
20003148:	00ee3733          	sltu	a4,t3,a4
2000314c:	973e                	add	a4,a4,a5
2000314e:	8372                	mv	t1,t3
20003150:	8846                	mv	a6,a7
20003152:	b239                	j	20002a60 <__subdf3+0x15c>
20003154:	8846                	mv	a6,a7
20003156:	85b6                	mv	a1,a3
20003158:	fff78713          	addi	a4,a5,-1 # 7fffff <HeapSize+0x7ff7ff>
2000315c:	537d                	li	t1,-1
2000315e:	bae9                	j	20002b38 <__subdf3+0x234>
20003160:	060e                	slli	a2,a2,0x3
20003162:	820d                	srli	a2,a2,0x3
20003164:	8836                	mv	a6,a3
20003166:	873e                	mv	a4,a5
20003168:	b699                	j	20002cae <__subdf3+0x3aa>
2000316a:	01d79713          	slli	a4,a5,0x1d
2000316e:	003e5e13          	srli	t3,t3,0x3
20003172:	01c768b3          	or	a7,a4,t3
20003176:	838d                	srli	a5,a5,0x3
20003178:	4805                	li	a6,1
2000317a:	b6a1                	j	20002cc2 <__subdf3+0x3be>
2000317c:	ac060ee3          	beqz	a2,20002c58 <__subdf3+0x354>
20003180:	873e                	mv	a4,a5
20003182:	8ef2                	mv	t4,t3
20003184:	bc69                	j	20002c1e <__subdf3+0x31a>
20003186:	85b6                	mv	a1,a3
20003188:	8542                	mv	a0,a6
2000318a:	bdb9                	j	20002fe8 <__subdf3+0x6e4>
2000318c:	fe068613          	addi	a2,a3,-32
20003190:	02000513          	li	a0,32
20003194:	00c75633          	srl	a2,a4,a2
20003198:	00a68a63          	beq	a3,a0,200031ac <__subdf3+0x8a8>
2000319c:	04000513          	li	a0,64
200031a0:	40d506b3          	sub	a3,a0,a3
200031a4:	00d71733          	sll	a4,a4,a3
200031a8:	00eeeeb3          	or	t4,t4,a4
200031ac:	01d03733          	snez	a4,t4
200031b0:	8f51                	or	a4,a4,a2
200031b2:	bf51                	j	20003146 <__subdf3+0x842>
200031b4:	02000613          	li	a2,32
200031b8:	8e15                	sub	a2,a2,a3
200031ba:	4501                	li	a0,0
200031bc:	b2d1                	j	20002b80 <__subdf3+0x27c>
200031be:	00c568b3          	or	a7,a0,a2
200031c2:	c4088ae3          	beqz	a7,20002e16 <__subdf3+0x512>
200031c6:	8732                	mv	a4,a2
200031c8:	8eaa                	mv	t4,a0
200031ca:	bc91                	j	20002c1e <__subdf3+0x31a>
200031cc:	ff800737          	lui	a4,0xff800
200031d0:	177d                	addi	a4,a4,-1 # ff7fffff <__StackTop+0xdf77dfff>
200031d2:	8ff9                	and	a5,a5,a4
200031d4:	01d79713          	slli	a4,a5,0x1d
200031d8:	003e5e13          	srli	t3,t3,0x3
200031dc:	01c768b3          	or	a7,a4,t3
200031e0:	00979713          	slli	a4,a5,0x9
200031e4:	00c75793          	srli	a5,a4,0xc
200031e8:	4685                	li	a3,1
200031ea:	807ff06f          	j	200029f0 <__subdf3+0xec>
200031ee:	828d                	srli	a3,a3,0x3
200031f0:	0776                	slli	a4,a4,0x1d
200031f2:	00d768b3          	or	a7,a4,a3
200031f6:	8391                	srli	a5,a5,0x4
200031f8:	4809                	li	a6,2
200031fa:	b4e1                	j	20002cc2 <__subdf3+0x3be>
200031fc:	4f81                	li	t6,0
200031fe:	7ff00693          	li	a3,2047
20003202:	000807b7          	lui	a5,0x80
20003206:	feaff06f          	j	200029f0 <__subdf3+0xec>
2000320a:	86aa                	mv	a3,a0
2000320c:	bf01                	j	2000311c <__subdf3+0x818>
2000320e:	882a                	mv	a6,a0
20003210:	85b6                	mv	a1,a3
20003212:	b205                	j	20002b32 <__subdf3+0x22e>
20003214:	86ae                	mv	a3,a1
20003216:	bdc5                	j	20003106 <__subdf3+0x802>
20003218:	00335313          	srli	t1,t1,0x3
2000321c:	0776                	slli	a4,a4,0x1d
2000321e:	00e368b3          	or	a7,t1,a4
20003222:	8391                	srli	a5,a5,0x4
20003224:	8836                	mv	a6,a3
20003226:	bc71                	j	20002cc2 <__subdf3+0x3be>
20003228:	85b6                	mv	a1,a3
2000322a:	8e9a                	mv	t4,t1
2000322c:	bacd                	j	20002c1e <__subdf3+0x31a>

2000322e <__unorddf2>:
2000322e:	0145d713          	srli	a4,a1,0x14
20003232:	001007b7          	lui	a5,0x100
20003236:	17fd                	addi	a5,a5,-1 # fffff <HeapSize+0xff7ff>
20003238:	fff74713          	not	a4,a4
2000323c:	0146d813          	srli	a6,a3,0x14
20003240:	8dfd                	and	a1,a1,a5
20003242:	8ff5                	and	a5,a5,a3
20003244:	01571693          	slli	a3,a4,0x15
20003248:	7ff87813          	andi	a6,a6,2047
2000324c:	ca99                	beqz	a3,20003262 <__unorddf2+0x34>
2000324e:	7ff00713          	li	a4,2047
20003252:	4501                	li	a0,0
20003254:	00e80363          	beq	a6,a4,2000325a <__unorddf2+0x2c>
20003258:	8082                	ret
2000325a:	8fd1                	or	a5,a5,a2
2000325c:	00f03533          	snez	a0,a5
20003260:	8082                	ret
20003262:	8dc9                	or	a1,a1,a0
20003264:	4505                	li	a0,1
20003266:	d5e5                	beqz	a1,2000324e <__unorddf2+0x20>
20003268:	8082                	ret

2000326a <__fixdfsi>:
2000326a:	0145d793          	srli	a5,a1,0x14
2000326e:	001006b7          	lui	a3,0x100
20003272:	fff68713          	addi	a4,a3,-1 # fffff <HeapSize+0xff7ff>
20003276:	7ff7f793          	andi	a5,a5,2047
2000327a:	3fe00613          	li	a2,1022
2000327e:	8f6d                	and	a4,a4,a1
20003280:	81fd                	srli	a1,a1,0x1f
20003282:	00f65b63          	bge	a2,a5,20003298 <__fixdfsi+0x2e>
20003286:	41d00613          	li	a2,1053
2000328a:	00f65963          	bge	a2,a5,2000329c <__fixdfsi+0x32>
2000328e:	80000537          	lui	a0,0x80000
20003292:	157d                	addi	a0,a0,-1 # 7fffffff <__StackTop+0x5ff7dfff>
20003294:	952e                	add	a0,a0,a1
20003296:	8082                	ret
20003298:	4501                	li	a0,0
2000329a:	8082                	ret
2000329c:	41300613          	li	a2,1043
200032a0:	8f55                	or	a4,a4,a3
200032a2:	00f64a63          	blt	a2,a5,200032b6 <__fixdfsi+0x4c>
200032a6:	8e1d                	sub	a2,a2,a5
200032a8:	00c75733          	srl	a4,a4,a2
200032ac:	40e00533          	neg	a0,a4
200032b0:	f5ed                	bnez	a1,2000329a <__fixdfsi+0x30>
200032b2:	853a                	mv	a0,a4
200032b4:	8082                	ret
200032b6:	43300693          	li	a3,1075
200032ba:	8e9d                	sub	a3,a3,a5
200032bc:	bed78793          	addi	a5,a5,-1043
200032c0:	00d55533          	srl	a0,a0,a3
200032c4:	00f71733          	sll	a4,a4,a5
200032c8:	8f49                	or	a4,a4,a0
200032ca:	b7cd                	j	200032ac <__fixdfsi+0x42>

200032cc <__fixunsdfsi>:
200032cc:	0145d793          	srli	a5,a1,0x14
200032d0:	7ff7f793          	andi	a5,a5,2047
200032d4:	00100637          	lui	a2,0x100
200032d8:	fff60713          	addi	a4,a2,-1 # fffff <HeapSize+0xff7ff>
200032dc:	3ff7a693          	slti	a3,a5,1023
200032e0:	8f6d                	and	a4,a4,a1
200032e2:	81fd                	srli	a1,a1,0x1f
200032e4:	e291                	bnez	a3,200032e8 <__fixunsdfsi+0x1c>
200032e6:	c581                	beqz	a1,200032ee <__fixunsdfsi+0x22>
200032e8:	4681                	li	a3,0
200032ea:	8536                	mv	a0,a3
200032ec:	8082                	ret
200032ee:	41e00593          	li	a1,1054
200032f2:	56fd                	li	a3,-1
200032f4:	fef5cbe3          	blt	a1,a5,200032ea <__fixunsdfsi+0x1e>
200032f8:	41300693          	li	a3,1043
200032fc:	8f51                	or	a4,a4,a2
200032fe:	00f6de63          	bge	a3,a5,2000331a <__fixunsdfsi+0x4e>
20003302:	43300693          	li	a3,1075
20003306:	8e9d                	sub	a3,a3,a5
20003308:	bed78793          	addi	a5,a5,-1043
2000330c:	00d55533          	srl	a0,a0,a3
20003310:	00f71733          	sll	a4,a4,a5
20003314:	00a766b3          	or	a3,a4,a0
20003318:	bfc9                	j	200032ea <__fixunsdfsi+0x1e>
2000331a:	8e9d                	sub	a3,a3,a5
2000331c:	00d756b3          	srl	a3,a4,a3
20003320:	b7e9                	j	200032ea <__fixunsdfsi+0x1e>

20003322 <__floatsidf>:
20003322:	c539                	beqz	a0,20003370 <__floatsidf+0x4e>
20003324:	41f55793          	srai	a5,a0,0x1f
20003328:	00a7c6b3          	xor	a3,a5,a0
2000332c:	8e9d                	sub	a3,a3,a5
2000332e:	1101                	addi	sp,sp,-32
20003330:	01f55713          	srli	a4,a0,0x1f
20003334:	8536                	mv	a0,a3
20003336:	c636                	sw	a3,12(sp)
20003338:	c43a                	sw	a4,8(sp)
2000333a:	ce06                	sw	ra,28(sp)
2000333c:	28c9                	jal	2000340e <__clzsi2>
2000333e:	41e00793          	li	a5,1054
20003342:	8f89                	sub	a5,a5,a0
20003344:	4629                	li	a2,10
20003346:	4722                	lw	a4,8(sp)
20003348:	46b2                	lw	a3,12(sp)
2000334a:	7ff7f793          	andi	a5,a5,2047
2000334e:	02a65c63          	bge	a2,a0,20003386 <__floatsidf+0x64>
20003352:	1555                	addi	a0,a0,-11
20003354:	00a69633          	sll	a2,a3,a0
20003358:	40f2                	lw	ra,28(sp)
2000335a:	0632                	slli	a2,a2,0xc
2000335c:	8231                	srli	a2,a2,0xc
2000335e:	07d2                	slli	a5,a5,0x14
20003360:	4681                	li	a3,0
20003362:	8fd1                	or	a5,a5,a2
20003364:	077e                	slli	a4,a4,0x1f
20003366:	8536                	mv	a0,a3
20003368:	00e7e5b3          	or	a1,a5,a4
2000336c:	6105                	addi	sp,sp,32
2000336e:	8082                	ret
20003370:	4781                	li	a5,0
20003372:	4601                	li	a2,0
20003374:	4701                	li	a4,0
20003376:	07d2                	slli	a5,a5,0x14
20003378:	4681                	li	a3,0
2000337a:	8fd1                	or	a5,a5,a2
2000337c:	077e                	slli	a4,a4,0x1f
2000337e:	8536                	mv	a0,a3
20003380:	00e7e5b3          	or	a1,a5,a4
20003384:	8082                	ret
20003386:	462d                	li	a2,11
20003388:	8e09                	sub	a2,a2,a0
2000338a:	00c6d633          	srl	a2,a3,a2
2000338e:	40f2                	lw	ra,28(sp)
20003390:	0632                	slli	a2,a2,0xc
20003392:	0555                	addi	a0,a0,21
20003394:	8231                	srli	a2,a2,0xc
20003396:	07d2                	slli	a5,a5,0x14
20003398:	00a696b3          	sll	a3,a3,a0
2000339c:	8fd1                	or	a5,a5,a2
2000339e:	077e                	slli	a4,a4,0x1f
200033a0:	8536                	mv	a0,a3
200033a2:	00e7e5b3          	or	a1,a5,a4
200033a6:	6105                	addi	sp,sp,32
200033a8:	8082                	ret

200033aa <__floatunsidf>:
200033aa:	c91d                	beqz	a0,200033e0 <__floatunsidf+0x36>
200033ac:	1101                	addi	sp,sp,-32
200033ae:	ce06                	sw	ra,28(sp)
200033b0:	c62a                	sw	a0,12(sp)
200033b2:	28b1                	jal	2000340e <__clzsi2>
200033b4:	41e00713          	li	a4,1054
200033b8:	8f09                	sub	a4,a4,a0
200033ba:	46a9                	li	a3,10
200033bc:	47b2                	lw	a5,12(sp)
200033be:	7ff77713          	andi	a4,a4,2047
200033c2:	02a6d563          	bge	a3,a0,200033ec <__floatunsidf+0x42>
200033c6:	1555                	addi	a0,a0,-11
200033c8:	00a796b3          	sll	a3,a5,a0
200033cc:	40f2                	lw	ra,28(sp)
200033ce:	06b2                	slli	a3,a3,0xc
200033d0:	82b1                	srli	a3,a3,0xc
200033d2:	4781                	li	a5,0
200033d4:	0752                	slli	a4,a4,0x14
200033d6:	853e                	mv	a0,a5
200033d8:	00d765b3          	or	a1,a4,a3
200033dc:	6105                	addi	sp,sp,32
200033de:	8082                	ret
200033e0:	4701                	li	a4,0
200033e2:	4681                	li	a3,0
200033e4:	0752                	slli	a4,a4,0x14
200033e6:	00d765b3          	or	a1,a4,a3
200033ea:	8082                	ret
200033ec:	46ad                	li	a3,11
200033ee:	8e89                	sub	a3,a3,a0
200033f0:	40f2                	lw	ra,28(sp)
200033f2:	00d7d6b3          	srl	a3,a5,a3
200033f6:	01550613          	addi	a2,a0,21
200033fa:	06b2                	slli	a3,a3,0xc
200033fc:	82b1                	srli	a3,a3,0xc
200033fe:	00c797b3          	sll	a5,a5,a2
20003402:	0752                	slli	a4,a4,0x14
20003404:	853e                	mv	a0,a5
20003406:	00d765b3          	or	a1,a4,a3
2000340a:	6105                	addi	sp,sp,32
2000340c:	8082                	ret

2000340e <__clzsi2>:
2000340e:	67c1                	lui	a5,0x10
20003410:	02f57663          	bgeu	a0,a5,2000343c <__clzsi2+0x2e>
20003414:	10053793          	sltiu	a5,a0,256
20003418:	0017b793          	seqz	a5,a5
2000341c:	078e                	slli	a5,a5,0x3
2000341e:	02000713          	li	a4,32
20003422:	8f1d                	sub	a4,a4,a5
20003424:	00f55533          	srl	a0,a0,a5
20003428:	00000797          	auipc	a5,0x0
2000342c:	09478793          	addi	a5,a5,148 # 200034bc <__clz_tab>
20003430:	97aa                	add	a5,a5,a0
20003432:	0007c503          	lbu	a0,0(a5)
20003436:	40a70533          	sub	a0,a4,a0
2000343a:	8082                	ret
2000343c:	010007b7          	lui	a5,0x1000
20003440:	02f57063          	bgeu	a0,a5,20003460 <__clzsi2+0x52>
20003444:	4741                	li	a4,16
20003446:	87ba                	mv	a5,a4
20003448:	00f55533          	srl	a0,a0,a5
2000344c:	00000797          	auipc	a5,0x0
20003450:	07078793          	addi	a5,a5,112 # 200034bc <__clz_tab>
20003454:	97aa                	add	a5,a5,a0
20003456:	0007c503          	lbu	a0,0(a5)
2000345a:	40a70533          	sub	a0,a4,a0
2000345e:	8082                	ret
20003460:	47e1                	li	a5,24
20003462:	00f55533          	srl	a0,a0,a5
20003466:	00000797          	auipc	a5,0x0
2000346a:	05678793          	addi	a5,a5,86 # 200034bc <__clz_tab>
2000346e:	97aa                	add	a5,a5,a0
20003470:	0007c503          	lbu	a0,0(a5)
20003474:	4721                	li	a4,8
20003476:	40a70533          	sub	a0,a4,a0
2000347a:	8082                	ret
2000347c:	e908                	.insn	2, 0xe908
2000347e:	ffff                	.insn	2, 0xffff
20003480:	e7d6                	.insn	2, 0xe7d6
20003482:	ffff                	.insn	2, 0xffff
20003484:	e7bc                	.insn	2, 0xe7bc
20003486:	ffff                	.insn	2, 0xffff
20003488:	e8da                	.insn	2, 0xe8da
2000348a:	ffff                	.insn	2, 0xffff
2000348c:	e7bc                	.insn	2, 0xe7bc
2000348e:	ffff                	.insn	2, 0xffff
20003490:	e7f2                	.insn	2, 0xe7f2
20003492:	ffff                	.insn	2, 0xffff
20003494:	e7bc                	.insn	2, 0xe7bc
20003496:	ffff                	.insn	2, 0xffff
20003498:	e8da                	.insn	2, 0xe8da
2000349a:	ffff                	.insn	2, 0xffff
2000349c:	e7d6                	.insn	2, 0xe7d6
2000349e:	ffff                	.insn	2, 0xffff
200034a0:	e7d6                	.insn	2, 0xe7d6
200034a2:	ffff                	.insn	2, 0xffff
200034a4:	e7f2                	.insn	2, 0xe7f2
200034a6:	ffff                	.insn	2, 0xffff
200034a8:	e8da                	.insn	2, 0xe8da
200034aa:	ffff                	.insn	2, 0xffff
200034ac:	e87a                	.insn	2, 0xe87a
200034ae:	ffff                	.insn	2, 0xffff
200034b0:	e87a                	.insn	2, 0xe87a
200034b2:	ffff                	.insn	2, 0xffff
200034b4:	e87a                	.insn	2, 0xe87a
200034b6:	ffff                	.insn	2, 0xffff
200034b8:	e7f2                	.insn	2, 0xe7f2
200034ba:	ffff                	.insn	2, 0xffff

200034bc <__clz_tab>:
200034bc:	0100 0202 0303 0303 0404 0404 0404 0404     ................
200034cc:	0505 0505 0505 0505 0505 0505 0505 0505     ................
200034dc:	0606 0606 0606 0606 0606 0606 0606 0606     ................
200034ec:	0606 0606 0606 0606 0606 0606 0606 0606     ................
200034fc:	0707 0707 0707 0707 0707 0707 0707 0707     ................
2000350c:	0707 0707 0707 0707 0707 0707 0707 0707     ................
2000351c:	0707 0707 0707 0707 0707 0707 0707 0707     ................
2000352c:	0707 0707 0707 0707 0707 0707 0707 0707     ................
2000353c:	0808 0808 0808 0808 0808 0808 0808 0808     ................
2000354c:	0808 0808 0808 0808 0808 0808 0808 0808     ................
2000355c:	0808 0808 0808 0808 0808 0808 0808 0808     ................
2000356c:	0808 0808 0808 0808 0808 0808 0808 0808     ................
2000357c:	0808 0808 0808 0808 0808 0808 0808 0808     ................
2000358c:	0808 0808 0808 0808 0808 0808 0808 0808     ................
2000359c:	0808 0808 0808 0808 0808 0808 0808 0808     ................
200035ac:	0808 0808 0808 0808 0808 0808 0808 0808     ................

200035bc <SECRET_KEY>:
200035bc:	7e2b 1615 ae28 a6d2 f7ab 8815 cf09 3c4f     +~..(.........O<

200035cc <irq_handler_chain_slots>:
	...
200035d4:	0000                	unimp
200035d6:	0001                	nop
	...
200035e0:	0000                	unimp
200035e2:	0002                	c.slli64	zero
	...
200035ec:	0000                	unimp
200035ee:	00000003          	lb	zero,0(zero) # 0 <next_slot_number-0x5>
	...
200035fa:	00ff                	.short	0x00ff

200035fc <irq_handler_chain_first_slot>:
200035fc:	b842                	.insn	2, 0xb842
200035fe:	00428093          	addi	ra,t0,4
20003602:	0002a283          	lw	t0,0(t0)
20003606:	8282                	jr	t0

20003608 <irq_handler_chain_remove_tail>:
20003608:	ff608513          	addi	a0,ra,-10
2000360c:	efffe097          	auipc	ra,0xefffe
20003610:	89c080e7          	jalr	-1892(ra) # 10000ea8 <irq_add_tail_to_free_list>
20003614:	be42                	.insn	2, 0xbe42
	...

20003618 <default_alarm_pool>:
	...
2000362c:	3830 2000 0000 0000 0000 0000 0000 0000     08. ............
2000363c:	0000 0000                                   ....

20003640 <__VECTOR_TABLE>:
20003640:	1a00006f          	j	200037e0 <__default_isrs_start>
	...
2000364c:	1960006f          	j	200037e2 <isr_riscv_machine_soft_irq>
	...
2000365c:	1840006f          	j	200037e0 <__default_isrs_start>
	...

2000366c <isr_riscv_machine_external_irq>:
2000366c:	715d                	addi	sp,sp,-80
2000366e:	c006                	sw	ra,0(sp)
20003670:	c216                	sw	t0,4(sp)
20003672:	c41a                	sw	t1,8(sp)
20003674:	c61e                	sw	t2,12(sp)
20003676:	c82a                	sw	a0,16(sp)
20003678:	ca2e                	sw	a1,20(sp)
2000367a:	cc32                	sw	a2,24(sp)
2000367c:	ce36                	sw	a3,28(sp)
2000367e:	d03a                	sw	a4,32(sp)
20003680:	d23e                	sw	a5,36(sp)
20003682:	d442                	sw	a6,40(sp)
20003684:	d646                	sw	a7,44(sp)
20003686:	d872                	sw	t3,48(sp)
20003688:	da76                	sw	t4,52(sp)
2000368a:	dc7a                	sw	t5,56(sp)
2000368c:	de7e                	sw	t6,60(sp)
2000368e:	34102573          	.insn	4, 0x34102573
20003692:	300025f3          	.insn	4, 0x300025f3
20003696:	c0aa                	sw	a0,64(sp)
20003698:	c2ae                	sw	a1,68(sp)

2000369a <save_meicontext>:
2000369a:	be516673          	.insn	4, 0xbe516673
2000369e:	c4b2                	sw	a2,72(sp)

200036a0 <get_first_irq>:
200036a0:	be40e573          	.insn	4, 0xbe40e573
200036a4:	02054163          	bltz	a0,200036c6 <no_more_irqs>

200036a8 <dispatch_irq>:
200036a8:	30046073          	.insn	4, 0x30046073
200036ac:	200035b7          	lui	a1,0x20003
200036b0:	95aa                	add	a1,a1,a0
200036b2:	7105a583          	lw	a1,1808(a1) # 20003710 <__soft_vector_table>
200036b6:	000580e7          	jalr	a1
200036ba:	30047073          	.insn	4, 0x30047073

200036be <get_next_irq>:
200036be:	be40e573          	.insn	4, 0xbe40e573
200036c2:	fe0553e3          	bgez	a0,200036a8 <dispatch_irq>

200036c6 <no_more_irqs>:
200036c6:	4506                	lw	a0,64(sp)
200036c8:	4596                	lw	a1,68(sp)
200036ca:	4626                	lw	a2,72(sp)
200036cc:	34151073          	.insn	4, 0x34151073
200036d0:	30059073          	.insn	4, 0x30059073
200036d4:	be561073          	.insn	4, 0xbe561073
200036d8:	4082                	lw	ra,0(sp)
200036da:	4292                	lw	t0,4(sp)
200036dc:	4322                	lw	t1,8(sp)
200036de:	43b2                	lw	t2,12(sp)
200036e0:	45d2                	lw	a1,20(sp)
200036e2:	4662                	lw	a2,24(sp)
200036e4:	46f2                	lw	a3,28(sp)
200036e6:	5702                	lw	a4,32(sp)
200036e8:	5792                	lw	a5,36(sp)
200036ea:	5822                	lw	a6,40(sp)
200036ec:	58b2                	lw	a7,44(sp)
200036ee:	5e42                	lw	t3,48(sp)
200036f0:	5ed2                	lw	t4,52(sp)
200036f2:	5f62                	lw	t5,56(sp)
200036f4:	5ff2                	lw	t6,60(sp)

200036f6 <check_irq_before_exit>:
200036f6:	be402573          	.insn	4, 0xbe402573
200036fa:	fa0550e3          	bgez	a0,2000369a <save_meicontext>
200036fe:	4542                	lw	a0,16(sp)
20003700:	6161                	addi	sp,sp,80
20003702:	30200073          	mret
	...

20003710 <__soft_vector_table>:
20003710:	37e4                	.insn	2, 0x37e4
20003712:	2000                	.insn	2, 0x2000
20003714:	37e4                	.insn	2, 0x37e4
20003716:	2000                	.insn	2, 0x2000
20003718:	37e4                	.insn	2, 0x37e4
2000371a:	2000                	.insn	2, 0x2000
2000371c:	37e4                	.insn	2, 0x37e4
2000371e:	2000                	.insn	2, 0x2000
20003720:	37e4                	.insn	2, 0x37e4
20003722:	2000                	.insn	2, 0x2000
20003724:	37e4                	.insn	2, 0x37e4
20003726:	2000                	.insn	2, 0x2000
20003728:	37e4                	.insn	2, 0x37e4
2000372a:	2000                	.insn	2, 0x2000
2000372c:	37e4                	.insn	2, 0x37e4
2000372e:	2000                	.insn	2, 0x2000
20003730:	37e4                	.insn	2, 0x37e4
20003732:	2000                	.insn	2, 0x2000
20003734:	37e4                	.insn	2, 0x37e4
20003736:	2000                	.insn	2, 0x2000
20003738:	37e4                	.insn	2, 0x37e4
2000373a:	2000                	.insn	2, 0x2000
2000373c:	37e4                	.insn	2, 0x37e4
2000373e:	2000                	.insn	2, 0x2000
20003740:	37e4                	.insn	2, 0x37e4
20003742:	2000                	.insn	2, 0x2000
20003744:	37e4                	.insn	2, 0x37e4
20003746:	2000                	.insn	2, 0x2000
20003748:	37e4                	.insn	2, 0x37e4
2000374a:	2000                	.insn	2, 0x2000
2000374c:	37e4                	.insn	2, 0x37e4
2000374e:	2000                	.insn	2, 0x2000
20003750:	37e4                	.insn	2, 0x37e4
20003752:	2000                	.insn	2, 0x2000
20003754:	37e4                	.insn	2, 0x37e4
20003756:	2000                	.insn	2, 0x2000
20003758:	37e4                	.insn	2, 0x37e4
2000375a:	2000                	.insn	2, 0x2000
2000375c:	37e4                	.insn	2, 0x37e4
2000375e:	2000                	.insn	2, 0x2000
20003760:	37e4                	.insn	2, 0x37e4
20003762:	2000                	.insn	2, 0x2000
20003764:	37e4                	.insn	2, 0x37e4
20003766:	2000                	.insn	2, 0x2000
20003768:	37e4                	.insn	2, 0x37e4
2000376a:	2000                	.insn	2, 0x2000
2000376c:	37e4                	.insn	2, 0x37e4
2000376e:	2000                	.insn	2, 0x2000
20003770:	37e4                	.insn	2, 0x37e4
20003772:	2000                	.insn	2, 0x2000
20003774:	37e4                	.insn	2, 0x37e4
20003776:	2000                	.insn	2, 0x2000
20003778:	37e4                	.insn	2, 0x37e4
2000377a:	2000                	.insn	2, 0x2000
2000377c:	37e4                	.insn	2, 0x37e4
2000377e:	2000                	.insn	2, 0x2000
20003780:	37e4                	.insn	2, 0x37e4
20003782:	2000                	.insn	2, 0x2000
20003784:	37e4                	.insn	2, 0x37e4
20003786:	2000                	.insn	2, 0x2000
20003788:	37e4                	.insn	2, 0x37e4
2000378a:	2000                	.insn	2, 0x2000
2000378c:	37e4                	.insn	2, 0x37e4
2000378e:	2000                	.insn	2, 0x2000
20003790:	37e4                	.insn	2, 0x37e4
20003792:	2000                	.insn	2, 0x2000
20003794:	37e4                	.insn	2, 0x37e4
20003796:	2000                	.insn	2, 0x2000
20003798:	37e4                	.insn	2, 0x37e4
2000379a:	2000                	.insn	2, 0x2000
2000379c:	37e4                	.insn	2, 0x37e4
2000379e:	2000                	.insn	2, 0x2000
200037a0:	37e4                	.insn	2, 0x37e4
200037a2:	2000                	.insn	2, 0x2000
200037a4:	37e4                	.insn	2, 0x37e4
200037a6:	2000                	.insn	2, 0x2000
200037a8:	37e4                	.insn	2, 0x37e4
200037aa:	2000                	.insn	2, 0x2000
200037ac:	37e4                	.insn	2, 0x37e4
200037ae:	2000                	.insn	2, 0x2000
200037b0:	37e4                	.insn	2, 0x37e4
200037b2:	2000                	.insn	2, 0x2000
200037b4:	37e4                	.insn	2, 0x37e4
200037b6:	2000                	.insn	2, 0x2000
200037b8:	37e4                	.insn	2, 0x37e4
200037ba:	2000                	.insn	2, 0x2000
200037bc:	37e4                	.insn	2, 0x37e4
200037be:	2000                	.insn	2, 0x2000
200037c0:	37e4                	.insn	2, 0x37e4
200037c2:	2000                	.insn	2, 0x2000
200037c4:	37e4                	.insn	2, 0x37e4
200037c6:	2000                	.insn	2, 0x2000
200037c8:	37e4                	.insn	2, 0x37e4
200037ca:	2000                	.insn	2, 0x2000
200037cc:	37e4                	.insn	2, 0x37e4
200037ce:	2000                	.insn	2, 0x2000
200037d0:	37e4                	.insn	2, 0x37e4
200037d2:	2000                	.insn	2, 0x2000
200037d4:	37e4                	.insn	2, 0x37e4
200037d6:	2000                	.insn	2, 0x2000
200037d8:	37e4                	.insn	2, 0x37e4
200037da:	2000                	.insn	2, 0x2000
200037dc:	37e4                	.insn	2, 0x37e4
200037de:	2000                	.insn	2, 0x2000

200037e0 <__default_isrs_start>:
200037e0:	9002                	ebreak

200037e2 <isr_riscv_machine_soft_irq>:
200037e2:	9002                	ebreak

200037e4 <__unhandled_user_irq>:
200037e4:	8109                	srli	a0,a0,0x2
200037e6:	9002                	ebreak

200037e8 <stdio_usb>:
200037e8:	3e8a 1000 3ace 1000 3dea 1000 3ac4 1000     .>...:...=...:..
200037f8:	0000 0000 0100 0000                         ........

20003800 <_usbd_qdef>:
20003800:	3d50 2000 0010 000c 0000 0000 0000 0000     P=. ............
	...

2000381c <striped_spin_lock_num>:
2000381c:	                                             .

2000381d <_usbd_rhport>:
2000381d:	00ff                                         ...

20003820 <__atexit_recursive_mutex>:
20003820:	45f8 2000                                   .E. 

20003824 <print_mutex>:
	...
