
D:/Nirman/Nirman5.0/Chetak/firmware_riscv/build/secure_iot.elf:     file format elf32-littleriscv

Sections:
Idx Name          Size      VMA       LMA       File off  Algn
  0 .text         00008cc0  10000000  10000000  00001000  2**2
                  CONTENTS, ALLOC, LOAD, READONLY, CODE
  1 .rodata       0000162c  10008cc0  10008cc0  00009cc0  2**3
                  CONTENTS, ALLOC, LOAD, READONLY, DATA
  2 .binary_info  00000020  1000a2ec  1000a2ec  0000b2ec  2**2
                  CONTENTS, ALLOC, LOAD, READONLY, DATA
  3 .uninitialized_data 00000000  20000000  20000000  0001025c  2**0
                  CONTENTS
  4 .data         00003f3c  20000000  1000a30c  0000c000  2**6
                  CONTENTS, ALLOC, LOAD, CODE
  5 .tdata        00000000  20003f3c  20003f3c  0001025c  2**0
                  CONTENTS, ALLOC, LOAD, DATA, THREAD_LOCAL
  6 .tbss         00000000  20003f3c  20003f3c  00000000  2**0
                  ALLOC, THREAD_LOCAL
  7 .bss          00001018  20003f40  1000e248  00010f40  2**3
                  ALLOC
  8 .heap         00000800  20004f58  20004f58  0001025c  2**2
                  CONTENTS, READONLY
  9 .scratch_x    00000000  20080000  20080000  00010a5c  2**0
                  CONTENTS
 10 .scratch_y    00000000  20081000  20081000  00010a5c  2**0
                  CONTENTS
 11 .stack1_dummy 00000800  20080000  20080000  00011000  2**2
                  ALLOC
 12 .stack_dummy  00000800  20081000  20081000  00010a60  2**5
                  CONTENTS, READONLY
 13 .flash_end    00000014  1000e248  1000e248  00010248  2**2
                  CONTENTS, ALLOC, LOAD, READONLY, DATA
 14 .comment      00000033  00000000  00000000  00011260  2**0
                  CONTENTS, READONLY
 15 .riscv.attributes 00000089  00000000  00000000  00011293  2**0
                  CONTENTS, READONLY
 16 .debug_info   00033ef8  00000000  00000000  0001131c  2**0
                  CONTENTS, READONLY, DEBUGGING, OCTETS
 17 .debug_abbrev 0000a79d  00000000  00000000  00045214  2**0
                  CONTENTS, READONLY, DEBUGGING, OCTETS
 18 .debug_loclists 0001dc5b  00000000  00000000  0004f9b1  2**0
                  CONTENTS, READONLY, DEBUGGING, OCTETS
 19 .debug_aranges 000017c8  00000000  00000000  0006d610  2**3
                  CONTENTS, READONLY, DEBUGGING, OCTETS
 20 .debug_rnglists 000029c9  00000000  00000000  0006edd8  2**0
                  CONTENTS, READONLY, DEBUGGING, OCTETS
 21 .debug_line   0002d8d0  00000000  00000000  000717a1  2**0
                  CONTENTS, READONLY, DEBUGGING, OCTETS
 22 .debug_str    000091c7  00000000  00000000  0009f071  2**0
                  CONTENTS, READONLY, DEBUGGING, OCTETS
 23 .debug_line_str 00003229  00000000  00000000  000a8238  2**0
                  CONTENTS, READONLY, DEBUGGING, OCTETS
 24 .debug_frame  00004ca0  00000000  00000000  000ab464  2**2
                  CONTENTS, READONLY, DEBUGGING, OCTETS

D:/Nirman/Nirman5.0/Chetak/firmware_riscv/build/secure_iot.elf:     file format elf32-littleriscv


Disassembly of section .text:

10000000 <__flash_binary_start>:
10000000:	ebf2                	.insn	2, 0xebf2
10000002:	7188                	.insn	2, 0x7188
10000004:	a2ec                	.insn	2, 0xa2ec
10000006:	1000                	addi	s0,sp,32
10000008:	a30c                	.insn	2, 0xa30c
1000000a:	1000                	addi	s0,sp,32
1000000c:	00a8                	addi	a0,sp,72
1000000e:	1000                	addi	s0,sp,32
10000010:	a390                	.insn	2, 0xa390
10000012:	e71a                	.insn	2, 0xe71a

10000014 <__binary_info_header_end>:
10000014:	ffffded3          	.insn	4, 0xffffded3
10000018:	0142                	slli	sp,sp,0x10
1000001a:	1101                	addi	sp,sp,-32
1000001c:	0344                	addi	s1,sp,388
1000001e:	0000                	unimp
10000020:	0036                	c.slli	zero,0xd
10000022:	1000                	addi	s0,sp,32
10000024:	2000                	.insn	2, 0x2000
10000026:	2008                	.insn	2, 0x2008
10000028:	04ff 0000 e234 0000 	.insn	10, 0x35790000e234000004ff
10000030:	3579 
10000032:	ab12                	.insn	2, 0xab12

10000034 <__embedded_block_end>:
10000034:	a879                	j	100000d2 <reenter_bootrom>

10000036 <_reset_handler>:
10000036:	10005197          	auipc	gp,0x10005
1000003a:	68718193          	addi	gp,gp,1671 # 200056bd <__global_pointer$>
1000003e:	10082117          	auipc	sp,0x10082
10000042:	fc210113          	addi	sp,sp,-62 # 20082000 <__StackTop>
10000046:	10004517          	auipc	a0,0x10004
1000004a:	bbb50513          	addi	a0,a0,-1093 # 20003c01 <__VECTOR_TABLE+0x1>
1000004e:	30551073          	csrw	mtvec,a0
10000052:	f1402573          	csrr	a0,mhartid
10000056:	ed35                	bnez	a0,100000d2 <reenter_bootrom>
10000058:	00000717          	auipc	a4,0x0
1000005c:	05070713          	addi	a4,a4,80 # 100000a8 <data_cpy_table>
10000060:	430c                	lw	a1,0(a4)
10000062:	c591                	beqz	a1,1000006e <_reset_handler+0x38>
10000064:	4350                	lw	a2,4(a4)
10000066:	4714                	lw	a3,8(a4)
10000068:	0731                	addi	a4,a4,12
1000006a:	2825                	jal	100000a2 <data_cpy>
1000006c:	bfd5                	j	10000060 <_reset_handler+0x2a>
1000006e:	10004597          	auipc	a1,0x10004
10000072:	ece58593          	addi	a1,a1,-306 # 20003f3c <__bss_start__>
10000076:	10005617          	auipc	a2,0x10005
1000007a:	ee260613          	addi	a2,a2,-286 # 20004f58 <__bss_end__>
1000007e:	a021                	j	10000086 <bss_fill_test>

10000080 <bss_fill_loop>:
10000080:	0005a023          	sw	zero,0(a1)
10000084:	0591                	addi	a1,a1,4

10000086 <bss_fill_test>:
10000086:	fec59de3          	bne	a1,a2,10000080 <bss_fill_loop>

1000008a <platform_entry>:
1000008a:	270040ef          	jal	100042fa <runtime_init>
1000008e:	44d000ef          	jal	10000cda <main>
10000092:	230040ef          	jal	100042c2 <exit>
10000096:	9002                	ebreak
10000098:	bffd                	j	10000096 <platform_entry+0xc>

1000009a <data_cpy_loop>:
1000009a:	4188                	lw	a0,0(a1)
1000009c:	c208                	sw	a0,0(a2)
1000009e:	0591                	addi	a1,a1,4
100000a0:	0611                	addi	a2,a2,4

100000a2 <data_cpy>:
100000a2:	fed66ce3          	bltu	a2,a3,1000009a <data_cpy_loop>
100000a6:	8082                	ret

100000a8 <data_cpy_table>:
100000a8:	1000a30c          	.word	0x1000a30c
100000ac:	20000000          	.word	0x20000000
100000b0:	20003f3c          	.word	0x20003f3c
100000b4:	1000e248          	.word	0x1000e248
100000b8:	20080000          	.word	0x20080000
100000bc:	20080000          	.word	0x20080000
100000c0:	1000e248          	.word	0x1000e248
100000c4:	20081000          	.word	0x20081000
100000c8:	20081000          	.word	0x20081000
100000cc:	00000000          	.word	0x00000000
100000d0:	8082                	ret

100000d2 <reenter_bootrom>:
100000d2:	6521                	lui	a0,0x8
100000d4:	dfc50513          	addi	a0,a0,-516 # 7dfc <HeapSize+0x75fc>
100000d8:	8502                	jr	a0

100000da <frame_dummy>:
100000da:	00000793          	li	a5,0
100000de:	cf89                	beqz	a5,100000f8 <frame_dummy+0x1e>
100000e0:	10005597          	auipc	a1,0x10005
100000e4:	c9458593          	addi	a1,a1,-876 # 20004d74 <object.0>
100000e8:	00009517          	auipc	a0,0x9
100000ec:	bd850513          	addi	a0,a0,-1064 # 10008cc0 <__EH_FRAME_BEGIN__>
100000f0:	00000317          	auipc	t1,0x0
100000f4:	00000067          	jr	zero # 0 <next_slot_number-0x5>
100000f8:	8082                	ret

100000fa <uart_putc>:
100000fa:	1141                	addi	sp,sp,-16
100000fc:	bff887b7          	lui	a5,0xbff88
10000100:	97aa                	add	a5,a5,a0
10000102:	0017b793          	seqz	a5,a5
10000106:	81b18713          	addi	a4,gp,-2021 # 20004ed8 <uart_char_to_line_feed>
1000010a:	20e7a7b3          	sh1add	a5,a5,a4
1000010e:	00079783          	lh	a5,0(a5) # bff88000 <__StackTop+0x9ff06000>
10000112:	00b78863          	beq	a5,a1,10000122 <uart_putc+0x28>
10000116:	00b107a3          	sb	a1,15(sp)
1000011a:	4701                	li	a4,0
1000011c:	00f10693          	addi	a3,sp,15
10000120:	a81d                	j	10000156 <uart_putc+0x5c>
10000122:	47b5                	li	a5,13
10000124:	00f107a3          	sb	a5,15(sp)
10000128:	4701                	li	a4,0
1000012a:	00f10693          	addi	a3,sp,15
1000012e:	f765                	bnez	a4,10000116 <uart_putc+0x1c>
10000130:	4d1c                	lw	a5,24(a0)
10000132:	0207f793          	andi	a5,a5,32
10000136:	ffed                	bnez	a5,10000130 <uart_putc+0x36>
10000138:	0006c783          	lbu	a5,0(a3)
1000013c:	c11c                	sw	a5,0(a0)
1000013e:	0705                	addi	a4,a4,1
10000140:	0685                	addi	a3,a3,1
10000142:	b7f5                	j	1000012e <uart_putc+0x34>
10000144:	4d1c                	lw	a5,24(a0)
10000146:	0207f793          	andi	a5,a5,32
1000014a:	ffed                	bnez	a5,10000144 <uart_putc+0x4a>
1000014c:	0006c783          	lbu	a5,0(a3)
10000150:	c11c                	sw	a5,0(a0)
10000152:	0705                	addi	a4,a4,1
10000154:	0685                	addi	a3,a3,1
10000156:	d77d                	beqz	a4,10000144 <uart_putc+0x4a>
10000158:	0141                	addi	sp,sp,16
1000015a:	8082                	ret

1000015c <uart_puts>:
1000015c:	1101                	addi	sp,sp,-32
1000015e:	ce06                	sw	ra,28(sp)
10000160:	cc22                	sw	s0,24(sp)
10000162:	ca26                	sw	s1,20(sp)
10000164:	842a                	mv	s0,a0
10000166:	84ae                	mv	s1,a1
10000168:	4781                	li	a5,0
1000016a:	a03d                	j	10000198 <uart_puts+0x3c>
1000016c:	00b107a3          	sb	a1,15(sp)
10000170:	4701                	li	a4,0
10000172:	00f10693          	addi	a3,sp,15
10000176:	a811                	j	1000018a <uart_puts+0x2e>
10000178:	4c1c                	lw	a5,24(s0)
1000017a:	0207f793          	andi	a5,a5,32
1000017e:	ffed                	bnez	a5,10000178 <uart_puts+0x1c>
10000180:	0006c783          	lbu	a5,0(a3)
10000184:	c01c                	sw	a5,0(s0)
10000186:	0705                	addi	a4,a4,1
10000188:	0685                	addi	a3,a3,1
1000018a:	d77d                	beqz	a4,10000178 <uart_puts+0x1c>
1000018c:	0004c783          	lbu	a5,0(s1)
10000190:	17cd                	addi	a5,a5,-13
10000192:	0017b793          	seqz	a5,a5
10000196:	0485                	addi	s1,s1,1
10000198:	0004c583          	lbu	a1,0(s1)
1000019c:	c589                	beqz	a1,100001a6 <uart_puts+0x4a>
1000019e:	f7f9                	bnez	a5,1000016c <uart_puts+0x10>
100001a0:	8522                	mv	a0,s0
100001a2:	3fa1                	jal	100000fa <uart_putc>
100001a4:	b7e5                	j	1000018c <uart_puts+0x30>
100001a6:	40f2                	lw	ra,28(sp)
100001a8:	4462                	lw	s0,24(sp)
100001aa:	44d2                	lw	s1,20(sp)
100001ac:	6105                	addi	sp,sp,32
100001ae:	8082                	ret

100001b0 <uart_getc>:
100001b0:	1141                	addi	sp,sp,-16
100001b2:	4701                	li	a4,0
100001b4:	00f10693          	addi	a3,sp,15
100001b8:	a809                	j	100001ca <uart_getc+0x1a>
100001ba:	4d1c                	lw	a5,24(a0)
100001bc:	8bc1                	andi	a5,a5,16
100001be:	fff5                	bnez	a5,100001ba <uart_getc+0xa>
100001c0:	411c                	lw	a5,0(a0)
100001c2:	00f68023          	sb	a5,0(a3)
100001c6:	0705                	addi	a4,a4,1
100001c8:	0685                	addi	a3,a3,1
100001ca:	db65                	beqz	a4,100001ba <uart_getc+0xa>
100001cc:	00f14503          	lbu	a0,15(sp)
100001d0:	0141                	addi	sp,sp,16
100001d2:	8082                	ret

100001d4 <detect_sql_injection>:
100001d4:	7139                	addi	sp,sp,-64
100001d6:	de06                	sw	ra,60(sp)
100001d8:	dc22                	sw	s0,56(sp)
100001da:	da26                	sw	s1,52(sp)
100001dc:	d84a                	sw	s2,48(sp)
100001de:	892a                	mv	s2,a0
100001e0:	1000a7b7          	lui	a5,0x1000a
100001e4:	9a078793          	addi	a5,a5,-1632 # 100099a0 <__EH_FRAME_BEGIN__+0xce0>
100001e8:	0007a303          	lw	t1,0(a5)
100001ec:	0047a883          	lw	a7,4(a5)
100001f0:	0087a803          	lw	a6,8(a5)
100001f4:	47c8                	lw	a0,12(a5)
100001f6:	4b8c                	lw	a1,16(a5)
100001f8:	4bd0                	lw	a2,20(a5)
100001fa:	4f94                	lw	a3,24(a5)
100001fc:	4fd8                	lw	a4,28(a5)
100001fe:	c61a                	sw	t1,12(sp)
10000200:	c846                	sw	a7,16(sp)
10000202:	ca42                	sw	a6,20(sp)
10000204:	cc2a                	sw	a0,24(sp)
10000206:	ce2e                	sw	a1,28(sp)
10000208:	d032                	sw	a2,32(sp)
1000020a:	d236                	sw	a3,36(sp)
1000020c:	d43a                	sw	a4,40(sp)
1000020e:	539c                	lw	a5,32(a5)
10000210:	d63e                	sw	a5,44(sp)
10000212:	4401                	li	s0,0
10000214:	4481                	li	s1,0
10000216:	a011                	j	1000021a <detect_sql_injection+0x46>
10000218:	0405                	addi	s0,s0,1
1000021a:	47a1                	li	a5,8
1000021c:	0087cc63          	blt	a5,s0,10000234 <detect_sql_injection+0x60>
10000220:	007c                	addi	a5,sp,12
10000222:	20f447b3          	sh2add	a5,s0,a5
10000226:	438c                	lw	a1,0(a5)
10000228:	854a                	mv	a0,s2
1000022a:	41c080ef          	jal	10008646 <strstr>
1000022e:	d56d                	beqz	a0,10000218 <detect_sql_injection+0x44>
10000230:	04bd                	addi	s1,s1,15
10000232:	b7dd                	j	10000218 <detect_sql_injection+0x44>
10000234:	06400513          	li	a0,100
10000238:	0aa4c533          	min	a0,s1,a0
1000023c:	50f2                	lw	ra,60(sp)
1000023e:	5462                	lw	s0,56(sp)
10000240:	54d2                	lw	s1,52(sp)
10000242:	5942                	lw	s2,48(sp)
10000244:	6121                	addi	sp,sp,64
10000246:	8082                	ret

10000248 <detect_code_injection>:
10000248:	715d                	addi	sp,sp,-80
1000024a:	c686                	sw	ra,76(sp)
1000024c:	c4a2                	sw	s0,72(sp)
1000024e:	c2a6                	sw	s1,68(sp)
10000250:	c0ca                	sw	s2,64(sp)
10000252:	892a                	mv	s2,a0
10000254:	1000a6b7          	lui	a3,0x1000a
10000258:	9a068693          	addi	a3,a3,-1632 # 100099a0 <__EH_FRAME_BEGIN__+0xce0>
1000025c:	02468793          	addi	a5,a3,36
10000260:	0038                	addi	a4,sp,8
10000262:	05468693          	addi	a3,a3,84
10000266:	4388                	lw	a0,0(a5)
10000268:	43cc                	lw	a1,4(a5)
1000026a:	4790                	lw	a2,8(a5)
1000026c:	c308                	sw	a0,0(a4)
1000026e:	c34c                	sw	a1,4(a4)
10000270:	c710                	sw	a2,8(a4)
10000272:	47d0                	lw	a2,12(a5)
10000274:	c750                	sw	a2,12(a4)
10000276:	07c1                	addi	a5,a5,16
10000278:	0741                	addi	a4,a4,16
1000027a:	fed796e3          	bne	a5,a3,10000266 <detect_code_injection+0x1e>
1000027e:	4394                	lw	a3,0(a5)
10000280:	c314                	sw	a3,0(a4)
10000282:	43dc                	lw	a5,4(a5)
10000284:	c35c                	sw	a5,4(a4)
10000286:	4401                	li	s0,0
10000288:	4481                	li	s1,0
1000028a:	a011                	j	1000028e <detect_code_injection+0x46>
1000028c:	0405                	addi	s0,s0,1
1000028e:	47b5                	li	a5,13
10000290:	0087cc63          	blt	a5,s0,100002a8 <detect_code_injection+0x60>
10000294:	003c                	addi	a5,sp,8
10000296:	20f447b3          	sh2add	a5,s0,a5
1000029a:	438c                	lw	a1,0(a5)
1000029c:	854a                	mv	a0,s2
1000029e:	3a8080ef          	jal	10008646 <strstr>
100002a2:	d56d                	beqz	a0,1000028c <detect_code_injection+0x44>
100002a4:	04d1                	addi	s1,s1,20
100002a6:	b7dd                	j	1000028c <detect_code_injection+0x44>
100002a8:	06400513          	li	a0,100
100002ac:	0aa4c533          	min	a0,s1,a0
100002b0:	40b6                	lw	ra,76(sp)
100002b2:	4426                	lw	s0,72(sp)
100002b4:	4496                	lw	s1,68(sp)
100002b6:	4906                	lw	s2,64(sp)
100002b8:	6161                	addi	sp,sp,80
100002ba:	8082                	ret

100002bc <detect_overflow_attempt>:
100002bc:	04000793          	li	a5,64
100002c0:	00b7c763          	blt	a5,a1,100002ce <detect_overflow_attempt+0x12>
100002c4:	4801                	li	a6,0
100002c6:	4785                	li	a5,1
100002c8:	863e                	mv	a2,a5
100002ca:	4881                	li	a7,0
100002cc:	a039                	j	100002da <detect_overflow_attempt+0x1e>
100002ce:	4879                	li	a6,30
100002d0:	bfdd                	j	100002c6 <detect_overflow_attempt+0xa>
100002d2:	0605                	addi	a2,a2,1
100002d4:	02c8c263          	blt	a7,a2,100002f8 <detect_overflow_attempt+0x3c>
100002d8:	0785                	addi	a5,a5,1
100002da:	02b7d163          	bge	a5,a1,100002fc <detect_overflow_attempt+0x40>
100002de:	00f50733          	add	a4,a0,a5
100002e2:	00074683          	lbu	a3,0(a4)
100002e6:	fff78713          	addi	a4,a5,-1
100002ea:	972a                	add	a4,a4,a0
100002ec:	00074703          	lbu	a4,0(a4)
100002f0:	fee681e3          	beq	a3,a4,100002d2 <detect_overflow_attempt+0x16>
100002f4:	4605                	li	a2,1
100002f6:	b7cd                	j	100002d8 <detect_overflow_attempt+0x1c>
100002f8:	88b2                	mv	a7,a2
100002fa:	bff9                	j	100002d8 <detect_overflow_attempt+0x1c>
100002fc:	47a9                	li	a5,10
100002fe:	0117d363          	bge	a5,a7,10000304 <detect_overflow_attempt+0x48>
10000302:	0865                	addi	a6,a6,25
10000304:	4781                	li	a5,0
10000306:	a011                	j	1000030a <detect_overflow_attempt+0x4e>
10000308:	0785                	addi	a5,a5,1
1000030a:	00b7d963          	bge	a5,a1,1000031c <detect_overflow_attempt+0x60>
1000030e:	00f50733          	add	a4,a0,a5
10000312:	00074703          	lbu	a4,0(a4)
10000316:	fb6d                	bnez	a4,10000308 <detect_overflow_attempt+0x4c>
10000318:	083d                	addi	a6,a6,15
1000031a:	b7fd                	j	10000308 <detect_overflow_attempt+0x4c>
1000031c:	06400513          	li	a0,100
10000320:	0aa84533          	min	a0,a6,a0
10000324:	8082                	ret

10000326 <detect_format_string>:
10000326:	7179                	addi	sp,sp,-48
10000328:	d606                	sw	ra,44(sp)
1000032a:	d422                	sw	s0,40(sp)
1000032c:	d226                	sw	s1,36(sp)
1000032e:	d04a                	sw	s2,32(sp)
10000330:	892a                	mv	s2,a0
10000332:	1000a7b7          	lui	a5,0x1000a
10000336:	9a078793          	addi	a5,a5,-1632 # 100099a0 <__EH_FRAME_BEGIN__+0xce0>
1000033a:	4fec                	lw	a1,92(a5)
1000033c:	53b0                	lw	a2,96(a5)
1000033e:	53f4                	lw	a3,100(a5)
10000340:	57b8                	lw	a4,104(a5)
10000342:	c62e                	sw	a1,12(sp)
10000344:	c832                	sw	a2,16(sp)
10000346:	ca36                	sw	a3,20(sp)
10000348:	cc3a                	sw	a4,24(sp)
1000034a:	57fc                	lw	a5,108(a5)
1000034c:	ce3e                	sw	a5,28(sp)
1000034e:	4481                	li	s1,0
10000350:	4401                	li	s0,0
10000352:	a819                	j	10000368 <detect_format_string+0x42>
10000354:	0429                	addi	s0,s0,10
10000356:	0505                	addi	a0,a0,1
10000358:	007c                	addi	a5,sp,12
1000035a:	20f4c7b3          	sh2add	a5,s1,a5
1000035e:	438c                	lw	a1,0(a5)
10000360:	2e6080ef          	jal	10008646 <strstr>
10000364:	f965                	bnez	a0,10000354 <detect_format_string+0x2e>
10000366:	0485                	addi	s1,s1,1
10000368:	4791                	li	a5,4
1000036a:	0097c463          	blt	a5,s1,10000372 <detect_format_string+0x4c>
1000036e:	854a                	mv	a0,s2
10000370:	b7e5                	j	10000358 <detect_format_string+0x32>
10000372:	06400513          	li	a0,100
10000376:	0aa44533          	min	a0,s0,a0
1000037a:	50b2                	lw	ra,44(sp)
1000037c:	5422                	lw	s0,40(sp)
1000037e:	5492                	lw	s1,36(sp)
10000380:	5902                	lw	s2,32(sp)
10000382:	6145                	addi	sp,sp,48
10000384:	8082                	ret

10000386 <detect_shellcode>:
10000386:	1101                	addi	sp,sp,-32
10000388:	ce06                	sw	ra,28(sp)
1000038a:	cc22                	sw	s0,24(sp)
1000038c:	ca26                	sw	s1,20(sp)
1000038e:	c84a                	sw	s2,16(sp)
10000390:	c64e                	sw	s3,12(sp)
10000392:	882a                	mv	a6,a0
10000394:	842e                	mv	s0,a1
10000396:	4701                	li	a4,0
10000398:	4481                	li	s1,0
1000039a:	4501                	li	a0,0
1000039c:	a031                	j	100003a8 <detect_shellcode+0x22>
1000039e:	05c00793          	li	a5,92
100003a2:	02f68f63          	beq	a3,a5,100003e0 <detect_shellcode+0x5a>
100003a6:	0705                	addi	a4,a4,1
100003a8:	04875a63          	bge	a4,s0,100003fc <detect_shellcode+0x76>
100003ac:	863a                	mv	a2,a4
100003ae:	00e807b3          	add	a5,a6,a4
100003b2:	0007c683          	lbu	a3,0(a5)
100003b6:	1000a7b7          	lui	a5,0x1000a
100003ba:	0c578793          	addi	a5,a5,197 # 1000a0c5 <_ctype_+0x1>
100003be:	97b6                	add	a5,a5,a3
100003c0:	0007c783          	lbu	a5,0(a5)
100003c4:	0977f793          	andi	a5,a5,151
100003c8:	fbf9                	bnez	a5,1000039e <detect_shellcode+0x18>
100003ca:	47a9                	li	a5,10
100003cc:	fcf689e3          	beq	a3,a5,1000039e <detect_shellcode+0x18>
100003d0:	47b5                	li	a5,13
100003d2:	fcf686e3          	beq	a3,a5,1000039e <detect_shellcode+0x18>
100003d6:	47a5                	li	a5,9
100003d8:	fcf683e3          	beq	a3,a5,1000039e <detect_shellcode+0x18>
100003dc:	0505                	addi	a0,a0,1
100003de:	b7c1                	j	1000039e <detect_shellcode+0x18>
100003e0:	00170793          	addi	a5,a4,1
100003e4:	fc87d1e3          	bge	a5,s0,100003a6 <detect_shellcode+0x20>
100003e8:	0605                	addi	a2,a2,1
100003ea:	9642                	add	a2,a2,a6
100003ec:	00064683          	lbu	a3,0(a2)
100003f0:	07800793          	li	a5,120
100003f4:	faf699e3          	bne	a3,a5,100003a6 <detect_shellcode+0x20>
100003f8:	0485                	addi	s1,s1,1
100003fa:	b775                	j	100003a6 <detect_shellcode+0x20>
100003fc:	10003097          	auipc	ra,0x10003
10000400:	4dc080e7          	jalr	1244(ra) # 200038d8 <__floatsidf>
10000404:	89aa                	mv	s3,a0
10000406:	892e                	mv	s2,a1
10000408:	8522                	mv	a0,s0
1000040a:	10003097          	auipc	ra,0x10003
1000040e:	4ce080e7          	jalr	1230(ra) # 200038d8 <__floatsidf>
10000412:	1000a7b7          	lui	a5,0x1000a
10000416:	1c87a603          	lw	a2,456(a5) # 1000a1c8 <_ctype_+0x104>
1000041a:	1cc7a683          	lw	a3,460(a5)
1000041e:	10002097          	auipc	ra,0x10002
10000422:	4f8080e7          	jalr	1272(ra) # 20002916 <__muldf3>
10000426:	862a                	mv	a2,a0
10000428:	86ae                	mv	a3,a1
1000042a:	854e                	mv	a0,s3
1000042c:	85ca                	mv	a1,s2
1000042e:	10002097          	auipc	ra,0x10002
10000432:	332080e7          	jalr	818(ra) # 20002760 <__gedf2>
10000436:	02a04263          	bgtz	a0,1000045a <detect_shellcode+0xd4>
1000043a:	4781                	li	a5,0
1000043c:	470d                	li	a4,3
1000043e:	00975363          	bge	a4,s1,10000444 <detect_shellcode+0xbe>
10000442:	07f9                	addi	a5,a5,30
10000444:	06400513          	li	a0,100
10000448:	0aa7c533          	min	a0,a5,a0
1000044c:	40f2                	lw	ra,28(sp)
1000044e:	4462                	lw	s0,24(sp)
10000450:	44d2                	lw	s1,20(sp)
10000452:	4942                	lw	s2,16(sp)
10000454:	49b2                	lw	s3,12(sp)
10000456:	6105                	addi	sp,sp,32
10000458:	8082                	ret
1000045a:	02800793          	li	a5,40
1000045e:	bff9                	j	1000043c <detect_shellcode+0xb6>

10000460 <calculate_entropy>:
10000460:	be010113          	addi	sp,sp,-1056
10000464:	40112e23          	sw	ra,1052(sp)
10000468:	41312623          	sw	s3,1036(sp)
1000046c:	89ae                	mv	s3,a1
1000046e:	12058163          	beqz	a1,10000590 <calculate_entropy+0x130>
10000472:	40812c23          	sw	s0,1048(sp)
10000476:	40912a23          	sw	s1,1044(sp)
1000047a:	41212823          	sw	s2,1040(sp)
1000047e:	41412423          	sw	s4,1032(sp)
10000482:	41512223          	sw	s5,1028(sp)
10000486:	842a                	mv	s0,a0
10000488:	40000613          	li	a2,1024
1000048c:	4581                	li	a1,0
1000048e:	850a                	mv	a0,sp
10000490:	3c2080ef          	jal	10008852 <memset>
10000494:	4701                	li	a4,0
10000496:	a819                	j	100004ac <calculate_entropy+0x4c>
10000498:	00e407b3          	add	a5,s0,a4
1000049c:	0007c783          	lbu	a5,0(a5)
100004a0:	2027c7b3          	sh2add	a5,a5,sp
100004a4:	4394                	lw	a3,0(a5)
100004a6:	0685                	addi	a3,a3,1
100004a8:	c394                	sw	a3,0(a5)
100004aa:	0705                	addi	a4,a4,1
100004ac:	ff3746e3          	blt	a4,s3,10000498 <calculate_entropy+0x38>
100004b0:	4401                	li	s0,0
100004b2:	4901                	li	s2,0
100004b4:	4481                	li	s1,0
100004b6:	a011                	j	100004ba <calculate_entropy+0x5a>
100004b8:	0405                	addi	s0,s0,1
100004ba:	0ff00793          	li	a5,255
100004be:	0687cb63          	blt	a5,s0,10000534 <calculate_entropy+0xd4>
100004c2:	202447b3          	sh2add	a5,s0,sp
100004c6:	4388                	lw	a0,0(a5)
100004c8:	fea058e3          	blez	a0,100004b8 <calculate_entropy+0x58>
100004cc:	10003097          	auipc	ra,0x10003
100004d0:	40c080e7          	jalr	1036(ra) # 200038d8 <__floatsidf>
100004d4:	8aaa                	mv	s5,a0
100004d6:	8a2e                	mv	s4,a1
100004d8:	854e                	mv	a0,s3
100004da:	10003097          	auipc	ra,0x10003
100004de:	3fe080e7          	jalr	1022(ra) # 200038d8 <__floatsidf>
100004e2:	862a                	mv	a2,a0
100004e4:	86ae                	mv	a3,a1
100004e6:	8556                	mv	a0,s5
100004e8:	85d2                	mv	a1,s4
100004ea:	10002097          	auipc	ra,0x10002
100004ee:	b72080e7          	jalr	-1166(ra) # 2000205c <__divdf3>
100004f2:	8aaa                	mv	s5,a0
100004f4:	8a2e                	mv	s4,a1
100004f6:	10000097          	auipc	ra,0x10000
100004fa:	5fa080e7          	jalr	1530(ra) # 20000af0 <log>
100004fe:	1000a7b7          	lui	a5,0x1000a
10000502:	1d07a603          	lw	a2,464(a5) # 1000a1d0 <_ctype_+0x10c>
10000506:	1d47a683          	lw	a3,468(a5)
1000050a:	10002097          	auipc	ra,0x10002
1000050e:	b52080e7          	jalr	-1198(ra) # 2000205c <__divdf3>
10000512:	8656                	mv	a2,s5
10000514:	86d2                	mv	a3,s4
10000516:	10002097          	auipc	ra,0x10002
1000051a:	400080e7          	jalr	1024(ra) # 20002916 <__muldf3>
1000051e:	862a                	mv	a2,a0
10000520:	86ae                	mv	a3,a1
10000522:	854a                	mv	a0,s2
10000524:	85a6                	mv	a1,s1
10000526:	10003097          	auipc	ra,0x10003
1000052a:	994080e7          	jalr	-1644(ra) # 20002eba <__subdf3>
1000052e:	892a                	mv	s2,a0
10000530:	84ae                	mv	s1,a1
10000532:	b759                	j	100004b8 <calculate_entropy+0x58>
10000534:	1000a7b7          	lui	a5,0x1000a
10000538:	1d87a603          	lw	a2,472(a5) # 1000a1d8 <_ctype_+0x114>
1000053c:	1dc7a683          	lw	a3,476(a5)
10000540:	854a                	mv	a0,s2
10000542:	85a6                	mv	a1,s1
10000544:	10002097          	auipc	ra,0x10002
10000548:	21c080e7          	jalr	540(ra) # 20002760 <__gedf2>
1000054c:	04a04463          	bgtz	a0,10000594 <calculate_entropy+0x134>
10000550:	1000a7b7          	lui	a5,0x1000a
10000554:	1e07a603          	lw	a2,480(a5) # 1000a1e0 <_ctype_+0x11c>
10000558:	1e47a683          	lw	a3,484(a5)
1000055c:	854a                	mv	a0,s2
1000055e:	85a6                	mv	a1,s1
10000560:	10002097          	auipc	ra,0x10002
10000564:	200080e7          	jalr	512(ra) # 20002760 <__gedf2>
10000568:	04a04263          	bgtz	a0,100005ac <calculate_entropy+0x14c>
1000056c:	4501                	li	a0,0
1000056e:	41812403          	lw	s0,1048(sp)
10000572:	41412483          	lw	s1,1044(sp)
10000576:	41012903          	lw	s2,1040(sp)
1000057a:	40812a03          	lw	s4,1032(sp)
1000057e:	40412a83          	lw	s5,1028(sp)
10000582:	41c12083          	lw	ra,1052(sp)
10000586:	40c12983          	lw	s3,1036(sp)
1000058a:	42010113          	addi	sp,sp,1056
1000058e:	8082                	ret
10000590:	852e                	mv	a0,a1
10000592:	bfc5                	j	10000582 <calculate_entropy+0x122>
10000594:	4579                	li	a0,30
10000596:	41812403          	lw	s0,1048(sp)
1000059a:	41412483          	lw	s1,1044(sp)
1000059e:	41012903          	lw	s2,1040(sp)
100005a2:	40812a03          	lw	s4,1032(sp)
100005a6:	40412a83          	lw	s5,1028(sp)
100005aa:	bfe1                	j	10000582 <calculate_entropy+0x122>
100005ac:	453d                	li	a0,15
100005ae:	41812403          	lw	s0,1048(sp)
100005b2:	41412483          	lw	s1,1044(sp)
100005b6:	41012903          	lw	s2,1040(sp)
100005ba:	40812a03          	lw	s4,1032(sp)
100005be:	40412a83          	lw	s5,1028(sp)
100005c2:	b7c1                	j	10000582 <calculate_entropy+0x122>

100005c4 <analyze_threat>:
100005c4:	1101                	addi	sp,sp,-32
100005c6:	ce06                	sw	ra,28(sp)
100005c8:	cc22                	sw	s0,24(sp)
100005ca:	ca26                	sw	s1,20(sp)
100005cc:	c84a                	sw	s2,16(sp)
100005ce:	c64e                	sw	s3,12(sp)
100005d0:	842a                	mv	s0,a0
100005d2:	84ae                	mv	s1,a1
100005d4:	00052023          	sw	zero,0(a0)
100005d8:	00052223          	sw	zero,4(a0)
100005dc:	00052423          	sw	zero,8(a0)
100005e0:	00052623          	sw	zero,12(a0)
100005e4:	00052823          	sw	zero,16(a0)
100005e8:	00052a23          	sw	zero,20(a0)
100005ec:	00052c23          	sw	zero,24(a0)
100005f0:	00052e23          	sw	zero,28(a0)
100005f4:	852e                	mv	a0,a1
100005f6:	3ec080ef          	jal	100089e2 <strlen>
100005fa:	89aa                	mv	s3,a0
100005fc:	892a                	mv	s2,a0
100005fe:	8526                	mv	a0,s1
10000600:	3ed1                	jal	100001d4 <detect_sql_injection>
10000602:	c048                	sw	a0,4(s0)
10000604:	8526                	mv	a0,s1
10000606:	3189                	jal	10000248 <detect_code_injection>
10000608:	c408                	sw	a0,8(s0)
1000060a:	85ce                	mv	a1,s3
1000060c:	8526                	mv	a0,s1
1000060e:	317d                	jal	100002bc <detect_overflow_attempt>
10000610:	c448                	sw	a0,12(s0)
10000612:	8526                	mv	a0,s1
10000614:	3b09                	jal	10000326 <detect_format_string>
10000616:	c808                	sw	a0,16(s0)
10000618:	85ce                	mv	a1,s3
1000061a:	8526                	mv	a0,s1
1000061c:	33ad                	jal	10000386 <detect_shellcode>
1000061e:	c848                	sw	a0,20(s0)
10000620:	85ce                	mv	a1,s3
10000622:	8526                	mv	a0,s1
10000624:	3d35                	jal	10000460 <calculate_entropy>
10000626:	cc08                	sw	a0,24(s0)
10000628:	04000793          	li	a5,64
1000062c:	0137d663          	bge	a5,s3,10000638 <analyze_threat+0x74>
10000630:	47d1                	li	a5,20
10000632:	cc5c                	sw	a5,28(s0)
10000634:	4701                	li	a4,0
10000636:	a021                	j	1000063e <analyze_threat+0x7a>
10000638:	4781                	li	a5,0
1000063a:	bfe5                	j	10000632 <analyze_threat+0x6e>
1000063c:	0705                	addi	a4,a4,1
1000063e:	03275d63          	bge	a4,s2,10000678 <analyze_threat+0xb4>
10000642:	00e487b3          	add	a5,s1,a4
10000646:	0007c683          	lbu	a3,0(a5)
1000064a:	1000a7b7          	lui	a5,0x1000a
1000064e:	0c578793          	addi	a5,a5,197 # 1000a0c5 <_ctype_+0x1>
10000652:	97b6                	add	a5,a5,a3
10000654:	0007c783          	lbu	a5,0(a5)
10000658:	0207f793          	andi	a5,a5,32
1000065c:	d3e5                	beqz	a5,1000063c <analyze_threat+0x78>
1000065e:	47a9                	li	a5,10
10000660:	fcf68ee3          	beq	a3,a5,1000063c <analyze_threat+0x78>
10000664:	47b5                	li	a5,13
10000666:	fcf68be3          	beq	a3,a5,1000063c <analyze_threat+0x78>
1000066a:	47a5                	li	a5,9
1000066c:	fcf688e3          	beq	a3,a5,1000063c <analyze_threat+0x78>
10000670:	401c                	lw	a5,0(s0)
10000672:	0785                	addi	a5,a5,1
10000674:	c01c                	sw	a5,0(s0)
10000676:	b7d9                	j	1000063c <analyze_threat+0x78>
10000678:	8522                	mv	a0,s0
1000067a:	40f2                	lw	ra,28(sp)
1000067c:	4462                	lw	s0,24(sp)
1000067e:	44d2                	lw	s1,20(sp)
10000680:	4942                	lw	s2,16(sp)
10000682:	49b2                	lw	s3,12(sp)
10000684:	6105                	addi	sp,sp,32
10000686:	8082                	ret

10000688 <calculate_threat_score>:
10000688:	415c                	lw	a5,4(a0)
1000068a:	4518                	lw	a4,8(a0)
1000068c:	97ba                	add	a5,a5,a4
1000068e:	4558                	lw	a4,12(a0)
10000690:	97ba                	add	a5,a5,a4
10000692:	4918                	lw	a4,16(a0)
10000694:	97ba                	add	a5,a5,a4
10000696:	4958                	lw	a4,20(a0)
10000698:	97ba                	add	a5,a5,a4
1000069a:	4d18                	lw	a4,24(a0)
1000069c:	97ba                	add	a5,a5,a4
1000069e:	4d58                	lw	a4,28(a0)
100006a0:	97ba                	add	a5,a5,a4
100006a2:	4118                	lw	a4,0(a0)
100006a4:	20e74733          	sh2add	a4,a4,a4
100006a8:	97ba                	add	a5,a5,a4
100006aa:	06400513          	li	a0,100
100006ae:	0aa7c533          	min	a0,a5,a0
100006b2:	8082                	ret

100006b4 <generate_threat_report>:
100006b4:	1141                	addi	sp,sp,-16
100006b6:	c606                	sw	ra,12(sp)
100006b8:	c422                	sw	s0,8(sp)
100006ba:	c226                	sw	s1,4(sp)
100006bc:	84aa                	mv	s1,a0
100006be:	842e                	mv	s0,a1
100006c0:	00058023          	sb	zero,0(a1)
100006c4:	415c                	lw	a5,4(a0)
100006c6:	02f04d63          	bgtz	a5,10000700 <generate_threat_report+0x4c>
100006ca:	449c                	lw	a5,8(s1)
100006cc:	08f04763          	bgtz	a5,1000075a <generate_threat_report+0xa6>
100006d0:	44dc                	lw	a5,12(s1)
100006d2:	0ef04563          	bgtz	a5,100007bc <generate_threat_report+0x108>
100006d6:	489c                	lw	a5,16(s1)
100006d8:	14f04363          	bgtz	a5,1000081e <generate_threat_report+0x16a>
100006dc:	48dc                	lw	a5,20(s1)
100006de:	18f04d63          	bgtz	a5,10000878 <generate_threat_report+0x1c4>
100006e2:	4c9c                	lw	a5,24(s1)
100006e4:	1ef04f63          	bgtz	a5,100008e2 <generate_threat_report+0x22e>
100006e8:	4cdc                	lw	a5,28(s1)
100006ea:	20f04863          	bgtz	a5,100008fa <generate_threat_report+0x246>
100006ee:	00044783          	lbu	a5,0(s0)
100006f2:	26078d63          	beqz	a5,1000096c <generate_threat_report+0x2b8>
100006f6:	40b2                	lw	ra,12(sp)
100006f8:	4422                	lw	s0,8(sp)
100006fa:	4492                	lw	s1,4(sp)
100006fc:	0141                	addi	sp,sp,16
100006fe:	8082                	ret
10000700:	852e                	mv	a0,a1
10000702:	2e0080ef          	jal	100089e2 <strlen>
10000706:	9522                	add	a0,a0,s0
10000708:	100097b7          	lui	a5,0x10009
1000070c:	cc078793          	addi	a5,a5,-832 # 10008cc0 <__EH_FRAME_BEGIN__>
10000710:	0007ce03          	lbu	t3,0(a5)
10000714:	0017c303          	lbu	t1,1(a5)
10000718:	0027c883          	lbu	a7,2(a5)
1000071c:	0037c803          	lbu	a6,3(a5)
10000720:	0047c583          	lbu	a1,4(a5)
10000724:	0057c603          	lbu	a2,5(a5)
10000728:	0067c683          	lbu	a3,6(a5)
1000072c:	0077c703          	lbu	a4,7(a5)
10000730:	01c50023          	sb	t3,0(a0)
10000734:	006500a3          	sb	t1,1(a0)
10000738:	01150123          	sb	a7,2(a0)
1000073c:	010501a3          	sb	a6,3(a0)
10000740:	00b50223          	sb	a1,4(a0)
10000744:	00c502a3          	sb	a2,5(a0)
10000748:	00d50323          	sb	a3,6(a0)
1000074c:	00e503a3          	sb	a4,7(a0)
10000750:	0087c783          	lbu	a5,8(a5)
10000754:	00f50423          	sb	a5,8(a0)
10000758:	bf8d                	j	100006ca <generate_threat_report+0x16>
1000075a:	8522                	mv	a0,s0
1000075c:	286080ef          	jal	100089e2 <strlen>
10000760:	9522                	add	a0,a0,s0
10000762:	100097b7          	lui	a5,0x10009
10000766:	ccc78793          	addi	a5,a5,-820 # 10008ccc <__EH_FRAME_BEGIN__+0xc>
1000076a:	0007ce83          	lbu	t4,0(a5)
1000076e:	0017ce03          	lbu	t3,1(a5)
10000772:	0027c303          	lbu	t1,2(a5)
10000776:	0037c883          	lbu	a7,3(a5)
1000077a:	0047c803          	lbu	a6,4(a5)
1000077e:	0057c583          	lbu	a1,5(a5)
10000782:	0067c603          	lbu	a2,6(a5)
10000786:	0077c683          	lbu	a3,7(a5)
1000078a:	0087c703          	lbu	a4,8(a5)
1000078e:	01d50023          	sb	t4,0(a0)
10000792:	01c500a3          	sb	t3,1(a0)
10000796:	00650123          	sb	t1,2(a0)
1000079a:	011501a3          	sb	a7,3(a0)
1000079e:	01050223          	sb	a6,4(a0)
100007a2:	00b502a3          	sb	a1,5(a0)
100007a6:	00c50323          	sb	a2,6(a0)
100007aa:	00d503a3          	sb	a3,7(a0)
100007ae:	00e50423          	sb	a4,8(a0)
100007b2:	0097c783          	lbu	a5,9(a5)
100007b6:	00f504a3          	sb	a5,9(a0)
100007ba:	bf19                	j	100006d0 <generate_threat_report+0x1c>
100007bc:	8522                	mv	a0,s0
100007be:	224080ef          	jal	100089e2 <strlen>
100007c2:	9522                	add	a0,a0,s0
100007c4:	100097b7          	lui	a5,0x10009
100007c8:	cd878793          	addi	a5,a5,-808 # 10008cd8 <__EH_FRAME_BEGIN__+0x18>
100007cc:	0007ce83          	lbu	t4,0(a5)
100007d0:	0017ce03          	lbu	t3,1(a5)
100007d4:	0027c303          	lbu	t1,2(a5)
100007d8:	0037c883          	lbu	a7,3(a5)
100007dc:	0047c803          	lbu	a6,4(a5)
100007e0:	0057c583          	lbu	a1,5(a5)
100007e4:	0067c603          	lbu	a2,6(a5)
100007e8:	0077c683          	lbu	a3,7(a5)
100007ec:	0087c703          	lbu	a4,8(a5)
100007f0:	01d50023          	sb	t4,0(a0)
100007f4:	01c500a3          	sb	t3,1(a0)
100007f8:	00650123          	sb	t1,2(a0)
100007fc:	011501a3          	sb	a7,3(a0)
10000800:	01050223          	sb	a6,4(a0)
10000804:	00b502a3          	sb	a1,5(a0)
10000808:	00c50323          	sb	a2,6(a0)
1000080c:	00d503a3          	sb	a3,7(a0)
10000810:	00e50423          	sb	a4,8(a0)
10000814:	0097c783          	lbu	a5,9(a5)
10000818:	00f504a3          	sb	a5,9(a0)
1000081c:	bd6d                	j	100006d6 <generate_threat_report+0x22>
1000081e:	8522                	mv	a0,s0
10000820:	1c2080ef          	jal	100089e2 <strlen>
10000824:	9522                	add	a0,a0,s0
10000826:	100097b7          	lui	a5,0x10009
1000082a:	ce478793          	addi	a5,a5,-796 # 10008ce4 <__EH_FRAME_BEGIN__+0x24>
1000082e:	0007ce03          	lbu	t3,0(a5)
10000832:	0017c303          	lbu	t1,1(a5)
10000836:	0027c883          	lbu	a7,2(a5)
1000083a:	0037c803          	lbu	a6,3(a5)
1000083e:	0047c583          	lbu	a1,4(a5)
10000842:	0057c603          	lbu	a2,5(a5)
10000846:	0067c683          	lbu	a3,6(a5)
1000084a:	0077c703          	lbu	a4,7(a5)
1000084e:	01c50023          	sb	t3,0(a0)
10000852:	006500a3          	sb	t1,1(a0)
10000856:	01150123          	sb	a7,2(a0)
1000085a:	010501a3          	sb	a6,3(a0)
1000085e:	00b50223          	sb	a1,4(a0)
10000862:	00c502a3          	sb	a2,5(a0)
10000866:	00d50323          	sb	a3,6(a0)
1000086a:	00e503a3          	sb	a4,7(a0)
1000086e:	0087c783          	lbu	a5,8(a5)
10000872:	00f50423          	sb	a5,8(a0)
10000876:	b59d                	j	100006dc <generate_threat_report+0x28>
10000878:	8522                	mv	a0,s0
1000087a:	168080ef          	jal	100089e2 <strlen>
1000087e:	9522                	add	a0,a0,s0
10000880:	100097b7          	lui	a5,0x10009
10000884:	cf078793          	addi	a5,a5,-784 # 10008cf0 <__EH_FRAME_BEGIN__+0x30>
10000888:	0007cf03          	lbu	t5,0(a5)
1000088c:	0017ce83          	lbu	t4,1(a5)
10000890:	0027ce03          	lbu	t3,2(a5)
10000894:	0037c303          	lbu	t1,3(a5)
10000898:	0047c883          	lbu	a7,4(a5)
1000089c:	0057c803          	lbu	a6,5(a5)
100008a0:	0067c583          	lbu	a1,6(a5)
100008a4:	0077c603          	lbu	a2,7(a5)
100008a8:	0087c683          	lbu	a3,8(a5)
100008ac:	0097c703          	lbu	a4,9(a5)
100008b0:	01e50023          	sb	t5,0(a0)
100008b4:	01d500a3          	sb	t4,1(a0)
100008b8:	01c50123          	sb	t3,2(a0)
100008bc:	006501a3          	sb	t1,3(a0)
100008c0:	01150223          	sb	a7,4(a0)
100008c4:	010502a3          	sb	a6,5(a0)
100008c8:	00b50323          	sb	a1,6(a0)
100008cc:	00c503a3          	sb	a2,7(a0)
100008d0:	00d50423          	sb	a3,8(a0)
100008d4:	00e504a3          	sb	a4,9(a0)
100008d8:	00a7c783          	lbu	a5,10(a5)
100008dc:	00f50523          	sb	a5,10(a0)
100008e0:	b509                	j	100006e2 <generate_threat_report+0x2e>
100008e2:	8522                	mv	a0,s0
100008e4:	0fe080ef          	jal	100089e2 <strlen>
100008e8:	4639                	li	a2,14
100008ea:	100095b7          	lui	a1,0x10009
100008ee:	cfc58593          	addi	a1,a1,-772 # 10008cfc <__EH_FRAME_BEGIN__+0x3c>
100008f2:	9522                	add	a0,a0,s0
100008f4:	006080ef          	jal	100088fa <memcpy>
100008f8:	bbc5                	j	100006e8 <generate_threat_report+0x34>
100008fa:	8522                	mv	a0,s0
100008fc:	0e6080ef          	jal	100089e2 <strlen>
10000900:	9522                	add	a0,a0,s0
10000902:	100097b7          	lui	a5,0x10009
10000906:	d0c78793          	addi	a5,a5,-756 # 10008d0c <__EH_FRAME_BEGIN__+0x4c>
1000090a:	0007cf83          	lbu	t6,0(a5)
1000090e:	0017cf03          	lbu	t5,1(a5)
10000912:	0027ce83          	lbu	t4,2(a5)
10000916:	0037ce03          	lbu	t3,3(a5)
1000091a:	0047c303          	lbu	t1,4(a5)
1000091e:	0057c883          	lbu	a7,5(a5)
10000922:	0067c803          	lbu	a6,6(a5)
10000926:	0077c583          	lbu	a1,7(a5)
1000092a:	0087c603          	lbu	a2,8(a5)
1000092e:	0097c683          	lbu	a3,9(a5)
10000932:	00a7c703          	lbu	a4,10(a5)
10000936:	01f50023          	sb	t6,0(a0)
1000093a:	01e500a3          	sb	t5,1(a0)
1000093e:	01d50123          	sb	t4,2(a0)
10000942:	01c501a3          	sb	t3,3(a0)
10000946:	00650223          	sb	t1,4(a0)
1000094a:	011502a3          	sb	a7,5(a0)
1000094e:	01050323          	sb	a6,6(a0)
10000952:	00b503a3          	sb	a1,7(a0)
10000956:	00c50423          	sb	a2,8(a0)
1000095a:	00d504a3          	sb	a3,9(a0)
1000095e:	00e50523          	sb	a4,10(a0)
10000962:	00b7c783          	lbu	a5,11(a5)
10000966:	00f505a3          	sb	a5,11(a0)
1000096a:	b351                	j	100006ee <generate_threat_report+0x3a>
1000096c:	100097b7          	lui	a5,0x10009
10000970:	d1878793          	addi	a5,a5,-744 # 10008d18 <__EH_FRAME_BEGIN__+0x58>
10000974:	0007c503          	lbu	a0,0(a5)
10000978:	0017c583          	lbu	a1,1(a5)
1000097c:	0027c603          	lbu	a2,2(a5)
10000980:	0037c683          	lbu	a3,3(a5)
10000984:	0047c703          	lbu	a4,4(a5)
10000988:	00a40023          	sb	a0,0(s0)
1000098c:	00b400a3          	sb	a1,1(s0)
10000990:	00c40123          	sb	a2,2(s0)
10000994:	00d401a3          	sb	a3,3(s0)
10000998:	00e40223          	sb	a4,4(s0)
1000099c:	0057c783          	lbu	a5,5(a5)
100009a0:	00f402a3          	sb	a5,5(s0)
100009a4:	bb89                	j	100006f6 <generate_threat_report+0x42>

100009a6 <kernel_crypto_engine>:
100009a6:	7131                	addi	sp,sp,-192
100009a8:	df06                	sw	ra,188(sp)
100009aa:	dd22                	sw	s0,184(sp)
100009ac:	db26                	sw	s1,180(sp)
100009ae:	d94a                	sw	s2,176(sp)
100009b0:	892a                	mv	s2,a0
100009b2:	84ae                	mv	s1,a1
100009b4:	200045b7          	lui	a1,0x20004
100009b8:	b7858593          	addi	a1,a1,-1160 # 20003b78 <SECRET_KEY>
100009bc:	850a                	mv	a0,sp
100009be:	7f8000ef          	jal	100011b6 <AES_init_ctx>
100009c2:	4401                	li	s0,0
100009c4:	a039                	j	100009d2 <kernel_crypto_engine+0x2c>
100009c6:	008905b3          	add	a1,s2,s0
100009ca:	850a                	mv	a0,sp
100009cc:	7f6000ef          	jal	100011c2 <AES_ECB_encrypt>
100009d0:	0441                	addi	s0,s0,16
100009d2:	fe944ae3          	blt	s0,s1,100009c6 <kernel_crypto_engine+0x20>
100009d6:	50fa                	lw	ra,188(sp)
100009d8:	546a                	lw	s0,184(sp)
100009da:	54da                	lw	s1,180(sp)
100009dc:	594a                	lw	s2,176(sp)
100009de:	6129                	addi	sp,sp,192
100009e0:	8082                	ret

100009e2 <machine_exception_handler>:
100009e2:	715d                	addi	sp,sp,-80
100009e4:	c686                	sw	ra,76(sp)
100009e6:	c496                	sw	t0,72(sp)
100009e8:	c29a                	sw	t1,68(sp)
100009ea:	c09e                	sw	t2,64(sp)
100009ec:	de22                	sw	s0,60(sp)
100009ee:	dc2a                	sw	a0,56(sp)
100009f0:	da2e                	sw	a1,52(sp)
100009f2:	d832                	sw	a2,48(sp)
100009f4:	d636                	sw	a3,44(sp)
100009f6:	d43a                	sw	a4,40(sp)
100009f8:	d23e                	sw	a5,36(sp)
100009fa:	d042                	sw	a6,32(sp)
100009fc:	ce46                	sw	a7,28(sp)
100009fe:	cc72                	sw	t3,24(sp)
10000a00:	ca76                	sw	t4,20(sp)
10000a02:	c87a                	sw	t5,16(sp)
10000a04:	c67e                	sw	t6,12(sp)
10000a06:	342027f3          	csrr	a5,mcause
10000a0a:	34102473          	csrr	s0,mepc
10000a0e:	4721                	li	a4,8
10000a10:	00e78c63          	beq	a5,a4,10000a28 <machine_exception_handler+0x46>
10000a14:	ffb78713          	addi	a4,a5,-5
10000a18:	00173713          	seqz	a4,a4
10000a1c:	17e5                	addi	a5,a5,-7
10000a1e:	0017b793          	seqz	a5,a5
10000a22:	8fd9                	or	a5,a5,a4
10000a24:	e3a1                	bnez	a5,10000a64 <machine_exception_handler+0x82>
10000a26:	a001                	j	10000a26 <machine_exception_handler+0x44>
10000a28:	4785                	li	a5,1
10000a2a:	02f50963          	beq	a0,a5,10000a5c <machine_exception_handler+0x7a>
10000a2e:	0411                	addi	s0,s0,4
10000a30:	34141073          	csrw	mepc,s0
10000a34:	40b6                	lw	ra,76(sp)
10000a36:	42a6                	lw	t0,72(sp)
10000a38:	4316                	lw	t1,68(sp)
10000a3a:	4386                	lw	t2,64(sp)
10000a3c:	5472                	lw	s0,60(sp)
10000a3e:	5562                	lw	a0,56(sp)
10000a40:	55d2                	lw	a1,52(sp)
10000a42:	5642                	lw	a2,48(sp)
10000a44:	56b2                	lw	a3,44(sp)
10000a46:	5722                	lw	a4,40(sp)
10000a48:	5792                	lw	a5,36(sp)
10000a4a:	5802                	lw	a6,32(sp)
10000a4c:	48f2                	lw	a7,28(sp)
10000a4e:	4e62                	lw	t3,24(sp)
10000a50:	4ed2                	lw	t4,20(sp)
10000a52:	4f42                	lw	t5,16(sp)
10000a54:	4fb2                	lw	t6,12(sp)
10000a56:	6161                	addi	sp,sp,80
10000a58:	30200073          	mret
10000a5c:	852e                	mv	a0,a1
10000a5e:	45c1                	li	a1,16
10000a60:	3799                	jal	100009a6 <kernel_crypto_engine>
10000a62:	b7f1                	j	10000a2e <machine_exception_handler+0x4c>
10000a64:	200057b7          	lui	a5,0x20005
10000a68:	4705                	li	a4,1
10000a6a:	ece782a3          	sb	a4,-315(a5) # 20004ec5 <system_compromised>
10000a6e:	200057b7          	lui	a5,0x20005
10000a72:	e2c78793          	addi	a5,a5,-468 # 20004e2c <threat_reason>
10000a76:	10009737          	lui	a4,0x10009
10000a7a:	d2070713          	addi	a4,a4,-736 # 10008d20 <__EH_FRAME_BEGIN__+0x60>
10000a7e:	430c                	lw	a1,0(a4)
10000a80:	4350                	lw	a2,4(a4)
10000a82:	4714                	lw	a3,8(a4)
10000a84:	c38c                	sw	a1,0(a5)
10000a86:	c3d0                	sw	a2,4(a5)
10000a88:	c794                	sw	a3,8(a5)
10000a8a:	4754                	lw	a3,12(a4)
10000a8c:	c7d4                	sw	a3,12(a5)
10000a8e:	01075703          	lhu	a4,16(a4)
10000a92:	00e79823          	sh	a4,16(a5)
10000a96:	a001                	j	10000a96 <machine_exception_handler+0xb4>

10000a98 <switch_to_user_mode>:
10000a98:	300027f3          	csrr	a5,mstatus
10000a9c:	48b79793          	bclri	a5,a5,0xb
10000aa0:	48c79793          	bclri	a5,a5,0xc
10000aa4:	30079073          	csrw	mstatus,a5
10000aa8:	34151073          	csrw	mepc,a0
10000aac:	100017b7          	lui	a5,0x10001
10000ab0:	9e278793          	addi	a5,a5,-1566 # 100009e2 <machine_exception_handler>
10000ab4:	30579073          	csrw	mtvec,a5
10000ab8:	30200073          	mret
10000abc:	8082                	ret

10000abe <core1_entry>:
10000abe:	1141                	addi	sp,sp,-16
10000ac0:	c606                	sw	ra,12(sp)
10000ac2:	10001537          	lui	a0,0x10001
10000ac6:	adc50513          	addi	a0,a0,-1316 # 10000adc <sandbox_main>
10000aca:	37f9                	jal	10000a98 <switch_to_user_mode>
10000acc:	40b2                	lw	ra,12(sp)
10000ace:	0141                	addi	sp,sp,16
10000ad0:	8082                	ret

10000ad2 <syscall_encrypt_data>:
10000ad2:	85aa                	mv	a1,a0
10000ad4:	4505                	li	a0,1
10000ad6:	00000073          	ecall
10000ada:	8082                	ret

10000adc <sandbox_main>:
10000adc:	7141                	addi	sp,sp,-496
10000ade:	1e112623          	sw	ra,492(sp)
10000ae2:	1e812423          	sw	s0,488(sp)
10000ae6:	1e912223          	sw	s1,484(sp)
10000aea:	1f212023          	sw	s2,480(sp)
10000aee:	aa21                	j	10000c06 <sandbox_main+0x12a>
10000af0:	202027b7          	lui	a5,0x20202
10000af4:	02078793          	addi	a5,a5,32 # 20202020 <__StackTop+0x180020>
10000af8:	1cf12623          	sw	a5,460(sp)
10000afc:	1cf12823          	sw	a5,464(sp)
10000b00:	1cf12a23          	sw	a5,468(sp)
10000b04:	1cf12c23          	sw	a5,472(sp)
10000b08:	20005637          	lui	a2,0x20005
10000b0c:	dac60613          	addi	a2,a2,-596 # 20004dac <shared_input_buffer>
10000b10:	577d                	li	a4,-1
10000b12:	00460693          	addi	a3,a2,4
10000b16:	421c                	lw	a5,0(a2)
10000b18:	0611                	addi	a2,a2,4
10000b1a:	2877d793          	orc.b	a5,a5
10000b1e:	fee78ce3          	beq	a5,a4,10000b16 <sandbox_main+0x3a>
10000b22:	fff7c793          	not	a5,a5
10000b26:	60179793          	ctz	a5,a5
10000b2a:	838d                	srli	a5,a5,0x3
10000b2c:	963e                	add	a2,a2,a5
10000b2e:	8e15                	sub	a2,a2,a3
10000b30:	47c1                	li	a5,16
10000b32:	00c7d363          	bge	a5,a2,10000b38 <sandbox_main+0x5c>
10000b36:	863e                	mv	a2,a5
10000b38:	03e0                	addi	s0,sp,460
10000b3a:	200055b7          	lui	a1,0x20005
10000b3e:	dac58593          	addi	a1,a1,-596 # 20004dac <shared_input_buffer>
10000b42:	8522                	mv	a0,s0
10000b44:	5b7070ef          	jal	100088fa <memcpy>
10000b48:	1c010e23          	sb	zero,476(sp)
10000b4c:	8522                	mv	a0,s0
10000b4e:	3751                	jal	10000ad2 <syscall_encrypt_data>
10000b50:	415447b7          	lui	a5,0x41544
10000b54:	14478793          	addi	a5,a5,324 # 41544144 <__StackTop+0x214c2144>
10000b58:	c7be                	sw	a5,204(sp)
10000b5a:	6789                	lui	a5,0x2
10000b5c:	03a78793          	addi	a5,a5,58 # 203a <HeapSize+0x183a>
10000b60:	0cf11823          	sh	a5,208(sp)
10000b64:	0c010923          	sb	zero,210(sp)
10000b68:	4401                	li	s0,0
10000b6a:	47bd                	li	a5,15
10000b6c:	0487c163          	blt	a5,s0,10000bae <sandbox_main+0xd2>
10000b70:	01e8                	addi	a0,sp,204
10000b72:	577d                	li	a4,-1
10000b74:	411c                	lw	a5,0(a0)
10000b76:	0511                	addi	a0,a0,4
10000b78:	2877d793          	orc.b	a5,a5
10000b7c:	fee78ce3          	beq	a5,a4,10000b74 <sandbox_main+0x98>
10000b80:	fff7c793          	not	a5,a5
10000b84:	60179793          	ctz	a5,a5
10000b88:	838d                	srli	a5,a5,0x3
10000b8a:	953e                	add	a0,a0,a5
10000b8c:	099c                	addi	a5,sp,208
10000b8e:	8d1d                	sub	a0,a0,a5
10000b90:	1e040793          	addi	a5,s0,480
10000b94:	978a                	add	a5,a5,sp
10000b96:	fec7c603          	lbu	a2,-20(a5)
10000b9a:	100095b7          	lui	a1,0x10009
10000b9e:	dcc58593          	addi	a1,a1,-564 # 10008dcc <__EH_FRAME_BEGIN__+0x10c>
10000ba2:	01fc                	addi	a5,sp,204
10000ba4:	953e                	add	a0,a0,a5
10000ba6:	6aa030ef          	jal	10004250 <__wrap_sprintf>
10000baa:	0405                	addi	s0,s0,1
10000bac:	bf7d                	j	10000b6a <sandbox_main+0x8e>
10000bae:	01e8                	addi	a0,sp,204
10000bb0:	577d                	li	a4,-1
10000bb2:	411c                	lw	a5,0(a0)
10000bb4:	0511                	addi	a0,a0,4
10000bb6:	2877d793          	orc.b	a5,a5
10000bba:	fee78ce3          	beq	a5,a4,10000bb2 <sandbox_main+0xd6>
10000bbe:	fff7c793          	not	a5,a5
10000bc2:	60179793          	ctz	a5,a5
10000bc6:	838d                	srli	a5,a5,0x3
10000bc8:	953e                	add	a0,a0,a5
10000bca:	099c                	addi	a5,sp,208
10000bcc:	8d1d                	sub	a0,a0,a5
10000bce:	200057b7          	lui	a5,0x20005
10000bd2:	ec07a603          	lw	a2,-320(a5) # 20004ec0 <threat_score>
10000bd6:	01e0                	addi	s0,sp,204
10000bd8:	00f4                	addi	a3,sp,76
10000bda:	100095b7          	lui	a1,0x10009
10000bde:	dd458593          	addi	a1,a1,-556 # 10008dd4 <__EH_FRAME_BEGIN__+0x114>
10000be2:	9522                	add	a0,a0,s0
10000be4:	66c030ef          	jal	10004250 <__wrap_sprintf>
10000be8:	85a2                	mv	a1,s0
10000bea:	40078537          	lui	a0,0x40078
10000bee:	d6eff0ef          	jal	1000015c <uart_puts>
10000bf2:	10009537          	lui	a0,0x10009
10000bf6:	de450513          	addi	a0,a0,-540 # 10008de4 <__EH_FRAME_BEGIN__+0x124>
10000bfa:	1bd030ef          	jal	100045b6 <__wrap_puts>
10000bfe:	200057b7          	lui	a5,0x20005
10000c02:	ec078223          	sb	zero,-316(a5) # 20004ec4 <new_input_ready>
10000c06:	200057b7          	lui	a5,0x20005
10000c0a:	ec47c783          	lbu	a5,-316(a5) # 20004ec4 <new_input_ready>
10000c0e:	dfe5                	beqz	a5,10000c06 <sandbox_main+0x12a>
10000c10:	20005437          	lui	s0,0x20005
10000c14:	dac40593          	addi	a1,s0,-596 # 20004dac <shared_input_buffer>
10000c18:	10009537          	lui	a0,0x10009
10000c1c:	d3450513          	addi	a0,a0,-716 # 10008d34 <__EH_FRAME_BEGIN__+0x74>
10000c20:	207030ef          	jal	10004626 <__wrap_printf>
10000c24:	dac40593          	addi	a1,s0,-596
10000c28:	1068                	addi	a0,sp,44
10000c2a:	3a69                	jal	100005c4 <analyze_threat>
10000c2c:	57b2                	lw	a5,44(sp)
10000c2e:	c03e                	sw	a5,0(sp)
10000c30:	57c2                	lw	a5,48(sp)
10000c32:	c23e                	sw	a5,4(sp)
10000c34:	57d2                	lw	a5,52(sp)
10000c36:	c43e                	sw	a5,8(sp)
10000c38:	57e2                	lw	a5,56(sp)
10000c3a:	c63e                	sw	a5,12(sp)
10000c3c:	57f2                	lw	a5,60(sp)
10000c3e:	c83e                	sw	a5,16(sp)
10000c40:	4786                	lw	a5,64(sp)
10000c42:	ca3e                	sw	a5,20(sp)
10000c44:	4796                	lw	a5,68(sp)
10000c46:	cc3e                	sw	a5,24(sp)
10000c48:	47a6                	lw	a5,72(sp)
10000c4a:	ce3e                	sw	a5,28(sp)
10000c4c:	850a                	mv	a0,sp
10000c4e:	3c2d                	jal	10000688 <calculate_threat_score>
10000c50:	20005437          	lui	s0,0x20005
10000c54:	eca42023          	sw	a0,-320(s0) # 20004ec0 <threat_score>
10000c58:	57b2                	lw	a5,44(sp)
10000c5a:	c03e                	sw	a5,0(sp)
10000c5c:	57c2                	lw	a5,48(sp)
10000c5e:	c23e                	sw	a5,4(sp)
10000c60:	57d2                	lw	a5,52(sp)
10000c62:	c43e                	sw	a5,8(sp)
10000c64:	57e2                	lw	a5,56(sp)
10000c66:	c63e                	sw	a5,12(sp)
10000c68:	57f2                	lw	a5,60(sp)
10000c6a:	c83e                	sw	a5,16(sp)
10000c6c:	4786                	lw	a5,64(sp)
10000c6e:	ca3e                	sw	a5,20(sp)
10000c70:	4796                	lw	a5,68(sp)
10000c72:	cc3e                	sw	a5,24(sp)
10000c74:	47a6                	lw	a5,72(sp)
10000c76:	ce3e                	sw	a5,28(sp)
10000c78:	00e4                	addi	s1,sp,76
10000c7a:	85a6                	mv	a1,s1
10000c7c:	850a                	mv	a0,sp
10000c7e:	3c1d                	jal	100006b4 <generate_threat_report>
10000c80:	85a6                	mv	a1,s1
10000c82:	20005537          	lui	a0,0x20005
10000c86:	e2c50513          	addi	a0,a0,-468 # 20004e2c <threat_reason>
10000c8a:	5bd070ef          	jal	10008a46 <strcpy>
10000c8e:	ec042583          	lw	a1,-320(s0)
10000c92:	8626                	mv	a2,s1
10000c94:	10009537          	lui	a0,0x10009
10000c98:	d5050513          	addi	a0,a0,-688 # 10008d50 <__EH_FRAME_BEGIN__+0x90>
10000c9c:	18b030ef          	jal	10004626 <__wrap_printf>
10000ca0:	ec042703          	lw	a4,-320(s0)
10000ca4:	03100793          	li	a5,49
10000ca8:	e4e7d4e3          	bge	a5,a4,10000af0 <sandbox_main+0x14>
10000cac:	ec042603          	lw	a2,-320(s0)
10000cb0:	01e0                	addi	s0,sp,204
10000cb2:	86a6                	mv	a3,s1
10000cb4:	100095b7          	lui	a1,0x10009
10000cb8:	d7c58593          	addi	a1,a1,-644 # 10008d7c <__EH_FRAME_BEGIN__+0xbc>
10000cbc:	8522                	mv	a0,s0
10000cbe:	592030ef          	jal	10004250 <__wrap_sprintf>
10000cc2:	85a2                	mv	a1,s0
10000cc4:	40078537          	lui	a0,0x40078
10000cc8:	c94ff0ef          	jal	1000015c <uart_puts>
10000ccc:	10009537          	lui	a0,0x10009
10000cd0:	da450513          	addi	a0,a0,-604 # 10008da4 <__EH_FRAME_BEGIN__+0xe4>
10000cd4:	0e3030ef          	jal	100045b6 <__wrap_puts>
10000cd8:	b71d                	j	10000bfe <sandbox_main+0x122>

10000cda <main>:
10000cda:	7175                	addi	sp,sp,-144
10000cdc:	c706                	sw	ra,140(sp)
10000cde:	c522                	sw	s0,136(sp)
10000ce0:	0cb030ef          	jal	100045aa <stdio_init_all>
10000ce4:	7d000513          	li	a0,2000
10000ce8:	704010ef          	jal	100023ec <sleep_ms>
10000cec:	10009537          	lui	a0,0x10009
10000cf0:	e0850513          	addi	a0,a0,-504 # 10008e08 <__EH_FRAME_BEGIN__+0x148>
10000cf4:	0c3030ef          	jal	100045b6 <__wrap_puts>
10000cf8:	10009537          	lui	a0,0x10009
10000cfc:	e3450513          	addi	a0,a0,-460 # 10008e34 <__EH_FRAME_BEGIN__+0x174>
10000d00:	0b7030ef          	jal	100045b6 <__wrap_puts>
10000d04:	10009537          	lui	a0,0x10009
10000d08:	e6450513          	addi	a0,a0,-412 # 10008e64 <__EH_FRAME_BEGIN__+0x1a4>
10000d0c:	0ab030ef          	jal	100045b6 <__wrap_puts>
10000d10:	6589                	lui	a1,0x2
10000d12:	58058593          	addi	a1,a1,1408 # 2580 <HeapSize+0x1d80>
10000d16:	40078537          	lui	a0,0x40078
10000d1a:	2cb010ef          	jal	100027e4 <uart_init>
10000d1e:	4589                	li	a1,2
10000d20:	4511                	li	a0,4
10000d22:	294d                	jal	100011d4 <gpio_set_function>
10000d24:	4589                	li	a1,2
10000d26:	4515                	li	a0,5
10000d28:	2175                	jal	100011d4 <gpio_set_function>
10000d2a:	4681                	li	a3,0
10000d2c:	4605                	li	a2,1
10000d2e:	45a1                	li	a1,8
10000d30:	40078537          	lui	a0,0x40078
10000d34:	25d010ef          	jal	10002790 <uart_set_format>
10000d38:	6689                	lui	a3,0x2
10000d3a:	58068693          	addi	a3,a3,1408 # 2580 <HeapSize+0x1d80>
10000d3e:	4615                	li	a2,5
10000d40:	4591                	li	a1,4
10000d42:	10009537          	lui	a0,0x10009
10000d46:	e9050513          	addi	a0,a0,-368 # 10008e90 <__EH_FRAME_BEGIN__+0x1d0>
10000d4a:	0dd030ef          	jal	10004626 <__wrap_printf>
10000d4e:	10001537          	lui	a0,0x10001
10000d52:	abe50513          	addi	a0,a0,-1346 # 10000abe <core1_entry>
10000d56:	53a070ef          	jal	10008290 <multicore_launch_core1>
10000d5a:	10009537          	lui	a0,0x10009
10000d5e:	ed050513          	addi	a0,a0,-304 # 10008ed0 <__EH_FRAME_BEGIN__+0x210>
10000d62:	055030ef          	jal	100045b6 <__wrap_puts>
10000d66:	100095b7          	lui	a1,0x10009
10000d6a:	ef458593          	addi	a1,a1,-268 # 10008ef4 <__EH_FRAME_BEGIN__+0x234>
10000d6e:	40078537          	lui	a0,0x40078
10000d72:	beaff0ef          	jal	1000015c <uart_puts>
10000d76:	10009537          	lui	a0,0x10009
10000d7a:	f0450513          	addi	a0,a0,-252 # 10008f04 <__EH_FRAME_BEGIN__+0x244>
10000d7e:	039030ef          	jal	100045b6 <__wrap_puts>
10000d82:	10009537          	lui	a0,0x10009
10000d86:	f2c50513          	addi	a0,a0,-212 # 10008f2c <__EH_FRAME_BEGIN__+0x26c>
10000d8a:	02d030ef          	jal	100045b6 <__wrap_puts>
10000d8e:	4401                	li	s0,0
10000d90:	a051                	j	10000e14 <main+0x13a>
10000d92:	858a                	mv	a1,sp
10000d94:	10009537          	lui	a0,0x10009
10000d98:	fc050513          	addi	a0,a0,-64 # 10008fc0 <__EH_FRAME_BEGIN__+0x300>
10000d9c:	08b030ef          	jal	10004626 <__wrap_printf>
10000da0:	858a                	mv	a1,sp
10000da2:	20005537          	lui	a0,0x20005
10000da6:	dac50513          	addi	a0,a0,-596 # 20004dac <shared_input_buffer>
10000daa:	49d070ef          	jal	10008a46 <strcpy>
10000dae:	200057b7          	lui	a5,0x20005
10000db2:	4705                	li	a4,1
10000db4:	ece78223          	sb	a4,-316(a5) # 20004ec4 <new_input_ready>
10000db8:	4529                	li	a0,10
10000dba:	632010ef          	jal	100023ec <sleep_ms>
10000dbe:	4401                	li	s0,0
10000dc0:	a819                	j	10000dd6 <main+0xfc>
10000dc2:	07e00793          	li	a5,126
10000dc6:	0087c863          	blt	a5,s0,10000dd6 <main+0xfc>
10000dca:	08040793          	addi	a5,s0,128
10000dce:	978a                	add	a5,a5,sp
10000dd0:	f8a78023          	sb	a0,-128(a5)
10000dd4:	0405                	addi	s0,s0,1
10000dd6:	400787b7          	lui	a5,0x40078
10000dda:	4f9c                	lw	a5,24(a5)
10000ddc:	8bc1                	andi	a5,a5,16
10000dde:	eb85                	bnez	a5,10000e0e <main+0x134>
10000de0:	40078537          	lui	a0,0x40078
10000de4:	bccff0ef          	jal	100001b0 <uart_getc>
10000de8:	ff650793          	addi	a5,a0,-10 # 40077ff6 <__StackTop+0x1fff5ff6>
10000dec:	0017b793          	seqz	a5,a5
10000df0:	ff350713          	addi	a4,a0,-13
10000df4:	00173713          	seqz	a4,a4
10000df8:	8fd9                	or	a5,a5,a4
10000dfa:	d7e1                	beqz	a5,10000dc2 <main+0xe8>
10000dfc:	08040793          	addi	a5,s0,128
10000e00:	978a                	add	a5,a5,sp
10000e02:	f8078023          	sb	zero,-128(a5) # 40077f80 <__StackTop+0x1fff5f80>
10000e06:	f88046e3          	bgtz	s0,10000d92 <main+0xb8>
10000e0a:	4401                	li	s0,0
10000e0c:	b7e9                	j	10000dd6 <main+0xfc>
10000e0e:	4529                	li	a0,10
10000e10:	5dc010ef          	jal	100023ec <sleep_ms>
10000e14:	200057b7          	lui	a5,0x20005
10000e18:	ec57c783          	lbu	a5,-315(a5) # 20004ec5 <system_compromised>
10000e1c:	dfcd                	beqz	a5,10000dd6 <main+0xfc>
10000e1e:	10009537          	lui	a0,0x10009
10000e22:	f5850513          	addi	a0,a0,-168 # 10008f58 <__EH_FRAME_BEGIN__+0x298>
10000e26:	790030ef          	jal	100045b6 <__wrap_puts>
10000e2a:	100095b7          	lui	a1,0x10009
10000e2e:	f9458593          	addi	a1,a1,-108 # 10008f94 <__EH_FRAME_BEGIN__+0x2d4>
10000e32:	40078537          	lui	a0,0x40078
10000e36:	b26ff0ef          	jal	1000015c <uart_puts>
10000e3a:	3e800513          	li	a0,1000
10000e3e:	5ae010ef          	jal	100023ec <sleep_ms>
10000e42:	bfe5                	j	10000e3a <main+0x160>

10000e44 <KeyExpansion>:
10000e44:	4701                	li	a4,0
10000e46:	a0b1                	j	10000e92 <KeyExpansion+0x4e>
10000e48:	00271793          	slli	a5,a4,0x2
10000e4c:	20a746b3          	sh2add	a3,a4,a0
10000e50:	20b74633          	sh2add	a2,a4,a1
10000e54:	00064603          	lbu	a2,0(a2)
10000e58:	00c68023          	sb	a2,0(a3)
10000e5c:	00178693          	addi	a3,a5,1
10000e60:	00d50633          	add	a2,a0,a3
10000e64:	96ae                	add	a3,a3,a1
10000e66:	0006c683          	lbu	a3,0(a3)
10000e6a:	00d60023          	sb	a3,0(a2)
10000e6e:	00278693          	addi	a3,a5,2
10000e72:	00d50633          	add	a2,a0,a3
10000e76:	96ae                	add	a3,a3,a1
10000e78:	0006c683          	lbu	a3,0(a3)
10000e7c:	00d60023          	sb	a3,0(a2)
10000e80:	078d                	addi	a5,a5,3
10000e82:	00f506b3          	add	a3,a0,a5
10000e86:	97ae                	add	a5,a5,a1
10000e88:	0007c783          	lbu	a5,0(a5)
10000e8c:	00f68023          	sb	a5,0(a3)
10000e90:	0705                	addi	a4,a4,1
10000e92:	478d                	li	a5,3
10000e94:	fae7fae3          	bgeu	a5,a4,10000e48 <KeyExpansion+0x4>
10000e98:	4791                	li	a5,4
10000e9a:	02b00713          	li	a4,43
10000e9e:	12f76263          	bltu	a4,a5,10000fc2 <KeyExpansion+0x17e>
10000ea2:	1141                	addi	sp,sp,-16
10000ea4:	a8bd                	j	10000f22 <KeyExpansion+0xde>
10000ea6:	00279713          	slli	a4,a5,0x2
10000eaa:	ffc78613          	addi	a2,a5,-4
10000eae:	00261693          	slli	a3,a2,0x2
10000eb2:	20a64633          	sh2add	a2,a2,a0
10000eb6:	00064603          	lbu	a2,0(a2)
10000eba:	00c14803          	lbu	a6,12(sp)
10000ebe:	20a7c5b3          	sh2add	a1,a5,a0
10000ec2:	01064633          	xor	a2,a2,a6
10000ec6:	00c58023          	sb	a2,0(a1)
10000eca:	00168613          	addi	a2,a3,1
10000ece:	962a                	add	a2,a2,a0
10000ed0:	00064583          	lbu	a1,0(a2)
10000ed4:	00d14803          	lbu	a6,13(sp)
10000ed8:	00170613          	addi	a2,a4,1
10000edc:	962a                	add	a2,a2,a0
10000ede:	0105c5b3          	xor	a1,a1,a6
10000ee2:	00b60023          	sb	a1,0(a2)
10000ee6:	00268613          	addi	a2,a3,2
10000eea:	962a                	add	a2,a2,a0
10000eec:	00064583          	lbu	a1,0(a2)
10000ef0:	00e14803          	lbu	a6,14(sp)
10000ef4:	00270613          	addi	a2,a4,2
10000ef8:	962a                	add	a2,a2,a0
10000efa:	0105c5b3          	xor	a1,a1,a6
10000efe:	00b60023          	sb	a1,0(a2)
10000f02:	068d                	addi	a3,a3,3
10000f04:	96aa                	add	a3,a3,a0
10000f06:	0006c683          	lbu	a3,0(a3)
10000f0a:	00f14603          	lbu	a2,15(sp)
10000f0e:	070d                	addi	a4,a4,3
10000f10:	972a                	add	a4,a4,a0
10000f12:	8eb1                	xor	a3,a3,a2
10000f14:	00d70023          	sb	a3,0(a4)
10000f18:	0785                	addi	a5,a5,1
10000f1a:	02b00713          	li	a4,43
10000f1e:	0af76063          	bltu	a4,a5,10000fbe <KeyExpansion+0x17a>
10000f22:	fff78693          	addi	a3,a5,-1
10000f26:	00269713          	slli	a4,a3,0x2
10000f2a:	20a6c6b3          	sh2add	a3,a3,a0
10000f2e:	0006c803          	lbu	a6,0(a3)
10000f32:	01010623          	sb	a6,12(sp)
10000f36:	00170693          	addi	a3,a4,1
10000f3a:	96aa                	add	a3,a3,a0
10000f3c:	0006c583          	lbu	a1,0(a3)
10000f40:	00b106a3          	sb	a1,13(sp)
10000f44:	00270693          	addi	a3,a4,2
10000f48:	96aa                	add	a3,a3,a0
10000f4a:	0006c603          	lbu	a2,0(a3)
10000f4e:	00c10723          	sb	a2,14(sp)
10000f52:	070d                	addi	a4,a4,3
10000f54:	972a                	add	a4,a4,a0
10000f56:	00074683          	lbu	a3,0(a4)
10000f5a:	00d107a3          	sb	a3,15(sp)
10000f5e:	0037f713          	andi	a4,a5,3
10000f62:	f331                	bnez	a4,10000ea6 <KeyExpansion+0x62>
10000f64:	00b10623          	sb	a1,12(sp)
10000f68:	00c106a3          	sb	a2,13(sp)
10000f6c:	00d10723          	sb	a3,14(sp)
10000f70:	010107a3          	sb	a6,15(sp)
10000f74:	1000a737          	lui	a4,0x1000a
10000f78:	a1c70713          	addi	a4,a4,-1508 # 10009a1c <sbox>
10000f7c:	95ba                	add	a1,a1,a4
10000f7e:	0005c583          	lbu	a1,0(a1)
10000f82:	00b10623          	sb	a1,12(sp)
10000f86:	963a                	add	a2,a2,a4
10000f88:	00064603          	lbu	a2,0(a2)
10000f8c:	00c106a3          	sb	a2,13(sp)
10000f90:	96ba                	add	a3,a3,a4
10000f92:	0006c683          	lbu	a3,0(a3)
10000f96:	00d10723          	sb	a3,14(sp)
10000f9a:	9742                	add	a4,a4,a6
10000f9c:	00074703          	lbu	a4,0(a4)
10000fa0:	00e107a3          	sb	a4,15(sp)
10000fa4:	0027d693          	srli	a3,a5,0x2
10000fa8:	1000a737          	lui	a4,0x1000a
10000fac:	a1070713          	addi	a4,a4,-1520 # 10009a10 <Rcon>
10000fb0:	9736                	add	a4,a4,a3
10000fb2:	00074703          	lbu	a4,0(a4)
10000fb6:	8db9                	xor	a1,a1,a4
10000fb8:	00b10623          	sb	a1,12(sp)
10000fbc:	b5ed                	j	10000ea6 <KeyExpansion+0x62>
10000fbe:	0141                	addi	sp,sp,16
10000fc0:	8082                	ret
10000fc2:	8082                	ret

10000fc4 <AddRoundKey>:
10000fc4:	4881                	li	a7,0
10000fc6:	a80d                	j	10000ff8 <AddRoundKey+0x34>
10000fc8:	20e8c7b3          	sh2add	a5,a7,a4
10000fcc:	00f58833          	add	a6,a1,a5
10000fd0:	00084683          	lbu	a3,0(a6)
10000fd4:	00451313          	slli	t1,a0,0x4
10000fd8:	979a                	add	a5,a5,t1
10000fda:	97b2                	add	a5,a5,a2
10000fdc:	0007c783          	lbu	a5,0(a5)
10000fe0:	8fb5                	xor	a5,a5,a3
10000fe2:	00f80023          	sb	a5,0(a6)
10000fe6:	0705                	addi	a4,a4,1
10000fe8:	0ff77713          	zext.b	a4,a4
10000fec:	478d                	li	a5,3
10000fee:	fce7fde3          	bgeu	a5,a4,10000fc8 <AddRoundKey+0x4>
10000ff2:	0885                	addi	a7,a7,1
10000ff4:	0ff8f893          	zext.b	a7,a7
10000ff8:	478d                	li	a5,3
10000ffa:	0117e463          	bltu	a5,a7,10001002 <AddRoundKey+0x3e>
10000ffe:	4701                	li	a4,0
10001000:	b7f5                	j	10000fec <AddRoundKey+0x28>
10001002:	8082                	ret

10001004 <SubBytes>:
10001004:	4781                	li	a5,0
10001006:	a00d                	j	10001028 <SubBytes+0x24>
10001008:	00f506b3          	add	a3,a0,a5
1000100c:	0006c603          	lbu	a2,0(a3)
10001010:	1000a737          	lui	a4,0x1000a
10001014:	a1c70713          	addi	a4,a4,-1508 # 10009a1c <sbox>
10001018:	9732                	add	a4,a4,a2
1000101a:	00074703          	lbu	a4,0(a4)
1000101e:	00e68023          	sb	a4,0(a3)
10001022:	0785                	addi	a5,a5,1
10001024:	0ff7f793          	zext.b	a5,a5
10001028:	473d                	li	a4,15
1000102a:	fcf77fe3          	bgeu	a4,a5,10001008 <SubBytes+0x4>
1000102e:	8082                	ret

10001030 <ShiftRows>:
10001030:	00154783          	lbu	a5,1(a0) # 40078001 <__StackTop+0x1fff6001>
10001034:	00554703          	lbu	a4,5(a0)
10001038:	00e500a3          	sb	a4,1(a0)
1000103c:	00954703          	lbu	a4,9(a0)
10001040:	00e502a3          	sb	a4,5(a0)
10001044:	00d54703          	lbu	a4,13(a0)
10001048:	00e504a3          	sb	a4,9(a0)
1000104c:	00f506a3          	sb	a5,13(a0)
10001050:	00254783          	lbu	a5,2(a0)
10001054:	00a54703          	lbu	a4,10(a0)
10001058:	00e50123          	sb	a4,2(a0)
1000105c:	00f50523          	sb	a5,10(a0)
10001060:	00654783          	lbu	a5,6(a0)
10001064:	00e54703          	lbu	a4,14(a0)
10001068:	00e50323          	sb	a4,6(a0)
1000106c:	00f50723          	sb	a5,14(a0)
10001070:	00354783          	lbu	a5,3(a0)
10001074:	00f54703          	lbu	a4,15(a0)
10001078:	00e501a3          	sb	a4,3(a0)
1000107c:	00b54703          	lbu	a4,11(a0)
10001080:	00e507a3          	sb	a4,15(a0)
10001084:	00754703          	lbu	a4,7(a0)
10001088:	00e505a3          	sb	a4,11(a0)
1000108c:	00f503a3          	sb	a5,7(a0)
10001090:	8082                	ret

10001092 <xtime>:
10001092:	00755713          	srli	a4,a0,0x7
10001096:	00371793          	slli	a5,a4,0x3
1000109a:	8f99                	sub	a5,a5,a4
1000109c:	078a                	slli	a5,a5,0x2
1000109e:	8f99                	sub	a5,a5,a4
100010a0:	0506                	slli	a0,a0,0x1
100010a2:	8d3d                	xor	a0,a0,a5
100010a4:	0ff57513          	zext.b	a0,a0
100010a8:	8082                	ret

100010aa <MixColumns>:
100010aa:	7179                	addi	sp,sp,-48
100010ac:	d606                	sw	ra,44(sp)
100010ae:	d422                	sw	s0,40(sp)
100010b0:	d226                	sw	s1,36(sp)
100010b2:	d04a                	sw	s2,32(sp)
100010b4:	ce4e                	sw	s3,28(sp)
100010b6:	cc52                	sw	s4,24(sp)
100010b8:	ca56                	sw	s5,20(sp)
100010ba:	c85a                	sw	s6,16(sp)
100010bc:	c65e                	sw	s7,12(sp)
100010be:	8aaa                	mv	s5,a0
100010c0:	4901                	li	s2,0
100010c2:	a069                	j	1000114c <MixColumns+0xa2>
100010c4:	00291413          	slli	s0,s2,0x2
100010c8:	21594bb3          	sh2add	s7,s2,s5
100010cc:	000bcb03          	lbu	s6,0(s7)
100010d0:	00140a13          	addi	s4,s0,1
100010d4:	9a56                	add	s4,s4,s5
100010d6:	000a4503          	lbu	a0,0(s4)
100010da:	01654533          	xor	a0,a0,s6
100010de:	00240993          	addi	s3,s0,2
100010e2:	99d6                	add	s3,s3,s5
100010e4:	0009c783          	lbu	a5,0(s3)
100010e8:	040d                	addi	s0,s0,3
100010ea:	9456                	add	s0,s0,s5
100010ec:	00044483          	lbu	s1,0(s0)
100010f0:	8fa9                	xor	a5,a5,a0
100010f2:	8cbd                	xor	s1,s1,a5
100010f4:	3f79                	jal	10001092 <xtime>
100010f6:	00a4c7b3          	xor	a5,s1,a0
100010fa:	00fb47b3          	xor	a5,s6,a5
100010fe:	00fb8023          	sb	a5,0(s7)
10001102:	000a4b83          	lbu	s7,0(s4)
10001106:	0009c503          	lbu	a0,0(s3)
1000110a:	00abc533          	xor	a0,s7,a0
1000110e:	3751                	jal	10001092 <xtime>
10001110:	8d25                	xor	a0,a0,s1
10001112:	00abcbb3          	xor	s7,s7,a0
10001116:	017a0023          	sb	s7,0(s4)
1000111a:	0009ca03          	lbu	s4,0(s3)
1000111e:	00044503          	lbu	a0,0(s0)
10001122:	00aa4533          	xor	a0,s4,a0
10001126:	37b5                	jal	10001092 <xtime>
10001128:	8d25                	xor	a0,a0,s1
1000112a:	00aa4a33          	xor	s4,s4,a0
1000112e:	01498023          	sb	s4,0(s3)
10001132:	00044983          	lbu	s3,0(s0)
10001136:	0169c533          	xor	a0,s3,s6
1000113a:	3fa1                	jal	10001092 <xtime>
1000113c:	8ca9                	xor	s1,s1,a0
1000113e:	0099c9b3          	xor	s3,s3,s1
10001142:	01340023          	sb	s3,0(s0)
10001146:	0905                	addi	s2,s2,1
10001148:	0ff97913          	zext.b	s2,s2
1000114c:	478d                	li	a5,3
1000114e:	f727fbe3          	bgeu	a5,s2,100010c4 <MixColumns+0x1a>
10001152:	50b2                	lw	ra,44(sp)
10001154:	5422                	lw	s0,40(sp)
10001156:	5492                	lw	s1,36(sp)
10001158:	5902                	lw	s2,32(sp)
1000115a:	49f2                	lw	s3,28(sp)
1000115c:	4a62                	lw	s4,24(sp)
1000115e:	4ad2                	lw	s5,20(sp)
10001160:	4b42                	lw	s6,16(sp)
10001162:	4bb2                	lw	s7,12(sp)
10001164:	6145                	addi	sp,sp,48
10001166:	8082                	ret

10001168 <Cipher>:
10001168:	1141                	addi	sp,sp,-16
1000116a:	c606                	sw	ra,12(sp)
1000116c:	c422                	sw	s0,8(sp)
1000116e:	c226                	sw	s1,4(sp)
10001170:	c04a                	sw	s2,0(sp)
10001172:	84aa                	mv	s1,a0
10001174:	892e                	mv	s2,a1
10001176:	862e                	mv	a2,a1
10001178:	85aa                	mv	a1,a0
1000117a:	4501                	li	a0,0
1000117c:	35a1                	jal	10000fc4 <AddRoundKey>
1000117e:	4405                	li	s0,1
10001180:	8526                	mv	a0,s1
10001182:	3549                	jal	10001004 <SubBytes>
10001184:	8526                	mv	a0,s1
10001186:	356d                	jal	10001030 <ShiftRows>
10001188:	47a9                	li	a5,10
1000118a:	00f40c63          	beq	s0,a5,100011a2 <Cipher+0x3a>
1000118e:	8526                	mv	a0,s1
10001190:	3f29                	jal	100010aa <MixColumns>
10001192:	864a                	mv	a2,s2
10001194:	85a6                	mv	a1,s1
10001196:	8522                	mv	a0,s0
10001198:	3535                	jal	10000fc4 <AddRoundKey>
1000119a:	0405                	addi	s0,s0,1
1000119c:	0ff47413          	zext.b	s0,s0
100011a0:	b7c5                	j	10001180 <Cipher+0x18>
100011a2:	864a                	mv	a2,s2
100011a4:	85a6                	mv	a1,s1
100011a6:	4529                	li	a0,10
100011a8:	3d31                	jal	10000fc4 <AddRoundKey>
100011aa:	40b2                	lw	ra,12(sp)
100011ac:	4422                	lw	s0,8(sp)
100011ae:	4492                	lw	s1,4(sp)
100011b0:	4902                	lw	s2,0(sp)
100011b2:	0141                	addi	sp,sp,16
100011b4:	8082                	ret

100011b6 <AES_init_ctx>:
100011b6:	1141                	addi	sp,sp,-16
100011b8:	c606                	sw	ra,12(sp)
100011ba:	3169                	jal	10000e44 <KeyExpansion>
100011bc:	40b2                	lw	ra,12(sp)
100011be:	0141                	addi	sp,sp,16
100011c0:	8082                	ret

100011c2 <AES_ECB_encrypt>:
100011c2:	1141                	addi	sp,sp,-16
100011c4:	c606                	sw	ra,12(sp)
100011c6:	87ae                	mv	a5,a1
100011c8:	85aa                	mv	a1,a0
100011ca:	853e                	mv	a0,a5
100011cc:	3f71                	jal	10001168 <Cipher>
100011ce:	40b2                	lw	ra,12(sp)
100011d0:	0141                	addi	sp,sp,16
100011d2:	8082                	ret

100011d4 <gpio_set_function>:
100011d4:	400387b7          	lui	a5,0x40038
100011d8:	0791                	addi	a5,a5,4 # 40038004 <__StackTop+0x1ffb6004>
100011da:	20f547b3          	sh2add	a5,a0,a5
100011de:	4398                	lw	a4,0(a5)
100011e0:	04074713          	xori	a4,a4,64
100011e4:	0c077713          	andi	a4,a4,192
100011e8:	6685                	lui	a3,0x1
100011ea:	96be                	add	a3,a3,a5
100011ec:	c298                	sw	a4,0(a3)
100011ee:	40028737          	lui	a4,0x40028
100011f2:	20e56533          	sh3add	a0,a0,a4
100011f6:	c14c                	sw	a1,4(a0)
100011f8:	670d                	lui	a4,0x3
100011fa:	97ba                	add	a5,a5,a4
100011fc:	10000713          	li	a4,256
10001200:	c398                	sw	a4,0(a5)
10001202:	8082                	ret

10001204 <panic>:
10001204:	7139                	addi	sp,sp,-64
10001206:	ce06                	sw	ra,28(sp)
10001208:	cc22                	sw	s0,24(sp)
1000120a:	842a                	mv	s0,a0
1000120c:	d22e                	sw	a1,36(sp)
1000120e:	d432                	sw	a2,40(sp)
10001210:	d636                	sw	a3,44(sp)
10001212:	d83a                	sw	a4,48(sp)
10001214:	da3e                	sw	a5,52(sp)
10001216:	dc42                	sw	a6,56(sp)
10001218:	de46                	sw	a7,60(sp)
1000121a:	10009537          	lui	a0,0x10009
1000121e:	0ac50513          	addi	a0,a0,172 # 100090ac <__EH_FRAME_BEGIN__+0x3ec>
10001222:	394030ef          	jal	100045b6 <__wrap_puts>
10001226:	cc01                	beqz	s0,1000123e <panic+0x3a>
10001228:	104c                	addi	a1,sp,36
1000122a:	c62e                	sw	a1,12(sp)
1000122c:	8522                	mv	a0,s0
1000122e:	3b0030ef          	jal	100045de <__wrap_vprintf>
10001232:	10009537          	lui	a0,0x10009
10001236:	fe050513          	addi	a0,a0,-32 # 10008fe0 <__EH_FRAME_BEGIN__+0x320>
1000123a:	37c030ef          	jal	100045b6 <__wrap_puts>
1000123e:	4505                	li	a0,1
10001240:	07e030ef          	jal	100042be <_exit>

10001244 <hw_claim_lock>:
10001244:	30047573          	csrrci	a0,mstatus,8
10001248:	200047b7          	lui	a5,0x20004
1000124c:	52f78793          	addi	a5,a5,1327 # 2000452f <_sw_spin_locks+0xb>
10001250:	00379713          	slli	a4,a5,0x3
10001254:	28e01733          	bset	a4,zero,a4
10001258:	9bf1                	andi	a5,a5,-4
1000125a:	44e7a6af          	amoor.w.aq	a3,a4,(a5)
1000125e:	8ef9                	and	a3,a3,a4
10001260:	feed                	bnez	a3,1000125a <hw_claim_lock+0x16>
10001262:	0330000f          	fence	rw,rw
10001266:	8082                	ret

10001268 <hw_claim_unlock>:
10001268:	0330000f          	fence	rw,rw
1000126c:	200047b7          	lui	a5,0x20004
10001270:	52478793          	addi	a5,a5,1316 # 20004524 <_sw_spin_locks>
10001274:	000785a3          	sb	zero,11(a5)
10001278:	8921                	andi	a0,a0,8
1000127a:	30052073          	csrs	mstatus,a0
1000127e:	8082                	ret

10001280 <hw_claim_or_assert>:
10001280:	1141                	addi	sp,sp,-16
10001282:	c606                	sw	ra,12(sp)
10001284:	c422                	sw	s0,8(sp)
10001286:	c226                	sw	s1,4(sp)
10001288:	c04a                	sw	s2,0(sp)
1000128a:	84aa                	mv	s1,a0
1000128c:	842e                	mv	s0,a1
1000128e:	8932                	mv	s2,a2
10001290:	3f55                	jal	10001244 <hw_claim_lock>
10001292:	00345793          	srli	a5,s0,0x3
10001296:	00f48733          	add	a4,s1,a5
1000129a:	00074683          	lbu	a3,0(a4) # 3000 <HeapSize+0x2800>
1000129e:	00747793          	andi	a5,s0,7
100012a2:	28f017b3          	bset	a5,zero,a5
100012a6:	00f6f633          	and	a2,a3,a5
100012aa:	ee09                	bnez	a2,100012c4 <hw_claim_or_assert+0x44>
100012ac:	0ff7f793          	zext.b	a5,a5
100012b0:	8fd5                	or	a5,a5,a3
100012b2:	00f70023          	sb	a5,0(a4)
100012b6:	3f4d                	jal	10001268 <hw_claim_unlock>
100012b8:	40b2                	lw	ra,12(sp)
100012ba:	4422                	lw	s0,8(sp)
100012bc:	4492                	lw	s1,4(sp)
100012be:	4902                	lw	s2,0(sp)
100012c0:	0141                	addi	sp,sp,16
100012c2:	8082                	ret
100012c4:	85a2                	mv	a1,s0
100012c6:	854a                	mv	a0,s2
100012c8:	3f35                	jal	10001204 <panic>

100012ca <hw_claim_unused_from_range>:
100012ca:	1101                	addi	sp,sp,-32
100012cc:	ce06                	sw	ra,28(sp)
100012ce:	cc22                	sw	s0,24(sp)
100012d0:	ca26                	sw	s1,20(sp)
100012d2:	c84a                	sw	s2,16(sp)
100012d4:	c64e                	sw	s3,12(sp)
100012d6:	c452                	sw	s4,8(sp)
100012d8:	892a                	mv	s2,a0
100012da:	89ae                	mv	s3,a1
100012dc:	8432                	mv	s0,a2
100012de:	84b6                	mv	s1,a3
100012e0:	8a3a                	mv	s4,a4
100012e2:	378d                	jal	10001244 <hw_claim_lock>
100012e4:	a011                	j	100012e8 <hw_claim_unused_from_range+0x1e>
100012e6:	0405                	addi	s0,s0,1
100012e8:	0284e663          	bltu	s1,s0,10001314 <hw_claim_unused_from_range+0x4a>
100012ec:	00345613          	srli	a2,s0,0x3
100012f0:	964a                	add	a2,a2,s2
100012f2:	00064803          	lbu	a6,0(a2)
100012f6:	00747793          	andi	a5,s0,7
100012fa:	28f017b3          	bset	a5,zero,a5
100012fe:	00f878b3          	and	a7,a6,a5
10001302:	fe0892e3          	bnez	a7,100012e6 <hw_claim_unused_from_range+0x1c>
10001306:	0ff7f793          	zext.b	a5,a5
1000130a:	0107e7b3          	or	a5,a5,a6
1000130e:	00f60023          	sb	a5,0(a2)
10001312:	a011                	j	10001316 <hw_claim_unused_from_range+0x4c>
10001314:	547d                	li	s0,-1
10001316:	3f89                	jal	10001268 <hw_claim_unlock>
10001318:	01f45793          	srli	a5,s0,0x1f
1000131c:	0137f7b3          	and	a5,a5,s3
10001320:	eb91                	bnez	a5,10001334 <hw_claim_unused_from_range+0x6a>
10001322:	8522                	mv	a0,s0
10001324:	40f2                	lw	ra,28(sp)
10001326:	4462                	lw	s0,24(sp)
10001328:	44d2                	lw	s1,20(sp)
1000132a:	4942                	lw	s2,16(sp)
1000132c:	49b2                	lw	s3,12(sp)
1000132e:	4a22                	lw	s4,8(sp)
10001330:	6105                	addi	sp,sp,32
10001332:	8082                	ret
10001334:	8552                	mv	a0,s4
10001336:	35f9                	jal	10001204 <panic>

10001338 <next_striped_spin_lock_num>:
10001338:	20004737          	lui	a4,0x20004
1000133c:	f2074503          	lbu	a0,-224(a4) # 20003f20 <striped_spin_lock_num>
10001340:	00150793          	addi	a5,a0,1
10001344:	0ff7f793          	zext.b	a5,a5
10001348:	f2f70023          	sb	a5,-224(a4)
1000134c:	475d                	li	a4,23
1000134e:	00f77763          	bgeu	a4,a5,1000135c <next_striped_spin_lock_num+0x24>
10001352:	200047b7          	lui	a5,0x20004
10001356:	4741                	li	a4,16
10001358:	f2e78023          	sb	a4,-224(a5) # 20003f20 <striped_spin_lock_num>
1000135c:	8082                	ret

1000135e <spin_lock_claim_unused>:
1000135e:	1141                	addi	sp,sp,-16
10001360:	c606                	sw	ra,12(sp)
10001362:	85aa                	mv	a1,a0
10001364:	10009737          	lui	a4,0x10009
10001368:	0bc70713          	addi	a4,a4,188 # 100090bc <__EH_FRAME_BEGIN__+0x3fc>
1000136c:	46fd                	li	a3,31
1000136e:	4661                	li	a2,24
10001370:	20005537          	lui	a0,0x20005
10001374:	ec850513          	addi	a0,a0,-312 # 20004ec8 <claimed>
10001378:	3f89                	jal	100012ca <hw_claim_unused_from_range>
1000137a:	40b2                	lw	ra,12(sp)
1000137c:	0141                	addi	sp,sp,16
1000137e:	8082                	ret

10001380 <spin_locks_reset>:
10001380:	4701                	li	a4,0
10001382:	a819                	j	10001398 <spin_locks_reset+0x18>
10001384:	0330000f          	fence	rw,rw
10001388:	200047b7          	lui	a5,0x20004
1000138c:	52478793          	addi	a5,a5,1316 # 20004524 <_sw_spin_locks>
10001390:	97ba                	add	a5,a5,a4
10001392:	00078023          	sb	zero,0(a5)
10001396:	0705                	addi	a4,a4,1
10001398:	47fd                	li	a5,31
1000139a:	fee7f5e3          	bgeu	a5,a4,10001384 <spin_locks_reset+0x4>
1000139e:	8082                	ret

100013a0 <riscv_encode_imm_j>:
100013a0:	01455793          	srli	a5,a0,0x14
100013a4:	07fe                	slli	a5,a5,0x1f
100013a6:	00155713          	srli	a4,a0,0x1
100013aa:	0756                	slli	a4,a4,0x15
100013ac:	7fe006b7          	lui	a3,0x7fe00
100013b0:	8f75                	and	a4,a4,a3
100013b2:	8fd9                	or	a5,a5,a4
100013b4:	00b55713          	srli	a4,a0,0xb
100013b8:	0752                	slli	a4,a4,0x14
100013ba:	001006b7          	lui	a3,0x100
100013be:	8f75                	and	a4,a4,a3
100013c0:	8fd9                	or	a5,a5,a4
100013c2:	000ff737          	lui	a4,0xff
100013c6:	8d79                	and	a0,a0,a4
100013c8:	8d5d                	or	a0,a0,a5
100013ca:	8082                	ret

100013cc <riscv_encode_imm_cj>:
100013cc:	00b55793          	srli	a5,a0,0xb
100013d0:	07b2                	slli	a5,a5,0xc
100013d2:	6705                	lui	a4,0x1
100013d4:	8ff9                	and	a5,a5,a4
100013d6:	00455713          	srli	a4,a0,0x4
100013da:	072e                	slli	a4,a4,0xb
100013dc:	28b01693          	bseti	a3,zero,0xb
100013e0:	8f75                	and	a4,a4,a3
100013e2:	8fd9                	or	a5,a5,a4
100013e4:	00855713          	srli	a4,a0,0x8
100013e8:	0726                	slli	a4,a4,0x9
100013ea:	60077713          	andi	a4,a4,1536
100013ee:	8fd9                	or	a5,a5,a4
100013f0:	00a55713          	srli	a4,a0,0xa
100013f4:	0722                	slli	a4,a4,0x8
100013f6:	10077713          	andi	a4,a4,256
100013fa:	8fd9                	or	a5,a5,a4
100013fc:	00655713          	srli	a4,a0,0x6
10001400:	071e                	slli	a4,a4,0x7
10001402:	08077713          	andi	a4,a4,128
10001406:	8fd9                	or	a5,a5,a4
10001408:	00755713          	srli	a4,a0,0x7
1000140c:	071a                	slli	a4,a4,0x6
1000140e:	04077713          	andi	a4,a4,64
10001412:	8fd9                	or	a5,a5,a4
10001414:	00155713          	srli	a4,a0,0x1
10001418:	070e                	slli	a4,a4,0x3
1000141a:	03877713          	andi	a4,a4,56
1000141e:	8fd9                	or	a5,a5,a4
10001420:	8115                	srli	a0,a0,0x5
10001422:	050a                	slli	a0,a0,0x2
10001424:	8911                	andi	a0,a0,4
10001426:	8d5d                	or	a0,a0,a5
10001428:	8082                	ret

1000142a <resolve_j_16>:
1000142a:	00055703          	lhu	a4,0(a0)
1000142e:	00275693          	srli	a3,a4,0x2
10001432:	00e6f793          	andi	a5,a3,14
10001436:	00775613          	srli	a2,a4,0x7
1000143a:	8a41                	andi	a2,a2,16
1000143c:	8fd1                	or	a5,a5,a2
1000143e:	00371613          	slli	a2,a4,0x3
10001442:	02067613          	andi	a2,a2,32
10001446:	97b2                	add	a5,a5,a2
10001448:	00175613          	srli	a2,a4,0x1
1000144c:	04067593          	andi	a1,a2,64
10001450:	97ae                	add	a5,a5,a1
10001452:	00171593          	slli	a1,a4,0x1
10001456:	0805f593          	andi	a1,a1,128
1000145a:	97ae                	add	a5,a5,a1
1000145c:	30067613          	andi	a2,a2,768
10001460:	97b2                	add	a5,a5,a2
10001462:	070a                	slli	a4,a4,0x2
10001464:	40077713          	andi	a4,a4,1024
10001468:	97ba                	add	a5,a5,a4
1000146a:	28b01713          	bseti	a4,zero,0xb
1000146e:	8ef9                	and	a3,a3,a4
10001470:	8f95                	sub	a5,a5,a3
10001472:	953e                	add	a0,a0,a5
10001474:	8082                	ret

10001476 <irq_set_mask_n_enabled_internal>:
10001476:	c215                	beqz	a2,1000149a <irq_set_mask_n_enabled_internal+0x24>
10001478:	0506                	slli	a0,a0,0x1
1000147a:	01059793          	slli	a5,a1,0x10
1000147e:	8fc9                	or	a5,a5,a0
10001480:	be27b073          	csrc	0xbe2,a5
10001484:	0505                	addi	a0,a0,1
10001486:	7741                	lui	a4,0xffff0
10001488:	8df9                	and	a1,a1,a4
1000148a:	8d4d                	or	a0,a0,a1
1000148c:	be253073          	csrc	0xbe2,a0
10001490:	be07a073          	csrs	0xbe0,a5
10001494:	be052073          	csrs	0xbe0,a0
10001498:	8082                	ret
1000149a:	0506                	slli	a0,a0,0x1
1000149c:	01059793          	slli	a5,a1,0x10
100014a0:	8fc9                	or	a5,a5,a0
100014a2:	be07b073          	csrc	0xbe0,a5
100014a6:	0505                	addi	a0,a0,1
100014a8:	77c1                	lui	a5,0xffff0
100014aa:	8dfd                	and	a1,a1,a5
100014ac:	8d4d                	or	a0,a0,a1
100014ae:	be053073          	csrc	0xbe0,a0
100014b2:	8082                	ret

100014b4 <set_raw_irq_handler_and_unlock>:
100014b4:	305027f3          	csrr	a5,mtvec
100014b8:	9bf1                	andi	a5,a5,-4
100014ba:	03450513          	addi	a0,a0,52
100014be:	20f54533          	sh2add	a0,a0,a5
100014c2:	c10c                	sw	a1,0(a0)
100014c4:	0330000f          	fence	rw,rw
100014c8:	0330000f          	fence	rw,rw
100014cc:	200047b7          	lui	a5,0x20004
100014d0:	52478793          	addi	a5,a5,1316 # 20004524 <_sw_spin_locks>
100014d4:	000784a3          	sb	zero,9(a5)
100014d8:	8a21                	andi	a2,a2,8
100014da:	30062073          	csrs	mstatus,a2
100014de:	8082                	ret

100014e0 <make_jal_16>:
100014e0:	1141                	addi	sp,sp,-16
100014e2:	c606                	sw	ra,12(sp)
100014e4:	40a58533          	sub	a0,a1,a0
100014e8:	7ff50713          	addi	a4,a0,2047
100014ec:	0705                	addi	a4,a4,1 # ffff0001 <__StackTop+0xdff6e001>
100014ee:	6785                	lui	a5,0x1
100014f0:	17f9                	addi	a5,a5,-2 # ffe <HeapSize+0x7fe>
100014f2:	00e7ef63          	bltu	a5,a4,10001510 <make_jal_16+0x30>
100014f6:	00157793          	andi	a5,a0,1
100014fa:	eb99                	bnez	a5,10001510 <make_jal_16+0x30>
100014fc:	3dc1                	jal	100013cc <riscv_encode_imm_cj>
100014fe:	00156513          	ori	a0,a0,1
10001502:	28d51513          	bseti	a0,a0,0xd
10001506:	08054533          	zext.h	a0,a0
1000150a:	40b2                	lw	ra,12(sp)
1000150c:	0141                	addi	sp,sp,16
1000150e:	8082                	ret
10001510:	100096b7          	lui	a3,0x10009
10001514:	0d868693          	addi	a3,a3,216 # 100090d8 <__EH_FRAME_BEGIN__+0x418>
10001518:	1000a637          	lui	a2,0x1000a
1000151c:	b3860613          	addi	a2,a2,-1224 # 10009b38 <__func__.2>
10001520:	12800593          	li	a1,296
10001524:	10009537          	lui	a0,0x10009
10001528:	10850513          	addi	a0,a0,264 # 10009108 <__EH_FRAME_BEGIN__+0x448>
1000152c:	59d020ef          	jal	100042c8 <__assert_func>

10001530 <make_j_16>:
10001530:	1141                	addi	sp,sp,-16
10001532:	c606                	sw	ra,12(sp)
10001534:	3775                	jal	100014e0 <make_jal_16>
10001536:	77e1                	lui	a5,0xffff8
10001538:	8d5d                	or	a0,a0,a5
1000153a:	08054533          	zext.h	a0,a0
1000153e:	40b2                	lw	ra,12(sp)
10001540:	0141                	addi	sp,sp,16
10001542:	8082                	ret

10001544 <irq_is_enabled>:
10001544:	00455793          	srli	a5,a0,0x4
10001548:	be07a7f3          	csrrs	a5,0xbe0,a5
1000154c:	83c1                	srli	a5,a5,0x10
1000154e:	893d                	andi	a0,a0,15
10001550:	28a01533          	bset	a0,zero,a0
10001554:	8d7d                	and	a0,a0,a5
10001556:	00a03533          	snez	a0,a0
1000155a:	8082                	ret

1000155c <irq_set_mask_n_enabled>:
1000155c:	1141                	addi	sp,sp,-16
1000155e:	c606                	sw	ra,12(sp)
10001560:	3f19                	jal	10001476 <irq_set_mask_n_enabled_internal>
10001562:	40b2                	lw	ra,12(sp)
10001564:	0141                	addi	sp,sp,16
10001566:	8082                	ret

10001568 <irq_set_enabled>:
10001568:	1141                	addi	sp,sp,-16
1000156a:	c606                	sw	ra,12(sp)
1000156c:	862e                	mv	a2,a1
1000156e:	28a015b3          	bset	a1,zero,a0
10001572:	8115                	srli	a0,a0,0x5
10001574:	37e5                	jal	1000155c <irq_set_mask_n_enabled>
10001576:	40b2                	lw	ra,12(sp)
10001578:	0141                	addi	sp,sp,16
1000157a:	8082                	ret

1000157c <irq_set_pending>:
1000157c:	00455793          	srli	a5,a0,0x4
10001580:	893d                	andi	a0,a0,15
10001582:	28a01533          	bset	a0,zero,a0
10001586:	0542                	slli	a0,a0,0x10
10001588:	8fc9                	or	a5,a5,a0
1000158a:	be27a073          	csrs	0xbe2,a5
1000158e:	8082                	ret

10001590 <irq_get_vtable_handler>:
10001590:	305027f3          	csrr	a5,mtvec
10001594:	9bf1                	andi	a5,a5,-4
10001596:	03450513          	addi	a0,a0,52
1000159a:	20f54533          	sh2add	a0,a0,a5
1000159e:	4108                	lw	a0,0(a0)
100015a0:	8082                	ret

100015a2 <irq_has_shared_handler>:
100015a2:	1141                	addi	sp,sp,-16
100015a4:	c606                	sw	ra,12(sp)
100015a6:	37ed                	jal	10001590 <irq_get_vtable_handler>
100015a8:	200047b7          	lui	a5,0x20004
100015ac:	b8878793          	addi	a5,a5,-1144 # 20003b88 <irq_handler_chain_slots>
100015b0:	8d1d                	sub	a0,a0,a5
100015b2:	03053513          	sltiu	a0,a0,48
100015b6:	40b2                	lw	ra,12(sp)
100015b8:	0141                	addi	sp,sp,16
100015ba:	8082                	ret

100015bc <irq_set_exclusive_handler>:
100015bc:	1141                	addi	sp,sp,-16
100015be:	c606                	sw	ra,12(sp)
100015c0:	c422                	sw	s0,8(sp)
100015c2:	c226                	sw	s1,4(sp)
100015c4:	c04a                	sw	s2,0(sp)
100015c6:	84aa                	mv	s1,a0
100015c8:	842e                	mv	s0,a1
100015ca:	30047773          	csrrci	a4,mstatus,8
100015ce:	893a                	mv	s2,a4
100015d0:	200047b7          	lui	a5,0x20004
100015d4:	52d78793          	addi	a5,a5,1325 # 2000452d <_sw_spin_locks+0x9>
100015d8:	00379713          	slli	a4,a5,0x3
100015dc:	28e01733          	bset	a4,zero,a4
100015e0:	9bf1                	andi	a5,a5,-4
100015e2:	44e7a6af          	amoor.w.aq	a3,a4,(a5)
100015e6:	8ef9                	and	a3,a3,a4
100015e8:	feed                	bnez	a3,100015e2 <irq_set_exclusive_handler+0x26>
100015ea:	0330000f          	fence	rw,rw
100015ee:	374d                	jal	10001590 <irq_get_vtable_handler>
100015f0:	200047b7          	lui	a5,0x20004
100015f4:	da478793          	addi	a5,a5,-604 # 20003da4 <__unhandled_user_irq>
100015f8:	00f50463          	beq	a0,a5,10001600 <irq_set_exclusive_handler+0x44>
100015fc:	00851c63          	bne	a0,s0,10001614 <irq_set_exclusive_handler+0x58>
10001600:	864a                	mv	a2,s2
10001602:	85a2                	mv	a1,s0
10001604:	8526                	mv	a0,s1
10001606:	357d                	jal	100014b4 <set_raw_irq_handler_and_unlock>
10001608:	40b2                	lw	ra,12(sp)
1000160a:	4422                	lw	s0,8(sp)
1000160c:	4492                	lw	s1,4(sp)
1000160e:	4902                	lw	s2,0(sp)
10001610:	0141                	addi	sp,sp,16
10001612:	8082                	ret
10001614:	100096b7          	lui	a3,0x10009
10001618:	15068693          	addi	a3,a3,336 # 10009150 <__EH_FRAME_BEGIN__+0x490>
1000161c:	1000a637          	lui	a2,0x1000a
10001620:	b5c60613          	addi	a2,a2,-1188 # 10009b5c <__func__.4>
10001624:	0ed00593          	li	a1,237
10001628:	10009537          	lui	a0,0x10009
1000162c:	10850513          	addi	a0,a0,264 # 10009108 <__EH_FRAME_BEGIN__+0x448>
10001630:	499020ef          	jal	100042c8 <__assert_func>

10001634 <irq_add_shared_handler>:
10001634:	7139                	addi	sp,sp,-64
10001636:	de06                	sw	ra,60(sp)
10001638:	dc22                	sw	s0,56(sp)
1000163a:	ce5e                	sw	s7,28(sp)
1000163c:	300477f3          	csrrci	a5,mstatus,8
10001640:	8bbe                	mv	s7,a5
10001642:	200047b7          	lui	a5,0x20004
10001646:	52d78793          	addi	a5,a5,1325 # 2000452d <_sw_spin_locks+0x9>
1000164a:	00379713          	slli	a4,a5,0x3
1000164e:	28e01733          	bset	a4,zero,a4
10001652:	9bf1                	andi	a5,a5,-4
10001654:	44e7a6af          	amoor.w.aq	a3,a4,(a5)
10001658:	8ef9                	and	a3,a3,a4
1000165a:	feed                	bnez	a3,10001654 <irq_add_shared_handler+0x20>
1000165c:	0330000f          	fence	rw,rw
10001660:	80f18403          	lb	s0,-2033(gp) # 20004ecc <irq_handler_chain_free_slot_head>
10001664:	0c044363          	bltz	s0,1000172a <irq_add_shared_handler+0xf6>
10001668:	da26                	sw	s1,52(sp)
1000166a:	d84a                	sw	s2,48(sp)
1000166c:	d64e                	sw	s3,44(sp)
1000166e:	d452                	sw	s4,40(sp)
10001670:	d256                	sw	s5,36(sp)
10001672:	8aaa                	mv	s5,a0
10001674:	892e                	mv	s2,a1
10001676:	84b2                	mv	s1,a2
10001678:	208429b3          	sh1add	s3,s0,s0
1000167c:	200047b7          	lui	a5,0x20004
10001680:	b8878793          	addi	a5,a5,-1144 # 20003b88 <irq_handler_chain_slots>
10001684:	20f9c9b3          	sh2add	s3,s3,a5
10001688:	00a98683          	lb	a3,10(s3)
1000168c:	80d187a3          	sb	a3,-2033(gp) # 20004ecc <irq_handler_chain_free_slot_head>
10001690:	305026f3          	csrr	a3,mtvec
10001694:	9af1                	andi	a3,a3,-4
10001696:	03450713          	addi	a4,a0,52
1000169a:	20d74733          	sh2add	a4,a4,a3
1000169e:	00072a03          	lw	s4,0(a4)
100016a2:	40fa07b3          	sub	a5,s4,a5
100016a6:	02f00713          	li	a4,47
100016aa:	0cf77d63          	bgeu	a4,a5,10001784 <irq_add_shared_handler+0x150>
100016ae:	200047b7          	lui	a5,0x20004
100016b2:	da478793          	addi	a5,a5,-604 # 20003da4 <__unhandled_user_irq>
100016b6:	0afa1363          	bne	s4,a5,1000175c <irq_add_shared_handler+0x128>
100016ba:	d05a                	sw	s6,32(sp)
100016bc:	00141a13          	slli	s4,s0,0x1
100016c0:	208427b3          	sh1add	a5,s0,s0
100016c4:	20004b37          	lui	s6,0x20004
100016c8:	b88b0b13          	addi	s6,s6,-1144 # 20003b88 <irq_handler_chain_slots>
100016cc:	2167c7b3          	sh2add	a5,a5,s6
100016d0:	20004537          	lui	a0,0x20004
100016d4:	bb850513          	addi	a0,a0,-1096 # 20003bb8 <irq_handler_chain_first_slot>
100016d8:	8d1d                	sub	a0,a0,a5
100016da:	31d9                	jal	100013a0 <riscv_encode_imm_j>
100016dc:	2ef56513          	ori	a0,a0,751
100016e0:	c22a                	sw	a0,4(sp)
100016e2:	c44a                	sw	s2,8(sp)
100016e4:	77f1                	lui	a5,0xffffc
100016e6:	e4278793          	addi	a5,a5,-446 # ffffbe42 <__StackTop+0xdff79e42>
100016ea:	00f11623          	sh	a5,12(sp)
100016ee:	57fd                	li	a5,-1
100016f0:	00f10723          	sb	a5,14(sp)
100016f4:	009107a3          	sb	s1,15(sp)
100016f8:	008a07b3          	add	a5,s4,s0
100016fc:	2167c7b3          	sh2add	a5,a5,s6
10001700:	c388                	sw	a0,0(a5)
10001702:	0127a223          	sw	s2,4(a5)
10001706:	4732                	lw	a4,12(sp)
10001708:	c798                	sw	a4,8(a5)
1000170a:	8a4e                	mv	s4,s3
1000170c:	865e                	mv	a2,s7
1000170e:	85d2                	mv	a1,s4
10001710:	8556                	mv	a0,s5
10001712:	334d                	jal	100014b4 <set_raw_irq_handler_and_unlock>
10001714:	54d2                	lw	s1,52(sp)
10001716:	5942                	lw	s2,48(sp)
10001718:	59b2                	lw	s3,44(sp)
1000171a:	5a22                	lw	s4,40(sp)
1000171c:	5a92                	lw	s5,36(sp)
1000171e:	5b02                	lw	s6,32(sp)
10001720:	50f2                	lw	ra,60(sp)
10001722:	5462                	lw	s0,56(sp)
10001724:	4bf2                	lw	s7,28(sp)
10001726:	6121                	addi	sp,sp,64
10001728:	8082                	ret
1000172a:	da26                	sw	s1,52(sp)
1000172c:	d84a                	sw	s2,48(sp)
1000172e:	d64e                	sw	s3,44(sp)
10001730:	d452                	sw	s4,40(sp)
10001732:	d256                	sw	s5,36(sp)
10001734:	d05a                	sw	s6,32(sp)
10001736:	cc62                	sw	s8,24(sp)
10001738:	ca66                	sw	s9,20(sp)
1000173a:	c86a                	sw	s10,16(sp)
1000173c:	100096b7          	lui	a3,0x10009
10001740:	18868693          	addi	a3,a3,392 # 10009188 <__EH_FRAME_BEGIN__+0x4c8>
10001744:	1000a637          	lui	a2,0x1000a
10001748:	b4460613          	addi	a2,a2,-1212 # 10009b44 <__func__.3>
1000174c:	17c00593          	li	a1,380
10001750:	10009537          	lui	a0,0x10009
10001754:	10850513          	addi	a0,a0,264 # 10009108 <__EH_FRAME_BEGIN__+0x448>
10001758:	371020ef          	jal	100042c8 <__assert_func>
1000175c:	d05a                	sw	s6,32(sp)
1000175e:	cc62                	sw	s8,24(sp)
10001760:	ca66                	sw	s9,20(sp)
10001762:	c86a                	sw	s10,16(sp)
10001764:	100096b7          	lui	a3,0x10009
10001768:	1b068693          	addi	a3,a3,432 # 100091b0 <__EH_FRAME_BEGIN__+0x4f0>
1000176c:	1000a637          	lui	a2,0x1000a
10001770:	b4460613          	addi	a2,a2,-1212 # 10009b44 <__func__.3>
10001774:	18300593          	li	a1,387
10001778:	10009537          	lui	a0,0x10009
1000177c:	10850513          	addi	a0,a0,264 # 10009108 <__EH_FRAME_BEGIN__+0x448>
10001780:	349020ef          	jal	100042c8 <__assert_func>
10001784:	aaaab737          	lui	a4,0xaaaab
10001788:	aab70713          	addi	a4,a4,-1365 # aaaaaaab <__StackTop+0x8aa28aab>
1000178c:	02e7b733          	mulhu	a4,a5,a4
10001790:	830d                	srli	a4,a4,0x3
10001792:	20e72733          	sh1add	a4,a4,a4
10001796:	070a                	slli	a4,a4,0x2
10001798:	02e79763          	bne	a5,a4,100017c6 <irq_add_shared_handler+0x192>
1000179c:	d05a                	sw	s6,32(sp)
1000179e:	87d2                	mv	a5,s4
100017a0:	4b01                	li	s6,0
100017a2:	00b7c703          	lbu	a4,11(a5)
100017a6:	04e4f563          	bgeu	s1,a4,100017f0 <irq_add_shared_handler+0x1bc>
100017aa:	00a78703          	lb	a4,10(a5)
100017ae:	04074063          	bltz	a4,100017ee <irq_add_shared_handler+0x1ba>
100017b2:	20e72733          	sh1add	a4,a4,a4
100017b6:	8b3e                	mv	s6,a5
100017b8:	200047b7          	lui	a5,0x20004
100017bc:	b8878793          	addi	a5,a5,-1144 # 20003b88 <irq_handler_chain_slots>
100017c0:	20f747b3          	sh2add	a5,a4,a5
100017c4:	bff9                	j	100017a2 <irq_add_shared_handler+0x16e>
100017c6:	d05a                	sw	s6,32(sp)
100017c8:	cc62                	sw	s8,24(sp)
100017ca:	ca66                	sw	s9,20(sp)
100017cc:	c86a                	sw	s10,16(sp)
100017ce:	100096b7          	lui	a3,0x10009
100017d2:	1d868693          	addi	a3,a3,472 # 100091d8 <__EH_FRAME_BEGIN__+0x518>
100017d6:	1000a637          	lui	a2,0x1000a
100017da:	b4460613          	addi	a2,a2,-1212 # 10009b44 <__func__.3>
100017de:	19400593          	li	a1,404
100017e2:	10009537          	lui	a0,0x10009
100017e6:	10850513          	addi	a0,a0,264 # 10009108 <__EH_FRAME_BEGIN__+0x448>
100017ea:	2df020ef          	jal	100042c8 <__assert_func>
100017ee:	8b3e                	mv	s6,a5
100017f0:	080b0863          	beqz	s6,10001880 <irq_add_shared_handler+0x24c>
100017f4:	00191793          	slli	a5,s2,0x1
100017f8:	6705                	lui	a4,0x1
100017fa:	8ff9                	and	a5,a5,a4
100017fc:	97ca                	add	a5,a5,s2
100017fe:	8007f793          	andi	a5,a5,-2048
10001802:	48b79793          	bclri	a5,a5,0xb
10001806:	0b77e793          	ori	a5,a5,183
1000180a:	c23e                	sw	a5,4(sp)
1000180c:	0952                	slli	s2,s2,0x14
1000180e:	0e796913          	ori	s2,s2,231
10001812:	28f91913          	bseti	s2,s2,0xf
10001816:	c44a                	sw	s2,8(sp)
10001818:	00ab0903          	lb	s2,10(s6)
1000181c:	04095263          	bgez	s2,10001860 <irq_add_shared_handler+0x22c>
10001820:	6531                	lui	a0,0xc
10001822:	e4250513          	addi	a0,a0,-446 # be42 <HeapSize+0xb642>
10001826:	00a11623          	sh	a0,12(sp)
1000182a:	01210723          	sb	s2,14(sp)
1000182e:	009107a3          	sb	s1,15(sp)
10001832:	85ce                	mv	a1,s3
10001834:	008b0513          	addi	a0,s6,8
10001838:	39e5                	jal	10001530 <make_j_16>
1000183a:	00ab1423          	sh	a0,8(s6)
1000183e:	008b0523          	sb	s0,10(s6)
10001842:	200047b7          	lui	a5,0x20004
10001846:	20842433          	sh1add	s0,s0,s0
1000184a:	b8878793          	addi	a5,a5,-1144 # 20003b88 <irq_handler_chain_slots>
1000184e:	20f44433          	sh2add	s0,s0,a5
10001852:	4792                	lw	a5,4(sp)
10001854:	c01c                	sw	a5,0(s0)
10001856:	47a2                	lw	a5,8(sp)
10001858:	c05c                	sw	a5,4(s0)
1000185a:	47b2                	lw	a5,12(sp)
1000185c:	c41c                	sw	a5,8(s0)
1000185e:	b57d                	j	1000170c <irq_add_shared_handler+0xd8>
10001860:	008b0513          	addi	a0,s6,8
10001864:	36d9                	jal	1000142a <resolve_j_16>
10001866:	85aa                	mv	a1,a0
10001868:	208427b3          	sh1add	a5,s0,s0
1000186c:	20004737          	lui	a4,0x20004
10001870:	b8870713          	addi	a4,a4,-1144 # 20003b88 <irq_handler_chain_slots>
10001874:	20e7c7b3          	sh2add	a5,a5,a4
10001878:	00878513          	addi	a0,a5,8
1000187c:	3955                	jal	10001530 <make_j_16>
1000187e:	b765                	j	10001826 <irq_add_shared_handler+0x1f2>
10001880:	cc62                	sw	s8,24(sp)
10001882:	ca66                	sw	s9,20(sp)
10001884:	c86a                	sw	s10,16(sp)
10001886:	208427b3          	sh1add	a5,s0,s0
1000188a:	20004737          	lui	a4,0x20004
1000188e:	b8870b13          	addi	s6,a4,-1144 # 20003b88 <irq_handler_chain_slots>
10001892:	2167c7b3          	sh2add	a5,a5,s6
10001896:	8c3e                	mv	s8,a5
10001898:	20004537          	lui	a0,0x20004
1000189c:	bb850513          	addi	a0,a0,-1096 # 20003bb8 <irq_handler_chain_first_slot>
100018a0:	8d1d                	sub	a0,a0,a5
100018a2:	3cfd                	jal	100013a0 <riscv_encode_imm_j>
100018a4:	2ef56793          	ori	a5,a0,751
100018a8:	8cbe                	mv	s9,a5
100018aa:	c23e                	sw	a5,4(sp)
100018ac:	c44a                	sw	s2,8(sp)
100018ae:	85d2                	mv	a1,s4
100018b0:	008c0513          	addi	a0,s8,8
100018b4:	39b5                	jal	10001530 <make_j_16>
100018b6:	00a11623          	sh	a0,12(sp)
100018ba:	416a07b3          	sub	a5,s4,s6
100018be:	8789                	srai	a5,a5,0x2
100018c0:	aaaab737          	lui	a4,0xaaaab
100018c4:	aab70713          	addi	a4,a4,-1365 # aaaaaaab <__StackTop+0x8aa28aab>
100018c8:	02e787b3          	mul	a5,a5,a4
100018cc:	00f10723          	sb	a5,14(sp)
100018d0:	009107a3          	sb	s1,15(sp)
100018d4:	019c2023          	sw	s9,0(s8)
100018d8:	012c2223          	sw	s2,4(s8)
100018dc:	4732                	lw	a4,12(sp)
100018de:	00ec2423          	sw	a4,8(s8)
100018e2:	004a2703          	lw	a4,4(s4)
100018e6:	00171793          	slli	a5,a4,0x1
100018ea:	6685                	lui	a3,0x1
100018ec:	8ff5                	and	a5,a5,a3
100018ee:	97ba                	add	a5,a5,a4
100018f0:	8007f793          	andi	a5,a5,-2048
100018f4:	48b79793          	bclri	a5,a5,0xb
100018f8:	0b77e793          	ori	a5,a5,183
100018fc:	00fa2023          	sw	a5,0(s4)
10001900:	0752                	slli	a4,a4,0x14
10001902:	0e776713          	ori	a4,a4,231
10001906:	28f71713          	bseti	a4,a4,0xf
1000190a:	00ea2223          	sw	a4,4(s4)
1000190e:	8a4e                	mv	s4,s3
10001910:	4c62                	lw	s8,24(sp)
10001912:	4cd2                	lw	s9,20(sp)
10001914:	4d42                	lw	s10,16(sp)
10001916:	bbdd                	j	1000170c <irq_add_shared_handler+0xd8>

10001918 <irq_set_priority>:
10001918:	0045d793          	srli	a5,a1,0x4
1000191c:	00f7c793          	xori	a5,a5,15
10001920:	00255693          	srli	a3,a0,0x2
10001924:	890d                	andi	a0,a0,3
10001926:	050a                	slli	a0,a0,0x2
10001928:	473d                	li	a4,15
1000192a:	00a71733          	sll	a4,a4,a0
1000192e:	0742                	slli	a4,a4,0x10
10001930:	8f55                	or	a4,a4,a3
10001932:	be373073          	csrc	0xbe3,a4
10001936:	00a797b3          	sll	a5,a5,a0
1000193a:	07c2                	slli	a5,a5,0x10
1000193c:	8edd                	or	a3,a3,a5
1000193e:	be36a073          	csrs	0xbe3,a3
10001942:	8082                	ret

10001944 <runtime_init_per_core_irq_priorities>:
10001944:	1141                	addi	sp,sp,-16
10001946:	c606                	sw	ra,12(sp)
10001948:	c422                	sw	s0,8(sp)
1000194a:	4401                	li	s0,0
1000194c:	a031                	j	10001958 <runtime_init_per_core_irq_priorities+0x14>
1000194e:	08000593          	li	a1,128
10001952:	8522                	mv	a0,s0
10001954:	37d1                	jal	10001918 <irq_set_priority>
10001956:	0405                	addi	s0,s0,1
10001958:	03300793          	li	a5,51
1000195c:	fe87f9e3          	bgeu	a5,s0,1000194e <runtime_init_per_core_irq_priorities+0xa>
10001960:	30046073          	csrsi	mstatus,8
10001964:	40b2                	lw	ra,12(sp)
10001966:	4422                	lw	s0,8(sp)
10001968:	0141                	addi	sp,sp,16
1000196a:	8082                	ret

1000196c <irq_add_tail_to_free_list>:
1000196c:	1141                	addi	sp,sp,-16
1000196e:	c606                	sw	ra,12(sp)
10001970:	200047b7          	lui	a5,0x20004
10001974:	b8878793          	addi	a5,a5,-1144 # 20003b88 <irq_handler_chain_slots>
10001978:	40f507b3          	sub	a5,a0,a5
1000197c:	02f00713          	li	a4,47
10001980:	02f76763          	bltu	a4,a5,100019ae <irq_add_tail_to_free_list+0x42>
10001984:	be502773          	csrr	a4,0xbe5
10001988:	67a1                	lui	a5,0x8
1000198a:	8ff9                	and	a5,a5,a4
1000198c:	c3a9                	beqz	a5,100019ce <irq_add_tail_to_free_list+0x62>
1000198e:	100096b7          	lui	a3,0x10009
10001992:	28468693          	addi	a3,a3,644 # 10009284 <__EH_FRAME_BEGIN__+0x5c4>
10001996:	1000a637          	lui	a2,0x1000a
1000199a:	b1c60613          	addi	a2,a2,-1252 # 10009b1c <__func__.0>
1000199e:	28200593          	li	a1,642
100019a2:	10009537          	lui	a0,0x10009
100019a6:	10850513          	addi	a0,a0,264 # 10009108 <__EH_FRAME_BEGIN__+0x448>
100019aa:	11f020ef          	jal	100042c8 <__assert_func>
100019ae:	100096b7          	lui	a3,0x10009
100019b2:	25c68693          	addi	a3,a3,604 # 1000925c <__EH_FRAME_BEGIN__+0x59c>
100019b6:	1000a637          	lui	a2,0x1000a
100019ba:	b1c60613          	addi	a2,a2,-1252 # 10009b1c <__func__.0>
100019be:	27f00593          	li	a1,639
100019c2:	10009537          	lui	a0,0x10009
100019c6:	10850513          	addi	a0,a0,264 # 10009108 <__EH_FRAME_BEGIN__+0x448>
100019ca:	0ff020ef          	jal	100042c8 <__assert_func>
100019ce:	8311                	srli	a4,a4,0x4
100019d0:	1ff77713          	andi	a4,a4,511
100019d4:	03470713          	addi	a4,a4,52
100019d8:	30047873          	csrrci	a6,mstatus,8
100019dc:	200046b7          	lui	a3,0x20004
100019e0:	52d68693          	addi	a3,a3,1325 # 2000452d <_sw_spin_locks+0x9>
100019e4:	00369613          	slli	a2,a3,0x3
100019e8:	28c01633          	bset	a2,zero,a2
100019ec:	9af1                	andi	a3,a3,-4
100019ee:	44c6a8af          	amoor.w.aq	a7,a2,(a3)
100019f2:	00c8f8b3          	and	a7,a7,a2
100019f6:	fe089ce3          	bnez	a7,100019ee <irq_add_tail_to_free_list+0x82>
100019fa:	0330000f          	fence	rw,rw
100019fe:	200046b7          	lui	a3,0x20004
10001a02:	b8868693          	addi	a3,a3,-1144 # 20003b88 <irq_handler_chain_slots>
10001a06:	40d506b3          	sub	a3,a0,a3
10001a0a:	8689                	srai	a3,a3,0x2
10001a0c:	aaaab637          	lui	a2,0xaaaab
10001a10:	aab60613          	addi	a2,a2,-1365 # aaaaaaab <__StackTop+0x8aa28aab>
10001a14:	02c686b3          	mul	a3,a3,a2
10001a18:	60469693          	sext.b	a3,a3
10001a1c:	30502673          	csrr	a2,mtvec
10001a20:	9a71                	andi	a2,a2,-4
10001a22:	00271893          	slli	a7,a4,0x2
10001a26:	20c74733          	sh2add	a4,a4,a2
10001a2a:	4318                	lw	a4,0(a4)
10001a2c:	04a71163          	bne	a4,a0,10001a6e <irq_add_tail_to_free_list+0x102>
10001a30:	305027f3          	csrr	a5,mtvec
10001a34:	9bf1                	andi	a5,a5,-4
10001a36:	97c6                	add	a5,a5,a7
10001a38:	20004737          	lui	a4,0x20004
10001a3c:	da470713          	addi	a4,a4,-604 # 20003da4 <__unhandled_user_irq>
10001a40:	c398                	sw	a4,0(a5)
10001a42:	80f1c703          	lbu	a4,-2033(gp) # 20004ecc <irq_handler_chain_free_slot_head>
10001a46:	00e50523          	sb	a4,10(a0)
10001a4a:	80d187a3          	sb	a3,-2033(gp) # 20004ecc <irq_handler_chain_free_slot_head>
10001a4e:	0330000f          	fence	rw,rw
10001a52:	200047b7          	lui	a5,0x20004
10001a56:	52478793          	addi	a5,a5,1316 # 20004524 <_sw_spin_locks>
10001a5a:	000784a3          	sb	zero,9(a5)
10001a5e:	00887813          	andi	a6,a6,8
10001a62:	30082073          	csrs	mstatus,a6
10001a66:	40b2                	lw	ra,12(sp)
10001a68:	0141                	addi	sp,sp,16
10001a6a:	8082                	ret
10001a6c:	0785                	addi	a5,a5,1
10001a6e:	470d                	li	a4,3
10001a70:	02f76c63          	bltu	a4,a5,10001aa8 <irq_add_tail_to_free_list+0x13c>
10001a74:	20004637          	lui	a2,0x20004
10001a78:	20f7a733          	sh1add	a4,a5,a5
10001a7c:	b8860613          	addi	a2,a2,-1144 # 20003b88 <irq_handler_chain_slots>
10001a80:	20c74733          	sh2add	a4,a4,a2
10001a84:	00a70703          	lb	a4,10(a4)
10001a88:	fed712e3          	bne	a4,a3,10001a6c <irq_add_tail_to_free_list+0x100>
10001a8c:	8732                	mv	a4,a2
10001a8e:	20f7a633          	sh1add	a2,a5,a5
10001a92:	20e64633          	sh2add	a2,a2,a4
10001a96:	55fd                	li	a1,-1
10001a98:	00b60523          	sb	a1,10(a2)
10001a9c:	7771                	lui	a4,0xffffc
10001a9e:	e4270713          	addi	a4,a4,-446 # ffffbe42 <__StackTop+0xdff79e42>
10001aa2:	00e61423          	sh	a4,8(a2)
10001aa6:	bf71                	j	10001a42 <irq_add_tail_to_free_list+0xd6>
10001aa8:	100096b7          	lui	a3,0x10009
10001aac:	29068693          	addi	a3,a3,656 # 10009290 <__EH_FRAME_BEGIN__+0x5d0>
10001ab0:	1000a637          	lui	a2,0x1000a
10001ab4:	b1c60613          	addi	a2,a2,-1252 # 10009b1c <__func__.0>
10001ab8:	29300593          	li	a1,659
10001abc:	10009537          	lui	a0,0x10009
10001ac0:	10850513          	addi	a0,a0,264 # 10009108 <__EH_FRAME_BEGIN__+0x448>
10001ac4:	005020ef          	jal	100042c8 <__assert_func>

10001ac8 <user_irq_claim_unused>:
10001ac8:	1141                	addi	sp,sp,-16
10001aca:	c606                	sw	ra,12(sp)
10001acc:	85aa                	mv	a1,a0
10001ace:	10009737          	lui	a4,0x10009
10001ad2:	29870713          	addi	a4,a4,664 # 10009298 <__EH_FRAME_BEGIN__+0x5d8>
10001ad6:	4695                	li	a3,5
10001ad8:	4601                	li	a2,0
10001ada:	81018513          	addi	a0,gp,-2032 # 20004ecd <user_irq_claimed>
10001ade:	fecff0ef          	jal	100012ca <hw_claim_unused_from_range>
10001ae2:	00054663          	bltz	a0,10001aee <user_irq_claim_unused+0x26>
10001ae6:	03300793          	li	a5,51
10001aea:	40a78533          	sub	a0,a5,a0
10001aee:	40b2                	lw	ra,12(sp)
10001af0:	0141                	addi	sp,sp,16
10001af2:	8082                	ret

10001af4 <lock_init>:
10001af4:	200047b7          	lui	a5,0x20004
10001af8:	52478793          	addi	a5,a5,1316 # 20004524 <_sw_spin_locks>
10001afc:	97ae                	add	a5,a5,a1
10001afe:	c11c                	sw	a5,0(a0)
10001b00:	8082                	ret

10001b02 <mutex_init>:
10001b02:	1141                	addi	sp,sp,-16
10001b04:	c606                	sw	ra,12(sp)
10001b06:	c422                	sw	s0,8(sp)
10001b08:	842a                	mv	s0,a0
10001b0a:	82fff0ef          	jal	10001338 <next_striped_spin_lock_num>
10001b0e:	85aa                	mv	a1,a0
10001b10:	8522                	mv	a0,s0
10001b12:	37cd                	jal	10001af4 <lock_init>
10001b14:	57fd                	li	a5,-1
10001b16:	00f40223          	sb	a5,4(s0)
10001b1a:	0330000f          	fence	rw,rw
10001b1e:	40b2                	lw	ra,12(sp)
10001b20:	4422                	lw	s0,8(sp)
10001b22:	0141                	addi	sp,sp,16
10001b24:	8082                	ret

10001b26 <recursive_mutex_init>:
10001b26:	1141                	addi	sp,sp,-16
10001b28:	c606                	sw	ra,12(sp)
10001b2a:	c422                	sw	s0,8(sp)
10001b2c:	842a                	mv	s0,a0
10001b2e:	80bff0ef          	jal	10001338 <next_striped_spin_lock_num>
10001b32:	85aa                	mv	a1,a0
10001b34:	8522                	mv	a0,s0
10001b36:	3f7d                	jal	10001af4 <lock_init>
10001b38:	57fd                	li	a5,-1
10001b3a:	00f40223          	sb	a5,4(s0)
10001b3e:	000402a3          	sb	zero,5(s0)
10001b42:	0330000f          	fence	rw,rw
10001b46:	40b2                	lw	ra,12(sp)
10001b48:	4422                	lw	s0,8(sp)
10001b4a:	0141                	addi	sp,sp,16
10001b4c:	8082                	ret

10001b4e <runtime_init_mutex>:
10001b4e:	1141                	addi	sp,sp,-16
10001b50:	c606                	sw	ra,12(sp)
10001b52:	c422                	sw	s0,8(sp)
10001b54:	20004437          	lui	s0,0x20004
10001b58:	f2c40413          	addi	s0,s0,-212 # 20003f2c <malloc_mutex>
10001b5c:	a01d                	j	10001b82 <runtime_init_mutex+0x34>
10001b5e:	100096b7          	lui	a3,0x10009
10001b62:	2b468693          	addi	a3,a3,692 # 100092b4 <__EH_FRAME_BEGIN__+0x5f4>
10001b66:	1000a637          	lui	a2,0x1000a
10001b6a:	b9c60613          	addi	a2,a2,-1124 # 10009b9c <__func__.6>
10001b6e:	45e9                	li	a1,26
10001b70:	10009537          	lui	a0,0x10009
10001b74:	2d450513          	addi	a0,a0,724 # 100092d4 <__EH_FRAME_BEGIN__+0x614>
10001b78:	750020ef          	jal	100042c8 <__assert_func>
10001b7c:	8522                	mv	a0,s0
10001b7e:	3751                	jal	10001b02 <mutex_init>
10001b80:	0421                	addi	s0,s0,8
10001b82:	200047b7          	lui	a5,0x20004
10001b86:	f3c78793          	addi	a5,a5,-196 # 20003f3c <__bss_start__>
10001b8a:	00f47b63          	bgeu	s0,a5,10001ba0 <runtime_init_mutex+0x52>
10001b8e:	401c                	lw	a5,0(s0)
10001b90:	d7f5                	beqz	a5,10001b7c <runtime_init_mutex+0x2e>
10001b92:	4705                	li	a4,1
10001b94:	fce795e3          	bne	a5,a4,10001b5e <runtime_init_mutex+0x10>
10001b98:	8522                	mv	a0,s0
10001b9a:	3771                	jal	10001b26 <recursive_mutex_init>
10001b9c:	0421                	addi	s0,s0,8
10001b9e:	b7d5                	j	10001b82 <runtime_init_mutex+0x34>
10001ba0:	40b2                	lw	ra,12(sp)
10001ba2:	4422                	lw	s0,8(sp)
10001ba4:	0141                	addi	sp,sp,16
10001ba6:	8082                	ret

10001ba8 <critical_section_init_with_lock_num>:
10001ba8:	200047b7          	lui	a5,0x20004
10001bac:	52478793          	addi	a5,a5,1316 # 20004524 <_sw_spin_locks>
10001bb0:	97ae                	add	a5,a5,a1
10001bb2:	c11c                	sw	a5,0(a0)
10001bb4:	0330000f          	fence	rw,rw
10001bb8:	8082                	ret

10001bba <critical_section_init>:
10001bba:	1141                	addi	sp,sp,-16
10001bbc:	c606                	sw	ra,12(sp)
10001bbe:	c422                	sw	s0,8(sp)
10001bc0:	842a                	mv	s0,a0
10001bc2:	4505                	li	a0,1
10001bc4:	f9aff0ef          	jal	1000135e <spin_lock_claim_unused>
10001bc8:	85aa                	mv	a1,a0
10001bca:	8522                	mv	a0,s0
10001bcc:	3ff1                	jal	10001ba8 <critical_section_init_with_lock_num>
10001bce:	40b2                	lw	ra,12(sp)
10001bd0:	4422                	lw	s0,8(sp)
10001bd2:	0141                	addi	sp,sp,16
10001bd4:	8082                	ret

10001bd6 <ta_from_current_irq>:
10001bd6:	872a                	mv	a4,a0
10001bd8:	be5027f3          	csrr	a5,0xbe5
10001bdc:	01079693          	slli	a3,a5,0x10
10001be0:	0206c163          	bltz	a3,10001c02 <ta_from_current_irq+0x2c>
10001be4:	8391                	srli	a5,a5,0x4
10001be6:	1ff7f793          	andi	a5,a5,511
10001bea:	03478793          	addi	a5,a5,52
10001bee:	fcc78793          	addi	a5,a5,-52
10001bf2:	0027d693          	srli	a3,a5,0x2
10001bf6:	ca81                	beqz	a3,10001c06 <ta_from_current_irq+0x30>
10001bf8:	400b8537          	lui	a0,0x400b8
10001bfc:	8b8d                	andi	a5,a5,3
10001bfe:	c31c                	sw	a5,0(a4)
10001c00:	8082                	ret
10001c02:	4781                	li	a5,0
10001c04:	b7ed                	j	10001bee <ta_from_current_irq+0x18>
10001c06:	400b0537          	lui	a0,0x400b0
10001c0a:	bfcd                	j	10001bfc <ta_from_current_irq+0x26>

10001c0c <ta_set_timeout>:
10001c0c:	5518                	lw	a4,40(a0)
10001c0e:	40e606b3          	sub	a3,a2,a4
10001c12:	00458793          	addi	a5,a1,4
10001c16:	20a7c7b3          	sh2add	a5,a5,a0
10001c1a:	439c                	lw	a5,0(a5)
10001c1c:	8f99                	sub	a5,a5,a4
10001c1e:	00f6e763          	bltu	a3,a5,10001c2c <ta_set_timeout+0x20>
10001c22:	511c                	lw	a5,32(a0)
10001c24:	28b01733          	bset	a4,zero,a1
10001c28:	8ff9                	and	a5,a5,a4
10001c2a:	e789                	bnez	a5,10001c34 <ta_set_timeout+0x28>
10001c2c:	0591                	addi	a1,a1,4
10001c2e:	20a5c533          	sh2add	a0,a1,a0
10001c32:	c110                	sw	a2,0(a0)
10001c34:	8082                	ret

10001c36 <make_alarm_id>:
10001c36:	0542                	slli	a0,a0,0x10
10001c38:	8d4d                	or	a0,a0,a1
10001c3a:	8082                	ret

10001c3c <sleep_until_callback>:
10001c3c:	8131a783          	lw	a5,-2029(gp) # 20004ed0 <sleep_notifier>
10001c40:	30047773          	csrrci	a4,mstatus,8
10001c44:	00379613          	slli	a2,a5,0x3
10001c48:	28c01633          	bset	a2,zero,a2
10001c4c:	9bf1                	andi	a5,a5,-4
10001c4e:	44c7a5af          	amoor.w.aq	a1,a2,(a5)
10001c52:	8df1                	and	a1,a1,a2
10001c54:	fded                	bnez	a1,10001c4e <sleep_until_callback+0x12>
10001c56:	0330000f          	fence	rw,rw
10001c5a:	8131a783          	lw	a5,-2029(gp) # 20004ed0 <sleep_notifier>
10001c5e:	0330000f          	fence	rw,rw
10001c62:	00078023          	sb	zero,0(a5)
10001c66:	00877793          	andi	a5,a4,8
10001c6a:	3007a073          	csrs	mstatus,a5
10001c6e:	00102033          	sgtz	zero,ra
10001c72:	4501                	li	a0,0
10001c74:	4581                	li	a1,0
10001c76:	8082                	ret

10001c78 <alarm_pool_irq_handler>:
10001c78:	7139                	addi	sp,sp,-64
10001c7a:	de06                	sw	ra,60(sp)
10001c7c:	dc22                	sw	s0,56(sp)
10001c7e:	da26                	sw	s1,52(sp)
10001c80:	d84a                	sw	s2,48(sp)
10001c82:	d64e                	sw	s3,44(sp)
10001c84:	d452                	sw	s4,40(sp)
10001c86:	d256                	sw	s5,36(sp)
10001c88:	d05a                	sw	s6,32(sp)
10001c8a:	ce5e                	sw	s7,28(sp)
10001c8c:	0068                	addi	a0,sp,12
10001c8e:	37a1                	jal	10001bd6 <ta_from_current_irq>
10001c90:	bff487b7          	lui	a5,0xbff48
10001c94:	97aa                	add	a5,a5,a0
10001c96:	0017b793          	seqz	a5,a5
10001c9a:	4732                	lw	a4,12(sp)
10001c9c:	200056b7          	lui	a3,0x20005
10001ca0:	20e7c7b3          	sh2add	a5,a5,a4
10001ca4:	d8c68693          	addi	a3,a3,-628 # 20004d8c <pools>
10001ca8:	20d7c7b3          	sh2add	a5,a5,a3
10001cac:	4380                	lw	s0,0(a5)
10001cae:	00044783          	lbu	a5,0(s0)
10001cb2:	00f71b63          	bne	a4,a5,10001cc8 <alarm_pool_irq_handler+0x50>
10001cb6:	84aa                	mv	s1,a0
10001cb8:	04450793          	addi	a5,a0,68 # 400b0044 <__StackTop+0x2002e044>
10001cbc:	28e01733          	bset	a4,zero,a4
10001cc0:	668d                	lui	a3,0x3
10001cc2:	97b6                	add	a5,a5,a3
10001cc4:	c398                	sw	a4,0(a5)
10001cc6:	a459                	j	10001f4c <alarm_pool_irq_handler+0x2d4>
10001cc8:	100096b7          	lui	a3,0x10009
10001ccc:	36868693          	addi	a3,a3,872 # 10009368 <__EH_FRAME_BEGIN__+0x6a8>
10001cd0:	1000a637          	lui	a2,0x1000a
10001cd4:	bc860613          	addi	a2,a2,-1080 # 10009bc8 <__func__.2>
10001cd8:	09200593          	li	a1,146
10001cdc:	10009537          	lui	a0,0x10009
10001ce0:	39450513          	addi	a0,a0,916 # 10009394 <__EH_FRAME_BEGIN__+0x6d4>
10001ce4:	5e4020ef          	jal	100042c8 <__assert_func>
10001ce8:	485c                	lw	a5,20(s0)
10001cea:	212929b3          	sh1add	s3,s2,s2
10001cee:	20f9e9b3          	sh3add	s3,s3,a5
10001cf2:	0089aa83          	lw	s5,8(s3)
10001cf6:	00c9aa03          	lw	s4,12(s3)
10001cfa:	8526                	mv	a0,s1
10001cfc:	0dd000ef          	jal	100025d8 <timer_time_us_64>
10001d00:	41550733          	sub	a4,a0,s5
10001d04:	00e53733          	sltu	a4,a0,a4
10001d08:	414587b3          	sub	a5,a1,s4
10001d0c:	8f99                	sub	a5,a5,a4
10001d0e:	2407c763          	bltz	a5,10001f5c <alarm_pool_irq_handler+0x2e4>
10001d12:	0e0a4063          	bltz	s4,10001df2 <alarm_pool_irq_handler+0x17a>
10001d16:	0109ab03          	lw	s6,16(s3)
10001d1a:	100027b7          	lui	a5,0x10002
10001d1e:	c7878793          	addi	a5,a5,-904 # 10001c78 <alarm_pool_irq_handler>
10001d22:	06fb0763          	beq	s6,a5,10001d90 <alarm_pool_irq_handler+0x118>
10001d26:	0029d583          	lhu	a1,2(s3)
10001d2a:	00841503          	lh	a0,8(s0)
10001d2e:	3721                	jal	10001c36 <make_alarm_id>
10001d30:	0149a583          	lw	a1,20(s3)
10001d34:	9b02                	jalr	s6
10001d36:	8b2a                	mv	s6,a0
10001d38:	8bae                	mv	s7,a1
10001d3a:	017b67b3          	or	a5,s6,s7
10001d3e:	cbd5                	beqz	a5,10001df2 <alarm_pool_irq_handler+0x17a>
10001d40:	060bd463          	bgez	s7,10001da8 <alarm_pool_irq_handler+0x130>
10001d44:	416a86b3          	sub	a3,s5,s6
10001d48:	00dabab3          	sltu	s5,s5,a3
10001d4c:	417a07b3          	sub	a5,s4,s7
10001d50:	415787b3          	sub	a5,a5,s5
10001d54:	00d9a423          	sw	a3,8(s3)
10001d58:	00f9a623          	sw	a5,12(s3)
10001d5c:	00099503          	lh	a0,0(s3)
10001d60:	1e054e63          	bltz	a0,10001f5c <alarm_pool_irq_handler+0x2e4>
10001d64:	01442883          	lw	a7,20(s0)
10001d68:	20a52733          	sh1add	a4,a0,a0
10001d6c:	21176733          	sh3add	a4,a4,a7
10001d70:	4710                	lw	a2,8(a4)
10001d72:	4758                	lw	a4,12(a4)
10001d74:	40c68633          	sub	a2,a3,a2
10001d78:	00c6b633          	sltu	a2,a3,a2
10001d7c:	40e78733          	sub	a4,a5,a4
10001d80:	8f11                	sub	a4,a4,a2
10001d82:	1c074d63          	bltz	a4,10001f5c <alarm_pool_irq_handler+0x2e4>
10001d86:	00a41423          	sh	a0,8(s0)
10001d8a:	00840813          	addi	a6,s0,8
10001d8e:	a815                	j	10001dc2 <alarm_pool_irq_handler+0x14a>
10001d90:	0149ab83          	lw	s7,20(s3)
10001d94:	010ba783          	lw	a5,16(s7)
10001d98:	855e                	mv	a0,s7
10001d9a:	9782                	jalr	a5
10001d9c:	c939                	beqz	a0,10001df2 <alarm_pool_irq_handler+0x17a>
10001d9e:	000bab03          	lw	s6,0(s7)
10001da2:	004bab83          	lw	s7,4(s7)
10001da6:	bf51                	j	10001d3a <alarm_pool_irq_handler+0xc2>
10001da8:	8526                	mv	a0,s1
10001daa:	02f000ef          	jal	100025d8 <timer_time_us_64>
10001dae:	00ab06b3          	add	a3,s6,a0
10001db2:	00a6b7b3          	sltu	a5,a3,a0
10001db6:	9bae                	add	s7,s7,a1
10001db8:	97de                	add	a5,a5,s7
10001dba:	bf69                	j	10001d54 <alarm_pool_irq_handler+0xdc>
10001dbc:	883a                	mv	a6,a4
10001dbe:	00071503          	lh	a0,0(a4)
10001dc2:	02054363          	bltz	a0,10001de8 <alarm_pool_irq_handler+0x170>
10001dc6:	00081703          	lh	a4,0(a6)
10001dca:	20e72733          	sh1add	a4,a4,a4
10001dce:	21176733          	sh3add	a4,a4,a7
10001dd2:	470c                	lw	a1,8(a4)
10001dd4:	4750                	lw	a2,12(a4)
10001dd6:	40b685b3          	sub	a1,a3,a1
10001dda:	00b6b5b3          	sltu	a1,a3,a1
10001dde:	40c78633          	sub	a2,a5,a2
10001de2:	8e0d                	sub	a2,a2,a1
10001de4:	fc065ce3          	bgez	a2,10001dbc <alarm_pool_irq_handler+0x144>
10001de8:	00a99023          	sh	a0,0(s3)
10001dec:	01281023          	sh	s2,0(a6)
10001df0:	a2b5                	j	10001f5c <alarm_pool_irq_handler+0x2e4>
10001df2:	00099783          	lh	a5,0(s3)
10001df6:	00f41423          	sh	a5,8(s0)
10001dfa:	481c                	lw	a5,16(s0)
10001dfc:	30047773          	csrrci	a4,mstatus,8
10001e00:	00379693          	slli	a3,a5,0x3
10001e04:	28d016b3          	bset	a3,zero,a3
10001e08:	9bf1                	andi	a5,a5,-4
10001e0a:	44d7a62f          	amoor.w.aq	a2,a3,(a5)
10001e0e:	8e75                	and	a2,a2,a3
10001e10:	fe6d                	bnez	a2,10001e0a <alarm_pool_irq_handler+0x192>
10001e12:	0330000f          	fence	rw,rw
10001e16:	00241783          	lh	a5,2(s0)
10001e1a:	00f99023          	sh	a5,0(s3)
10001e1e:	01241123          	sh	s2,2(s0)
10001e22:	481c                	lw	a5,16(s0)
10001e24:	0330000f          	fence	rw,rw
10001e28:	00078023          	sb	zero,0(a5)
10001e2c:	00877793          	andi	a5,a4,8
10001e30:	3007a073          	csrs	mstatus,a5
10001e34:	a225                	j	10001f5c <alarm_pool_irq_handler+0x2e4>
10001e36:	481c                	lw	a5,16(s0)
10001e38:	30047773          	csrrci	a4,mstatus,8
10001e3c:	00379693          	slli	a3,a5,0x3
10001e40:	28d016b3          	bset	a3,zero,a3
10001e44:	9bf1                	andi	a5,a5,-4
10001e46:	44d7a62f          	amoor.w.aq	a2,a3,(a5)
10001e4a:	8e75                	and	a2,a2,a3
10001e4c:	fe6d                	bnez	a2,10001e46 <alarm_pool_irq_handler+0x1ce>
10001e4e:	0330000f          	fence	rw,rw
10001e52:	00445e03          	lhu	t3,4(s0)
10001e56:	605e1e13          	sext.h	t3,t3
10001e5a:	57fd                	li	a5,-1
10001e5c:	00f41223          	sh	a5,4(s0)
10001e60:	481c                	lw	a5,16(s0)
10001e62:	0330000f          	fence	rw,rw
10001e66:	00078023          	sb	zero,0(a5)
10001e6a:	00877793          	andi	a5,a4,8
10001e6e:	3007a073          	csrs	mstatus,a5
10001e72:	a82d                	j	10001eac <alarm_pool_irq_handler+0x234>
10001e74:	85be                	mv	a1,a5
10001e76:	00079603          	lh	a2,0(a5)
10001e7a:	02064363          	bltz	a2,10001ea0 <alarm_pool_irq_handler+0x228>
10001e7e:	00059783          	lh	a5,0(a1)
10001e82:	20f7a7b3          	sh1add	a5,a5,a5
10001e86:	2107e7b3          	sh3add	a5,a5,a6
10001e8a:	4794                	lw	a3,8(a5)
10001e8c:	47d8                	lw	a4,12(a5)
10001e8e:	40d506b3          	sub	a3,a0,a3
10001e92:	00d536b3          	sltu	a3,a0,a3
10001e96:	40e88733          	sub	a4,a7,a4
10001e9a:	8f15                	sub	a4,a4,a3
10001e9c:	fc075ce3          	bgez	a4,10001e74 <alarm_pool_irq_handler+0x1fc>
10001ea0:	01c59023          	sh	t3,0(a1)
10001ea4:	00031e03          	lh	t3,0(t1) # 100000f0 <frame_dummy+0x16>
10001ea8:	00c31023          	sh	a2,0(t1)
10001eac:	0a0e4e63          	bltz	t3,10001f68 <alarm_pool_irq_handler+0x2f0>
10001eb0:	01442803          	lw	a6,20(s0)
10001eb4:	21ce2333          	sh1add	t1,t3,t3
10001eb8:	21036333          	sh3add	t1,t1,a6
10001ebc:	00832503          	lw	a0,8(t1)
10001ec0:	00c32883          	lw	a7,12(t1)
10001ec4:	00840593          	addi	a1,s0,8
10001ec8:	00841603          	lh	a2,8(s0)
10001ecc:	b77d                	j	10001e7a <alarm_pool_irq_handler+0x202>
10001ece:	00040323          	sb	zero,6(s0)
10001ed2:	00840593          	addi	a1,s0,8
10001ed6:	00841703          	lh	a4,8(s0)
10001eda:	a025                	j	10001f02 <alarm_pool_irq_handler+0x28a>
10001edc:	587d                	li	a6,-1
10001ede:	58fd                	li	a7,-1
10001ee0:	0107a423          	sw	a6,8(a5)
10001ee4:	0117a623          	sw	a7,12(a5)
10001ee8:	00841683          	lh	a3,8(s0)
10001eec:	00e68a63          	beq	a3,a4,10001f00 <alarm_pool_irq_handler+0x288>
10001ef0:	00c59023          	sh	a2,0(a1)
10001ef4:	00841683          	lh	a3,8(s0)
10001ef8:	00d79023          	sh	a3,0(a5)
10001efc:	00e41423          	sh	a4,8(s0)
10001f00:	8732                	mv	a4,a2
10001f02:	57fd                	li	a5,-1
10001f04:	06f70563          	beq	a4,a5,10001f6e <alarm_pool_irq_handler+0x2f6>
10001f08:	4854                	lw	a3,20(s0)
10001f0a:	20e727b3          	sh1add	a5,a4,a4
10001f0e:	20d7e7b3          	sh3add	a5,a5,a3
10001f12:	00079603          	lh	a2,0(a5)
10001f16:	0027d683          	lhu	a3,2(a5)
10001f1a:	60569693          	sext.h	a3,a3
10001f1e:	fa06cfe3          	bltz	a3,10001edc <alarm_pool_irq_handler+0x264>
10001f22:	85be                	mv	a1,a5
10001f24:	bff1                	j	10001f00 <alarm_pool_irq_handler+0x288>
10001f26:	864e                	mv	a2,s3
10001f28:	86ca                	mv	a3,s2
10001f2a:	45b2                	lw	a1,12(sp)
10001f2c:	8526                	mv	a0,s1
10001f2e:	39f9                	jal	10001c0c <ta_set_timeout>
10001f30:	8526                	mv	a0,s1
10001f32:	255d                	jal	100025d8 <timer_time_us_64>
10001f34:	40a987b3          	sub	a5,s3,a0
10001f38:	00f9b9b3          	sltu	s3,s3,a5
10001f3c:	40b90933          	sub	s2,s2,a1
10001f40:	41390933          	sub	s2,s2,s3
10001f44:	05204963          	bgtz	s2,10001f96 <alarm_pool_irq_handler+0x31e>
10001f48:	04090663          	beqz	s2,10001f94 <alarm_pool_irq_handler+0x31c>
10001f4c:	47b2                	lw	a5,12(sp)
10001f4e:	28f017b3          	bset	a5,zero,a5
10001f52:	dcdc                	sw	a5,60(s1)
10001f54:	00841903          	lh	s2,8(s0)
10001f58:	d80958e3          	bgez	s2,10001ce8 <alarm_pool_irq_handler+0x70>
10001f5c:	00445783          	lhu	a5,4(s0)
10001f60:	60579793          	sext.h	a5,a5
10001f64:	ec07d9e3          	bgez	a5,10001e36 <alarm_pool_irq_handler+0x1be>
10001f68:	00644783          	lbu	a5,6(s0)
10001f6c:	f3ad                	bnez	a5,10001ece <alarm_pool_irq_handler+0x256>
10001f6e:	00841783          	lh	a5,8(s0)
10001f72:	0207c263          	bltz	a5,10001f96 <alarm_pool_irq_handler+0x31e>
10001f76:	4858                	lw	a4,20(s0)
10001f78:	20f7a7b3          	sh1add	a5,a5,a5
10001f7c:	20e7e7b3          	sh3add	a5,a5,a4
10001f80:	0087a983          	lw	s3,8(a5)
10001f84:	00c7a903          	lw	s2,12(a5)
10001f88:	57fd                	li	a5,-1
10001f8a:	f8f99ee3          	bne	s3,a5,10001f26 <alarm_pool_irq_handler+0x2ae>
10001f8e:	fb3901e3          	beq	s2,s3,10001f30 <alarm_pool_irq_handler+0x2b8>
10001f92:	bf51                	j	10001f26 <alarm_pool_irq_handler+0x2ae>
10001f94:	dfc5                	beqz	a5,10001f4c <alarm_pool_irq_handler+0x2d4>
10001f96:	00102033          	sgtz	zero,ra
10001f9a:	50f2                	lw	ra,60(sp)
10001f9c:	5462                	lw	s0,56(sp)
10001f9e:	54d2                	lw	s1,52(sp)
10001fa0:	5942                	lw	s2,48(sp)
10001fa2:	59b2                	lw	s3,44(sp)
10001fa4:	5a22                	lw	s4,40(sp)
10001fa6:	5a92                	lw	s5,36(sp)
10001fa8:	5b02                	lw	s6,32(sp)
10001faa:	4bf2                	lw	s7,28(sp)
10001fac:	6121                	addi	sp,sp,64
10001fae:	8082                	ret

10001fb0 <ta_enable_irq_handler>:
10001fb0:	1141                	addi	sp,sp,-16
10001fb2:	c606                	sw	ra,12(sp)
10001fb4:	c422                	sw	s0,8(sp)
10001fb6:	c226                	sw	s1,4(sp)
10001fb8:	c04a                	sw	s2,0(sp)
10001fba:	842a                	mv	s0,a0
10001fbc:	84ae                	mv	s1,a1
10001fbe:	85b2                	mv	a1,a2
10001fc0:	400b87b7          	lui	a5,0x400b8
10001fc4:	02f50963          	beq	a0,a5,10001ff6 <ta_enable_irq_handler+0x46>
10001fc8:	4901                	li	s2,0
10001fca:	9926                	add	s2,s2,s1
10001fcc:	289014b3          	bset	s1,zero,s1
10001fd0:	d004                	sw	s1,32(s0)
10001fd2:	854a                	mv	a0,s2
10001fd4:	de8ff0ef          	jal	100015bc <irq_set_exclusive_handler>
10001fd8:	4585                	li	a1,1
10001fda:	854a                	mv	a0,s2
10001fdc:	d8cff0ef          	jal	10001568 <irq_set_enabled>
10001fe0:	04040413          	addi	s0,s0,64
10001fe4:	6789                	lui	a5,0x2
10001fe6:	943e                	add	s0,s0,a5
10001fe8:	c004                	sw	s1,0(s0)
10001fea:	40b2                	lw	ra,12(sp)
10001fec:	4422                	lw	s0,8(sp)
10001fee:	4492                	lw	s1,4(sp)
10001ff0:	4902                	lw	s2,0(sp)
10001ff2:	0141                	addi	sp,sp,16
10001ff4:	8082                	ret
10001ff6:	4911                	li	s2,4
10001ff8:	bfc9                	j	10001fca <ta_enable_irq_handler+0x1a>

10001ffa <alarm_pool_post_alloc_init>:
10001ffa:	1101                	addi	sp,sp,-32
10001ffc:	ce06                	sw	ra,28(sp)
10001ffe:	cc22                	sw	s0,24(sp)
10002000:	ca26                	sw	s1,20(sp)
10002002:	c84a                	sw	s2,16(sp)
10002004:	c64e                	sw	s3,12(sp)
10002006:	842a                	mv	s0,a0
10002008:	892e                	mv	s2,a1
1000200a:	89b2                	mv	s3,a2
1000200c:	84b6                	mv	s1,a3
1000200e:	c54c                	sw	a1,12(a0)
10002010:	b28ff0ef          	jal	10001338 <next_striped_spin_lock_num>
10002014:	200047b7          	lui	a5,0x20004
10002018:	52478793          	addi	a5,a5,1316 # 20004524 <_sw_spin_locks>
1000201c:	97aa                	add	a5,a5,a0
1000201e:	c81c                	sw	a5,16(s0)
10002020:	01340023          	sb	s3,0(s0)
10002024:	0804c7b3          	zext.h	a5,s1
10002028:	00f41523          	sh	a5,10(s0)
1000202c:	d0000737          	lui	a4,0xd0000
10002030:	00074703          	lbu	a4,0(a4) # d0000000 <__StackTop+0xaff7e000>
10002034:	00e400a3          	sb	a4,1(s0)
10002038:	577d                	li	a4,-1
1000203a:	00e41423          	sh	a4,8(s0)
1000203e:	00e41223          	sh	a4,4(s0)
10002042:	97ba                	add	a5,a5,a4
10002044:	00f41123          	sh	a5,2(s0)
10002048:	4781                	li	a5,0
1000204a:	a821                	j	10002062 <alarm_pool_post_alloc_init+0x68>
1000204c:	fff78813          	addi	a6,a5,-1
10002050:	01442883          	lw	a7,20(s0)
10002054:	20f7a733          	sh1add	a4,a5,a5
10002058:	21176733          	sh3add	a4,a4,a7
1000205c:	01071023          	sh	a6,0(a4)
10002060:	0785                	addi	a5,a5,1
10002062:	fe97e5e3          	bltu	a5,s1,1000204c <alarm_pool_post_alloc_init+0x52>
10002066:	bff487b7          	lui	a5,0xbff48
1000206a:	97ca                	add	a5,a5,s2
1000206c:	0017b793          	seqz	a5,a5
10002070:	20005737          	lui	a4,0x20005
10002074:	2137c7b3          	sh2add	a5,a5,s3
10002078:	d8c70713          	addi	a4,a4,-628 # 20004d8c <pools>
1000207c:	20e7c7b3          	sh2add	a5,a5,a4
10002080:	c380                	sw	s0,0(a5)
10002082:	10002637          	lui	a2,0x10002
10002086:	c7860613          	addi	a2,a2,-904 # 10001c78 <alarm_pool_irq_handler>
1000208a:	85ce                	mv	a1,s3
1000208c:	854a                	mv	a0,s2
1000208e:	370d                	jal	10001fb0 <ta_enable_irq_handler>
10002090:	40f2                	lw	ra,28(sp)
10002092:	4462                	lw	s0,24(sp)
10002094:	44d2                	lw	s1,20(sp)
10002096:	4942                	lw	s2,16(sp)
10002098:	49b2                	lw	s3,12(sp)
1000209a:	6105                	addi	sp,sp,32
1000209c:	8082                	ret

1000209e <alarm_pool_get_default>:
1000209e:	200047b7          	lui	a5,0x20004
100020a2:	bd478793          	addi	a5,a5,-1068 # 20003bd4 <default_alarm_pool>
100020a6:	4b9c                	lw	a5,16(a5)
100020a8:	c791                	beqz	a5,100020b4 <alarm_pool_get_default+0x16>
100020aa:	20004537          	lui	a0,0x20004
100020ae:	bd450513          	addi	a0,a0,-1068 # 20003bd4 <default_alarm_pool>
100020b2:	8082                	ret
100020b4:	1141                	addi	sp,sp,-16
100020b6:	c606                	sw	ra,12(sp)
100020b8:	100096b7          	lui	a3,0x10009
100020bc:	3d468693          	addi	a3,a3,980 # 100093d4 <__EH_FRAME_BEGIN__+0x714>
100020c0:	1000a637          	lui	a2,0x1000a
100020c4:	bb060613          	addi	a2,a2,-1104 # 10009bb0 <__func__.1>
100020c8:	06500593          	li	a1,101
100020cc:	10009537          	lui	a0,0x10009
100020d0:	39450513          	addi	a0,a0,916 # 10009394 <__EH_FRAME_BEGIN__+0x6d4>
100020d4:	1f4020ef          	jal	100042c8 <__assert_func>

100020d8 <alarm_pool_add_alarm_at_force_in_context>:
100020d8:	1141                	addi	sp,sp,-16
100020da:	c606                	sw	ra,12(sp)
100020dc:	c422                	sw	s0,8(sp)
100020de:	c226                	sw	s1,4(sp)
100020e0:	c04a                	sw	s2,0(sp)
100020e2:	842a                	mv	s0,a0
100020e4:	491c                	lw	a5,16(a0)
100020e6:	30047573          	csrrci	a0,mstatus,8
100020ea:	00379813          	slli	a6,a5,0x3
100020ee:	29001833          	bset	a6,zero,a6
100020f2:	9bf1                	andi	a5,a5,-4
100020f4:	4507a8af          	amoor.w.aq	a7,a6,(a5)
100020f8:	0108f8b3          	and	a7,a7,a6
100020fc:	fe089ce3          	bnez	a7,100020f4 <alarm_pool_add_alarm_at_force_in_context+0x1c>
10002100:	0330000f          	fence	rw,rw
10002104:	00241903          	lh	s2,2(s0)
10002108:	485c                	lw	a5,20(s0)
1000210a:	212924b3          	sh1add	s1,s2,s2
1000210e:	20f4e4b3          	sh3add	s1,s1,a5
10002112:	00094663          	bltz	s2,1000211e <alarm_pool_add_alarm_at_force_in_context+0x46>
10002116:	00049783          	lh	a5,0(s1)
1000211a:	00f41123          	sh	a5,2(s0)
1000211e:	481c                	lw	a5,16(s0)
10002120:	0330000f          	fence	rw,rw
10002124:	00078023          	sb	zero,0(a5)
10002128:	00857793          	andi	a5,a0,8
1000212c:	3007a073          	csrs	mstatus,a5
10002130:	08094163          	bltz	s2,100021b2 <alarm_pool_add_alarm_at_force_in_context+0xda>
10002134:	c894                	sw	a3,16(s1)
10002136:	c8d8                	sw	a4,20(s1)
10002138:	c48c                	sw	a1,8(s1)
1000213a:	c4d0                	sw	a2,12(s1)
1000213c:	0024d583          	lhu	a1,2(s1)
10002140:	0585                	addi	a1,a1,1
10002142:	0805c5b3          	zext.h	a1,a1
10002146:	67a1                	lui	a5,0x8
10002148:	17fd                	addi	a5,a5,-1 # 7fff <HeapSize+0x77ff>
1000214a:	8dfd                	and	a1,a1,a5
1000214c:	e191                	bnez	a1,10002150 <alarm_pool_add_alarm_at_force_in_context+0x78>
1000214e:	4585                	li	a1,1
10002150:	00b49123          	sh	a1,2(s1)
10002154:	854a                	mv	a0,s2
10002156:	34c5                	jal	10001c36 <make_alarm_id>
10002158:	481c                	lw	a5,16(s0)
1000215a:	30047773          	csrrci	a4,mstatus,8
1000215e:	00379693          	slli	a3,a5,0x3
10002162:	28d016b3          	bset	a3,zero,a3
10002166:	9bf1                	andi	a5,a5,-4
10002168:	44d7a62f          	amoor.w.aq	a2,a3,(a5)
1000216c:	8e75                	and	a2,a2,a3
1000216e:	fe6d                	bnez	a2,10002168 <alarm_pool_add_alarm_at_force_in_context+0x90>
10002170:	0330000f          	fence	rw,rw
10002174:	00445783          	lhu	a5,4(s0)
10002178:	00f49023          	sh	a5,0(s1)
1000217c:	01241223          	sh	s2,4(s0)
10002180:	481c                	lw	a5,16(s0)
10002182:	0330000f          	fence	rw,rw
10002186:	00078023          	sb	zero,0(a5)
1000218a:	00877793          	andi	a5,a4,8
1000218e:	3007a073          	csrs	mstatus,a5
10002192:	445c                	lw	a5,12(s0)
10002194:	00044703          	lbu	a4,0(s0)
10002198:	04478793          	addi	a5,a5,68
1000219c:	28e01733          	bset	a4,zero,a4
100021a0:	6689                	lui	a3,0x2
100021a2:	97b6                	add	a5,a5,a3
100021a4:	c398                	sw	a4,0(a5)
100021a6:	40b2                	lw	ra,12(sp)
100021a8:	4422                	lw	s0,8(sp)
100021aa:	4492                	lw	s1,4(sp)
100021ac:	4902                	lw	s2,0(sp)
100021ae:	0141                	addi	sp,sp,16
100021b0:	8082                	ret
100021b2:	557d                	li	a0,-1
100021b4:	bfcd                	j	100021a6 <alarm_pool_add_alarm_at_force_in_context+0xce>

100021b6 <alarm_pool_add_alarm_at>:
100021b6:	1101                	addi	sp,sp,-32
100021b8:	ce06                	sw	ra,28(sp)
100021ba:	cc22                	sw	s0,24(sp)
100021bc:	ca26                	sw	s1,20(sp)
100021be:	c84a                	sw	s2,16(sp)
100021c0:	c64e                	sw	s3,12(sp)
100021c2:	c452                	sw	s4,8(sp)
100021c4:	892a                	mv	s2,a0
100021c6:	842e                	mv	s0,a1
100021c8:	84b2                	mv	s1,a2
100021ca:	89b6                	mv	s3,a3
100021cc:	8a3a                	mv	s4,a4
100021ce:	eb99                	bnez	a5,100021e4 <alarm_pool_add_alarm_at+0x2e>
100021d0:	2995                	jal	10002644 <time_us_64>
100021d2:	40a40533          	sub	a0,s0,a0
100021d6:	00a43533          	sltu	a0,s0,a0
100021da:	40b485b3          	sub	a1,s1,a1
100021de:	8d89                	sub	a1,a1,a0
100021e0:	0205c063          	bltz	a1,10002200 <alarm_pool_add_alarm_at+0x4a>
100021e4:	8752                	mv	a4,s4
100021e6:	86ce                	mv	a3,s3
100021e8:	85a2                	mv	a1,s0
100021ea:	8626                	mv	a2,s1
100021ec:	854a                	mv	a0,s2
100021ee:	35ed                	jal	100020d8 <alarm_pool_add_alarm_at_force_in_context>
100021f0:	40f2                	lw	ra,28(sp)
100021f2:	4462                	lw	s0,24(sp)
100021f4:	44d2                	lw	s1,20(sp)
100021f6:	4942                	lw	s2,16(sp)
100021f8:	49b2                	lw	s3,12(sp)
100021fa:	4a22                	lw	s4,8(sp)
100021fc:	6105                	addi	sp,sp,32
100021fe:	8082                	ret
10002200:	4501                	li	a0,0
10002202:	b7fd                	j	100021f0 <alarm_pool_add_alarm_at+0x3a>

10002204 <add_alarm_at>:
10002204:	1101                	addi	sp,sp,-32
10002206:	ce06                	sw	ra,28(sp)
10002208:	cc22                	sw	s0,24(sp)
1000220a:	ca26                	sw	s1,20(sp)
1000220c:	c84a                	sw	s2,16(sp)
1000220e:	c64e                	sw	s3,12(sp)
10002210:	c452                	sw	s4,8(sp)
10002212:	8a2a                	mv	s4,a0
10002214:	89ae                	mv	s3,a1
10002216:	8932                	mv	s2,a2
10002218:	84b6                	mv	s1,a3
1000221a:	843a                	mv	s0,a4
1000221c:	3549                	jal	1000209e <alarm_pool_get_default>
1000221e:	87a2                	mv	a5,s0
10002220:	8726                	mv	a4,s1
10002222:	86ca                	mv	a3,s2
10002224:	85d2                	mv	a1,s4
10002226:	864e                	mv	a2,s3
10002228:	3779                	jal	100021b6 <alarm_pool_add_alarm_at>
1000222a:	40f2                	lw	ra,28(sp)
1000222c:	4462                	lw	s0,24(sp)
1000222e:	44d2                	lw	s1,20(sp)
10002230:	4942                	lw	s2,16(sp)
10002232:	49b2                	lw	s3,12(sp)
10002234:	4a22                	lw	s4,8(sp)
10002236:	6105                	addi	sp,sp,32
10002238:	8082                	ret

1000223a <alarm_pool_cancel_alarm>:
1000223a:	87aa                	mv	a5,a0
1000223c:	4105d713          	srai	a4,a1,0x10
10002240:	00a55683          	lhu	a3,10(a0)
10002244:	06d75e63          	bge	a4,a3,100022c0 <alarm_pool_cancel_alarm+0x86>
10002248:	4954                	lw	a3,20(a0)
1000224a:	20e72733          	sh1add	a4,a4,a4
1000224e:	20d76733          	sh3add	a4,a4,a3
10002252:	4914                	lw	a3,16(a0)
10002254:	30047673          	csrrci	a2,mstatus,8
10002258:	00369513          	slli	a0,a3,0x3
1000225c:	28a01533          	bset	a0,zero,a0
10002260:	9af1                	andi	a3,a3,-4
10002262:	44a6a82f          	amoor.w.aq	a6,a0,(a3)
10002266:	00a87833          	and	a6,a6,a0
1000226a:	fe081ce3          	bnez	a6,10002262 <alarm_pool_cancel_alarm+0x28>
1000226e:	0330000f          	fence	rw,rw
10002272:	00275683          	lhu	a3,2(a4)
10002276:	0806c533          	zext.h	a0,a3
1000227a:	0805c5b3          	zext.h	a1,a1
1000227e:	02b68863          	beq	a3,a1,100022ae <alarm_pool_cancel_alarm+0x74>
10002282:	4501                	li	a0,0
10002284:	4b98                	lw	a4,16(a5)
10002286:	0330000f          	fence	rw,rw
1000228a:	00070023          	sb	zero,0(a4)
1000228e:	00867713          	andi	a4,a2,8
10002292:	30072073          	csrs	mstatus,a4
10002296:	c515                	beqz	a0,100022c2 <alarm_pool_cancel_alarm+0x88>
10002298:	47d8                	lw	a4,12(a5)
1000229a:	0007c683          	lbu	a3,0(a5)
1000229e:	04470793          	addi	a5,a4,68
100022a2:	28d01733          	bset	a4,zero,a3
100022a6:	6689                	lui	a3,0x2
100022a8:	97b6                	add	a5,a5,a3
100022aa:	c398                	sw	a4,0(a5)
100022ac:	8082                	ret
100022ae:	28f51513          	bseti	a0,a0,0xf
100022b2:	00a71123          	sh	a0,2(a4)
100022b6:	4705                	li	a4,1
100022b8:	00e78323          	sb	a4,6(a5)
100022bc:	853a                	mv	a0,a4
100022be:	b7d9                	j	10002284 <alarm_pool_cancel_alarm+0x4a>
100022c0:	4501                	li	a0,0
100022c2:	8082                	ret

100022c4 <cancel_alarm>:
100022c4:	1141                	addi	sp,sp,-16
100022c6:	c606                	sw	ra,12(sp)
100022c8:	c422                	sw	s0,8(sp)
100022ca:	842a                	mv	s0,a0
100022cc:	3bc9                	jal	1000209e <alarm_pool_get_default>
100022ce:	85a2                	mv	a1,s0
100022d0:	37ad                	jal	1000223a <alarm_pool_cancel_alarm>
100022d2:	40b2                	lw	ra,12(sp)
100022d4:	4422                	lw	s0,8(sp)
100022d6:	0141                	addi	sp,sp,16
100022d8:	8082                	ret

100022da <alarm_pool_core_num>:
100022da:	00154503          	lbu	a0,1(a0)
100022de:	8082                	ret

100022e0 <sleep_until>:
100022e0:	1101                	addi	sp,sp,-32
100022e2:	ce06                	sw	ra,28(sp)
100022e4:	cc22                	sw	s0,24(sp)
100022e6:	ca26                	sw	s1,20(sp)
100022e8:	c84a                	sw	s2,16(sp)
100022ea:	c64e                	sw	s3,12(sp)
100022ec:	be5027f3          	csrr	a5,0xbe5
100022f0:	01079713          	slli	a4,a5,0x10
100022f4:	04075863          	bgez	a4,10002344 <sleep_until+0x64>
100022f8:	84aa                	mv	s1,a0
100022fa:	842e                	mv	s0,a1
100022fc:	ffa50993          	addi	s3,a0,-6
10002300:	00a9b933          	sltu	s2,s3,a0
10002304:	fff58793          	addi	a5,a1,-1
10002308:	993e                	add	s2,s2,a5
1000230a:	0125e663          	bltu	a1,s2,10002316 <sleep_until+0x36>
1000230e:	00b91663          	bne	s2,a1,1000231a <sleep_until+0x3a>
10002312:	01357463          	bgeu	a0,s3,1000231a <sleep_until+0x3a>
10002316:	4981                	li	s3,0
10002318:	4901                	li	s2,0
1000231a:	262d                	jal	10002644 <time_us_64>
1000231c:	40a98533          	sub	a0,s3,a0
10002320:	00a9b7b3          	sltu	a5,s3,a0
10002324:	40b905b3          	sub	a1,s2,a1
10002328:	8d9d                	sub	a1,a1,a5
1000232a:	02b04463          	bgtz	a1,10002352 <sleep_until+0x72>
1000232e:	c18d                	beqz	a1,10002350 <sleep_until+0x70>
10002330:	8526                	mv	a0,s1
10002332:	85a2                	mv	a1,s0
10002334:	2e15                	jal	10002668 <busy_wait_until>
10002336:	40f2                	lw	ra,28(sp)
10002338:	4462                	lw	s0,24(sp)
1000233a:	44d2                	lw	s1,20(sp)
1000233c:	4942                	lw	s2,16(sp)
1000233e:	49b2                	lw	s3,12(sp)
10002340:	6105                	addi	sp,sp,32
10002342:	8082                	ret
10002344:	10009537          	lui	a0,0x10009
10002348:	3f850513          	addi	a0,a0,1016 # 100093f8 <__EH_FRAME_BEGIN__+0x738>
1000234c:	eb9fe0ef          	jal	10001204 <panic>
10002350:	d165                	beqz	a0,10002330 <sleep_until+0x50>
10002352:	4701                	li	a4,0
10002354:	4681                	li	a3,0
10002356:	10002637          	lui	a2,0x10002
1000235a:	c3c60613          	addi	a2,a2,-964 # 10001c3c <sleep_until_callback>
1000235e:	854e                	mv	a0,s3
10002360:	85ca                	mv	a1,s2
10002362:	354d                	jal	10002204 <add_alarm_at>
10002364:	02055e63          	bgez	a0,100023a0 <sleep_until+0xc0>
10002368:	b7e1                	j	10002330 <sleep_until+0x50>
1000236a:	8131a783          	lw	a5,-2029(gp) # 20004ed0 <sleep_notifier>
1000236e:	30047773          	csrrci	a4,mstatus,8
10002372:	00379613          	slli	a2,a5,0x3
10002376:	28c01633          	bset	a2,zero,a2
1000237a:	9bf1                	andi	a5,a5,-4
1000237c:	44c7a5af          	amoor.w.aq	a1,a2,(a5)
10002380:	8df1                	and	a1,a1,a2
10002382:	fded                	bnez	a1,1000237c <sleep_until+0x9c>
10002384:	0330000f          	fence	rw,rw
10002388:	8131a783          	lw	a5,-2029(gp) # 20004ed0 <sleep_notifier>
1000238c:	0330000f          	fence	rw,rw
10002390:	00078023          	sb	zero,0(a5)
10002394:	00877793          	andi	a5,a4,8
10002398:	3007a073          	csrs	mstatus,a5
1000239c:	00002033          	sltz	zero,zero
100023a0:	400b07b7          	lui	a5,0x400b0
100023a4:	53dc                	lw	a5,36(a5)
100023a6:	fd27e2e3          	bltu	a5,s2,1000236a <sleep_until+0x8a>
100023aa:	400b06b7          	lui	a3,0x400b0
100023ae:	5694                	lw	a3,40(a3)
100023b0:	f936f0e3          	bgeu	a3,s3,10002330 <sleep_until+0x50>
100023b4:	f6f91ee3          	bne	s2,a5,10002330 <sleep_until+0x50>
100023b8:	bf4d                	j	1000236a <sleep_until+0x8a>

100023ba <sleep_us>:
100023ba:	1141                	addi	sp,sp,-16
100023bc:	c606                	sw	ra,12(sp)
100023be:	c422                	sw	s0,8(sp)
100023c0:	c226                	sw	s1,4(sp)
100023c2:	842a                	mv	s0,a0
100023c4:	84ae                	mv	s1,a1
100023c6:	2cbd                	jal	10002644 <time_us_64>
100023c8:	9522                	add	a0,a0,s0
100023ca:	00853433          	sltu	s0,a0,s0
100023ce:	95a6                	add	a1,a1,s1
100023d0:	95a2                	add	a1,a1,s0
100023d2:	0005c863          	bltz	a1,100023e2 <sleep_us+0x28>
100023d6:	3729                	jal	100022e0 <sleep_until>
100023d8:	40b2                	lw	ra,12(sp)
100023da:	4422                	lw	s0,8(sp)
100023dc:	4492                	lw	s1,4(sp)
100023de:	0141                	addi	sp,sp,16
100023e0:	8082                	ret
100023e2:	557d                	li	a0,-1
100023e4:	800005b7          	lui	a1,0x80000
100023e8:	95aa                	add	a1,a1,a0
100023ea:	b7f5                	j	100023d6 <sleep_us+0x1c>

100023ec <sleep_ms>:
100023ec:	1141                	addi	sp,sp,-16
100023ee:	c606                	sw	ra,12(sp)
100023f0:	3e800793          	li	a5,1000
100023f4:	02f535b3          	mulhu	a1,a0,a5
100023f8:	02f50533          	mul	a0,a0,a5
100023fc:	3f7d                	jal	100023ba <sleep_us>
100023fe:	40b2                	lw	ra,12(sp)
10002400:	0141                	addi	sp,sp,16
10002402:	8082                	ret

10002404 <best_effort_wfe_or_timeout>:
10002404:	1101                	addi	sp,sp,-32
10002406:	ce06                	sw	ra,28(sp)
10002408:	cc22                	sw	s0,24(sp)
1000240a:	ca26                	sw	s1,20(sp)
1000240c:	842a                	mv	s0,a0
1000240e:	84ae                	mv	s1,a1
10002410:	be5027f3          	csrr	a5,0xbe5
10002414:	01079713          	slli	a4,a5,0x10
10002418:	0a075e63          	bgez	a4,100024d4 <best_effort_wfe_or_timeout+0xd0>
1000241c:	c84a                	sw	s2,16(sp)
1000241e:	c64e                	sw	s3,12(sp)
10002420:	39bd                	jal	1000209e <alarm_pool_get_default>
10002422:	455c                	lw	a5,12(a0)
10002424:	873e                	mv	a4,a5
10002426:	00054783          	lbu	a5,0(a0)
1000242a:	89be                	mv	s3,a5
1000242c:	893a                	mv	s2,a4
1000242e:	853a                	mv	a0,a4
10002430:	2265                	jal	100025d8 <timer_time_us_64>
10002432:	40a407b3          	sub	a5,s0,a0
10002436:	00f436b3          	sltu	a3,s0,a5
1000243a:	40b485b3          	sub	a1,s1,a1
1000243e:	873e                	mv	a4,a5
10002440:	8d95                	sub	a1,a1,a3
10002442:	00498793          	addi	a5,s3,4
10002446:	2127c7b3          	sh2add	a5,a5,s2
1000244a:	439c                	lw	a5,0(a5)
1000244c:	8f89                	sub	a5,a5,a0
1000244e:	4681                	li	a3,0
10002450:	02d5c863          	blt	a1,a3,10002480 <best_effort_wfe_or_timeout+0x7c>
10002454:	02b68463          	beq	a3,a1,1000247c <best_effort_wfe_or_timeout+0x78>
10002458:	00002033          	sltz	zero,zero
1000245c:	400b07b7          	lui	a5,0x400b0
10002460:	53dc                	lw	a5,36(a5)
10002462:	0a97e563          	bltu	a5,s1,1000250c <best_effort_wfe_or_timeout+0x108>
10002466:	400b06b7          	lui	a3,0x400b0
1000246a:	5694                	lw	a3,40(a3)
1000246c:	0a86f463          	bgeu	a3,s0,10002514 <best_effort_wfe_or_timeout+0x110>
10002470:	08f48a63          	beq	s1,a5,10002504 <best_effort_wfe_or_timeout+0x100>
10002474:	4505                	li	a0,1
10002476:	4942                	lw	s2,16(sp)
10002478:	49b2                	lw	s3,12(sp)
1000247a:	a8b5                	j	100024f6 <best_effort_wfe_or_timeout+0xf2>
1000247c:	fcf77ee3          	bgeu	a4,a5,10002458 <best_effort_wfe_or_timeout+0x54>
10002480:	4701                	li	a4,0
10002482:	4681                	li	a3,0
10002484:	10002637          	lui	a2,0x10002
10002488:	c3c60613          	addi	a2,a2,-964 # 10001c3c <sleep_until_callback>
1000248c:	8522                	mv	a0,s0
1000248e:	85a6                	mv	a1,s1
10002490:	3b95                	jal	10002204 <add_alarm_at>
10002492:	08a05563          	blez	a0,1000251c <best_effort_wfe_or_timeout+0x118>
10002496:	400b07b7          	lui	a5,0x400b0
1000249a:	53dc                	lw	a5,36(a5)
1000249c:	0097e963          	bltu	a5,s1,100024ae <best_effort_wfe_or_timeout+0xaa>
100024a0:	400b0737          	lui	a4,0x400b0
100024a4:	5718                	lw	a4,40(a4)
100024a6:	00877663          	bgeu	a4,s0,100024b2 <best_effort_wfe_or_timeout+0xae>
100024aa:	00f49463          	bne	s1,a5,100024b2 <best_effort_wfe_or_timeout+0xae>
100024ae:	00002033          	sltz	zero,zero
100024b2:	3d09                	jal	100022c4 <cancel_alarm>
100024b4:	400b07b7          	lui	a5,0x400b0
100024b8:	53dc                	lw	a5,36(a5)
100024ba:	0a97e163          	bltu	a5,s1,1000255c <best_effort_wfe_or_timeout+0x158>
100024be:	400b0737          	lui	a4,0x400b0
100024c2:	5718                	lw	a4,40(a4)
100024c4:	0a877063          	bgeu	a4,s0,10002564 <best_effort_wfe_or_timeout+0x160>
100024c8:	08f48663          	beq	s1,a5,10002554 <best_effort_wfe_or_timeout+0x150>
100024cc:	4505                	li	a0,1
100024ce:	4942                	lw	s2,16(sp)
100024d0:	49b2                	lw	s3,12(sp)
100024d2:	a015                	j	100024f6 <best_effort_wfe_or_timeout+0xf2>
100024d4:	400b07b7          	lui	a5,0x400b0
100024d8:	53dc                	lw	a5,36(a5)
100024da:	00b7ed63          	bltu	a5,a1,100024f4 <best_effort_wfe_or_timeout+0xf0>
100024de:	400b06b7          	lui	a3,0x400b0
100024e2:	5694                	lw	a3,40(a3)
100024e4:	00a6fe63          	bgeu	a3,a0,10002500 <best_effort_wfe_or_timeout+0xfc>
100024e8:	00f58463          	beq	a1,a5,100024f0 <best_effort_wfe_or_timeout+0xec>
100024ec:	4505                	li	a0,1
100024ee:	a021                	j	100024f6 <best_effort_wfe_or_timeout+0xf2>
100024f0:	4501                	li	a0,0
100024f2:	a011                	j	100024f6 <best_effort_wfe_or_timeout+0xf2>
100024f4:	4501                	li	a0,0
100024f6:	40f2                	lw	ra,28(sp)
100024f8:	4462                	lw	s0,24(sp)
100024fa:	44d2                	lw	s1,20(sp)
100024fc:	6105                	addi	sp,sp,32
100024fe:	8082                	ret
10002500:	4505                	li	a0,1
10002502:	bfd5                	j	100024f6 <best_effort_wfe_or_timeout+0xf2>
10002504:	4501                	li	a0,0
10002506:	4942                	lw	s2,16(sp)
10002508:	49b2                	lw	s3,12(sp)
1000250a:	b7f5                	j	100024f6 <best_effort_wfe_or_timeout+0xf2>
1000250c:	4501                	li	a0,0
1000250e:	4942                	lw	s2,16(sp)
10002510:	49b2                	lw	s3,12(sp)
10002512:	b7d5                	j	100024f6 <best_effort_wfe_or_timeout+0xf2>
10002514:	4505                	li	a0,1
10002516:	4942                	lw	s2,16(sp)
10002518:	49b2                	lw	s3,12(sp)
1000251a:	bff1                	j	100024f6 <best_effort_wfe_or_timeout+0xf2>
1000251c:	400b07b7          	lui	a5,0x400b0
10002520:	53dc                	lw	a5,36(a5)
10002522:	0297e163          	bltu	a5,s1,10002544 <best_effort_wfe_or_timeout+0x140>
10002526:	400b06b7          	lui	a3,0x400b0
1000252a:	5694                	lw	a3,40(a3)
1000252c:	0286f063          	bgeu	a3,s0,1000254c <best_effort_wfe_or_timeout+0x148>
10002530:	00f48663          	beq	s1,a5,1000253c <best_effort_wfe_or_timeout+0x138>
10002534:	4505                	li	a0,1
10002536:	4942                	lw	s2,16(sp)
10002538:	49b2                	lw	s3,12(sp)
1000253a:	bf75                	j	100024f6 <best_effort_wfe_or_timeout+0xf2>
1000253c:	4501                	li	a0,0
1000253e:	4942                	lw	s2,16(sp)
10002540:	49b2                	lw	s3,12(sp)
10002542:	bf55                	j	100024f6 <best_effort_wfe_or_timeout+0xf2>
10002544:	4501                	li	a0,0
10002546:	4942                	lw	s2,16(sp)
10002548:	49b2                	lw	s3,12(sp)
1000254a:	b775                	j	100024f6 <best_effort_wfe_or_timeout+0xf2>
1000254c:	4505                	li	a0,1
1000254e:	4942                	lw	s2,16(sp)
10002550:	49b2                	lw	s3,12(sp)
10002552:	b755                	j	100024f6 <best_effort_wfe_or_timeout+0xf2>
10002554:	4501                	li	a0,0
10002556:	4942                	lw	s2,16(sp)
10002558:	49b2                	lw	s3,12(sp)
1000255a:	bf71                	j	100024f6 <best_effort_wfe_or_timeout+0xf2>
1000255c:	4501                	li	a0,0
1000255e:	4942                	lw	s2,16(sp)
10002560:	49b2                	lw	s3,12(sp)
10002562:	bf51                	j	100024f6 <best_effort_wfe_or_timeout+0xf2>
10002564:	4505                	li	a0,1
10002566:	4942                	lw	s2,16(sp)
10002568:	49b2                	lw	s3,12(sp)
1000256a:	b771                	j	100024f6 <best_effort_wfe_or_timeout+0xf2>

1000256c <alarm_pool_get_default_timer>:
1000256c:	400b0537          	lui	a0,0x400b0
10002570:	8082                	ret

10002572 <runtime_init_default_alarm_pool>:
10002572:	1141                	addi	sp,sp,-16
10002574:	c606                	sw	ra,12(sp)
10002576:	200047b7          	lui	a5,0x20004
1000257a:	bd478793          	addi	a5,a5,-1068 # 20003bd4 <default_alarm_pool>
1000257e:	4b9c                	lw	a5,16(a5)
10002580:	cb89                	beqz	a5,10002592 <runtime_init_default_alarm_pool+0x20>
10002582:	45a9                	li	a1,10
10002584:	81318513          	addi	a0,gp,-2029 # 20004ed0 <sleep_notifier>
10002588:	d6cff0ef          	jal	10001af4 <lock_init>
1000258c:	40b2                	lw	ra,12(sp)
1000258e:	0141                	addi	sp,sp,16
10002590:	8082                	ret
10002592:	c422                	sw	s0,8(sp)
10002594:	3fe1                	jal	1000256c <alarm_pool_get_default_timer>
10002596:	842a                	mv	s0,a0
10002598:	458d                	li	a1,3
1000259a:	2821                	jal	100025b2 <timer_hardware_alarm_claim>
1000259c:	46c1                	li	a3,16
1000259e:	460d                	li	a2,3
100025a0:	85a2                	mv	a1,s0
100025a2:	20004537          	lui	a0,0x20004
100025a6:	bd450513          	addi	a0,a0,-1068 # 20003bd4 <default_alarm_pool>
100025aa:	a51ff0ef          	jal	10001ffa <alarm_pool_post_alloc_init>
100025ae:	4422                	lw	s0,8(sp)
100025b0:	bfc9                	j	10002582 <runtime_init_default_alarm_pool+0x10>

100025b2 <timer_hardware_alarm_claim>:
100025b2:	1141                	addi	sp,sp,-16
100025b4:	c606                	sw	ra,12(sp)
100025b6:	bff487b7          	lui	a5,0xbff48
100025ba:	97aa                	add	a5,a5,a0
100025bc:	0017b793          	seqz	a5,a5
100025c0:	10009637          	lui	a2,0x10009
100025c4:	44860613          	addi	a2,a2,1096 # 10009448 <__EH_FRAME_BEGIN__+0x788>
100025c8:	81718513          	addi	a0,gp,-2025 # 20004ed4 <claimed>
100025cc:	953e                	add	a0,a0,a5
100025ce:	cb3fe0ef          	jal	10001280 <hw_claim_or_assert>
100025d2:	40b2                	lw	ra,12(sp)
100025d4:	0141                	addi	sp,sp,16
100025d6:	8082                	ret

100025d8 <timer_time_us_64>:
100025d8:	872a                	mv	a4,a0
100025da:	515c                	lw	a5,36(a0)
100025dc:	5708                	lw	a0,40(a4)
100025de:	85be                	mv	a1,a5
100025e0:	535c                	lw	a5,36(a4)
100025e2:	fef59de3          	bne	a1,a5,100025dc <timer_time_us_64+0x4>
100025e6:	8082                	ret

100025e8 <timer_busy_wait_until>:
100025e8:	515c                	lw	a5,36(a0)
100025ea:	a011                	j	100025ee <timer_busy_wait_until+0x6>
100025ec:	515c                	lw	a5,36(a0)
100025ee:	fec7efe3          	bltu	a5,a2,100025ec <timer_busy_wait_until+0x4>
100025f2:	a011                	j	100025f6 <timer_busy_wait_until+0xe>
100025f4:	515c                	lw	a5,36(a0)
100025f6:	00c79563          	bne	a5,a2,10002600 <timer_busy_wait_until+0x18>
100025fa:	551c                	lw	a5,40(a0)
100025fc:	feb7ece3          	bltu	a5,a1,100025f4 <timer_busy_wait_until+0xc>
10002600:	8082                	ret

10002602 <timer_busy_wait_us>:
10002602:	1141                	addi	sp,sp,-16
10002604:	c606                	sw	ra,12(sp)
10002606:	c422                	sw	s0,8(sp)
10002608:	c226                	sw	s1,4(sp)
1000260a:	c04a                	sw	s2,0(sp)
1000260c:	892a                	mv	s2,a0
1000260e:	842e                	mv	s0,a1
10002610:	84b2                	mv	s1,a2
10002612:	37d9                	jal	100025d8 <timer_time_us_64>
10002614:	872e                	mv	a4,a1
10002616:	008505b3          	add	a1,a0,s0
1000261a:	00a5b7b3          	sltu	a5,a1,a0
1000261e:	00970633          	add	a2,a4,s1
10002622:	963e                	add	a2,a2,a5
10002624:	00e66663          	bltu	a2,a4,10002630 <timer_busy_wait_us+0x2e>
10002628:	00c71663          	bne	a4,a2,10002634 <timer_busy_wait_us+0x32>
1000262c:	00a5f463          	bgeu	a1,a0,10002634 <timer_busy_wait_us+0x32>
10002630:	55fd                	li	a1,-1
10002632:	862e                	mv	a2,a1
10002634:	854a                	mv	a0,s2
10002636:	3f4d                	jal	100025e8 <timer_busy_wait_until>
10002638:	40b2                	lw	ra,12(sp)
1000263a:	4422                	lw	s0,8(sp)
1000263c:	4492                	lw	s1,4(sp)
1000263e:	4902                	lw	s2,0(sp)
10002640:	0141                	addi	sp,sp,16
10002642:	8082                	ret

10002644 <time_us_64>:
10002644:	1141                	addi	sp,sp,-16
10002646:	c606                	sw	ra,12(sp)
10002648:	400b0537          	lui	a0,0x400b0
1000264c:	3771                	jal	100025d8 <timer_time_us_64>
1000264e:	40b2                	lw	ra,12(sp)
10002650:	0141                	addi	sp,sp,16
10002652:	8082                	ret

10002654 <busy_wait_us>:
10002654:	1141                	addi	sp,sp,-16
10002656:	c606                	sw	ra,12(sp)
10002658:	862e                	mv	a2,a1
1000265a:	85aa                	mv	a1,a0
1000265c:	400b0537          	lui	a0,0x400b0
10002660:	374d                	jal	10002602 <timer_busy_wait_us>
10002662:	40b2                	lw	ra,12(sp)
10002664:	0141                	addi	sp,sp,16
10002666:	8082                	ret

10002668 <busy_wait_until>:
10002668:	1141                	addi	sp,sp,-16
1000266a:	c606                	sw	ra,12(sp)
1000266c:	862e                	mv	a2,a1
1000266e:	85aa                	mv	a1,a0
10002670:	400b0537          	lui	a0,0x400b0
10002674:	3f95                	jal	100025e8 <timer_busy_wait_until>
10002676:	40b2                	lw	ra,12(sp)
10002678:	0141                	addi	sp,sp,16
1000267a:	8082                	ret

1000267c <uart_unreset>:
1000267c:	400787b7          	lui	a5,0x40078
10002680:	00f50f63          	beq	a0,a5,1000269e <uart_unreset+0x22>
10002684:	4769                	li	a4,26
10002686:	28e01733          	bset	a4,zero,a4
1000268a:	400237b7          	lui	a5,0x40023
1000268e:	c398                	sw	a4,0(a5)
10002690:	400207b7          	lui	a5,0x40020
10002694:	479c                	lw	a5,8(a5)
10002696:	40f777b3          	andn	a5,a4,a5
1000269a:	fbfd                	bnez	a5,10002690 <uart_unreset+0x14>
1000269c:	8082                	ret
1000269e:	476d                	li	a4,27
100026a0:	b7dd                	j	10002686 <uart_unreset+0xa>

100026a2 <uart_disable_before_lcr_write>:
100026a2:	1141                	addi	sp,sp,-16
100026a4:	c606                	sw	ra,12(sp)
100026a6:	c422                	sw	s0,8(sp)
100026a8:	5900                	lw	s0,48(a0)
100026aa:	00147793          	andi	a5,s0,1
100026ae:	e791                	bnez	a5,100026ba <uart_disable_before_lcr_write+0x18>
100026b0:	8522                	mv	a0,s0
100026b2:	40b2                	lw	ra,12(sp)
100026b4:	4422                	lw	s0,8(sp)
100026b6:	0141                	addi	sp,sp,16
100026b8:	8082                	ret
100026ba:	c226                	sw	s1,4(sp)
100026bc:	03050793          	addi	a5,a0,48 # 400b0030 <__StackTop+0x2002e030>
100026c0:	670d                	lui	a4,0x3
100026c2:	97ba                	add	a5,a5,a4
100026c4:	30100713          	li	a4,769
100026c8:	c398                	sw	a4,0(a5)
100026ca:	515c                	lw	a5,36(a0)
100026cc:	5518                	lw	a4,40(a0)
100026ce:	079a                	slli	a5,a5,0x6
100026d0:	97ba                	add	a5,a5,a4
100026d2:	07aa                	slli	a5,a5,0xa
100026d4:	84be                	mv	s1,a5
100026d6:	4519                	li	a0,6
100026d8:	2499                	jal	1000291e <clock_get_hz>
100026da:	8f2b87b7          	lui	a5,0x8f2b8
100026de:	b7578793          	addi	a5,a5,-1163 # 8f2b7b75 <__StackTop+0x6f235b75>
100026e2:	02f53533          	mulhu	a0,a0,a5
100026e6:	812d                	srli	a0,a0,0xb
100026e8:	02a4d533          	divu	a0,s1,a0
100026ec:	4581                	li	a1,0
100026ee:	379d                	jal	10002654 <busy_wait_us>
100026f0:	4492                	lw	s1,4(sp)
100026f2:	bf7d                	j	100026b0 <uart_disable_before_lcr_write+0xe>

100026f4 <uart_write_lcr_bits_masked>:
100026f4:	1141                	addi	sp,sp,-16
100026f6:	c606                	sw	ra,12(sp)
100026f8:	c422                	sw	s0,8(sp)
100026fa:	c226                	sw	s1,4(sp)
100026fc:	c04a                	sw	s2,0(sp)
100026fe:	842a                	mv	s0,a0
10002700:	84ae                	mv	s1,a1
10002702:	8932                	mv	s2,a2
10002704:	3f79                	jal	100026a2 <uart_disable_before_lcr_write>
10002706:	02c40793          	addi	a5,s0,44
1000270a:	5458                	lw	a4,44(s0)
1000270c:	00e4c5b3          	xor	a1,s1,a4
10002710:	0125f633          	and	a2,a1,s2
10002714:	6705                	lui	a4,0x1
10002716:	97ba                	add	a5,a5,a4
10002718:	c390                	sw	a2,0(a5)
1000271a:	d808                	sw	a0,48(s0)
1000271c:	40b2                	lw	ra,12(sp)
1000271e:	4422                	lw	s0,8(sp)
10002720:	4492                	lw	s1,4(sp)
10002722:	4902                	lw	s2,0(sp)
10002724:	0141                	addi	sp,sp,16
10002726:	8082                	ret

10002728 <uart_set_baudrate>:
10002728:	1141                	addi	sp,sp,-16
1000272a:	c606                	sw	ra,12(sp)
1000272c:	c422                	sw	s0,8(sp)
1000272e:	c226                	sw	s1,4(sp)
10002730:	c04a                	sw	s2,0(sp)
10002732:	84aa                	mv	s1,a0
10002734:	842e                	mv	s0,a1
10002736:	4519                	li	a0,6
10002738:	22dd                	jal	1000291e <clock_get_hz>
1000273a:	00351793          	slli	a5,a0,0x3
1000273e:	0287d7b3          	divu	a5,a5,s0
10002742:	0785                	addi	a5,a5,1
10002744:	0077d913          	srli	s2,a5,0x7
10002748:	00090b63          	beqz	s2,1000275e <uart_set_baudrate+0x36>
1000274c:	6741                	lui	a4,0x10
1000274e:	1779                	addi	a4,a4,-2 # fffe <HeapSize+0xf7fe>
10002750:	03276c63          	bltu	a4,s2,10002788 <uart_set_baudrate+0x60>
10002754:	8385                	srli	a5,a5,0x1
10002756:	844a                	mv	s0,s2
10002758:	03f7f913          	andi	s2,a5,63
1000275c:	a011                	j	10002760 <uart_set_baudrate+0x38>
1000275e:	4405                	li	s0,1
10002760:	d0c0                	sw	s0,36(s1)
10002762:	0324a423          	sw	s2,40(s1)
10002766:	4601                	li	a2,0
10002768:	4581                	li	a1,0
1000276a:	8526                	mv	a0,s1
1000276c:	3761                	jal	100026f4 <uart_write_lcr_bits_masked>
1000276e:	4519                	li	a0,6
10002770:	227d                	jal	1000291e <clock_get_hz>
10002772:	050a                	slli	a0,a0,0x2
10002774:	041a                	slli	s0,s0,0x6
10002776:	944a                	add	s0,s0,s2
10002778:	02855533          	divu	a0,a0,s0
1000277c:	40b2                	lw	ra,12(sp)
1000277e:	4422                	lw	s0,8(sp)
10002780:	4492                	lw	s1,4(sp)
10002782:	4902                	lw	s2,0(sp)
10002784:	0141                	addi	sp,sp,16
10002786:	8082                	ret
10002788:	4901                	li	s2,0
1000278a:	6441                	lui	s0,0x10
1000278c:	147d                	addi	s0,s0,-1 # ffff <HeapSize+0xf7ff>
1000278e:	bfc9                	j	10002760 <uart_set_baudrate+0x38>

10002790 <uart_set_format>:
10002790:	1141                	addi	sp,sp,-16
10002792:	c606                	sw	ra,12(sp)
10002794:	ffb58793          	addi	a5,a1,-5 # 7ffffffb <__StackTop+0x5ff7dffb>
10002798:	0796                	slli	a5,a5,0x5
1000279a:	167d                	addi	a2,a2,-1
1000279c:	060e                	slli	a2,a2,0x3
1000279e:	8fd1                	or	a5,a5,a2
100027a0:	c699                	beqz	a3,100027ae <uart_set_format+0x1e>
100027a2:	0027e793          	ori	a5,a5,2
100027a6:	4705                	li	a4,1
100027a8:	00e68b63          	beq	a3,a4,100027be <uart_set_format+0x2e>
100027ac:	4681                	li	a3,0
100027ae:	06e00613          	li	a2,110
100027b2:	00f6e5b3          	or	a1,a3,a5
100027b6:	3f3d                	jal	100026f4 <uart_write_lcr_bits_masked>
100027b8:	40b2                	lw	ra,12(sp)
100027ba:	0141                	addi	sp,sp,16
100027bc:	8082                	ret
100027be:	4691                	li	a3,4
100027c0:	b7fd                	j	100027ae <uart_set_format+0x1e>

100027c2 <uart_set_translate_crlf>:
100027c2:	cd91                	beqz	a1,100027de <uart_set_translate_crlf+0x1c>
100027c4:	4729                	li	a4,10
100027c6:	bff887b7          	lui	a5,0xbff88
100027ca:	953e                	add	a0,a0,a5
100027cc:	00153513          	seqz	a0,a0
100027d0:	81b18793          	addi	a5,gp,-2021 # 20004ed8 <uart_char_to_line_feed>
100027d4:	20f52533          	sh1add	a0,a0,a5
100027d8:	00e51023          	sh	a4,0(a0)
100027dc:	8082                	ret
100027de:	10000713          	li	a4,256
100027e2:	b7d5                	j	100027c6 <uart_set_translate_crlf+0x4>

100027e4 <uart_init>:
100027e4:	1141                	addi	sp,sp,-16
100027e6:	c606                	sw	ra,12(sp)
100027e8:	c422                	sw	s0,8(sp)
100027ea:	c226                	sw	s1,4(sp)
100027ec:	842a                	mv	s0,a0
100027ee:	84ae                	mv	s1,a1
100027f0:	4519                	li	a0,6
100027f2:	2235                	jal	1000291e <clock_get_hz>
100027f4:	c131                	beqz	a0,10002838 <uart_init+0x54>
100027f6:	400787b7          	lui	a5,0x40078
100027fa:	04f40463          	beq	s0,a5,10002842 <uart_init+0x5e>
100027fe:	47e9                	li	a5,26
10002800:	28f017b3          	bset	a5,zero,a5
10002804:	40022737          	lui	a4,0x40022
10002808:	c31c                	sw	a5,0(a4)
1000280a:	8522                	mv	a0,s0
1000280c:	3d85                	jal	1000267c <uart_unreset>
1000280e:	4581                	li	a1,0
10002810:	8522                	mv	a0,s0
10002812:	3f45                	jal	100027c2 <uart_set_translate_crlf>
10002814:	85a6                	mv	a1,s1
10002816:	8522                	mv	a0,s0
10002818:	3f01                	jal	10002728 <uart_set_baudrate>
1000281a:	02c40713          	addi	a4,s0,44
1000281e:	545c                	lw	a5,44(s0)
10002820:	0707c793          	xori	a5,a5,112
10002824:	07e7f793          	andi	a5,a5,126
10002828:	6685                	lui	a3,0x1
1000282a:	9736                	add	a4,a4,a3
1000282c:	c31c                	sw	a5,0(a4)
1000282e:	30100793          	li	a5,769
10002832:	d81c                	sw	a5,48(s0)
10002834:	478d                	li	a5,3
10002836:	c43c                	sw	a5,72(s0)
10002838:	40b2                	lw	ra,12(sp)
1000283a:	4422                	lw	s0,8(sp)
1000283c:	4492                	lw	s1,4(sp)
1000283e:	0141                	addi	sp,sp,16
10002840:	8082                	ret
10002842:	47ed                	li	a5,27
10002844:	bf75                	j	10002800 <uart_init+0x1c>
	...

10002848 <clock_configure_internal>:
10002848:	20a52833          	sh1add	a6,a0,a0
1000284c:	400107b7          	lui	a5,0x40010
10002850:	20f84833          	sh2add	a6,a6,a5
10002854:	00482783          	lw	a5,4(a6)
10002858:	00e7f463          	bgeu	a5,a4,10002860 <clock_configure_internal+0x18>
1000285c:	00e82223          	sw	a4,4(a6)
10002860:	ffc50893          	addi	a7,a0,-4
10002864:	4785                	li	a5,1
10002866:	0717fc63          	bgeu	a5,a7,100028de <clock_configure_internal+0x96>
1000286a:	678d                	lui	a5,0x3
1000286c:	97c2                	add	a5,a5,a6
1000286e:	28b01313          	bseti	t1,zero,0xb
10002872:	0067a023          	sw	t1,0(a5) # 3000 <HeapSize+0x2800>
10002876:	200057b7          	lui	a5,0x20005
1000287a:	92478793          	addi	a5,a5,-1756 # 20004924 <configured_freq>
1000287e:	20f547b3          	sh2add	a5,a0,a5
10002882:	0007a303          	lw	t1,0(a5)
10002886:	02030163          	beqz	t1,100028a8 <clock_configure_internal+0x60>
1000288a:	200057b7          	lui	a5,0x20005
1000288e:	92478793          	addi	a5,a5,-1756 # 20004924 <configured_freq>
10002892:	4bdc                	lw	a5,20(a5)
10002894:	0267d7b3          	divu	a5,a5,t1
10002898:	0785                	addi	a5,a5,1
1000289a:	20f7a7b3          	sh1add	a5,a5,a5
1000289e:	0001                	nop
100028a0:	ffe78793          	addi	a5,a5,-2
100028a4:	fe07dee3          	bgez	a5,100028a0 <clock_configure_internal+0x58>
100028a8:	0616                	slli	a2,a2,0x5
100028aa:	00082783          	lw	a5,0(a6)
100028ae:	8e3d                	xor	a2,a2,a5
100028b0:	0e067613          	andi	a2,a2,224
100028b4:	6785                	lui	a5,0x1
100028b6:	97c2                	add	a5,a5,a6
100028b8:	c390                	sw	a2,0(a5)
100028ba:	4605                	li	a2,1
100028bc:	03167d63          	bgeu	a2,a7,100028f6 <clock_configure_internal+0xae>
100028c0:	6789                	lui	a5,0x2
100028c2:	97c2                	add	a5,a5,a6
100028c4:	28b01613          	bseti	a2,zero,0xb
100028c8:	c390                	sw	a2,0(a5)
100028ca:	00e82223          	sw	a4,4(a6)
100028ce:	200057b7          	lui	a5,0x20005
100028d2:	92478793          	addi	a5,a5,-1756 # 20004924 <configured_freq>
100028d6:	20f54533          	sh2add	a0,a0,a5
100028da:	c114                	sw	a3,0(a0)
100028dc:	8082                	ret
100028de:	f8f596e3          	bne	a1,a5,1000286a <clock_configure_internal+0x22>
100028e2:	678d                	lui	a5,0x3
100028e4:	97c2                	add	a5,a5,a6
100028e6:	430d                	li	t1,3
100028e8:	0067a023          	sw	t1,0(a5) # 3000 <HeapSize+0x2800>
100028ec:	00882783          	lw	a5,8(a6)
100028f0:	8b85                	andi	a5,a5,1
100028f2:	dfed                	beqz	a5,100028ec <clock_configure_internal+0xa4>
100028f4:	bf55                	j	100028a8 <clock_configure_internal+0x60>
100028f6:	00082603          	lw	a2,0(a6)
100028fa:	8e2d                	xor	a2,a2,a1
100028fc:	8a0d                	andi	a2,a2,3
100028fe:	c390                	sw	a2,0(a5)
10002900:	00882783          	lw	a5,8(a6)
10002904:	28b01633          	bset	a2,zero,a1
10002908:	8ff1                	and	a5,a5,a2
1000290a:	dbfd                	beqz	a5,10002900 <clock_configure_internal+0xb8>
1000290c:	bf55                	j	100028c0 <clock_configure_internal+0x78>
1000290e:	0001                	nop

10002910 <clock_configure_undivided>:
10002910:	1141                	addi	sp,sp,-16
10002912:	c606                	sw	ra,12(sp)
10002914:	6741                	lui	a4,0x10
10002916:	3f0d                	jal	10002848 <clock_configure_internal>
10002918:	40b2                	lw	ra,12(sp)
1000291a:	0141                	addi	sp,sp,16
1000291c:	8082                	ret

1000291e <clock_get_hz>:
1000291e:	200057b7          	lui	a5,0x20005
10002922:	92478793          	addi	a5,a5,-1756 # 20004924 <configured_freq>
10002926:	20f54533          	sh2add	a0,a0,a5
1000292a:	4108                	lw	a0,0(a0)
1000292c:	8082                	ret

1000292e <pll_init>:
1000292e:	1141                	addi	sp,sp,-16
10002930:	c606                	sw	ra,12(sp)
10002932:	00b727b7          	lui	a5,0xb72
10002936:	b0078793          	addi	a5,a5,-1280 # b71b00 <HeapSize+0xb71300>
1000293a:	02b7d7b3          	divu	a5,a5,a1
1000293e:	d34bf837          	lui	a6,0xd34bf
10002942:	88080813          	addi	a6,a6,-1920 # d34be880 <__StackTop+0xb343c880>
10002946:	9832                	add	a6,a6,a2
10002948:	32aa08b7          	lui	a7,0x32aa0
1000294c:	88088893          	addi	a7,a7,-1920 # 32a9f880 <__StackTop+0x12a1d880>
10002950:	0908e263          	bltu	a7,a6,100029d4 <pll_init+0xa6>
10002954:	02f658b3          	divu	a7,a2,a5
10002958:	ff088313          	addi	t1,a7,-16
1000295c:	13000813          	li	a6,304
10002960:	08686963          	bltu	a6,t1,100029f2 <pll_init+0xc4>
10002964:	fff68813          	addi	a6,a3,-1 # fff <HeapSize+0x7ff>
10002968:	4319                	li	t1,6
1000296a:	0b036363          	bltu	t1,a6,10002a10 <pll_init+0xe2>
1000296e:	fff70813          	addi	a6,a4,-1 # ffff <HeapSize+0xf7ff>
10002972:	09036f63          	bltu	t1,a6,10002a10 <pll_init+0xe2>
10002976:	8211                	srli	a2,a2,0x4
10002978:	0af66b63          	bltu	a2,a5,10002a2e <pll_init+0x100>
1000297c:	06c2                	slli	a3,a3,0x10
1000297e:	0732                	slli	a4,a4,0xc
10002980:	8ed9                	or	a3,a3,a4
10002982:	411c                	lw	a5,0(a0)
10002984:	0c07c563          	bltz	a5,10002a4e <pll_init+0x120>
10002988:	400587b7          	lui	a5,0x40058
1000298c:	0ef50363          	beq	a0,a5,10002a72 <pll_init+0x144>
10002990:	4739                	li	a4,14
10002992:	28e01733          	bset	a4,zero,a4
10002996:	400227b7          	lui	a5,0x40022
1000299a:	c398                	sw	a4,0(a5)
1000299c:	400237b7          	lui	a5,0x40023
100029a0:	c398                	sw	a4,0(a5)
100029a2:	400207b7          	lui	a5,0x40020
100029a6:	479c                	lw	a5,8(a5)
100029a8:	40f777b3          	andn	a5,a4,a5
100029ac:	fbfd                	bnez	a5,100029a2 <pll_init+0x74>
100029ae:	c10c                	sw	a1,0(a0)
100029b0:	01152423          	sw	a7,8(a0)
100029b4:	00450713          	addi	a4,a0,4
100029b8:	678d                	lui	a5,0x3
100029ba:	973e                	add	a4,a4,a5
100029bc:	02100793          	li	a5,33
100029c0:	c31c                	sw	a5,0(a4)
100029c2:	411c                	lw	a5,0(a0)
100029c4:	fe07dfe3          	bgez	a5,100029c2 <pll_init+0x94>
100029c8:	c554                	sw	a3,12(a0)
100029ca:	47a1                	li	a5,8
100029cc:	c31c                	sw	a5,0(a4)
100029ce:	40b2                	lw	ra,12(sp)
100029d0:	0141                	addi	sp,sp,16
100029d2:	8082                	ret
100029d4:	100096b7          	lui	a3,0x10009
100029d8:	46c68693          	addi	a3,a3,1132 # 1000946c <__EH_FRAME_BEGIN__+0x7ac>
100029dc:	1000a637          	lui	a2,0x1000a
100029e0:	be060613          	addi	a2,a2,-1056 # 10009be0 <__func__.0>
100029e4:	45c5                	li	a1,17
100029e6:	10009537          	lui	a0,0x10009
100029ea:	4bc50513          	addi	a0,a0,1212 # 100094bc <__EH_FRAME_BEGIN__+0x7fc>
100029ee:	0db010ef          	jal	100042c8 <__assert_func>
100029f2:	100096b7          	lui	a3,0x10009
100029f6:	50468693          	addi	a3,a3,1284 # 10009504 <__EH_FRAME_BEGIN__+0x844>
100029fa:	1000a637          	lui	a2,0x1000a
100029fe:	be060613          	addi	a2,a2,-1056 # 10009be0 <__func__.0>
10002a02:	45e5                	li	a1,25
10002a04:	10009537          	lui	a0,0x10009
10002a08:	4bc50513          	addi	a0,a0,1212 # 100094bc <__EH_FRAME_BEGIN__+0x7fc>
10002a0c:	0bd010ef          	jal	100042c8 <__assert_func>
10002a10:	100096b7          	lui	a3,0x10009
10002a14:	52068693          	addi	a3,a3,1312 # 10009520 <__EH_FRAME_BEGIN__+0x860>
10002a18:	1000a637          	lui	a2,0x1000a
10002a1c:	be060613          	addi	a2,a2,-1056 # 10009be0 <__func__.0>
10002a20:	45f1                	li	a1,28
10002a22:	10009537          	lui	a0,0x10009
10002a26:	4bc50513          	addi	a0,a0,1212 # 100094bc <__EH_FRAME_BEGIN__+0x7fc>
10002a2a:	09f010ef          	jal	100042c8 <__assert_func>
10002a2e:	100096b7          	lui	a3,0x10009
10002a32:	56c68693          	addi	a3,a3,1388 # 1000956c <__EH_FRAME_BEGIN__+0x8ac>
10002a36:	1000a637          	lui	a2,0x1000a
10002a3a:	be060613          	addi	a2,a2,-1056 # 10009be0 <__func__.0>
10002a3e:	02300593          	li	a1,35
10002a42:	10009537          	lui	a0,0x10009
10002a46:	4bc50513          	addi	a0,a0,1212 # 100094bc <__EH_FRAME_BEGIN__+0x7fc>
10002a4a:	07f010ef          	jal	100042c8 <__assert_func>
10002a4e:	411c                	lw	a5,0(a0)
10002a50:	03f7f793          	andi	a5,a5,63
10002a54:	f2b79ae3          	bne	a5,a1,10002988 <pll_init+0x5a>
10002a58:	451c                	lw	a5,8(a0)
10002a5a:	6705                	lui	a4,0x1
10002a5c:	177d                	addi	a4,a4,-1 # fff <HeapSize+0x7ff>
10002a5e:	8ff9                	and	a5,a5,a4
10002a60:	f31794e3          	bne	a5,a7,10002988 <pll_init+0x5a>
10002a64:	455c                	lw	a5,12(a0)
10002a66:	00077737          	lui	a4,0x77
10002a6a:	8ff9                	and	a5,a5,a4
10002a6c:	f0d79ee3          	bne	a5,a3,10002988 <pll_init+0x5a>
10002a70:	bfb9                	j	100029ce <pll_init+0xa0>
10002a72:	473d                	li	a4,15
10002a74:	bf39                	j	10002992 <pll_init+0x64>

10002a76 <watchdog_update>:
10002a76:	81f1a703          	lw	a4,-2017(gp) # 20004edc <load_value>
10002a7a:	400d87b7          	lui	a5,0x400d8
10002a7e:	c3d8                	sw	a4,4(a5)
10002a80:	8082                	ret

10002a82 <_watchdog_enable>:
10002a82:	400db7b7          	lui	a5,0x400db
10002a86:	40000737          	lui	a4,0x40000
10002a8a:	c398                	sw	a4,0(a5)
10002a8c:	4001a737          	lui	a4,0x4001a
10002a90:	020007b7          	lui	a5,0x2000
10002a94:	17cd                	addi	a5,a5,-13 # 1fffff3 <HeapSize+0x1fff7f3>
10002a96:	c71c                	sw	a5,8(a4)
10002a98:	cd89                	beqz	a1,10002ab2 <_watchdog_enable+0x30>
10002a9a:	400da7b7          	lui	a5,0x400da
10002a9e:	07000737          	lui	a4,0x7000
10002aa2:	c398                	sw	a4,0(a5)
10002aa4:	ed09                	bnez	a0,10002abe <_watchdog_enable+0x3c>
10002aa6:	400da7b7          	lui	a5,0x400da
10002aaa:	80000737          	lui	a4,0x80000
10002aae:	c398                	sw	a4,0(a5)
10002ab0:	8082                	ret
10002ab2:	400db7b7          	lui	a5,0x400db
10002ab6:	07000737          	lui	a4,0x7000
10002aba:	c398                	sw	a4,0(a5)
10002abc:	b7e5                	j	10002aa4 <_watchdog_enable+0x22>
10002abe:	1141                	addi	sp,sp,-16
10002ac0:	c606                	sw	ra,12(sp)
10002ac2:	20a54533          	sh2add	a0,a0,a0
10002ac6:	20a54533          	sh2add	a0,a0,a0
10002aca:	20a54533          	sh2add	a0,a0,a0
10002ace:	050e                	slli	a0,a0,0x3
10002ad0:	80a1afa3          	sw	a0,-2017(gp) # 20004edc <load_value>
10002ad4:	010007b7          	lui	a5,0x1000
10002ad8:	00f56563          	bltu	a0,a5,10002ae2 <_watchdog_enable+0x60>
10002adc:	17fd                	addi	a5,a5,-1 # ffffff <HeapSize+0xfff7ff>
10002ade:	80f1afa3          	sw	a5,-2017(gp) # 20004edc <load_value>
10002ae2:	3f51                	jal	10002a76 <watchdog_update>
10002ae4:	400da7b7          	lui	a5,0x400da
10002ae8:	40000737          	lui	a4,0x40000
10002aec:	c398                	sw	a4,0(a5)
10002aee:	40b2                	lw	ra,12(sp)
10002af0:	0141                	addi	sp,sp,16
10002af2:	8082                	ret

10002af4 <watchdog_reboot>:
10002af4:	1141                	addi	sp,sp,-16
10002af6:	c606                	sw	ra,12(sp)
10002af8:	87aa                	mv	a5,a0
10002afa:	8532                	mv	a0,a2
10002afc:	400db737          	lui	a4,0x400db
10002b00:	400006b7          	lui	a3,0x40000
10002b04:	c314                	sw	a3,0(a4)
10002b06:	c78d                	beqz	a5,10002b30 <watchdog_reboot+0x3c>
10002b08:	400d86b7          	lui	a3,0x400d8
10002b0c:	b007c737          	lui	a4,0xb007c
10002b10:	0d370713          	addi	a4,a4,211 # b007c0d3 <__StackTop+0x8fffa0d3>
10002b14:	ced8                	sw	a4,28(a3)
10002b16:	4ff84737          	lui	a4,0x4ff84
10002b1a:	f2d70713          	addi	a4,a4,-211 # 4ff83f2d <__StackTop+0x2ff01f2d>
10002b1e:	8f3d                	xor	a4,a4,a5
10002b20:	d298                	sw	a4,32(a3)
10002b22:	d2cc                	sw	a1,36(a3)
10002b24:	d69c                	sw	a5,40(a3)
10002b26:	4581                	li	a1,0
10002b28:	3fa9                	jal	10002a82 <_watchdog_enable>
10002b2a:	40b2                	lw	ra,12(sp)
10002b2c:	0141                	addi	sp,sp,16
10002b2e:	8082                	ret
10002b30:	400d87b7          	lui	a5,0x400d8
10002b34:	0007ae23          	sw	zero,28(a5) # 400d801c <__StackTop+0x2005601c>
10002b38:	b7fd                	j	10002b26 <watchdog_reboot+0x32>

10002b3a <tick_start>:
10002b3a:	40108737          	lui	a4,0x40108
10002b3e:	20a527b3          	sh1add	a5,a0,a0
10002b42:	20e7c7b3          	sh2add	a5,a5,a4
10002b46:	c3cc                	sw	a1,4(a5)
10002b48:	853e                	mv	a0,a5
10002b4a:	4785                	li	a5,1
10002b4c:	c11c                	sw	a5,0(a0)
10002b4e:	8082                	ret

10002b50 <rom_reboot>:
10002b50:	1101                	addi	sp,sp,-32
10002b52:	ce06                	sw	ra,28(sp)
10002b54:	cc22                	sw	s0,24(sp)
10002b56:	ca26                	sw	s1,20(sp)
10002b58:	c84a                	sw	s2,16(sp)
10002b5a:	c64e                	sw	s3,12(sp)
10002b5c:	89aa                	mv	s3,a0
10002b5e:	892e                	mv	s2,a1
10002b60:	84b2                	mv	s1,a2
10002b62:	8436                	mv	s0,a3
10002b64:	67a1                	lui	a5,0x8
10002b66:	dfa7d783          	lhu	a5,-518(a5) # 7dfa <HeapSize+0x75fa>
10002b6a:	4585                	li	a1,1
10002b6c:	6511                	lui	a0,0x4
10002b6e:	25250513          	addi	a0,a0,594 # 4252 <HeapSize+0x3a52>
10002b72:	9782                	jalr	a5
10002b74:	87aa                	mv	a5,a0
10002b76:	86a2                	mv	a3,s0
10002b78:	8626                	mv	a2,s1
10002b7a:	85ca                	mv	a1,s2
10002b7c:	854e                	mv	a0,s3
10002b7e:	9782                	jalr	a5
10002b80:	40f2                	lw	ra,28(sp)
10002b82:	4462                	lw	s0,24(sp)
10002b84:	44d2                	lw	s1,20(sp)
10002b86:	4942                	lw	s2,16(sp)
10002b88:	49b2                	lw	s3,12(sp)
10002b8a:	6105                	addi	sp,sp,32
10002b8c:	8082                	ret

10002b8e <rom_func_lookup>:
10002b8e:	1141                	addi	sp,sp,-16
10002b90:	c606                	sw	ra,12(sp)
10002b92:	67a1                	lui	a5,0x8
10002b94:	dfa7d783          	lhu	a5,-518(a5) # 7dfa <HeapSize+0x75fa>
10002b98:	4585                	li	a1,1
10002b9a:	9782                	jalr	a5
10002b9c:	40b2                	lw	ra,12(sp)
10002b9e:	0141                	addi	sp,sp,16
10002ba0:	8082                	ret

10002ba2 <rom_reset_usb_boot_extra>:
10002ba2:	1141                	addi	sp,sp,-16
10002ba4:	c606                	sw	ra,12(sp)
10002ba6:	86aa                	mv	a3,a0
10002ba8:	00054763          	bltz	a0,10002bb6 <rom_reset_usb_boot_extra+0x14>
10002bac:	0205e793          	ori	a5,a1,32
10002bb0:	ca01                	beqz	a2,10002bc0 <rom_reset_usb_boot_extra+0x1e>
10002bb2:	0305e593          	ori	a1,a1,48
10002bb6:	862e                	mv	a2,a1
10002bb8:	45a9                	li	a1,10
10002bba:	10200513          	li	a0,258
10002bbe:	3f49                	jal	10002b50 <rom_reboot>
10002bc0:	85be                	mv	a1,a5
10002bc2:	bfd5                	j	10002bb6 <rom_reset_usb_boot_extra+0x14>

10002bc4 <runtime_init_bootrom_locking_enable>:
10002bc4:	400e17b7          	lui	a5,0x400e1
10002bc8:	8287a783          	lw	a5,-2008(a5) # 400e0828 <__StackTop+0x2005e828>
10002bcc:	dfe5                	beqz	a5,10002bc4 <runtime_init_bootrom_locking_enable>
10002bce:	0330000f          	fence	rw,rw
10002bd2:	8082                	ret

10002bd4 <boot_locks_reset>:
10002bd4:	4701                	li	a4,0
10002bd6:	a821                	j	10002bee <boot_locks_reset+0x1a>
10002bd8:	100387b7          	lui	a5,0x10038
10002bdc:	20378793          	addi	a5,a5,515 # 10038203 <__flash_binary_end+0x29fa7>
10002be0:	97ba                	add	a5,a5,a4
10002be2:	078a                	slli	a5,a5,0x2
10002be4:	0330000f          	fence	rw,rw
10002be8:	0007a023          	sw	zero,0(a5)
10002bec:	0705                	addi	a4,a4,1 # 40108001 <__StackTop+0x20086001>
10002bee:	479d                	li	a5,7
10002bf0:	fee7f4e3          	bgeu	a5,a4,10002bd8 <boot_locks_reset+0x4>
10002bf4:	8082                	ret

10002bf6 <runtime_init_boot_locks_reset>:
10002bf6:	1141                	addi	sp,sp,-16
10002bf8:	c606                	sw	ra,12(sp)
10002bfa:	3fe9                	jal	10002bd4 <boot_locks_reset>
10002bfc:	40b2                	lw	ra,12(sp)
10002bfe:	0141                	addi	sp,sp,16
10002c00:	8082                	ret

10002c02 <xosc_init>:
10002c02:	40048737          	lui	a4,0x40048
10002c06:	6785                	lui	a5,0x1
10002c08:	aa078793          	addi	a5,a5,-1376 # aa0 <HeapSize+0x2a0>
10002c0c:	c31c                	sw	a5,0(a4)
10002c0e:	11a00793          	li	a5,282
10002c12:	c75c                	sw	a5,12(a4)
10002c14:	4004a7b7          	lui	a5,0x4004a
10002c18:	00fab737          	lui	a4,0xfab
10002c1c:	c398                	sw	a4,0(a5)
10002c1e:	400487b7          	lui	a5,0x40048
10002c22:	43dc                	lw	a5,4(a5)
10002c24:	fe07dde3          	bgez	a5,10002c1e <xosc_init+0x1c>
10002c28:	8082                	ret

10002c2a <runtime_run_initializers_from>:
10002c2a:	1141                	addi	sp,sp,-16
10002c2c:	c606                	sw	ra,12(sp)
10002c2e:	c422                	sw	s0,8(sp)
10002c30:	842a                	mv	s0,a0
10002c32:	a021                	j	10002c3a <runtime_run_initializers_from+0x10>
10002c34:	401c                	lw	a5,0(s0)
10002c36:	9782                	jalr	a5
10002c38:	0411                	addi	s0,s0,4
10002c3a:	100097b7          	lui	a5,0x10009
10002c3e:	cb478793          	addi	a5,a5,-844 # 10008cb4 <__init_array_start>
10002c42:	fef469e3          	bltu	s0,a5,10002c34 <runtime_run_initializers_from+0xa>
10002c46:	40b2                	lw	ra,12(sp)
10002c48:	4422                	lw	s0,8(sp)
10002c4a:	0141                	addi	sp,sp,16
10002c4c:	8082                	ret

10002c4e <first_per_core_initializer>:
10002c4e:	8082                	ret

10002c50 <runtime_run_initializers>:
10002c50:	1141                	addi	sp,sp,-16
10002c52:	c606                	sw	ra,12(sp)
10002c54:	10009537          	lui	a0,0x10009
10002c58:	c7c50513          	addi	a0,a0,-900 # 10008c7c <__pre_init_runtime_init_bootrom_reset>
10002c5c:	37f9                	jal	10002c2a <runtime_run_initializers_from>
10002c5e:	40b2                	lw	ra,12(sp)
10002c60:	0141                	addi	sp,sp,16
10002c62:	8082                	ret

10002c64 <runtime_run_per_core_initializers>:
10002c64:	1141                	addi	sp,sp,-16
10002c66:	c606                	sw	ra,12(sp)
10002c68:	10009537          	lui	a0,0x10009
10002c6c:	ca450513          	addi	a0,a0,-860 # 10008ca4 <__pre_init_first_per_core_initializer>
10002c70:	3f6d                	jal	10002c2a <runtime_run_initializers_from>
10002c72:	40b2                	lw	ra,12(sp)
10002c74:	0141                	addi	sp,sp,16
10002c76:	8082                	ret

10002c78 <runtime_init_early_resets>:
10002c78:	40022737          	lui	a4,0x40022
10002c7c:	efef47b7          	lui	a5,0xefef4
10002c80:	b7f78793          	addi	a5,a5,-1153 # efef3b7f <__StackTop+0xcfe71b7f>
10002c84:	c31c                	sw	a5,0(a4)
10002c86:	40023737          	lui	a4,0x40023
10002c8a:	03f407b7          	lui	a5,0x3f40
10002c8e:	17d9                	addi	a5,a5,-10 # 3f3fff6 <HeapSize+0x3f3f7f6>
10002c90:	c31c                	sw	a5,0(a4)
10002c92:	400207b7          	lui	a5,0x40020
10002c96:	479c                	lw	a5,8(a5)
10002c98:	03f40737          	lui	a4,0x3f40
10002c9c:	1759                	addi	a4,a4,-10 # 3f3fff6 <HeapSize+0x3f3f7f6>
10002c9e:	40f777b3          	andn	a5,a4,a5
10002ca2:	fbe5                	bnez	a5,10002c92 <runtime_init_early_resets+0x1a>
10002ca4:	8082                	ret

10002ca6 <runtime_init_usb_power_down>:
10002ca6:	501107b7          	lui	a5,0x50110
10002caa:	47f8                	lw	a4,76(a5)
10002cac:	67a1                	lui	a5,0x8
10002cae:	00f70363          	beq	a4,a5,10002cb4 <runtime_init_usb_power_down+0xe>
10002cb2:	8082                	ret
10002cb4:	501127b7          	lui	a5,0x50112
10002cb8:	00040737          	lui	a4,0x40
10002cbc:	c7f8                	sw	a4,76(a5)
10002cbe:	8082                	ret

10002cc0 <runtime_init_post_clock_resets>:
10002cc0:	40023737          	lui	a4,0x40023
10002cc4:	200007b7          	lui	a5,0x20000
10002cc8:	17fd                	addi	a5,a5,-1 # 1fffffff <__flash_binary_end+0xfff1da3>
10002cca:	c31c                	sw	a5,0(a4)
10002ccc:	400207b7          	lui	a5,0x40020
10002cd0:	479c                	lw	a5,8(a5)
10002cd2:	20000737          	lui	a4,0x20000
10002cd6:	177d                	addi	a4,a4,-1 # 1fffffff <__flash_binary_end+0xfff1da3>
10002cd8:	40f777b3          	andn	a5,a4,a5
10002cdc:	fbe5                	bnez	a5,10002ccc <runtime_init_post_clock_resets+0xc>
10002cde:	8082                	ret

10002ce0 <runtime_init_bootrom_reset>:
10002ce0:	1141                	addi	sp,sp,-16
10002ce2:	c606                	sw	ra,12(sp)
10002ce4:	6515                	lui	a0,0x5
10002ce6:	25350513          	addi	a0,a0,595 # 5253 <HeapSize+0x4a53>
10002cea:	3555                	jal	10002b8e <rom_func_lookup>
10002cec:	87aa                	mv	a5,a0
10002cee:	4511                	li	a0,4
10002cf0:	9782                	jalr	a5
10002cf2:	40b2                	lw	ra,12(sp)
10002cf4:	0141                	addi	sp,sp,16
10002cf6:	8082                	ret

10002cf8 <runtime_init_per_core_bootrom_reset>:
10002cf8:	1141                	addi	sp,sp,-16
10002cfa:	c606                	sw	ra,12(sp)
10002cfc:	6515                	lui	a0,0x5
10002cfe:	25350513          	addi	a0,a0,595 # 5253 <HeapSize+0x4a53>
10002d02:	3571                	jal	10002b8e <rom_func_lookup>
10002d04:	87aa                	mv	a5,a0
10002d06:	4505                	li	a0,1
10002d08:	9782                	jalr	a5
10002d0a:	40b2                	lw	ra,12(sp)
10002d0c:	0141                	addi	sp,sp,16
10002d0e:	8082                	ret

10002d10 <runtime_init_spin_locks_reset>:
10002d10:	1141                	addi	sp,sp,-16
10002d12:	c606                	sw	ra,12(sp)
10002d14:	e6cfe0ef          	jal	10001380 <spin_locks_reset>
10002d18:	40b2                	lw	ra,12(sp)
10002d1a:	0141                	addi	sp,sp,16
10002d1c:	8082                	ret

10002d1e <start_all_ticks>:
10002d1e:	1141                	addi	sp,sp,-16
10002d20:	c606                	sw	ra,12(sp)
10002d22:	c422                	sw	s0,8(sp)
10002d24:	c226                	sw	s1,4(sp)
10002d26:	4511                	li	a0,4
10002d28:	3edd                	jal	1000291e <clock_get_hz>
10002d2a:	431be7b7          	lui	a5,0x431be
10002d2e:	e8378793          	addi	a5,a5,-381 # 431bde83 <__StackTop+0x2313be83>
10002d32:	02f534b3          	mulhu	s1,a0,a5
10002d36:	80c9                	srli	s1,s1,0x12
10002d38:	4401                	li	s0,0
10002d3a:	a029                	j	10002d44 <start_all_ticks+0x26>
10002d3c:	85a6                	mv	a1,s1
10002d3e:	8522                	mv	a0,s0
10002d40:	3bed                	jal	10002b3a <tick_start>
10002d42:	0405                	addi	s0,s0,1
10002d44:	4795                	li	a5,5
10002d46:	fe87dbe3          	bge	a5,s0,10002d3c <start_all_ticks+0x1e>
10002d4a:	40b2                	lw	ra,12(sp)
10002d4c:	4422                	lw	s0,8(sp)
10002d4e:	4492                	lw	s1,4(sp)
10002d50:	0141                	addi	sp,sp,16
10002d52:	8082                	ret

10002d54 <runtime_init_clocks>:
10002d54:	1141                	addi	sp,sp,-16
10002d56:	c606                	sw	ra,12(sp)
10002d58:	400107b7          	lui	a5,0x40010
10002d5c:	0807a223          	sw	zero,132(a5) # 40010084 <__StackTop+0x1ff8e084>
10002d60:	354d                	jal	10002c02 <xosc_init>
10002d62:	400137b7          	lui	a5,0x40013
10002d66:	4705                	li	a4,1
10002d68:	dfd8                	sw	a4,60(a5)
10002d6a:	400107b7          	lui	a5,0x40010
10002d6e:	43f8                	lw	a4,68(a5)
10002d70:	4785                	li	a5,1
10002d72:	fef71ce3          	bne	a4,a5,10002d6a <runtime_init_clocks+0x16>
10002d76:	400137b7          	lui	a5,0x40013
10002d7a:	470d                	li	a4,3
10002d7c:	db98                	sw	a4,48(a5)
10002d7e:	400107b7          	lui	a5,0x40010
10002d82:	5f98                	lw	a4,56(a5)
10002d84:	4785                	li	a5,1
10002d86:	fef71ce3          	bne	a4,a5,10002d7e <runtime_init_clocks+0x2a>
10002d8a:	4709                	li	a4,2
10002d8c:	4695                	li	a3,5
10002d8e:	59683637          	lui	a2,0x59683
10002d92:	f0060613          	addi	a2,a2,-256 # 59682f00 <__StackTop+0x39600f00>
10002d96:	85be                	mv	a1,a5
10002d98:	40050537          	lui	a0,0x40050
10002d9c:	b93ff0ef          	jal	1000292e <pll_init>
10002da0:	4715                	li	a4,5
10002da2:	86ba                	mv	a3,a4
10002da4:	47869637          	lui	a2,0x47869
10002da8:	c0060613          	addi	a2,a2,-1024 # 47868c00 <__StackTop+0x277e6c00>
10002dac:	4585                	li	a1,1
10002dae:	40058537          	lui	a0,0x40058
10002db2:	b7dff0ef          	jal	1000292e <pll_init>
10002db6:	00b726b7          	lui	a3,0xb72
10002dba:	b0068693          	addi	a3,a3,-1280 # b71b00 <HeapSize+0xb71300>
10002dbe:	4601                	li	a2,0
10002dc0:	4589                	li	a1,2
10002dc2:	4511                	li	a0,4
10002dc4:	b4dff0ef          	jal	10002910 <clock_configure_undivided>
10002dc8:	08f0d6b7          	lui	a3,0x8f0d
10002dcc:	18068693          	addi	a3,a3,384 # 8f0d180 <HeapSize+0x8f0c980>
10002dd0:	4601                	li	a2,0
10002dd2:	4585                	li	a1,1
10002dd4:	4515                	li	a0,5
10002dd6:	b3bff0ef          	jal	10002910 <clock_configure_undivided>
10002dda:	02dc76b7          	lui	a3,0x2dc7
10002dde:	c0068693          	addi	a3,a3,-1024 # 2dc6c00 <HeapSize+0x2dc6400>
10002de2:	4601                	li	a2,0
10002de4:	4581                	li	a1,0
10002de6:	4521                	li	a0,8
10002de8:	b29ff0ef          	jal	10002910 <clock_configure_undivided>
10002dec:	02dc76b7          	lui	a3,0x2dc7
10002df0:	c0068693          	addi	a3,a3,-1024 # 2dc6c00 <HeapSize+0x2dc6400>
10002df4:	4601                	li	a2,0
10002df6:	4581                	li	a1,0
10002df8:	4525                	li	a0,9
10002dfa:	b17ff0ef          	jal	10002910 <clock_configure_undivided>
10002dfe:	08f0d6b7          	lui	a3,0x8f0d
10002e02:	18068693          	addi	a3,a3,384 # 8f0d180 <HeapSize+0x8f0c980>
10002e06:	4601                	li	a2,0
10002e08:	4581                	li	a1,0
10002e0a:	4519                	li	a0,6
10002e0c:	b05ff0ef          	jal	10002910 <clock_configure_undivided>
10002e10:	08f0d6b7          	lui	a3,0x8f0d
10002e14:	18068693          	addi	a3,a3,384 # 8f0d180 <HeapSize+0x8f0c980>
10002e18:	4601                	li	a2,0
10002e1a:	4581                	li	a1,0
10002e1c:	451d                	li	a0,7
10002e1e:	af3ff0ef          	jal	10002910 <clock_configure_undivided>
10002e22:	3df5                	jal	10002d1e <start_all_ticks>
10002e24:	40b2                	lw	ra,12(sp)
10002e26:	0141                	addi	sp,sp,16
10002e28:	8082                	ret

10002e2a <_out_buffer>:
10002e2a:	00d67563          	bgeu	a2,a3,10002e34 <_out_buffer+0xa>
10002e2e:	95b2                	add	a1,a1,a2
10002e30:	00a58023          	sb	a0,0(a1)
10002e34:	8082                	ret

10002e36 <_out_null>:
10002e36:	8082                	ret

10002e38 <_out_fct>:
10002e38:	c909                	beqz	a0,10002e4a <_out_fct+0x12>
10002e3a:	1141                	addi	sp,sp,-16
10002e3c:	c606                	sw	ra,12(sp)
10002e3e:	419c                	lw	a5,0(a1)
10002e40:	41cc                	lw	a1,4(a1)
10002e42:	9782                	jalr	a5
10002e44:	40b2                	lw	ra,12(sp)
10002e46:	0141                	addi	sp,sp,16
10002e48:	8082                	ret
10002e4a:	8082                	ret

10002e4c <_atoi>:
10002e4c:	86aa                	mv	a3,a0
10002e4e:	4501                	li	a0,0
10002e50:	a821                	j	10002e68 <_atoi+0x1c>
10002e52:	20a54533          	sh2add	a0,a0,a0
10002e56:	00170793          	addi	a5,a4,1
10002e5a:	c29c                	sw	a5,0(a3)
10002e5c:	00074783          	lbu	a5,0(a4)
10002e60:	20f52533          	sh1add	a0,a0,a5
10002e64:	fd050513          	addi	a0,a0,-48 # 40057fd0 <__StackTop+0x1ffd5fd0>
10002e68:	4298                	lw	a4,0(a3)
10002e6a:	00074783          	lbu	a5,0(a4)
10002e6e:	fd078793          	addi	a5,a5,-48 # 4000ffd0 <__StackTop+0x1ff8dfd0>
10002e72:	0ff7f793          	zext.b	a5,a5
10002e76:	4625                	li	a2,9
10002e78:	fcf67de3          	bgeu	a2,a5,10002e52 <_atoi+0x6>
10002e7c:	8082                	ret

10002e7e <_out_rev>:
10002e7e:	7179                	addi	sp,sp,-48
10002e80:	d606                	sw	ra,44(sp)
10002e82:	d422                	sw	s0,40(sp)
10002e84:	d226                	sw	s1,36(sp)
10002e86:	d04a                	sw	s2,32(sp)
10002e88:	ce4e                	sw	s3,28(sp)
10002e8a:	cc52                	sw	s4,24(sp)
10002e8c:	ca56                	sw	s5,20(sp)
10002e8e:	c85a                	sw	s6,16(sp)
10002e90:	c65e                	sw	s7,12(sp)
10002e92:	c462                	sw	s8,8(sp)
10002e94:	84aa                	mv	s1,a0
10002e96:	892e                	mv	s2,a1
10002e98:	8bb2                	mv	s7,a2
10002e9a:	89b6                	mv	s3,a3
10002e9c:	8aba                	mv	s5,a4
10002e9e:	843e                	mv	s0,a5
10002ea0:	8b42                	mv	s6,a6
10002ea2:	0028fc13          	andi	s8,a7,2
10002ea6:	040c1163          	bnez	s8,10002ee8 <_out_rev+0x6a>
10002eaa:	0018f893          	andi	a7,a7,1
10002eae:	02089d63          	bnez	a7,10002ee8 <_out_rev+0x6a>
10002eb2:	c266                	sw	s9,4(sp)
10002eb4:	8a3e                	mv	s4,a5
10002eb6:	a811                	j	10002eca <_out_rev+0x4c>
10002eb8:	00160c93          	addi	s9,a2,1
10002ebc:	86ce                	mv	a3,s3
10002ebe:	85ca                	mv	a1,s2
10002ec0:	02000513          	li	a0,32
10002ec4:	9482                	jalr	s1
10002ec6:	0a05                	addi	s4,s4,1
10002ec8:	8666                	mv	a2,s9
10002eca:	ff6a67e3          	bltu	s4,s6,10002eb8 <_out_rev+0x3a>
10002ece:	4c92                	lw	s9,4(sp)
10002ed0:	a821                	j	10002ee8 <_out_rev+0x6a>
10002ed2:	147d                	addi	s0,s0,-1
10002ed4:	008a87b3          	add	a5,s5,s0
10002ed8:	00160a13          	addi	s4,a2,1
10002edc:	86ce                	mv	a3,s3
10002ede:	85ca                	mv	a1,s2
10002ee0:	0007c503          	lbu	a0,0(a5)
10002ee4:	9482                	jalr	s1
10002ee6:	8652                	mv	a2,s4
10002ee8:	f46d                	bnez	s0,10002ed2 <_out_rev+0x54>
10002eea:	020c1763          	bnez	s8,10002f18 <_out_rev+0x9a>
10002eee:	8532                	mv	a0,a2
10002ef0:	50b2                	lw	ra,44(sp)
10002ef2:	5422                	lw	s0,40(sp)
10002ef4:	5492                	lw	s1,36(sp)
10002ef6:	5902                	lw	s2,32(sp)
10002ef8:	49f2                	lw	s3,28(sp)
10002efa:	4a62                	lw	s4,24(sp)
10002efc:	4ad2                	lw	s5,20(sp)
10002efe:	4b42                	lw	s6,16(sp)
10002f00:	4bb2                	lw	s7,12(sp)
10002f02:	4c22                	lw	s8,8(sp)
10002f04:	6145                	addi	sp,sp,48
10002f06:	8082                	ret
10002f08:	00160413          	addi	s0,a2,1
10002f0c:	86ce                	mv	a3,s3
10002f0e:	85ca                	mv	a1,s2
10002f10:	02000513          	li	a0,32
10002f14:	9482                	jalr	s1
10002f16:	8622                	mv	a2,s0
10002f18:	417607b3          	sub	a5,a2,s7
10002f1c:	ff67e6e3          	bltu	a5,s6,10002f08 <_out_rev+0x8a>
10002f20:	b7f9                	j	10002eee <_out_rev+0x70>

10002f22 <_ntoa_format>:
10002f22:	1141                	addi	sp,sp,-16
10002f24:	c606                	sw	ra,12(sp)
10002f26:	8fc2                	mv	t6,a6
10002f28:	8ec6                	mv	t4,a7
10002f2a:	4f42                	lw	t5,16(sp)
10002f2c:	4852                	lw	a6,20(sp)
10002f2e:	48e2                	lw	a7,24(sp)
10002f30:	0028f313          	andi	t1,a7,2
10002f34:	04031f63          	bnez	t1,10002f92 <_ntoa_format+0x70>
10002f38:	02080563          	beqz	a6,10002f62 <_ntoa_format+0x40>
10002f3c:	0018f313          	andi	t1,a7,1
10002f40:	02030163          	beqz	t1,10002f62 <_ntoa_format+0x40>
10002f44:	000f9663          	bnez	t6,10002f50 <_ntoa_format+0x2e>
10002f48:	00c8f313          	andi	t1,a7,12
10002f4c:	00030b63          	beqz	t1,10002f62 <_ntoa_format+0x40>
10002f50:	187d                	addi	a6,a6,-1
10002f52:	a801                	j	10002f62 <_ntoa_format+0x40>
10002f54:	00f70333          	add	t1,a4,a5
10002f58:	03000e13          	li	t3,48
10002f5c:	01c30023          	sb	t3,0(t1)
10002f60:	0785                	addi	a5,a5,1
10002f62:	0207b313          	sltiu	t1,a5,32
10002f66:	01e7f463          	bgeu	a5,t5,10002f6e <_ntoa_format+0x4c>
10002f6a:	fe0315e3          	bnez	t1,10002f54 <_ntoa_format+0x32>
10002f6e:	0018f313          	andi	t1,a7,1
10002f72:	02030063          	beqz	t1,10002f92 <_ntoa_format+0x70>
10002f76:	0207b313          	sltiu	t1,a5,32
10002f7a:	0107fc63          	bgeu	a5,a6,10002f92 <_ntoa_format+0x70>
10002f7e:	00030a63          	beqz	t1,10002f92 <_ntoa_format+0x70>
10002f82:	00f70333          	add	t1,a4,a5
10002f86:	03000e13          	li	t3,48
10002f8a:	01c30023          	sb	t3,0(t1)
10002f8e:	0785                	addi	a5,a5,1
10002f90:	bff9                	j	10002f6e <_ntoa_format+0x4c>
10002f92:	0108f313          	andi	t1,a7,16
10002f96:	08030d63          	beqz	t1,10003030 <_ntoa_format+0x10e>
10002f9a:	4008f313          	andi	t1,a7,1024
10002f9e:	04031c63          	bnez	t1,10002ff6 <_ntoa_format+0xd4>
10002fa2:	cbb1                	beqz	a5,10002ff6 <_ntoa_format+0xd4>
10002fa4:	41e78333          	sub	t1,a5,t5
10002fa8:	00133313          	seqz	t1,t1
10002fac:	41078e33          	sub	t3,a5,a6
10002fb0:	001e3e13          	seqz	t3,t3
10002fb4:	01c36333          	or	t1,t1,t3
10002fb8:	02030f63          	beqz	t1,10002ff6 <_ntoa_format+0xd4>
10002fbc:	fff78f13          	addi	t5,a5,-1
10002fc0:	01e03333          	snez	t1,t5
10002fc4:	ff0e8e13          	addi	t3,t4,-16
10002fc8:	001e3e13          	seqz	t3,t3
10002fcc:	01c37333          	and	t1,t1,t3
10002fd0:	02030263          	beqz	t1,10002ff4 <_ntoa_format+0xd2>
10002fd4:	17f9                	addi	a5,a5,-2
10002fd6:	0208f313          	andi	t1,a7,32
10002fda:	06031b63          	bnez	t1,10003050 <_ntoa_format+0x12e>
10002fde:	4e7d                	li	t3,31
10002fe0:	06fe6863          	bltu	t3,a5,10003050 <_ntoa_format+0x12e>
10002fe4:	00f70333          	add	t1,a4,a5
10002fe8:	07800e13          	li	t3,120
10002fec:	01c30023          	sb	t3,0(t1)
10002ff0:	0785                	addi	a5,a5,1
10002ff2:	a02d                	j	1000301c <_ntoa_format+0xfa>
10002ff4:	87fa                	mv	a5,t5
10002ff6:	4341                	li	t1,16
10002ff8:	fc6e8fe3          	beq	t4,t1,10002fd6 <_ntoa_format+0xb4>
10002ffc:	1ef9                	addi	t4,t4,-2
10002ffe:	001ebe93          	seqz	t4,t4
10003002:	0207b313          	sltiu	t1,a5,32
10003006:	006efeb3          	and	t4,t4,t1
1000300a:	000e8963          	beqz	t4,1000301c <_ntoa_format+0xfa>
1000300e:	00f70333          	add	t1,a4,a5
10003012:	06200e13          	li	t3,98
10003016:	01c30023          	sb	t3,0(t1)
1000301a:	0785                	addi	a5,a5,1
1000301c:	437d                	li	t1,31
1000301e:	02f36563          	bltu	t1,a5,10003048 <_ntoa_format+0x126>
10003022:	00f70333          	add	t1,a4,a5
10003026:	03000e13          	li	t3,48
1000302a:	01c30023          	sb	t3,0(t1)
1000302e:	0785                	addi	a5,a5,1
10003030:	437d                	li	t1,31
10003032:	00f36b63          	bltu	t1,a5,10003048 <_ntoa_format+0x126>
10003036:	020f8d63          	beqz	t6,10003070 <_ntoa_format+0x14e>
1000303a:	00f70333          	add	t1,a4,a5
1000303e:	02d00e13          	li	t3,45
10003042:	01c30023          	sb	t3,0(t1)
10003046:	0785                	addi	a5,a5,1
10003048:	3d1d                	jal	10002e7e <_out_rev>
1000304a:	40b2                	lw	ra,12(sp)
1000304c:	0141                	addi	sp,sp,16
1000304e:	8082                	ret
10003050:	4e41                	li	t3,16
10003052:	fbce95e3          	bne	t4,t3,10002ffc <_ntoa_format+0xda>
10003056:	fa0303e3          	beqz	t1,10002ffc <_ntoa_format+0xda>
1000305a:	437d                	li	t1,31
1000305c:	faf360e3          	bltu	t1,a5,10002ffc <_ntoa_format+0xda>
10003060:	00f70333          	add	t1,a4,a5
10003064:	05800e13          	li	t3,88
10003068:	01c30023          	sb	t3,0(t1)
1000306c:	0785                	addi	a5,a5,1
1000306e:	b77d                	j	1000301c <_ntoa_format+0xfa>
10003070:	0048f313          	andi	t1,a7,4
10003074:	00030a63          	beqz	t1,10003088 <_ntoa_format+0x166>
10003078:	00f70333          	add	t1,a4,a5
1000307c:	02b00e13          	li	t3,43
10003080:	01c30023          	sb	t3,0(t1)
10003084:	0785                	addi	a5,a5,1
10003086:	b7c9                	j	10003048 <_ntoa_format+0x126>
10003088:	0088f313          	andi	t1,a7,8
1000308c:	fa030ee3          	beqz	t1,10003048 <_ntoa_format+0x126>
10003090:	00f70333          	add	t1,a4,a5
10003094:	02000e13          	li	t3,32
10003098:	01c30023          	sb	t3,0(t1)
1000309c:	0785                	addi	a5,a5,1
1000309e:	b76d                	j	10003048 <_ntoa_format+0x126>

100030a0 <_ntoa_long>:
100030a0:	7139                	addi	sp,sp,-64
100030a2:	de06                	sw	ra,60(sp)
100030a4:	8fbe                	mv	t6,a5
100030a6:	4f16                	lw	t5,68(sp)
100030a8:	e319                	bnez	a4,100030ae <_ntoa_long+0xe>
100030aa:	feff7f13          	andi	t5,t5,-17
100030ae:	400f7e93          	andi	t4,t5,1024
100030b2:	040e8363          	beqz	t4,100030f8 <_ntoa_long+0x58>
100030b6:	c325                	beqz	a4,10003116 <_ntoa_long+0x76>
100030b8:	4e81                	li	t4,0
100030ba:	a83d                	j	100030f8 <_ntoa_long+0x58>
100030bc:	020f7313          	andi	t1,t5,32
100030c0:	04030863          	beqz	t1,10003110 <_ntoa_long+0x70>
100030c4:	04100313          	li	t1,65
100030c8:	9372                	add	t1,t1,t3
100030ca:	0ff37313          	zext.b	t1,t1
100030ce:	1359                	addi	t1,t1,-10
100030d0:	0ff37313          	zext.b	t1,t1
100030d4:	001e8793          	addi	a5,t4,1
100030d8:	030e8e13          	addi	t3,t4,48
100030dc:	002e0eb3          	add	t4,t3,sp
100030e0:	fe6e8023          	sb	t1,-32(t4)
100030e4:	03075e33          	divu	t3,a4,a6
100030e8:	0207b313          	sltiu	t1,a5,32
100030ec:	03076663          	bltu	a4,a6,10003118 <_ntoa_long+0x78>
100030f0:	02030463          	beqz	t1,10003118 <_ntoa_long+0x78>
100030f4:	8ebe                	mv	t4,a5
100030f6:	8772                	mv	a4,t3
100030f8:	03077e33          	remu	t3,a4,a6
100030fc:	0ffe7e13          	zext.b	t3,t3
10003100:	4325                	li	t1,9
10003102:	fbc36de3          	bltu	t1,t3,100030bc <_ntoa_long+0x1c>
10003106:	030e0e13          	addi	t3,t3,48
1000310a:	0ffe7313          	zext.b	t1,t3
1000310e:	b7d9                	j	100030d4 <_ntoa_long+0x34>
10003110:	06100313          	li	t1,97
10003114:	bf55                	j	100030c8 <_ntoa_long+0x28>
10003116:	87ba                	mv	a5,a4
10003118:	c47a                	sw	t5,8(sp)
1000311a:	4706                	lw	a4,64(sp)
1000311c:	c23a                	sw	a4,4(sp)
1000311e:	c046                	sw	a7,0(sp)
10003120:	88c2                	mv	a7,a6
10003122:	887e                	mv	a6,t6
10003124:	0818                	addi	a4,sp,16
10003126:	3bf5                	jal	10002f22 <_ntoa_format>
10003128:	50f2                	lw	ra,60(sp)
1000312a:	6121                	addi	sp,sp,64
1000312c:	8082                	ret

1000312e <_ntoa_long_long>:
1000312e:	7119                	addi	sp,sp,-128
10003130:	d686                	sw	ra,108(sp)
10003132:	d4a2                	sw	s0,104(sp)
10003134:	d2a6                	sw	s1,100(sp)
10003136:	d0ca                	sw	s2,96(sp)
10003138:	cece                	sw	s3,92(sp)
1000313a:	ccd2                	sw	s4,88(sp)
1000313c:	cad6                	sw	s5,84(sp)
1000313e:	c8da                	sw	s6,80(sp)
10003140:	c6de                	sw	s7,76(sp)
10003142:	c4e2                	sw	s8,72(sp)
10003144:	c2e6                	sw	s9,68(sp)
10003146:	c0ea                	sw	s10,64(sp)
10003148:	de6e                	sw	s11,60(sp)
1000314a:	8baa                	mv	s7,a0
1000314c:	8c2e                	mv	s8,a1
1000314e:	8cb2                	mv	s9,a2
10003150:	8d36                	mv	s10,a3
10003152:	893a                	mv	s2,a4
10003154:	84be                	mv	s1,a5
10003156:	8dc2                	mv	s11,a6
10003158:	dec6                	sw	a7,124(sp)
1000315a:	8ac6                	mv	s5,a7
1000315c:	498a                	lw	s3,128(sp)
1000315e:	4b3a                	lw	s6,140(sp)
10003160:	8fd9                	or	a5,a5,a4
10003162:	e399                	bnez	a5,10003168 <_ntoa_long_long+0x3a>
10003164:	fefb7b13          	andi	s6,s6,-17
10003168:	400b7413          	andi	s0,s6,1024
1000316c:	cc1d                	beqz	s0,100031aa <_ntoa_long_long+0x7c>
1000316e:	009967b3          	or	a5,s2,s1
10003172:	c7c9                	beqz	a5,100031fc <_ntoa_long_long+0xce>
10003174:	4401                	li	s0,0
10003176:	a815                	j	100031aa <_ntoa_long_long+0x7c>
10003178:	020b7793          	andi	a5,s6,32
1000317c:	cb91                	beqz	a5,10003190 <_ntoa_long_long+0x62>
1000317e:	04100793          	li	a5,65
10003182:	97aa                	add	a5,a5,a0
10003184:	0ff7f793          	zext.b	a5,a5
10003188:	17d9                	addi	a5,a5,-10
1000318a:	0ff7f793          	zext.b	a5,a5
1000318e:	a83d                	j	100031cc <_ntoa_long_long+0x9e>
10003190:	06100793          	li	a5,97
10003194:	b7fd                	j	10003182 <_ntoa_long_long+0x54>
10003196:	4781                	li	a5,0
10003198:	0ff7f793          	zext.b	a5,a5
1000319c:	020a3713          	sltiu	a4,s4,32
100031a0:	cfb9                	beqz	a5,100031fe <_ntoa_long_long+0xd0>
100031a2:	cf31                	beqz	a4,100031fe <_ntoa_long_long+0xd0>
100031a4:	8452                	mv	s0,s4
100031a6:	892a                	mv	s2,a0
100031a8:	84ae                	mv	s1,a1
100031aa:	8656                	mv	a2,s5
100031ac:	86ce                	mv	a3,s3
100031ae:	854a                	mv	a0,s2
100031b0:	85a6                	mv	a1,s1
100031b2:	0fffe097          	auipc	ra,0xfffe
100031b6:	1f0080e7          	jalr	496(ra) # 200013a2 <__umoddi3>
100031ba:	0ff57513          	zext.b	a0,a0
100031be:	47a5                	li	a5,9
100031c0:	faa7ece3          	bltu	a5,a0,10003178 <_ntoa_long_long+0x4a>
100031c4:	03050513          	addi	a0,a0,48
100031c8:	0ff57793          	zext.b	a5,a0
100031cc:	00140a13          	addi	s4,s0,1
100031d0:	03040713          	addi	a4,s0,48
100031d4:	00270433          	add	s0,a4,sp
100031d8:	fef40023          	sb	a5,-32(s0)
100031dc:	8656                	mv	a2,s5
100031de:	86ce                	mv	a3,s3
100031e0:	854a                	mv	a0,s2
100031e2:	85a6                	mv	a1,s1
100031e4:	0fffe097          	auipc	ra,0xfffe
100031e8:	e50080e7          	jalr	-432(ra) # 20001034 <__udivdi3>
100031ec:	4785                	li	a5,1
100031ee:	fb34e4e3          	bltu	s1,s3,10003196 <_ntoa_long_long+0x68>
100031f2:	fa9993e3          	bne	s3,s1,10003198 <_ntoa_long_long+0x6a>
100031f6:	fb5971e3          	bgeu	s2,s5,10003198 <_ntoa_long_long+0x6a>
100031fa:	bf71                	j	10003196 <_ntoa_long_long+0x68>
100031fc:	4a01                	li	s4,0
100031fe:	c45a                	sw	s6,8(sp)
10003200:	47aa                	lw	a5,136(sp)
10003202:	c23e                	sw	a5,4(sp)
10003204:	479a                	lw	a5,132(sp)
10003206:	c03e                	sw	a5,0(sp)
10003208:	88d6                	mv	a7,s5
1000320a:	886e                	mv	a6,s11
1000320c:	87d2                	mv	a5,s4
1000320e:	0818                	addi	a4,sp,16
10003210:	86ea                	mv	a3,s10
10003212:	8666                	mv	a2,s9
10003214:	85e2                	mv	a1,s8
10003216:	855e                	mv	a0,s7
10003218:	3329                	jal	10002f22 <_ntoa_format>
1000321a:	50b6                	lw	ra,108(sp)
1000321c:	5426                	lw	s0,104(sp)
1000321e:	5496                	lw	s1,100(sp)
10003220:	5906                	lw	s2,96(sp)
10003222:	49f6                	lw	s3,92(sp)
10003224:	4a66                	lw	s4,88(sp)
10003226:	4ad6                	lw	s5,84(sp)
10003228:	4b46                	lw	s6,80(sp)
1000322a:	4bb6                	lw	s7,76(sp)
1000322c:	4c26                	lw	s8,72(sp)
1000322e:	4c96                	lw	s9,68(sp)
10003230:	4d06                	lw	s10,64(sp)
10003232:	5df2                	lw	s11,60(sp)
10003234:	6109                	addi	sp,sp,128
10003236:	8082                	ret

10003238 <_etoa>:
10003238:	7159                	addi	sp,sp,-112
1000323a:	d686                	sw	ra,108(sp)
1000323c:	d4a2                	sw	s0,104(sp)
1000323e:	d2a6                	sw	s1,100(sp)
10003240:	d0ca                	sw	s2,96(sp)
10003242:	cece                	sw	s3,92(sp)
10003244:	842a                	mv	s0,a0
10003246:	ca2e                	sw	a1,20(sp)
10003248:	ce32                	sw	a2,28(sp)
1000324a:	cc36                	sw	a3,24(sp)
1000324c:	89ba                	mv	s3,a4
1000324e:	d03a                	sw	a4,32(sp)
10003250:	893e                	mv	s2,a5
10003252:	d23e                	sw	a5,36(sp)
10003254:	d442                	sw	a6,40(sp)
10003256:	84c6                	mv	s1,a7
10003258:	864e                	mv	a2,s3
1000325a:	86ca                	mv	a3,s2
1000325c:	854e                	mv	a0,s3
1000325e:	85ca                	mv	a1,s2
10003260:	10000097          	auipc	ra,0x10000
10003264:	584080e7          	jalr	1412(ra) # 200037e4 <__unorddf2>
10003268:	2c051f63          	bnez	a0,10003546 <_etoa+0x30e>
1000326c:	1000a7b7          	lui	a5,0x1000a
10003270:	1e87a603          	lw	a2,488(a5) # 1000a1e8 <_ctype_+0x124>
10003274:	1ec7a683          	lw	a3,492(a5)
10003278:	854e                	mv	a0,s3
1000327a:	85ca                	mv	a1,s2
1000327c:	0ffff097          	auipc	ra,0xffff
10003280:	4e4080e7          	jalr	1252(ra) # 20002760 <__gedf2>
10003284:	2ca04163          	bgtz	a0,10003546 <_etoa+0x30e>
10003288:	1000a7b7          	lui	a5,0x1000a
1000328c:	1f07a603          	lw	a2,496(a5) # 1000a1f0 <_ctype_+0x12c>
10003290:	1f47a683          	lw	a3,500(a5)
10003294:	854e                	mv	a0,s3
10003296:	85ca                	mv	a1,s2
10003298:	0ffff097          	auipc	ra,0xffff
1000329c:	5a0080e7          	jalr	1440(ra) # 20002838 <__ledf2>
100032a0:	2a054363          	bltz	a0,10003546 <_etoa+0x30e>
100032a4:	ccd2                	sw	s4,88(sp)
100032a6:	cad6                	sw	s5,84(sp)
100032a8:	c8da                	sw	s6,80(sp)
100032aa:	c6de                	sw	s7,76(sp)
100032ac:	c4e2                	sw	s8,72(sp)
100032ae:	c2e6                	sw	s9,68(sp)
100032b0:	de6e                	sw	s11,60(sp)
100032b2:	4601                	li	a2,0
100032b4:	4681                	li	a3,0
100032b6:	5902                	lw	s2,32(sp)
100032b8:	5992                	lw	s3,36(sp)
100032ba:	854a                	mv	a0,s2
100032bc:	85ce                	mv	a1,s3
100032be:	0ffff097          	auipc	ra,0xffff
100032c2:	57a080e7          	jalr	1402(ra) # 20002838 <__ledf2>
100032c6:	2a054463          	bltz	a0,1000356e <_etoa+0x336>
100032ca:	5782                	lw	a5,32(sp)
100032cc:	8bbe                	mv	s7,a5
100032ce:	5792                	lw	a5,36(sp)
100032d0:	8dbe                	mv	s11,a5
100032d2:	57c6                	lw	a5,112(sp)
100032d4:	4007f793          	andi	a5,a5,1024
100032d8:	d63e                	sw	a5,44(sp)
100032da:	e399                	bnez	a5,100032e0 <_etoa+0xa8>
100032dc:	4799                	li	a5,6
100032de:	d43e                	sw	a5,40(sp)
100032e0:	8ade                	mv	s5,s7
100032e2:	8b6e                	mv	s6,s11
100032e4:	01bbe7b3          	or	a5,s7,s11
100032e8:	28078863          	beqz	a5,10003578 <_etoa+0x340>
100032ec:	c0ea                	sw	s10,64(sp)
100032ee:	014dd513          	srli	a0,s11,0x14
100032f2:	7ff57513          	andi	a0,a0,2047
100032f6:	001007b7          	lui	a5,0x100
100032fa:	17fd                	addi	a5,a5,-1 # fffff <HeapSize+0xff7ff>
100032fc:	00fdf7b3          	and	a5,s11,a5
10003300:	3ff00737          	lui	a4,0x3ff00
10003304:	00e7e933          	or	s2,a5,a4
10003308:	c0150513          	addi	a0,a0,-1023
1000330c:	10000097          	auipc	ra,0x10000
10003310:	5cc080e7          	jalr	1484(ra) # 200038d8 <__floatsidf>
10003314:	1000a7b7          	lui	a5,0x1000a
10003318:	1f87a603          	lw	a2,504(a5) # 1000a1f8 <_ctype_+0x134>
1000331c:	1fc7a683          	lw	a3,508(a5)
10003320:	0ffff097          	auipc	ra,0xffff
10003324:	5f6080e7          	jalr	1526(ra) # 20002916 <__muldf3>
10003328:	1000a7b7          	lui	a5,0x1000a
1000332c:	2007a603          	lw	a2,512(a5) # 1000a200 <_ctype_+0x13c>
10003330:	2047a683          	lw	a3,516(a5)
10003334:	0fffe097          	auipc	ra,0xfffe
10003338:	428080e7          	jalr	1064(ra) # 2000175c <__adddf3>
1000333c:	8a2a                	mv	s4,a0
1000333e:	89ae                	mv	s3,a1
10003340:	1000a7b7          	lui	a5,0x1000a
10003344:	2087a603          	lw	a2,520(a5) # 1000a208 <_ctype_+0x144>
10003348:	20c7a683          	lw	a3,524(a5)
1000334c:	855e                	mv	a0,s7
1000334e:	85ca                	mv	a1,s2
10003350:	10000097          	auipc	ra,0x10000
10003354:	b6a080e7          	jalr	-1174(ra) # 20002eba <__subdf3>
10003358:	1000a7b7          	lui	a5,0x1000a
1000335c:	2107a603          	lw	a2,528(a5) # 1000a210 <_ctype_+0x14c>
10003360:	2147a683          	lw	a3,532(a5)
10003364:	0ffff097          	auipc	ra,0xffff
10003368:	5b2080e7          	jalr	1458(ra) # 20002916 <__muldf3>
1000336c:	862a                	mv	a2,a0
1000336e:	86ae                	mv	a3,a1
10003370:	8552                	mv	a0,s4
10003372:	85ce                	mv	a1,s3
10003374:	0fffe097          	auipc	ra,0xfffe
10003378:	3e8080e7          	jalr	1000(ra) # 2000175c <__adddf3>
1000337c:	10000097          	auipc	ra,0x10000
10003380:	4a4080e7          	jalr	1188(ra) # 20003820 <__fixdfsi>
10003384:	8c2a                	mv	s8,a0
10003386:	10000097          	auipc	ra,0x10000
1000338a:	552080e7          	jalr	1362(ra) # 200038d8 <__floatsidf>
1000338e:	8a2a                	mv	s4,a0
10003390:	89ae                	mv	s3,a1
10003392:	1000a7b7          	lui	a5,0x1000a
10003396:	2187a603          	lw	a2,536(a5) # 1000a218 <_ctype_+0x154>
1000339a:	21c7a683          	lw	a3,540(a5)
1000339e:	0ffff097          	auipc	ra,0xffff
100033a2:	578080e7          	jalr	1400(ra) # 20002916 <__muldf3>
100033a6:	1000a7b7          	lui	a5,0x1000a
100033aa:	2207a603          	lw	a2,544(a5) # 1000a220 <_ctype_+0x15c>
100033ae:	2247a683          	lw	a3,548(a5)
100033b2:	0fffe097          	auipc	ra,0xfffe
100033b6:	3aa080e7          	jalr	938(ra) # 2000175c <__adddf3>
100033ba:	10000097          	auipc	ra,0x10000
100033be:	466080e7          	jalr	1126(ra) # 20003820 <__fixdfsi>
100033c2:	892a                	mv	s2,a0
100033c4:	1000a7b7          	lui	a5,0x1000a
100033c8:	2287a603          	lw	a2,552(a5) # 1000a228 <_ctype_+0x164>
100033cc:	22c7a683          	lw	a3,556(a5)
100033d0:	8552                	mv	a0,s4
100033d2:	85ce                	mv	a1,s3
100033d4:	0ffff097          	auipc	ra,0xffff
100033d8:	542080e7          	jalr	1346(ra) # 20002916 <__muldf3>
100033dc:	8a2a                	mv	s4,a0
100033de:	89ae                	mv	s3,a1
100033e0:	854a                	mv	a0,s2
100033e2:	10000097          	auipc	ra,0x10000
100033e6:	4f6080e7          	jalr	1270(ra) # 200038d8 <__floatsidf>
100033ea:	1000a7b7          	lui	a5,0x1000a
100033ee:	1d07a603          	lw	a2,464(a5) # 1000a1d0 <_ctype_+0x10c>
100033f2:	1d47a683          	lw	a3,468(a5)
100033f6:	0ffff097          	auipc	ra,0xffff
100033fa:	520080e7          	jalr	1312(ra) # 20002916 <__muldf3>
100033fe:	862a                	mv	a2,a0
10003400:	86ae                	mv	a3,a1
10003402:	8552                	mv	a0,s4
10003404:	85ce                	mv	a1,s3
10003406:	10000097          	auipc	ra,0x10000
1000340a:	ab4080e7          	jalr	-1356(ra) # 20002eba <__subdf3>
1000340e:	8a2a                	mv	s4,a0
10003410:	89ae                	mv	s3,a1
10003412:	862a                	mv	a2,a0
10003414:	86ae                	mv	a3,a1
10003416:	0ffff097          	auipc	ra,0xffff
1000341a:	500080e7          	jalr	1280(ra) # 20002916 <__muldf3>
1000341e:	8b2a                	mv	s6,a0
10003420:	8aae                	mv	s5,a1
10003422:	3ff90913          	addi	s2,s2,1023
10003426:	0952                	slli	s2,s2,0x14
10003428:	8652                	mv	a2,s4
1000342a:	86ce                	mv	a3,s3
1000342c:	8552                	mv	a0,s4
1000342e:	85ce                	mv	a1,s3
10003430:	0fffe097          	auipc	ra,0xfffe
10003434:	32c080e7          	jalr	812(ra) # 2000175c <__adddf3>
10003438:	8d2a                	mv	s10,a0
1000343a:	8cae                	mv	s9,a1
1000343c:	8652                	mv	a2,s4
1000343e:	86ce                	mv	a3,s3
10003440:	1000a7b7          	lui	a5,0x1000a
10003444:	2307a503          	lw	a0,560(a5) # 1000a230 <_ctype_+0x16c>
10003448:	2347a583          	lw	a1,564(a5)
1000344c:	10000097          	auipc	ra,0x10000
10003450:	a6e080e7          	jalr	-1426(ra) # 20002eba <__subdf3>
10003454:	8a2a                	mv	s4,a0
10003456:	89ae                	mv	s3,a1
10003458:	1000a7b7          	lui	a5,0x1000a
1000345c:	2387a603          	lw	a2,568(a5) # 1000a238 <_ctype_+0x174>
10003460:	23c7a683          	lw	a3,572(a5)
10003464:	855a                	mv	a0,s6
10003466:	85d6                	mv	a1,s5
10003468:	0ffff097          	auipc	ra,0xffff
1000346c:	bf4080e7          	jalr	-1036(ra) # 2000205c <__divdf3>
10003470:	1000a7b7          	lui	a5,0x1000a
10003474:	2407a603          	lw	a2,576(a5) # 1000a240 <_ctype_+0x17c>
10003478:	2447a683          	lw	a3,580(a5)
1000347c:	0fffe097          	auipc	ra,0xfffe
10003480:	2e0080e7          	jalr	736(ra) # 2000175c <__adddf3>
10003484:	862a                	mv	a2,a0
10003486:	86ae                	mv	a3,a1
10003488:	855a                	mv	a0,s6
1000348a:	85d6                	mv	a1,s5
1000348c:	0ffff097          	auipc	ra,0xffff
10003490:	bd0080e7          	jalr	-1072(ra) # 2000205c <__divdf3>
10003494:	1000a7b7          	lui	a5,0x1000a
10003498:	2487a603          	lw	a2,584(a5) # 1000a248 <_ctype_+0x184>
1000349c:	24c7a683          	lw	a3,588(a5)
100034a0:	0fffe097          	auipc	ra,0xfffe
100034a4:	2bc080e7          	jalr	700(ra) # 2000175c <__adddf3>
100034a8:	862a                	mv	a2,a0
100034aa:	86ae                	mv	a3,a1
100034ac:	855a                	mv	a0,s6
100034ae:	85d6                	mv	a1,s5
100034b0:	0ffff097          	auipc	ra,0xffff
100034b4:	bac080e7          	jalr	-1108(ra) # 2000205c <__divdf3>
100034b8:	862a                	mv	a2,a0
100034ba:	86ae                	mv	a3,a1
100034bc:	8552                	mv	a0,s4
100034be:	85ce                	mv	a1,s3
100034c0:	0fffe097          	auipc	ra,0xfffe
100034c4:	29c080e7          	jalr	668(ra) # 2000175c <__adddf3>
100034c8:	862a                	mv	a2,a0
100034ca:	86ae                	mv	a3,a1
100034cc:	856a                	mv	a0,s10
100034ce:	85e6                	mv	a1,s9
100034d0:	0ffff097          	auipc	ra,0xffff
100034d4:	b8c080e7          	jalr	-1140(ra) # 2000205c <__divdf3>
100034d8:	1000a7b7          	lui	a5,0x1000a
100034dc:	2507a603          	lw	a2,592(a5) # 1000a250 <_ctype_+0x18c>
100034e0:	2547a683          	lw	a3,596(a5)
100034e4:	0fffe097          	auipc	ra,0xfffe
100034e8:	278080e7          	jalr	632(ra) # 2000175c <__adddf3>
100034ec:	4701                	li	a4,0
100034ee:	863a                	mv	a2,a4
100034f0:	86ca                	mv	a3,s2
100034f2:	0ffff097          	auipc	ra,0xffff
100034f6:	424080e7          	jalr	1060(ra) # 20002916 <__muldf3>
100034fa:	892a                	mv	s2,a0
100034fc:	89ae                	mv	s3,a1
100034fe:	8aaa                	mv	s5,a0
10003500:	8b2e                	mv	s6,a1
10003502:	865e                	mv	a2,s7
10003504:	86ee                	mv	a3,s11
10003506:	0ffff097          	auipc	ra,0xffff
1000350a:	25a080e7          	jalr	602(ra) # 20002760 <__gedf2>
1000350e:	02a05363          	blez	a0,10003534 <_etoa+0x2fc>
10003512:	fffc0793          	addi	a5,s8,-1
10003516:	8c3e                	mv	s8,a5
10003518:	1000a7b7          	lui	a5,0x1000a
1000351c:	2407a603          	lw	a2,576(a5) # 1000a240 <_ctype_+0x17c>
10003520:	2447a683          	lw	a3,580(a5)
10003524:	854a                	mv	a0,s2
10003526:	85ce                	mv	a1,s3
10003528:	0ffff097          	auipc	ra,0xffff
1000352c:	b34080e7          	jalr	-1228(ra) # 2000205c <__divdf3>
10003530:	8aaa                	mv	s5,a0
10003532:	8b2e                	mv	s6,a1
10003534:	063c0793          	addi	a5,s8,99
10003538:	0c600713          	li	a4,198
1000353c:	08f76c63          	bltu	a4,a5,100035d4 <_etoa+0x39c>
10003540:	4911                	li	s2,4
10003542:	4d06                	lw	s10,64(sp)
10003544:	a825                	j	1000357c <_etoa+0x344>
10003546:	57c6                	lw	a5,112(sp)
10003548:	c03e                	sw	a5,0(sp)
1000354a:	88a6                	mv	a7,s1
1000354c:	5822                	lw	a6,40(sp)
1000354e:	5602                	lw	a2,32(sp)
10003550:	5692                	lw	a3,36(sp)
10003552:	8732                	mv	a4,a2
10003554:	87b6                	mv	a5,a3
10003556:	46e2                	lw	a3,24(sp)
10003558:	4672                	lw	a2,28(sp)
1000355a:	45d2                	lw	a1,20(sp)
1000355c:	8522                	mv	a0,s0
1000355e:	225d                	jal	10003704 <_ftoa>
10003560:	50b6                	lw	ra,108(sp)
10003562:	5426                	lw	s0,104(sp)
10003564:	5496                	lw	s1,100(sp)
10003566:	5906                	lw	s2,96(sp)
10003568:	49f6                	lw	s3,92(sp)
1000356a:	6165                	addi	sp,sp,112
1000356c:	8082                	ret
1000356e:	8bca                	mv	s7,s2
10003570:	69f99793          	binvi	a5,s3,0x1f
10003574:	8dbe                	mv	s11,a5
10003576:	bbb1                	j	100032d2 <_etoa+0x9a>
10003578:	4c01                	li	s8,0
1000357a:	4911                	li	s2,4
1000357c:	5746                	lw	a4,112(sp)
1000357e:	01471793          	slli	a5,a4,0x14
10003582:	0607d363          	bgez	a5,100035e8 <_etoa+0x3b0>
10003586:	016ae7b3          	or	a5,s5,s6
1000358a:	cf8d                	beqz	a5,100035c4 <_etoa+0x38c>
1000358c:	1000a7b7          	lui	a5,0x1000a
10003590:	2587a603          	lw	a2,600(a5) # 1000a258 <_ctype_+0x194>
10003594:	25c7a683          	lw	a3,604(a5)
10003598:	855e                	mv	a0,s7
1000359a:	85ee                	mv	a1,s11
1000359c:	0ffff097          	auipc	ra,0xffff
100035a0:	1c4080e7          	jalr	452(ra) # 20002760 <__gedf2>
100035a4:	10054163          	bltz	a0,100036a6 <_etoa+0x46e>
100035a8:	1000a7b7          	lui	a5,0x1000a
100035ac:	2607a603          	lw	a2,608(a5) # 1000a260 <_ctype_+0x19c>
100035b0:	2647a683          	lw	a3,612(a5)
100035b4:	855e                	mv	a0,s7
100035b6:	85ee                	mv	a1,s11
100035b8:	0ffff097          	auipc	ra,0xffff
100035bc:	280080e7          	jalr	640(ra) # 20002838 <__ledf2>
100035c0:	0e055363          	bgez	a0,100036a6 <_etoa+0x46e>
100035c4:	57a2                	lw	a5,40(sp)
100035c6:	00fc5a63          	bge	s8,a5,100035da <_etoa+0x3a2>
100035ca:	418787b3          	sub	a5,a5,s8
100035ce:	17fd                	addi	a5,a5,-1
100035d0:	d43e                	sw	a5,40(sp)
100035d2:	a029                	j	100035dc <_etoa+0x3a4>
100035d4:	4915                	li	s2,5
100035d6:	4d06                	lw	s10,64(sp)
100035d8:	b755                	j	1000357c <_etoa+0x344>
100035da:	d402                	sw	zero,40(sp)
100035dc:	57c6                	lw	a5,112(sp)
100035de:	4007e793          	ori	a5,a5,1024
100035e2:	d8be                	sw	a5,112(sp)
100035e4:	4901                	li	s2,0
100035e6:	4c01                	li	s8,0
100035e8:	0c997763          	bgeu	s2,s1,100036b6 <_etoa+0x47e>
100035ec:	412487b3          	sub	a5,s1,s2
100035f0:	89be                	mv	s3,a5
100035f2:	57c6                	lw	a5,112(sp)
100035f4:	8b89                	andi	a5,a5,2
100035f6:	8cbe                	mv	s9,a5
100035f8:	c781                	beqz	a5,10003600 <_etoa+0x3c8>
100035fa:	00090363          	beqz	s2,10003600 <_etoa+0x3c8>
100035fe:	4981                	li	s3,0
10003600:	000c0c63          	beqz	s8,10003618 <_etoa+0x3e0>
10003604:	8656                	mv	a2,s5
10003606:	86da                	mv	a3,s6
10003608:	855e                	mv	a0,s7
1000360a:	85ee                	mv	a1,s11
1000360c:	0ffff097          	auipc	ra,0xffff
10003610:	a50080e7          	jalr	-1456(ra) # 2000205c <__divdf3>
10003614:	8baa                	mv	s7,a0
10003616:	8dae                	mv	s11,a1
10003618:	4601                	li	a2,0
1000361a:	4681                	li	a3,0
1000361c:	5702                	lw	a4,32(sp)
1000361e:	5792                	lw	a5,36(sp)
10003620:	853a                	mv	a0,a4
10003622:	85be                	mv	a1,a5
10003624:	0ffff097          	auipc	ra,0xffff
10003628:	214080e7          	jalr	532(ra) # 20002838 <__ledf2>
1000362c:	08054763          	bltz	a0,100036ba <_etoa+0x482>
10003630:	57c6                	lw	a5,112(sp)
10003632:	48b79793          	bclri	a5,a5,0xb
10003636:	c03e                	sw	a5,0(sp)
10003638:	88ce                	mv	a7,s3
1000363a:	5822                	lw	a6,40(sp)
1000363c:	875e                	mv	a4,s7
1000363e:	87ee                	mv	a5,s11
10003640:	46e2                	lw	a3,24(sp)
10003642:	4672                	lw	a2,28(sp)
10003644:	45d2                	lw	a1,20(sp)
10003646:	8522                	mv	a0,s0
10003648:	2875                	jal	10003704 <_ftoa>
1000364a:	0a090563          	beqz	s2,100036f4 <_etoa+0x4bc>
1000364e:	57c6                	lw	a5,112(sp)
10003650:	0207f793          	andi	a5,a5,32
10003654:	c7bd                	beqz	a5,100036c2 <_etoa+0x48a>
10003656:	04500793          	li	a5,69
1000365a:	00150713          	addi	a4,a0,1
1000365e:	8aba                	mv	s5,a4
10003660:	4a62                	lw	s4,24(sp)
10003662:	86d2                	mv	a3,s4
10003664:	862a                	mv	a2,a0
10003666:	49d2                	lw	s3,20(sp)
10003668:	85ce                	mv	a1,s3
1000366a:	853e                	mv	a0,a5
1000366c:	9402                	jalr	s0
1000366e:	41800733          	neg	a4,s8
10003672:	4795                	li	a5,5
10003674:	c23e                	sw	a5,4(sp)
10003676:	197d                	addi	s2,s2,-1
10003678:	c04a                	sw	s2,0(sp)
1000367a:	4881                	li	a7,0
1000367c:	4829                	li	a6,10
1000367e:	01fc5793          	srli	a5,s8,0x1f
10003682:	0aec6733          	max	a4,s8,a4
10003686:	86d2                	mv	a3,s4
10003688:	8656                	mv	a2,s5
1000368a:	85ce                	mv	a1,s3
1000368c:	8522                	mv	a0,s0
1000368e:	a13ff0ef          	jal	100030a0 <_ntoa_long>
10003692:	040c9463          	bnez	s9,100036da <_etoa+0x4a2>
10003696:	4a66                	lw	s4,88(sp)
10003698:	4ad6                	lw	s5,84(sp)
1000369a:	4b46                	lw	s6,80(sp)
1000369c:	4bb6                	lw	s7,76(sp)
1000369e:	4c26                	lw	s8,72(sp)
100036a0:	4c96                	lw	s9,68(sp)
100036a2:	5df2                	lw	s11,60(sp)
100036a4:	bd75                	j	10003560 <_etoa+0x328>
100036a6:	57a2                	lw	a5,40(sp)
100036a8:	d3a1                	beqz	a5,100035e8 <_etoa+0x3b0>
100036aa:	57b2                	lw	a5,44(sp)
100036ac:	df95                	beqz	a5,100035e8 <_etoa+0x3b0>
100036ae:	57a2                	lw	a5,40(sp)
100036b0:	17fd                	addi	a5,a5,-1
100036b2:	d43e                	sw	a5,40(sp)
100036b4:	bf15                	j	100035e8 <_etoa+0x3b0>
100036b6:	4981                	li	s3,0
100036b8:	bf2d                	j	100035f2 <_etoa+0x3ba>
100036ba:	69fd9793          	binvi	a5,s11,0x1f
100036be:	8dbe                	mv	s11,a5
100036c0:	bf85                	j	10003630 <_etoa+0x3f8>
100036c2:	06500793          	li	a5,101
100036c6:	bf51                	j	1000365a <_etoa+0x422>
100036c8:	00150913          	addi	s2,a0,1
100036cc:	46e2                	lw	a3,24(sp)
100036ce:	862a                	mv	a2,a0
100036d0:	45d2                	lw	a1,20(sp)
100036d2:	02000513          	li	a0,32
100036d6:	9402                	jalr	s0
100036d8:	854a                	mv	a0,s2
100036da:	47f2                	lw	a5,28(sp)
100036dc:	40f507b3          	sub	a5,a0,a5
100036e0:	fe97e4e3          	bltu	a5,s1,100036c8 <_etoa+0x490>
100036e4:	4a66                	lw	s4,88(sp)
100036e6:	4ad6                	lw	s5,84(sp)
100036e8:	4b46                	lw	s6,80(sp)
100036ea:	4bb6                	lw	s7,76(sp)
100036ec:	4c26                	lw	s8,72(sp)
100036ee:	4c96                	lw	s9,68(sp)
100036f0:	5df2                	lw	s11,60(sp)
100036f2:	b5bd                	j	10003560 <_etoa+0x328>
100036f4:	4a66                	lw	s4,88(sp)
100036f6:	4ad6                	lw	s5,84(sp)
100036f8:	4b46                	lw	s6,80(sp)
100036fa:	4bb6                	lw	s7,76(sp)
100036fc:	4c26                	lw	s8,72(sp)
100036fe:	4c96                	lw	s9,68(sp)
10003700:	5df2                	lw	s11,60(sp)
10003702:	bdb9                	j	10003560 <_etoa+0x328>

10003704 <_ftoa>:
10003704:	7119                	addi	sp,sp,-128
10003706:	de86                	sw	ra,124(sp)
10003708:	daa6                	sw	s1,116(sp)
1000370a:	cce2                	sw	s8,88(sp)
1000370c:	cae6                	sw	s9,84(sp)
1000370e:	c8ea                	sw	s10,80(sp)
10003710:	c6ee                	sw	s11,76(sp)
10003712:	8daa                	mv	s11,a0
10003714:	c82e                	sw	a1,16(sp)
10003716:	ca32                	sw	a2,20(sp)
10003718:	cc36                	sw	a3,24(sp)
1000371a:	8c3a                	mv	s8,a4
1000371c:	8cbe                	mv	s9,a5
1000371e:	84c2                	mv	s1,a6
10003720:	8d46                	mv	s10,a7
10003722:	863a                	mv	a2,a4
10003724:	86be                	mv	a3,a5
10003726:	853a                	mv	a0,a4
10003728:	85be                	mv	a1,a5
1000372a:	10000097          	auipc	ra,0x10000
1000372e:	0ba080e7          	jalr	186(ra) # 200037e4 <__unorddf2>
10003732:	e155                	bnez	a0,100037d6 <_ftoa+0xd2>
10003734:	1000a7b7          	lui	a5,0x1000a
10003738:	1f07a603          	lw	a2,496(a5) # 1000a1f0 <_ctype_+0x12c>
1000373c:	1f47a683          	lw	a3,500(a5)
10003740:	8562                	mv	a0,s8
10003742:	85e6                	mv	a1,s9
10003744:	0ffff097          	auipc	ra,0xffff
10003748:	0f4080e7          	jalr	244(ra) # 20002838 <__ledf2>
1000374c:	0a054363          	bltz	a0,100037f2 <_ftoa+0xee>
10003750:	1000a7b7          	lui	a5,0x1000a
10003754:	1e87a603          	lw	a2,488(a5) # 1000a1e8 <_ctype_+0x124>
10003758:	1ec7a683          	lw	a3,492(a5)
1000375c:	8562                	mv	a0,s8
1000375e:	85e6                	mv	a1,s9
10003760:	0ffff097          	auipc	ra,0xffff
10003764:	000080e7          	jalr	ra # 20002760 <__gedf2>
10003768:	0aa04363          	bgtz	a0,1000380e <_ftoa+0x10a>
1000376c:	dca2                	sw	s0,120(sp)
1000376e:	d8ca                	sw	s2,112(sp)
10003770:	1000a7b7          	lui	a5,0x1000a
10003774:	2687a603          	lw	a2,616(a5) # 1000a268 <_ctype_+0x1a4>
10003778:	26c7a683          	lw	a3,620(a5)
1000377c:	8562                	mv	a0,s8
1000377e:	85e6                	mv	a1,s9
10003780:	0ffff097          	auipc	ra,0xffff
10003784:	fe0080e7          	jalr	-32(ra) # 20002760 <__gedf2>
10003788:	0aa04a63          	bgtz	a0,1000383c <_ftoa+0x138>
1000378c:	1000a7b7          	lui	a5,0x1000a
10003790:	2707a603          	lw	a2,624(a5) # 1000a270 <_ctype_+0x1ac>
10003794:	2747a683          	lw	a3,628(a5)
10003798:	8562                	mv	a0,s8
1000379a:	85e6                	mv	a1,s9
1000379c:	0ffff097          	auipc	ra,0xffff
100037a0:	09c080e7          	jalr	156(ra) # 20002838 <__ledf2>
100037a4:	08054c63          	bltz	a0,1000383c <_ftoa+0x138>
100037a8:	d6ce                	sw	s3,108(sp)
100037aa:	d4d2                	sw	s4,104(sp)
100037ac:	d2d6                	sw	s5,100(sp)
100037ae:	d0da                	sw	s6,96(sp)
100037b0:	cede                	sw	s7,92(sp)
100037b2:	4601                	li	a2,0
100037b4:	4681                	li	a3,0
100037b6:	8562                	mv	a0,s8
100037b8:	85e6                	mv	a1,s9
100037ba:	0ffff097          	auipc	ra,0xffff
100037be:	07e080e7          	jalr	126(ra) # 20002838 <__ledf2>
100037c2:	08054c63          	bltz	a0,1000385a <_ftoa+0x156>
100037c6:	ce02                	sw	zero,28(sp)
100037c8:	478a                	lw	a5,128(sp)
100037ca:	4007f793          	andi	a5,a5,1024
100037ce:	1c078b63          	beqz	a5,100039a4 <_ftoa+0x2a0>
100037d2:	4401                	li	s0,0
100037d4:	a855                	j	10003888 <_ftoa+0x184>
100037d6:	488a                	lw	a7,128(sp)
100037d8:	886a                	mv	a6,s10
100037da:	478d                	li	a5,3
100037dc:	10009737          	lui	a4,0x10009
100037e0:	5d470713          	addi	a4,a4,1492 # 100095d4 <__EH_FRAME_BEGIN__+0x914>
100037e4:	46e2                	lw	a3,24(sp)
100037e6:	4652                	lw	a2,20(sp)
100037e8:	45c2                	lw	a1,16(sp)
100037ea:	856e                	mv	a0,s11
100037ec:	e92ff0ef          	jal	10002e7e <_out_rev>
100037f0:	a615                	j	10003b14 <_ftoa+0x410>
100037f2:	488a                	lw	a7,128(sp)
100037f4:	886a                	mv	a6,s10
100037f6:	4791                	li	a5,4
100037f8:	10009737          	lui	a4,0x10009
100037fc:	5d870713          	addi	a4,a4,1496 # 100095d8 <__EH_FRAME_BEGIN__+0x918>
10003800:	46e2                	lw	a3,24(sp)
10003802:	4652                	lw	a2,20(sp)
10003804:	45c2                	lw	a1,16(sp)
10003806:	856e                	mv	a0,s11
10003808:	e76ff0ef          	jal	10002e7e <_out_rev>
1000380c:	a621                	j	10003b14 <_ftoa+0x410>
1000380e:	478a                	lw	a5,128(sp)
10003810:	8b91                	andi	a5,a5,4
10003812:	cf99                	beqz	a5,10003830 <_ftoa+0x12c>
10003814:	10009737          	lui	a4,0x10009
10003818:	5c870713          	addi	a4,a4,1480 # 100095c8 <__EH_FRAME_BEGIN__+0x908>
1000381c:	4791                	li	a5,4
1000381e:	488a                	lw	a7,128(sp)
10003820:	886a                	mv	a6,s10
10003822:	46e2                	lw	a3,24(sp)
10003824:	4652                	lw	a2,20(sp)
10003826:	45c2                	lw	a1,16(sp)
10003828:	856e                	mv	a0,s11
1000382a:	e54ff0ef          	jal	10002e7e <_out_rev>
1000382e:	a4dd                	j	10003b14 <_ftoa+0x410>
10003830:	10009737          	lui	a4,0x10009
10003834:	5d070713          	addi	a4,a4,1488 # 100095d0 <__EH_FRAME_BEGIN__+0x910>
10003838:	478d                	li	a5,3
1000383a:	b7d5                	j	1000381e <_ftoa+0x11a>
1000383c:	478a                	lw	a5,128(sp)
1000383e:	c03e                	sw	a5,0(sp)
10003840:	88ea                	mv	a7,s10
10003842:	8826                	mv	a6,s1
10003844:	8762                	mv	a4,s8
10003846:	87e6                	mv	a5,s9
10003848:	46e2                	lw	a3,24(sp)
1000384a:	4652                	lw	a2,20(sp)
1000384c:	45c2                	lw	a1,16(sp)
1000384e:	856e                	mv	a0,s11
10003850:	9e9ff0ef          	jal	10003238 <_etoa>
10003854:	5466                	lw	s0,120(sp)
10003856:	5946                	lw	s2,112(sp)
10003858:	ac75                	j	10003b14 <_ftoa+0x410>
1000385a:	8662                	mv	a2,s8
1000385c:	86e6                	mv	a3,s9
1000385e:	4501                	li	a0,0
10003860:	4581                	li	a1,0
10003862:	0ffff097          	auipc	ra,0xffff
10003866:	658080e7          	jalr	1624(ra) # 20002eba <__subdf3>
1000386a:	8c2a                	mv	s8,a0
1000386c:	8cae                	mv	s9,a1
1000386e:	4785                	li	a5,1
10003870:	ce3e                	sw	a5,28(sp)
10003872:	bf99                	j	100037c8 <_ftoa+0xc4>
10003874:	03040793          	addi	a5,s0,48
10003878:	0818                	addi	a4,sp,16
1000387a:	97ba                	add	a5,a5,a4
1000387c:	03000713          	li	a4,48
10003880:	fee78023          	sb	a4,-32(a5)
10003884:	14fd                	addi	s1,s1,-1
10003886:	0405                	addi	s0,s0,1
10003888:	02043793          	sltiu	a5,s0,32
1000388c:	00a4b713          	sltiu	a4,s1,10
10003890:	00174713          	xori	a4,a4,1
10003894:	c391                	beqz	a5,10003898 <_ftoa+0x194>
10003896:	ff79                	bnez	a4,10003874 <_ftoa+0x170>
10003898:	8562                	mv	a0,s8
1000389a:	85e6                	mv	a1,s9
1000389c:	10000097          	auipc	ra,0x10000
100038a0:	f84080e7          	jalr	-124(ra) # 20003820 <__fixdfsi>
100038a4:	892a                	mv	s2,a0
100038a6:	10000097          	auipc	ra,0x10000
100038aa:	032080e7          	jalr	50(ra) # 200038d8 <__floatsidf>
100038ae:	862a                	mv	a2,a0
100038b0:	86ae                	mv	a3,a1
100038b2:	8562                	mv	a0,s8
100038b4:	85e6                	mv	a1,s9
100038b6:	0ffff097          	auipc	ra,0xffff
100038ba:	604080e7          	jalr	1540(ra) # 20002eba <__subdf3>
100038be:	1000a7b7          	lui	a5,0x1000a
100038c2:	c4078793          	addi	a5,a5,-960 # 10009c40 <pow10.0>
100038c6:	20f4e7b3          	sh3add	a5,s1,a5
100038ca:	0047a803          	lw	a6,4(a5)
100038ce:	439c                	lw	a5,0(a5)
100038d0:	8a3e                	mv	s4,a5
100038d2:	8ac2                	mv	s5,a6
100038d4:	863e                	mv	a2,a5
100038d6:	86c2                	mv	a3,a6
100038d8:	0ffff097          	auipc	ra,0xffff
100038dc:	03e080e7          	jalr	62(ra) # 20002916 <__muldf3>
100038e0:	8baa                	mv	s7,a0
100038e2:	8b2e                	mv	s6,a1
100038e4:	10000097          	auipc	ra,0x10000
100038e8:	f9e080e7          	jalr	-98(ra) # 20003882 <__fixunsdfsi>
100038ec:	89aa                	mv	s3,a0
100038ee:	10000097          	auipc	ra,0x10000
100038f2:	072080e7          	jalr	114(ra) # 20003960 <__floatunsidf>
100038f6:	862a                	mv	a2,a0
100038f8:	86ae                	mv	a3,a1
100038fa:	855e                	mv	a0,s7
100038fc:	85da                	mv	a1,s6
100038fe:	0ffff097          	auipc	ra,0xffff
10003902:	5bc080e7          	jalr	1468(ra) # 20002eba <__subdf3>
10003906:	8b2a                	mv	s6,a0
10003908:	8bae                	mv	s7,a1
1000390a:	1000a7b7          	lui	a5,0x1000a
1000390e:	2207a603          	lw	a2,544(a5) # 1000a220 <_ctype_+0x15c>
10003912:	2247a683          	lw	a3,548(a5)
10003916:	0ffff097          	auipc	ra,0xffff
1000391a:	e4a080e7          	jalr	-438(ra) # 20002760 <__gedf2>
1000391e:	08a05563          	blez	a0,100039a8 <_ftoa+0x2a4>
10003922:	0985                	addi	s3,s3,1
10003924:	854e                	mv	a0,s3
10003926:	10000097          	auipc	ra,0x10000
1000392a:	03a080e7          	jalr	58(ra) # 20003960 <__floatunsidf>
1000392e:	862a                	mv	a2,a0
10003930:	86ae                	mv	a3,a1
10003932:	8552                	mv	a0,s4
10003934:	85d6                	mv	a1,s5
10003936:	0ffff097          	auipc	ra,0xffff
1000393a:	f02080e7          	jalr	-254(ra) # 20002838 <__ledf2>
1000393e:	00a04463          	bgtz	a0,10003946 <_ftoa+0x242>
10003942:	0905                	addi	s2,s2,1
10003944:	4981                	li	s3,0
10003946:	e4d1                	bnez	s1,100039d2 <_ftoa+0x2ce>
10003948:	854a                	mv	a0,s2
1000394a:	10000097          	auipc	ra,0x10000
1000394e:	f8e080e7          	jalr	-114(ra) # 200038d8 <__floatsidf>
10003952:	862a                	mv	a2,a0
10003954:	86ae                	mv	a3,a1
10003956:	8562                	mv	a0,s8
10003958:	85e6                	mv	a1,s9
1000395a:	0ffff097          	auipc	ra,0xffff
1000395e:	560080e7          	jalr	1376(ra) # 20002eba <__subdf3>
10003962:	89aa                	mv	s3,a0
10003964:	84ae                	mv	s1,a1
10003966:	1000a7b7          	lui	a5,0x1000a
1000396a:	2207a603          	lw	a2,544(a5) # 1000a220 <_ctype_+0x15c>
1000396e:	2247a683          	lw	a3,548(a5)
10003972:	0ffff097          	auipc	ra,0xffff
10003976:	ec6080e7          	jalr	-314(ra) # 20002838 <__ledf2>
1000397a:	0c054a63          	bltz	a0,10003a4e <_ftoa+0x34a>
1000397e:	1000a7b7          	lui	a5,0x1000a
10003982:	2207a603          	lw	a2,544(a5) # 1000a220 <_ctype_+0x15c>
10003986:	2247a683          	lw	a3,548(a5)
1000398a:	854e                	mv	a0,s3
1000398c:	85a6                	mv	a1,s1
1000398e:	0ffff097          	auipc	ra,0xffff
10003992:	dd2080e7          	jalr	-558(ra) # 20002760 <__gedf2>
10003996:	0aa04c63          	bgtz	a0,10003a4e <_ftoa+0x34a>
1000399a:	00197793          	andi	a5,s2,1
1000399e:	cbc5                	beqz	a5,10003a4e <_ftoa+0x34a>
100039a0:	0905                	addi	s2,s2,1
100039a2:	a075                	j	10003a4e <_ftoa+0x34a>
100039a4:	4499                	li	s1,6
100039a6:	b535                	j	100037d2 <_ftoa+0xce>
100039a8:	1000a7b7          	lui	a5,0x1000a
100039ac:	2207a603          	lw	a2,544(a5) # 1000a220 <_ctype_+0x15c>
100039b0:	2247a683          	lw	a3,548(a5)
100039b4:	855a                	mv	a0,s6
100039b6:	85de                	mv	a1,s7
100039b8:	0ffff097          	auipc	ra,0xffff
100039bc:	e80080e7          	jalr	-384(ra) # 20002838 <__ledf2>
100039c0:	f80543e3          	bltz	a0,10003946 <_ftoa+0x242>
100039c4:	00098563          	beqz	s3,100039ce <_ftoa+0x2ca>
100039c8:	0019f793          	andi	a5,s3,1
100039cc:	dfad                	beqz	a5,10003946 <_ftoa+0x242>
100039ce:	0985                	addi	s3,s3,1
100039d0:	bf9d                	j	10003946 <_ftoa+0x242>
100039d2:	47fd                	li	a5,31
100039d4:	0487eb63          	bltu	a5,s0,10003a2a <_ftoa+0x326>
100039d8:	14fd                	addi	s1,s1,-1
100039da:	ccccd7b7          	lui	a5,0xccccd
100039de:	ccd78793          	addi	a5,a5,-819 # cccccccd <__StackTop+0xacc4accd>
100039e2:	02f9b7b3          	mulhu	a5,s3,a5
100039e6:	838d                	srli	a5,a5,0x3
100039e8:	86be                	mv	a3,a5
100039ea:	20f7c7b3          	sh2add	a5,a5,a5
100039ee:	0786                	slli	a5,a5,0x1
100039f0:	40f987b3          	sub	a5,s3,a5
100039f4:	00140713          	addi	a4,s0,1
100039f8:	03078793          	addi	a5,a5,48
100039fc:	03040613          	addi	a2,s0,48
10003a00:	080c                	addi	a1,sp,16
10003a02:	00b60433          	add	s0,a2,a1
10003a06:	fef40023          	sb	a5,-32(s0)
10003a0a:	47a5                	li	a5,9
10003a0c:	0937f363          	bgeu	a5,s3,10003a92 <_ftoa+0x38e>
10003a10:	89b6                	mv	s3,a3
10003a12:	843a                	mv	s0,a4
10003a14:	bf7d                	j	100039d2 <_ftoa+0x2ce>
10003a16:	03040713          	addi	a4,s0,48
10003a1a:	0814                	addi	a3,sp,16
10003a1c:	9736                	add	a4,a4,a3
10003a1e:	03000693          	li	a3,48
10003a22:	fed70023          	sb	a3,-32(a4)
10003a26:	84be                	mv	s1,a5
10003a28:	0405                	addi	s0,s0,1
10003a2a:	47fd                	li	a5,31
10003a2c:	0087e563          	bltu	a5,s0,10003a36 <_ftoa+0x332>
10003a30:	fff48793          	addi	a5,s1,-1
10003a34:	f0ed                	bnez	s1,10003a16 <_ftoa+0x312>
10003a36:	47fd                	li	a5,31
10003a38:	0087eb63          	bltu	a5,s0,10003a4e <_ftoa+0x34a>
10003a3c:	03040793          	addi	a5,s0,48
10003a40:	0818                	addi	a4,sp,16
10003a42:	97ba                	add	a5,a5,a4
10003a44:	02e00713          	li	a4,46
10003a48:	fee78023          	sb	a4,-32(a5)
10003a4c:	0405                	addi	s0,s0,1
10003a4e:	47fd                	li	a5,31
10003a50:	0487e463          	bltu	a5,s0,10003a98 <_ftoa+0x394>
10003a54:	666667b7          	lui	a5,0x66666
10003a58:	66778793          	addi	a5,a5,1639 # 66666667 <__StackTop+0x465e4667>
10003a5c:	02f917b3          	mulh	a5,s2,a5
10003a60:	8789                	srai	a5,a5,0x2
10003a62:	41f95713          	srai	a4,s2,0x1f
10003a66:	8f99                	sub	a5,a5,a4
10003a68:	86be                	mv	a3,a5
10003a6a:	20f7c7b3          	sh2add	a5,a5,a5
10003a6e:	0786                	slli	a5,a5,0x1
10003a70:	40f907b3          	sub	a5,s2,a5
10003a74:	00140713          	addi	a4,s0,1
10003a78:	03078793          	addi	a5,a5,48
10003a7c:	03040613          	addi	a2,s0,48
10003a80:	080c                	addi	a1,sp,16
10003a82:	00b60433          	add	s0,a2,a1
10003a86:	fef40023          	sb	a5,-32(s0)
10003a8a:	8936                	mv	s2,a3
10003a8c:	c689                	beqz	a3,10003a96 <_ftoa+0x392>
10003a8e:	843a                	mv	s0,a4
10003a90:	bf7d                	j	10003a4e <_ftoa+0x34a>
10003a92:	843a                	mv	s0,a4
10003a94:	bf59                	j	10003a2a <_ftoa+0x326>
10003a96:	843a                	mv	s0,a4
10003a98:	478a                	lw	a5,128(sp)
10003a9a:	8b89                	andi	a5,a5,2
10003a9c:	ef8d                	bnez	a5,10003ad6 <_ftoa+0x3d2>
10003a9e:	478a                	lw	a5,128(sp)
10003aa0:	8b85                	andi	a5,a5,1
10003aa2:	cb95                	beqz	a5,10003ad6 <_ftoa+0x3d2>
10003aa4:	020d0463          	beqz	s10,10003acc <_ftoa+0x3c8>
10003aa8:	47f2                	lw	a5,28(sp)
10003aaa:	e781                	bnez	a5,10003ab2 <_ftoa+0x3ae>
10003aac:	478a                	lw	a5,128(sp)
10003aae:	8bb1                	andi	a5,a5,12
10003ab0:	cf91                	beqz	a5,10003acc <_ftoa+0x3c8>
10003ab2:	fffd0793          	addi	a5,s10,-1
10003ab6:	8d3e                	mv	s10,a5
10003ab8:	a811                	j	10003acc <_ftoa+0x3c8>
10003aba:	03040793          	addi	a5,s0,48
10003abe:	0818                	addi	a4,sp,16
10003ac0:	97ba                	add	a5,a5,a4
10003ac2:	03000713          	li	a4,48
10003ac6:	fee78023          	sb	a4,-32(a5)
10003aca:	0405                	addi	s0,s0,1
10003acc:	02043793          	sltiu	a5,s0,32
10003ad0:	01a47363          	bgeu	s0,s10,10003ad6 <_ftoa+0x3d2>
10003ad4:	f3fd                	bnez	a5,10003aba <_ftoa+0x3b6>
10003ad6:	47fd                	li	a5,31
10003ad8:	0087ed63          	bltu	a5,s0,10003af2 <_ftoa+0x3ee>
10003adc:	47f2                	lw	a5,28(sp)
10003ade:	c3b9                	beqz	a5,10003b24 <_ftoa+0x420>
10003ae0:	03040793          	addi	a5,s0,48
10003ae4:	0818                	addi	a4,sp,16
10003ae6:	97ba                	add	a5,a5,a4
10003ae8:	02d00713          	li	a4,45
10003aec:	fee78023          	sb	a4,-32(a5)
10003af0:	0405                	addi	s0,s0,1
10003af2:	488a                	lw	a7,128(sp)
10003af4:	886a                	mv	a6,s10
10003af6:	87a2                	mv	a5,s0
10003af8:	1018                	addi	a4,sp,32
10003afa:	46e2                	lw	a3,24(sp)
10003afc:	4652                	lw	a2,20(sp)
10003afe:	45c2                	lw	a1,16(sp)
10003b00:	856e                	mv	a0,s11
10003b02:	b7cff0ef          	jal	10002e7e <_out_rev>
10003b06:	5466                	lw	s0,120(sp)
10003b08:	5946                	lw	s2,112(sp)
10003b0a:	59b6                	lw	s3,108(sp)
10003b0c:	5a26                	lw	s4,104(sp)
10003b0e:	5a96                	lw	s5,100(sp)
10003b10:	5b06                	lw	s6,96(sp)
10003b12:	4bf6                	lw	s7,92(sp)
10003b14:	50f6                	lw	ra,124(sp)
10003b16:	54d6                	lw	s1,116(sp)
10003b18:	4c66                	lw	s8,88(sp)
10003b1a:	4cd6                	lw	s9,84(sp)
10003b1c:	4d46                	lw	s10,80(sp)
10003b1e:	4db6                	lw	s11,76(sp)
10003b20:	6109                	addi	sp,sp,128
10003b22:	8082                	ret
10003b24:	478a                	lw	a5,128(sp)
10003b26:	8b91                	andi	a5,a5,4
10003b28:	cb99                	beqz	a5,10003b3e <_ftoa+0x43a>
10003b2a:	03040793          	addi	a5,s0,48
10003b2e:	0818                	addi	a4,sp,16
10003b30:	97ba                	add	a5,a5,a4
10003b32:	02b00713          	li	a4,43
10003b36:	fee78023          	sb	a4,-32(a5)
10003b3a:	0405                	addi	s0,s0,1
10003b3c:	bf5d                	j	10003af2 <_ftoa+0x3ee>
10003b3e:	478a                	lw	a5,128(sp)
10003b40:	8ba1                	andi	a5,a5,8
10003b42:	dbc5                	beqz	a5,10003af2 <_ftoa+0x3ee>
10003b44:	03040793          	addi	a5,s0,48
10003b48:	0818                	addi	a4,sp,16
10003b4a:	97ba                	add	a5,a5,a4
10003b4c:	02000713          	li	a4,32
10003b50:	fee78023          	sb	a4,-32(a5)
10003b54:	0405                	addi	s0,s0,1
10003b56:	bf71                	j	10003af2 <_ftoa+0x3ee>

10003b58 <_vsnprintf>:
10003b58:	711d                	addi	sp,sp,-96
10003b5a:	ce86                	sw	ra,92(sp)
10003b5c:	cca2                	sw	s0,88(sp)
10003b5e:	caa6                	sw	s1,84(sp)
10003b60:	c8ca                	sw	s2,80(sp)
10003b62:	c6ce                	sw	s3,76(sp)
10003b64:	c4d2                	sw	s4,72(sp)
10003b66:	c2d6                	sw	s5,68(sp)
10003b68:	c0da                	sw	s6,64(sp)
10003b6a:	8a2a                	mv	s4,a0
10003b6c:	89ae                	mv	s3,a1
10003b6e:	8932                	mv	s2,a2
10003b70:	ce36                	sw	a3,28(sp)
10003b72:	cc3a                	sw	a4,24(sp)
10003b74:	6a058463          	beqz	a1,1000421c <_vsnprintf+0x6c4>
10003b78:	4481                	li	s1,0
10003b7a:	47f2                	lw	a5,28(sp)
10003b7c:	0007c503          	lbu	a0,0(a5)
10003b80:	6a050363          	beqz	a0,10004226 <_vsnprintf+0x6ce>
10003b84:	02500713          	li	a4,37
10003b88:	00e50d63          	beq	a0,a4,10003ba2 <_vsnprintf+0x4a>
10003b8c:	00148413          	addi	s0,s1,1
10003b90:	86ca                	mv	a3,s2
10003b92:	8626                	mv	a2,s1
10003b94:	85ce                	mv	a1,s3
10003b96:	9a02                	jalr	s4
10003b98:	47f2                	lw	a5,28(sp)
10003b9a:	0785                	addi	a5,a5,1
10003b9c:	ce3e                	sw	a5,28(sp)
10003b9e:	84a2                	mv	s1,s0
10003ba0:	bfe9                	j	10003b7a <_vsnprintf+0x22>
10003ba2:	0785                	addi	a5,a5,1
10003ba4:	ce3e                	sw	a5,28(sp)
10003ba6:	4401                	li	s0,0
10003ba8:	a805                	j	10003bd8 <_vsnprintf+0x80>
10003baa:	02000693          	li	a3,32
10003bae:	06d70263          	beq	a4,a3,10003c12 <_vsnprintf+0xba>
10003bb2:	02300693          	li	a3,35
10003bb6:	00d71863          	bne	a4,a3,10003bc6 <_vsnprintf+0x6e>
10003bba:	01046413          	ori	s0,s0,16
10003bbe:	0785                	addi	a5,a5,1
10003bc0:	ce3e                	sw	a5,28(sp)
10003bc2:	4a85                	li	s5,1
10003bc4:	a801                	j	10003bd4 <_vsnprintf+0x7c>
10003bc6:	4a81                	li	s5,0
10003bc8:	a031                	j	10003bd4 <_vsnprintf+0x7c>
10003bca:	00246413          	ori	s0,s0,2
10003bce:	0785                	addi	a5,a5,1
10003bd0:	ce3e                	sw	a5,28(sp)
10003bd2:	4a85                	li	s5,1
10003bd4:	040a8763          	beqz	s5,10003c22 <_vsnprintf+0xca>
10003bd8:	47f2                	lw	a5,28(sp)
10003bda:	0007c703          	lbu	a4,0(a5)
10003bde:	02b00693          	li	a3,43
10003be2:	02d70263          	beq	a4,a3,10003c06 <_vsnprintf+0xae>
10003be6:	fce6f2e3          	bgeu	a3,a4,10003baa <_vsnprintf+0x52>
10003bea:	02d00693          	li	a3,45
10003bee:	fcd70ee3          	beq	a4,a3,10003bca <_vsnprintf+0x72>
10003bf2:	03000693          	li	a3,48
10003bf6:	02d71463          	bne	a4,a3,10003c1e <_vsnprintf+0xc6>
10003bfa:	00146413          	ori	s0,s0,1
10003bfe:	0785                	addi	a5,a5,1
10003c00:	ce3e                	sw	a5,28(sp)
10003c02:	4a85                	li	s5,1
10003c04:	bfc1                	j	10003bd4 <_vsnprintf+0x7c>
10003c06:	00446413          	ori	s0,s0,4
10003c0a:	0785                	addi	a5,a5,1
10003c0c:	ce3e                	sw	a5,28(sp)
10003c0e:	4a85                	li	s5,1
10003c10:	b7d1                	j	10003bd4 <_vsnprintf+0x7c>
10003c12:	00846413          	ori	s0,s0,8
10003c16:	0785                	addi	a5,a5,1
10003c18:	ce3e                	sw	a5,28(sp)
10003c1a:	4a85                	li	s5,1
10003c1c:	bf65                	j	10003bd4 <_vsnprintf+0x7c>
10003c1e:	4a81                	li	s5,0
10003c20:	bf55                	j	10003bd4 <_vsnprintf+0x7c>
10003c22:	47f2                	lw	a5,28(sp)
10003c24:	0007c703          	lbu	a4,0(a5)
10003c28:	fd070793          	addi	a5,a4,-48
10003c2c:	0ff7f793          	zext.b	a5,a5
10003c30:	46a5                	li	a3,9
10003c32:	04f6f463          	bgeu	a3,a5,10003c7a <_vsnprintf+0x122>
10003c36:	02a00793          	li	a5,42
10003c3a:	04f70563          	beq	a4,a5,10003c84 <_vsnprintf+0x12c>
10003c3e:	8b56                	mv	s6,s5
10003c40:	47f2                	lw	a5,28(sp)
10003c42:	0007c683          	lbu	a3,0(a5)
10003c46:	02e00713          	li	a4,46
10003c4a:	04e68e63          	beq	a3,a4,10003ca6 <_vsnprintf+0x14e>
10003c4e:	47f2                	lw	a5,28(sp)
10003c50:	0007c703          	lbu	a4,0(a5)
10003c54:	06c00693          	li	a3,108
10003c58:	0ad70763          	beq	a4,a3,10003d06 <_vsnprintf+0x1ae>
10003c5c:	08e6f863          	bgeu	a3,a4,10003cec <_vsnprintf+0x194>
10003c60:	07400693          	li	a3,116
10003c64:	0ed70563          	beq	a4,a3,10003d4e <_vsnprintf+0x1f6>
10003c68:	07a00693          	li	a3,122
10003c6c:	0ed71563          	bne	a4,a3,10003d56 <_vsnprintf+0x1fe>
10003c70:	10046413          	ori	s0,s0,256
10003c74:	0785                	addi	a5,a5,1
10003c76:	ce3e                	sw	a5,28(sp)
10003c78:	a8f9                	j	10003d56 <_vsnprintf+0x1fe>
10003c7a:	0868                	addi	a0,sp,28
10003c7c:	9d0ff0ef          	jal	10002e4c <_atoi>
10003c80:	8b2a                	mv	s6,a0
10003c82:	bf7d                	j	10003c40 <_vsnprintf+0xe8>
10003c84:	47e2                	lw	a5,24(sp)
10003c86:	00478713          	addi	a4,a5,4
10003c8a:	cc3a                	sw	a4,24(sp)
10003c8c:	0007ab03          	lw	s6,0(a5)
10003c90:	000b4663          	bltz	s6,10003c9c <_vsnprintf+0x144>
10003c94:	47f2                	lw	a5,28(sp)
10003c96:	0785                	addi	a5,a5,1
10003c98:	ce3e                	sw	a5,28(sp)
10003c9a:	b75d                	j	10003c40 <_vsnprintf+0xe8>
10003c9c:	00246413          	ori	s0,s0,2
10003ca0:	41600b33          	neg	s6,s6
10003ca4:	bfc5                	j	10003c94 <_vsnprintf+0x13c>
10003ca6:	40046413          	ori	s0,s0,1024
10003caa:	00178713          	addi	a4,a5,1
10003cae:	ce3a                	sw	a4,28(sp)
10003cb0:	0017c703          	lbu	a4,1(a5)
10003cb4:	fd070793          	addi	a5,a4,-48
10003cb8:	0ff7f793          	zext.b	a5,a5
10003cbc:	46a5                	li	a3,9
10003cbe:	02f6f263          	bgeu	a3,a5,10003ce2 <_vsnprintf+0x18a>
10003cc2:	02a00793          	li	a5,42
10003cc6:	f8f714e3          	bne	a4,a5,10003c4e <_vsnprintf+0xf6>
10003cca:	47e2                	lw	a5,24(sp)
10003ccc:	00478713          	addi	a4,a5,4
10003cd0:	cc3a                	sw	a4,24(sp)
10003cd2:	0007aa83          	lw	s5,0(a5)
10003cd6:	0a0aeab3          	max	s5,s5,zero
10003cda:	47f2                	lw	a5,28(sp)
10003cdc:	0785                	addi	a5,a5,1
10003cde:	ce3e                	sw	a5,28(sp)
10003ce0:	b7bd                	j	10003c4e <_vsnprintf+0xf6>
10003ce2:	0868                	addi	a0,sp,28
10003ce4:	968ff0ef          	jal	10002e4c <_atoi>
10003ce8:	8aaa                	mv	s5,a0
10003cea:	b795                	j	10003c4e <_vsnprintf+0xf6>
10003cec:	06800693          	li	a3,104
10003cf0:	02d70d63          	beq	a4,a3,10003d2a <_vsnprintf+0x1d2>
10003cf4:	06a00693          	li	a3,106
10003cf8:	04d71f63          	bne	a4,a3,10003d56 <_vsnprintf+0x1fe>
10003cfc:	20046413          	ori	s0,s0,512
10003d00:	0785                	addi	a5,a5,1
10003d02:	ce3e                	sw	a5,28(sp)
10003d04:	a889                	j	10003d56 <_vsnprintf+0x1fe>
10003d06:	10046613          	ori	a2,s0,256
10003d0a:	00178713          	addi	a4,a5,1
10003d0e:	ce3a                	sw	a4,28(sp)
10003d10:	0017c683          	lbu	a3,1(a5)
10003d14:	06c00713          	li	a4,108
10003d18:	00e68463          	beq	a3,a4,10003d20 <_vsnprintf+0x1c8>
10003d1c:	8432                	mv	s0,a2
10003d1e:	a825                	j	10003d56 <_vsnprintf+0x1fe>
10003d20:	30046413          	ori	s0,s0,768
10003d24:	0789                	addi	a5,a5,2
10003d26:	ce3e                	sw	a5,28(sp)
10003d28:	a03d                	j	10003d56 <_vsnprintf+0x1fe>
10003d2a:	08046613          	ori	a2,s0,128
10003d2e:	00178713          	addi	a4,a5,1
10003d32:	ce3a                	sw	a4,28(sp)
10003d34:	0017c683          	lbu	a3,1(a5)
10003d38:	06800713          	li	a4,104
10003d3c:	00e68463          	beq	a3,a4,10003d44 <_vsnprintf+0x1ec>
10003d40:	8432                	mv	s0,a2
10003d42:	a811                	j	10003d56 <_vsnprintf+0x1fe>
10003d44:	0c046413          	ori	s0,s0,192
10003d48:	0789                	addi	a5,a5,2
10003d4a:	ce3e                	sw	a5,28(sp)
10003d4c:	a029                	j	10003d56 <_vsnprintf+0x1fe>
10003d4e:	10046413          	ori	s0,s0,256
10003d52:	0785                	addi	a5,a5,1
10003d54:	ce3e                	sw	a5,28(sp)
10003d56:	47f2                	lw	a5,28(sp)
10003d58:	0007c503          	lbu	a0,0(a5)
10003d5c:	06500793          	li	a5,101
10003d60:	0af50563          	beq	a0,a5,10003e0a <_vsnprintf+0x2b2>
10003d64:	12a7e663          	bltu	a5,a0,10003e90 <_vsnprintf+0x338>
10003d68:	04600793          	li	a5,70
10003d6c:	16f50563          	beq	a0,a5,10003ed6 <_vsnprintf+0x37e>
10003d70:	02a7ff63          	bgeu	a5,a0,10003dae <_vsnprintf+0x256>
10003d74:	06300793          	li	a5,99
10003d78:	06f51b63          	bne	a0,a5,10003dee <_vsnprintf+0x296>
10003d7c:	de5e                	sw	s7,60(sp)
10003d7e:	8809                	andi	s0,s0,2
10003d80:	3a040063          	beqz	s0,10004120 <_vsnprintf+0x5c8>
10003d84:	4a85                	li	s5,1
10003d86:	47e2                	lw	a5,24(sp)
10003d88:	00478713          	addi	a4,a5,4
10003d8c:	cc3a                	sw	a4,24(sp)
10003d8e:	00148b93          	addi	s7,s1,1
10003d92:	86ca                	mv	a3,s2
10003d94:	8626                	mv	a2,s1
10003d96:	85ce                	mv	a1,s3
10003d98:	0007c503          	lbu	a0,0(a5)
10003d9c:	9a02                	jalr	s4
10003d9e:	38041d63          	bnez	s0,10004138 <_vsnprintf+0x5e0>
10003da2:	47f2                	lw	a5,28(sp)
10003da4:	0785                	addi	a5,a5,1
10003da6:	ce3e                	sw	a5,28(sp)
10003da8:	84de                	mv	s1,s7
10003daa:	5bf2                	lw	s7,60(sp)
10003dac:	b3f9                	j	10003b7a <_vsnprintf+0x22>
10003dae:	02500793          	li	a5,37
10003db2:	00f51f63          	bne	a0,a5,10003dd0 <_vsnprintf+0x278>
10003db6:	00148413          	addi	s0,s1,1
10003dba:	86ca                	mv	a3,s2
10003dbc:	8626                	mv	a2,s1
10003dbe:	85ce                	mv	a1,s3
10003dc0:	02500513          	li	a0,37
10003dc4:	9a02                	jalr	s4
10003dc6:	47f2                	lw	a5,28(sp)
10003dc8:	0785                	addi	a5,a5,1
10003dca:	ce3e                	sw	a5,28(sp)
10003dcc:	84a2                	mv	s1,s0
10003dce:	b375                	j	10003b7a <_vsnprintf+0x22>
10003dd0:	04500793          	li	a5,69
10003dd4:	02f50b63          	beq	a0,a5,10003e0a <_vsnprintf+0x2b2>
10003dd8:	00148413          	addi	s0,s1,1
10003ddc:	86ca                	mv	a3,s2
10003dde:	8626                	mv	a2,s1
10003de0:	85ce                	mv	a1,s3
10003de2:	9a02                	jalr	s4
10003de4:	47f2                	lw	a5,28(sp)
10003de6:	0785                	addi	a5,a5,1
10003de8:	ce3e                	sw	a5,28(sp)
10003dea:	84a2                	mv	s1,s0
10003dec:	b379                	j	10003b7a <_vsnprintf+0x22>
10003dee:	06a7e863          	bltu	a5,a0,10003e5e <_vsnprintf+0x306>
10003df2:	05800793          	li	a5,88
10003df6:	06f50863          	beq	a0,a5,10003e66 <_vsnprintf+0x30e>
10003dfa:	06200793          	li	a5,98
10003dfe:	06f50463          	beq	a0,a5,10003e66 <_vsnprintf+0x30e>
10003e02:	04700793          	li	a5,71
10003e06:	fcf519e3          	bne	a0,a5,10003dd8 <_vsnprintf+0x280>
10003e0a:	fb950793          	addi	a5,a0,-71
10003e0e:	0017b793          	seqz	a5,a5
10003e12:	f9950713          	addi	a4,a0,-103
10003e16:	00173713          	seqz	a4,a4
10003e1a:	8f5d                	or	a4,a4,a5
10003e1c:	c319                	beqz	a4,10003e22 <_vsnprintf+0x2ca>
10003e1e:	28b41413          	bseti	s0,s0,0xb
10003e22:	fbb50713          	addi	a4,a0,-69
10003e26:	00173713          	seqz	a4,a4
10003e2a:	8fd9                	or	a5,a5,a4
10003e2c:	c399                	beqz	a5,10003e32 <_vsnprintf+0x2da>
10003e2e:	02046413          	ori	s0,s0,32
10003e32:	47e2                	lw	a5,24(sp)
10003e34:	079d                	addi	a5,a5,7
10003e36:	9be1                	andi	a5,a5,-8
10003e38:	00878713          	addi	a4,a5,8
10003e3c:	cc3a                	sw	a4,24(sp)
10003e3e:	4398                	lw	a4,0(a5)
10003e40:	43dc                	lw	a5,4(a5)
10003e42:	c022                	sw	s0,0(sp)
10003e44:	88da                	mv	a7,s6
10003e46:	8856                	mv	a6,s5
10003e48:	86ca                	mv	a3,s2
10003e4a:	8626                	mv	a2,s1
10003e4c:	85ce                	mv	a1,s3
10003e4e:	8552                	mv	a0,s4
10003e50:	be8ff0ef          	jal	10003238 <_etoa>
10003e54:	84aa                	mv	s1,a0
10003e56:	47f2                	lw	a5,28(sp)
10003e58:	0785                	addi	a5,a5,1
10003e5a:	ce3e                	sw	a5,28(sp)
10003e5c:	bb39                	j	10003b7a <_vsnprintf+0x22>
10003e5e:	06400793          	li	a5,100
10003e62:	f6f51be3          	bne	a0,a5,10003dd8 <_vsnprintf+0x280>
10003e66:	f8850793          	addi	a5,a0,-120
10003e6a:	0017b793          	seqz	a5,a5
10003e6e:	fa850713          	addi	a4,a0,-88
10003e72:	00173713          	seqz	a4,a4
10003e76:	8fd9                	or	a5,a5,a4
10003e78:	efcd                	bnez	a5,10003f32 <_vsnprintf+0x3da>
10003e7a:	06f00793          	li	a5,111
10003e7e:	12f50b63          	beq	a0,a5,10003fb4 <_vsnprintf+0x45c>
10003e82:	06200793          	li	a5,98
10003e86:	12f50963          	beq	a0,a5,10003fb8 <_vsnprintf+0x460>
10003e8a:	983d                	andi	s0,s0,-17
10003e8c:	4829                	li	a6,10
10003e8e:	a05d                	j	10003f34 <_vsnprintf+0x3dc>
10003e90:	07000793          	li	a5,112
10003e94:	34f50c63          	beq	a0,a5,100041ec <_vsnprintf+0x694>
10003e98:	02a7f563          	bgeu	a5,a0,10003ec2 <_vsnprintf+0x36a>
10003e9c:	07300793          	li	a5,115
10003ea0:	06f51e63          	bne	a0,a5,10003f1c <_vsnprintf+0x3c4>
10003ea4:	de5e                	sw	s7,60(sp)
10003ea6:	dc62                	sw	s8,56(sp)
10003ea8:	da66                	sw	s9,52(sp)
10003eaa:	d66e                	sw	s11,44(sp)
10003eac:	47e2                	lw	a5,24(sp)
10003eae:	00478713          	addi	a4,a5,4
10003eb2:	cc3a                	sw	a4,24(sp)
10003eb4:	0007ac03          	lw	s8,0(a5)
10003eb8:	2a0a9b63          	bnez	s5,1000416e <_vsnprintf+0x616>
10003ebc:	577d                	li	a4,-1
10003ebe:	87e2                	mv	a5,s8
10003ec0:	a459                	j	10004146 <_vsnprintf+0x5ee>
10003ec2:	06700793          	li	a5,103
10003ec6:	f4f502e3          	beq	a0,a5,10003e0a <_vsnprintf+0x2b2>
10003eca:	04a7e063          	bltu	a5,a0,10003f0a <_vsnprintf+0x3b2>
10003ece:	06600793          	li	a5,102
10003ed2:	f0f513e3          	bne	a0,a5,10003dd8 <_vsnprintf+0x280>
10003ed6:	04600793          	li	a5,70
10003eda:	22f50163          	beq	a0,a5,100040fc <_vsnprintf+0x5a4>
10003ede:	47e2                	lw	a5,24(sp)
10003ee0:	079d                	addi	a5,a5,7
10003ee2:	9be1                	andi	a5,a5,-8
10003ee4:	00878713          	addi	a4,a5,8
10003ee8:	cc3a                	sw	a4,24(sp)
10003eea:	4398                	lw	a4,0(a5)
10003eec:	43dc                	lw	a5,4(a5)
10003eee:	c022                	sw	s0,0(sp)
10003ef0:	88da                	mv	a7,s6
10003ef2:	8856                	mv	a6,s5
10003ef4:	86ca                	mv	a3,s2
10003ef6:	8626                	mv	a2,s1
10003ef8:	85ce                	mv	a1,s3
10003efa:	8552                	mv	a0,s4
10003efc:	809ff0ef          	jal	10003704 <_ftoa>
10003f00:	84aa                	mv	s1,a0
10003f02:	47f2                	lw	a5,28(sp)
10003f04:	0785                	addi	a5,a5,1
10003f06:	ce3e                	sw	a5,28(sp)
10003f08:	b98d                	j	10003b7a <_vsnprintf+0x22>
10003f0a:	06900793          	li	a5,105
10003f0e:	f4f50ce3          	beq	a0,a5,10003e66 <_vsnprintf+0x30e>
10003f12:	06f00793          	li	a5,111
10003f16:	f4f508e3          	beq	a0,a5,10003e66 <_vsnprintf+0x30e>
10003f1a:	bd7d                	j	10003dd8 <_vsnprintf+0x280>
10003f1c:	eaf56ee3          	bltu	a0,a5,10003dd8 <_vsnprintf+0x280>
10003f20:	07500793          	li	a5,117
10003f24:	f4f501e3          	beq	a0,a5,10003e66 <_vsnprintf+0x30e>
10003f28:	07800793          	li	a5,120
10003f2c:	f2f50de3          	beq	a0,a5,10003e66 <_vsnprintf+0x30e>
10003f30:	b565                	j	10003dd8 <_vsnprintf+0x280>
10003f32:	4841                	li	a6,16
10003f34:	05800793          	li	a5,88
10003f38:	08f50263          	beq	a0,a5,10003fbc <_vsnprintf+0x464>
10003f3c:	f9750793          	addi	a5,a0,-105
10003f40:	00f037b3          	snez	a5,a5
10003f44:	f9c50713          	addi	a4,a0,-100
10003f48:	00e03733          	snez	a4,a4
10003f4c:	8ff9                	and	a5,a5,a4
10003f4e:	c391                	beqz	a5,10003f52 <_vsnprintf+0x3fa>
10003f50:	984d                	andi	s0,s0,-13
10003f52:	40047793          	andi	a5,s0,1024
10003f56:	c391                	beqz	a5,10003f5a <_vsnprintf+0x402>
10003f58:	9879                	andi	s0,s0,-2
10003f5a:	f9750793          	addi	a5,a0,-105
10003f5e:	0017b793          	seqz	a5,a5
10003f62:	f9c50713          	addi	a4,a0,-100
10003f66:	00173713          	seqz	a4,a4
10003f6a:	8fd9                	or	a5,a5,a4
10003f6c:	c7f5                	beqz	a5,10004058 <_vsnprintf+0x500>
10003f6e:	20047793          	andi	a5,s0,512
10003f72:	eba1                	bnez	a5,10003fc2 <_vsnprintf+0x46a>
10003f74:	10047793          	andi	a5,s0,256
10003f78:	ebd1                	bnez	a5,1000400c <_vsnprintf+0x4b4>
10003f7a:	04047793          	andi	a5,s0,64
10003f7e:	cfcd                	beqz	a5,10004038 <_vsnprintf+0x4e0>
10003f80:	47e2                	lw	a5,24(sp)
10003f82:	00478713          	addi	a4,a5,4
10003f86:	cc3a                	sw	a4,24(sp)
10003f88:	0007c703          	lbu	a4,0(a5)
10003f8c:	40e006b3          	neg	a3,a4
10003f90:	c222                	sw	s0,4(sp)
10003f92:	c05a                	sw	s6,0(sp)
10003f94:	88d6                	mv	a7,s5
10003f96:	01f75793          	srli	a5,a4,0x1f
10003f9a:	0ad76733          	max	a4,a4,a3
10003f9e:	86ca                	mv	a3,s2
10003fa0:	8626                	mv	a2,s1
10003fa2:	85ce                	mv	a1,s3
10003fa4:	8552                	mv	a0,s4
10003fa6:	8faff0ef          	jal	100030a0 <_ntoa_long>
10003faa:	84aa                	mv	s1,a0
10003fac:	47f2                	lw	a5,28(sp)
10003fae:	0785                	addi	a5,a5,1
10003fb0:	ce3e                	sw	a5,28(sp)
10003fb2:	b6e1                	j	10003b7a <_vsnprintf+0x22>
10003fb4:	4821                	li	a6,8
10003fb6:	bfbd                	j	10003f34 <_vsnprintf+0x3dc>
10003fb8:	4809                	li	a6,2
10003fba:	bfad                	j	10003f34 <_vsnprintf+0x3dc>
10003fbc:	02046413          	ori	s0,s0,32
10003fc0:	bfb5                	j	10003f3c <_vsnprintf+0x3e4>
10003fc2:	47e2                	lw	a5,24(sp)
10003fc4:	079d                	addi	a5,a5,7
10003fc6:	9be1                	andi	a5,a5,-8
10003fc8:	00878713          	addi	a4,a5,8
10003fcc:	cc3a                	sw	a4,24(sp)
10003fce:	4398                	lw	a4,0(a5)
10003fd0:	43cc                	lw	a1,4(a5)
10003fd2:	41f5d693          	srai	a3,a1,0x1f
10003fd6:	00e6c7b3          	xor	a5,a3,a4
10003fda:	00b6c633          	xor	a2,a3,a1
10003fde:	40d78733          	sub	a4,a5,a3
10003fe2:	00e7b7b3          	sltu	a5,a5,a4
10003fe6:	40d606b3          	sub	a3,a2,a3
10003fea:	c622                	sw	s0,12(sp)
10003fec:	c45a                	sw	s6,8(sp)
10003fee:	c256                	sw	s5,4(sp)
10003ff0:	c002                	sw	zero,0(sp)
10003ff2:	88c2                	mv	a7,a6
10003ff4:	01f5d813          	srli	a6,a1,0x1f
10003ff8:	40f687b3          	sub	a5,a3,a5
10003ffc:	86ca                	mv	a3,s2
10003ffe:	8626                	mv	a2,s1
10004000:	85ce                	mv	a1,s3
10004002:	8552                	mv	a0,s4
10004004:	92aff0ef          	jal	1000312e <_ntoa_long_long>
10004008:	84aa                	mv	s1,a0
1000400a:	b74d                	j	10003fac <_vsnprintf+0x454>
1000400c:	47e2                	lw	a5,24(sp)
1000400e:	00478713          	addi	a4,a5,4
10004012:	cc3a                	sw	a4,24(sp)
10004014:	4398                	lw	a4,0(a5)
10004016:	40e006b3          	neg	a3,a4
1000401a:	c222                	sw	s0,4(sp)
1000401c:	c05a                	sw	s6,0(sp)
1000401e:	88d6                	mv	a7,s5
10004020:	01f75793          	srli	a5,a4,0x1f
10004024:	0ad76733          	max	a4,a4,a3
10004028:	86ca                	mv	a3,s2
1000402a:	8626                	mv	a2,s1
1000402c:	85ce                	mv	a1,s3
1000402e:	8552                	mv	a0,s4
10004030:	870ff0ef          	jal	100030a0 <_ntoa_long>
10004034:	84aa                	mv	s1,a0
10004036:	bf9d                	j	10003fac <_vsnprintf+0x454>
10004038:	08047793          	andi	a5,s0,128
1000403c:	cb81                	beqz	a5,1000404c <_vsnprintf+0x4f4>
1000403e:	47e2                	lw	a5,24(sp)
10004040:	00478713          	addi	a4,a5,4
10004044:	cc3a                	sw	a4,24(sp)
10004046:	00079703          	lh	a4,0(a5)
1000404a:	b789                	j	10003f8c <_vsnprintf+0x434>
1000404c:	47e2                	lw	a5,24(sp)
1000404e:	00478713          	addi	a4,a5,4
10004052:	cc3a                	sw	a4,24(sp)
10004054:	4398                	lw	a4,0(a5)
10004056:	bf1d                	j	10003f8c <_vsnprintf+0x434>
10004058:	20047793          	andi	a5,s0,512
1000405c:	eb8d                	bnez	a5,1000408e <_vsnprintf+0x536>
1000405e:	10047793          	andi	a5,s0,256
10004062:	efa1                	bnez	a5,100040ba <_vsnprintf+0x562>
10004064:	04047793          	andi	a5,s0,64
10004068:	cbb5                	beqz	a5,100040dc <_vsnprintf+0x584>
1000406a:	47e2                	lw	a5,24(sp)
1000406c:	00478713          	addi	a4,a5,4
10004070:	cc3a                	sw	a4,24(sp)
10004072:	0007c703          	lbu	a4,0(a5)
10004076:	c222                	sw	s0,4(sp)
10004078:	c05a                	sw	s6,0(sp)
1000407a:	88d6                	mv	a7,s5
1000407c:	4781                	li	a5,0
1000407e:	86ca                	mv	a3,s2
10004080:	8626                	mv	a2,s1
10004082:	85ce                	mv	a1,s3
10004084:	8552                	mv	a0,s4
10004086:	81aff0ef          	jal	100030a0 <_ntoa_long>
1000408a:	84aa                	mv	s1,a0
1000408c:	b705                	j	10003fac <_vsnprintf+0x454>
1000408e:	47e2                	lw	a5,24(sp)
10004090:	079d                	addi	a5,a5,7
10004092:	9be1                	andi	a5,a5,-8
10004094:	00878713          	addi	a4,a5,8
10004098:	cc3a                	sw	a4,24(sp)
1000409a:	4398                	lw	a4,0(a5)
1000409c:	43dc                	lw	a5,4(a5)
1000409e:	c622                	sw	s0,12(sp)
100040a0:	c45a                	sw	s6,8(sp)
100040a2:	c256                	sw	s5,4(sp)
100040a4:	c002                	sw	zero,0(sp)
100040a6:	88c2                	mv	a7,a6
100040a8:	4801                	li	a6,0
100040aa:	86ca                	mv	a3,s2
100040ac:	8626                	mv	a2,s1
100040ae:	85ce                	mv	a1,s3
100040b0:	8552                	mv	a0,s4
100040b2:	87cff0ef          	jal	1000312e <_ntoa_long_long>
100040b6:	84aa                	mv	s1,a0
100040b8:	bdd5                	j	10003fac <_vsnprintf+0x454>
100040ba:	47e2                	lw	a5,24(sp)
100040bc:	00478713          	addi	a4,a5,4
100040c0:	cc3a                	sw	a4,24(sp)
100040c2:	4398                	lw	a4,0(a5)
100040c4:	c222                	sw	s0,4(sp)
100040c6:	c05a                	sw	s6,0(sp)
100040c8:	88d6                	mv	a7,s5
100040ca:	4781                	li	a5,0
100040cc:	86ca                	mv	a3,s2
100040ce:	8626                	mv	a2,s1
100040d0:	85ce                	mv	a1,s3
100040d2:	8552                	mv	a0,s4
100040d4:	fcdfe0ef          	jal	100030a0 <_ntoa_long>
100040d8:	84aa                	mv	s1,a0
100040da:	bdc9                	j	10003fac <_vsnprintf+0x454>
100040dc:	08047793          	andi	a5,s0,128
100040e0:	cb81                	beqz	a5,100040f0 <_vsnprintf+0x598>
100040e2:	47e2                	lw	a5,24(sp)
100040e4:	00478713          	addi	a4,a5,4
100040e8:	cc3a                	sw	a4,24(sp)
100040ea:	0007d703          	lhu	a4,0(a5)
100040ee:	b761                	j	10004076 <_vsnprintf+0x51e>
100040f0:	47e2                	lw	a5,24(sp)
100040f2:	00478713          	addi	a4,a5,4
100040f6:	cc3a                	sw	a4,24(sp)
100040f8:	4398                	lw	a4,0(a5)
100040fa:	bfb5                	j	10004076 <_vsnprintf+0x51e>
100040fc:	02046413          	ori	s0,s0,32
10004100:	bbf9                	j	10003ede <_vsnprintf+0x386>
10004102:	00148b93          	addi	s7,s1,1
10004106:	86ca                	mv	a3,s2
10004108:	8626                	mv	a2,s1
1000410a:	85ce                	mv	a1,s3
1000410c:	02000513          	li	a0,32
10004110:	9a02                	jalr	s4
10004112:	87d6                	mv	a5,s5
10004114:	84de                	mv	s1,s7
10004116:	00178a93          	addi	s5,a5,1
1000411a:	ff67e4e3          	bltu	a5,s6,10004102 <_vsnprintf+0x5aa>
1000411e:	b1a5                	j	10003d86 <_vsnprintf+0x22e>
10004120:	4785                	li	a5,1
10004122:	bfd5                	j	10004116 <_vsnprintf+0x5be>
10004124:	001b8493          	addi	s1,s7,1
10004128:	86ca                	mv	a3,s2
1000412a:	865e                	mv	a2,s7
1000412c:	85ce                	mv	a1,s3
1000412e:	02000513          	li	a0,32
10004132:	9a02                	jalr	s4
10004134:	8aa2                	mv	s5,s0
10004136:	8ba6                	mv	s7,s1
10004138:	001a8413          	addi	s0,s5,1
1000413c:	ff6ae4e3          	bltu	s5,s6,10004124 <_vsnprintf+0x5cc>
10004140:	b18d                	j	10003da2 <_vsnprintf+0x24a>
10004142:	0785                	addi	a5,a5,1
10004144:	8736                	mv	a4,a3
10004146:	0007c683          	lbu	a3,0(a5)
1000414a:	c681                	beqz	a3,10004152 <_vsnprintf+0x5fa>
1000414c:	fff70693          	addi	a3,a4,-1
10004150:	fb6d                	bnez	a4,10004142 <_vsnprintf+0x5ea>
10004152:	41878bb3          	sub	s7,a5,s8
10004156:	40047c93          	andi	s9,s0,1024
1000415a:	000c8463          	beqz	s9,10004162 <_vsnprintf+0x60a>
1000415e:	0b5bdbb3          	minu	s7,s7,s5
10004162:	00247793          	andi	a5,s0,2
10004166:	8dbe                	mv	s11,a5
10004168:	e3a1                	bnez	a5,100041a8 <_vsnprintf+0x650>
1000416a:	d86a                	sw	s10,48(sp)
1000416c:	a831                	j	10004188 <_vsnprintf+0x630>
1000416e:	8756                	mv	a4,s5
10004170:	b3b9                	j	10003ebe <_vsnprintf+0x366>
10004172:	00148793          	addi	a5,s1,1
10004176:	8d3e                	mv	s10,a5
10004178:	86ca                	mv	a3,s2
1000417a:	8626                	mv	a2,s1
1000417c:	85ce                	mv	a1,s3
1000417e:	02000513          	li	a0,32
10004182:	9a02                	jalr	s4
10004184:	8ba2                	mv	s7,s0
10004186:	84ea                	mv	s1,s10
10004188:	001b8413          	addi	s0,s7,1
1000418c:	ff6be3e3          	bltu	s7,s6,10004172 <_vsnprintf+0x61a>
10004190:	8ba2                	mv	s7,s0
10004192:	5d42                	lw	s10,48(sp)
10004194:	a811                	j	100041a8 <_vsnprintf+0x650>
10004196:	8abe                	mv	s5,a5
10004198:	0c05                	addi	s8,s8,1
1000419a:	00148413          	addi	s0,s1,1
1000419e:	86ca                	mv	a3,s2
100041a0:	8626                	mv	a2,s1
100041a2:	85ce                	mv	a1,s3
100041a4:	9a02                	jalr	s4
100041a6:	84a2                	mv	s1,s0
100041a8:	000c4503          	lbu	a0,0(s8)
100041ac:	c519                	beqz	a0,100041ba <_vsnprintf+0x662>
100041ae:	fe0c85e3          	beqz	s9,10004198 <_vsnprintf+0x640>
100041b2:	fffa8793          	addi	a5,s5,-1
100041b6:	fe0a90e3          	bnez	s5,10004196 <_vsnprintf+0x63e>
100041ba:	020d9463          	bnez	s11,100041e2 <_vsnprintf+0x68a>
100041be:	47f2                	lw	a5,28(sp)
100041c0:	0785                	addi	a5,a5,1
100041c2:	ce3e                	sw	a5,28(sp)
100041c4:	5bf2                	lw	s7,60(sp)
100041c6:	5c62                	lw	s8,56(sp)
100041c8:	5cd2                	lw	s9,52(sp)
100041ca:	5db2                	lw	s11,44(sp)
100041cc:	b27d                	j	10003b7a <_vsnprintf+0x22>
100041ce:	00148a93          	addi	s5,s1,1
100041d2:	86ca                	mv	a3,s2
100041d4:	8626                	mv	a2,s1
100041d6:	85ce                	mv	a1,s3
100041d8:	02000513          	li	a0,32
100041dc:	9a02                	jalr	s4
100041de:	8ba2                	mv	s7,s0
100041e0:	84d6                	mv	s1,s5
100041e2:	001b8413          	addi	s0,s7,1
100041e6:	ff6be4e3          	bltu	s7,s6,100041ce <_vsnprintf+0x676>
100041ea:	bfd1                	j	100041be <_vsnprintf+0x666>
100041ec:	02146413          	ori	s0,s0,33
100041f0:	47e2                	lw	a5,24(sp)
100041f2:	00478713          	addi	a4,a5,4
100041f6:	cc3a                	sw	a4,24(sp)
100041f8:	4398                	lw	a4,0(a5)
100041fa:	c222                	sw	s0,4(sp)
100041fc:	47a1                	li	a5,8
100041fe:	c03e                	sw	a5,0(sp)
10004200:	88d6                	mv	a7,s5
10004202:	4841                	li	a6,16
10004204:	4781                	li	a5,0
10004206:	86ca                	mv	a3,s2
10004208:	8626                	mv	a2,s1
1000420a:	85ce                	mv	a1,s3
1000420c:	8552                	mv	a0,s4
1000420e:	e93fe0ef          	jal	100030a0 <_ntoa_long>
10004212:	84aa                	mv	s1,a0
10004214:	47f2                	lw	a5,28(sp)
10004216:	0785                	addi	a5,a5,1
10004218:	ce3e                	sw	a5,28(sp)
1000421a:	b285                	j	10003b7a <_vsnprintf+0x22>
1000421c:	10003a37          	lui	s4,0x10003
10004220:	e36a0a13          	addi	s4,s4,-458 # 10002e36 <_out_null>
10004224:	ba91                	j	10003b78 <_vsnprintf+0x20>
10004226:	0324e363          	bltu	s1,s2,1000424c <_vsnprintf+0x6f4>
1000422a:	fff90613          	addi	a2,s2,-1
1000422e:	86ca                	mv	a3,s2
10004230:	85ce                	mv	a1,s3
10004232:	4501                	li	a0,0
10004234:	9a02                	jalr	s4
10004236:	8526                	mv	a0,s1
10004238:	40f6                	lw	ra,92(sp)
1000423a:	4466                	lw	s0,88(sp)
1000423c:	44d6                	lw	s1,84(sp)
1000423e:	4946                	lw	s2,80(sp)
10004240:	49b6                	lw	s3,76(sp)
10004242:	4a26                	lw	s4,72(sp)
10004244:	4a96                	lw	s5,68(sp)
10004246:	4b06                	lw	s6,64(sp)
10004248:	6125                	addi	sp,sp,96
1000424a:	8082                	ret
1000424c:	8626                	mv	a2,s1
1000424e:	b7c5                	j	1000422e <_vsnprintf+0x6d6>

10004250 <__wrap_sprintf>:
10004250:	7139                	addi	sp,sp,-64
10004252:	ce06                	sw	ra,28(sp)
10004254:	d432                	sw	a2,40(sp)
10004256:	d636                	sw	a3,44(sp)
10004258:	d83a                	sw	a4,48(sp)
1000425a:	da3e                	sw	a5,52(sp)
1000425c:	dc42                	sw	a6,56(sp)
1000425e:	de46                	sw	a7,60(sp)
10004260:	1038                	addi	a4,sp,40
10004262:	c63a                	sw	a4,12(sp)
10004264:	86ae                	mv	a3,a1
10004266:	567d                	li	a2,-1
10004268:	85aa                	mv	a1,a0
1000426a:	10003537          	lui	a0,0x10003
1000426e:	e2a50513          	addi	a0,a0,-470 # 10002e2a <_out_buffer>
10004272:	8e7ff0ef          	jal	10003b58 <_vsnprintf>
10004276:	40f2                	lw	ra,28(sp)
10004278:	6121                	addi	sp,sp,64
1000427a:	8082                	ret

1000427c <vfctprintf>:
1000427c:	1101                	addi	sp,sp,-32
1000427e:	ce06                	sw	ra,28(sp)
10004280:	8736                	mv	a4,a3
10004282:	c42a                	sw	a0,8(sp)
10004284:	c62e                	sw	a1,12(sp)
10004286:	86b2                	mv	a3,a2
10004288:	567d                	li	a2,-1
1000428a:	002c                	addi	a1,sp,8
1000428c:	10003537          	lui	a0,0x10003
10004290:	e3850513          	addi	a0,a0,-456 # 10002e38 <_out_fct>
10004294:	8c5ff0ef          	jal	10003b58 <_vsnprintf>
10004298:	40f2                	lw	ra,28(sp)
1000429a:	6105                	addi	sp,sp,32
1000429c:	8082                	ret

1000429e <runtime_init_per_core_h3_irq_registers>:
1000429e:	450d                	li	a0,3
100042a0:	be251073          	csrw	0xbe2,a0
100042a4:	157d                	addi	a0,a0,-1
100042a6:	fe055de3          	bgez	a0,100042a0 <runtime_init_per_core_h3_irq_registers+0x2>
100042aa:	6505                	lui	a0,0x1
100042ac:	80050513          	addi	a0,a0,-2048 # 800 <HeapSize>
100042b0:	30451073          	csrw	mie,a0
100042b4:	30046073          	csrsi	mstatus,8
100042b8:	34001073          	csrw	mscratch,zero
100042bc:	8082                	ret

100042be <_exit>:
100042be:	9002                	ebreak
100042c0:	bffd                	j	100042be <_exit>

100042c2 <exit>:
100042c2:	1141                	addi	sp,sp,-16
100042c4:	c606                	sw	ra,12(sp)
100042c6:	3fe5                	jal	100042be <_exit>

100042c8 <__assert_func>:
100042c8:	1141                	addi	sp,sp,-16
100042ca:	c606                	sw	ra,12(sp)
100042cc:	882e                	mv	a6,a1
100042ce:	85b6                	mv	a1,a3
100042d0:	ce19                	beqz	a2,100042ee <__assert_func+0x26>
100042d2:	87b2                	mv	a5,a2
100042d4:	10009737          	lui	a4,0x10009
100042d8:	5e070713          	addi	a4,a4,1504 # 100095e0 <__EH_FRAME_BEGIN__+0x920>
100042dc:	86c2                	mv	a3,a6
100042de:	862a                	mv	a2,a0
100042e0:	10009537          	lui	a0,0x10009
100042e4:	5f050513          	addi	a0,a0,1520 # 100095f0 <__EH_FRAME_BEGIN__+0x930>
100042e8:	2e3d                	jal	10004626 <__wrap_printf>
100042ea:	4505                	li	a0,1
100042ec:	3fc9                	jal	100042be <_exit>
100042ee:	10009737          	lui	a4,0x10009
100042f2:	da070713          	addi	a4,a4,-608 # 10008da0 <__EH_FRAME_BEGIN__+0xe0>
100042f6:	87ba                	mv	a5,a4
100042f8:	b7d5                	j	100042dc <__assert_func+0x14>

100042fa <runtime_init>:
100042fa:	1141                	addi	sp,sp,-16
100042fc:	c606                	sw	ra,12(sp)
100042fe:	c422                	sw	s0,8(sp)
10004300:	be5027f3          	csrr	a5,0xbe5
10004304:	01079713          	slli	a4,a5,0x10
10004308:	00074363          	bltz	a4,1000430e <runtime_init+0x14>
1000430c:	9002                	ebreak
1000430e:	943fe0ef          	jal	10002c50 <runtime_run_initializers>
10004312:	10009437          	lui	s0,0x10009
10004316:	cb440413          	addi	s0,s0,-844 # 10008cb4 <__init_array_start>
1000431a:	a021                	j	10004322 <runtime_init+0x28>
1000431c:	401c                	lw	a5,0(s0)
1000431e:	9782                	jalr	a5
10004320:	0411                	addi	s0,s0,4
10004322:	100097b7          	lui	a5,0x10009
10004326:	cc078793          	addi	a5,a5,-832 # 10008cc0 <__EH_FRAME_BEGIN__>
1000432a:	fef469e3          	bltu	s0,a5,1000431c <runtime_init+0x22>
1000432e:	40b2                	lw	ra,12(sp)
10004330:	4422                	lw	s0,8(sp)
10004332:	0141                	addi	sp,sp,16
10004334:	8082                	ret

10004336 <stdio_out_chars_no_crlf>:
10004336:	1141                	addi	sp,sp,-16
10004338:	c606                	sw	ra,12(sp)
1000433a:	872e                	mv	a4,a1
1000433c:	411c                	lw	a5,0(a0)
1000433e:	85b2                	mv	a1,a2
10004340:	853a                	mv	a0,a4
10004342:	9782                	jalr	a5
10004344:	40b2                	lw	ra,12(sp)
10004346:	0141                	addi	sp,sp,16
10004348:	8082                	ret

1000434a <stdio_out_chars_crlf>:
1000434a:	1101                	addi	sp,sp,-32
1000434c:	ce06                	sw	ra,28(sp)
1000434e:	ca26                	sw	s1,20(sp)
10004350:	c84a                	sw	s2,16(sp)
10004352:	c64e                	sw	s3,12(sp)
10004354:	89aa                	mv	s3,a0
10004356:	84ae                	mv	s1,a1
10004358:	8932                	mv	s2,a2
1000435a:	01554783          	lbu	a5,21(a0)
1000435e:	c789                	beqz	a5,10004368 <stdio_out_chars_crlf+0x1e>
10004360:	cc22                	sw	s0,24(sp)
10004362:	4401                	li	s0,0
10004364:	4501                	li	a0,0
10004366:	a025                	j	1000438e <stdio_out_chars_crlf+0x44>
10004368:	411c                	lw	a5,0(a0)
1000436a:	85b2                	mv	a1,a2
1000436c:	8526                	mv	a0,s1
1000436e:	9782                	jalr	a5
10004370:	a041                	j	100043f0 <stdio_out_chars_crlf+0xa6>
10004372:	0149c783          	lbu	a5,20(s3)
10004376:	a805                	j	100043a6 <stdio_out_chars_crlf+0x5c>
10004378:	0009a783          	lw	a5,0(s3)
1000437c:	4589                	li	a1,2
1000437e:	1000a537          	lui	a0,0x1000a
10004382:	2e850513          	addi	a0,a0,744 # 1000a2e8 <crlf_str.0>
10004386:	9782                	jalr	a5
10004388:	00140513          	addi	a0,s0,1
1000438c:	0405                	addi	s0,s0,1
1000438e:	03245d63          	bge	s0,s2,100043c8 <stdio_out_chars_crlf+0x7e>
10004392:	fe8050e3          	blez	s0,10004372 <stdio_out_chars_crlf+0x28>
10004396:	fff40793          	addi	a5,s0,-1
1000439a:	97a6                	add	a5,a5,s1
1000439c:	0007c783          	lbu	a5,0(a5)
100043a0:	17cd                	addi	a5,a5,-13
100043a2:	0017b793          	seqz	a5,a5
100043a6:	00848733          	add	a4,s1,s0
100043aa:	00074683          	lbu	a3,0(a4)
100043ae:	4729                	li	a4,10
100043b0:	fce69ee3          	bne	a3,a4,1000438c <stdio_out_chars_crlf+0x42>
100043b4:	ffe1                	bnez	a5,1000438c <stdio_out_chars_crlf+0x42>
100043b6:	fc8551e3          	bge	a0,s0,10004378 <stdio_out_chars_crlf+0x2e>
100043ba:	0009a783          	lw	a5,0(s3)
100043be:	40a405b3          	sub	a1,s0,a0
100043c2:	9526                	add	a0,a0,s1
100043c4:	9782                	jalr	a5
100043c6:	bf4d                	j	10004378 <stdio_out_chars_crlf+0x2e>
100043c8:	01255863          	bge	a0,s2,100043d8 <stdio_out_chars_crlf+0x8e>
100043cc:	0009a783          	lw	a5,0(s3)
100043d0:	40a905b3          	sub	a1,s2,a0
100043d4:	9526                	add	a0,a0,s1
100043d6:	9782                	jalr	a5
100043d8:	03205263          	blez	s2,100043fc <stdio_out_chars_crlf+0xb2>
100043dc:	197d                	addi	s2,s2,-1
100043de:	94ca                	add	s1,s1,s2
100043e0:	0004c783          	lbu	a5,0(s1)
100043e4:	17cd                	addi	a5,a5,-13
100043e6:	0017b793          	seqz	a5,a5
100043ea:	00f98a23          	sb	a5,20(s3)
100043ee:	4462                	lw	s0,24(sp)
100043f0:	40f2                	lw	ra,28(sp)
100043f2:	44d2                	lw	s1,20(sp)
100043f4:	4942                	lw	s2,16(sp)
100043f6:	49b2                	lw	s3,12(sp)
100043f8:	6105                	addi	sp,sp,32
100043fa:	8082                	ret
100043fc:	4462                	lw	s0,24(sp)
100043fe:	bfcd                	j	100043f0 <stdio_out_chars_crlf+0xa6>

10004400 <stdio_stack_buffer_flush>:
10004400:	411c                	lw	a5,0(a0)
10004402:	cf9d                	beqz	a5,10004440 <stdio_stack_buffer_flush+0x40>
10004404:	1141                	addi	sp,sp,-16
10004406:	c606                	sw	ra,12(sp)
10004408:	c422                	sw	s0,8(sp)
1000440a:	c226                	sw	s1,4(sp)
1000440c:	84aa                	mv	s1,a0
1000440e:	8271a403          	lw	s0,-2009(gp) # 20004ee4 <drivers>
10004412:	a039                	j	10004420 <stdio_stack_buffer_flush+0x20>
10004414:	4090                	lw	a2,0(s1)
10004416:	00448593          	addi	a1,s1,4
1000441a:	8522                	mv	a0,s0
1000441c:	373d                	jal	1000434a <stdio_out_chars_crlf>
1000441e:	4800                	lw	s0,16(s0)
10004420:	c809                	beqz	s0,10004432 <stdio_stack_buffer_flush+0x32>
10004422:	401c                	lw	a5,0(s0)
10004424:	dfed                	beqz	a5,1000441e <stdio_stack_buffer_flush+0x1e>
10004426:	8231a783          	lw	a5,-2013(gp) # 20004ee0 <filter>
1000442a:	d7ed                	beqz	a5,10004414 <stdio_stack_buffer_flush+0x14>
1000442c:	fe8799e3          	bne	a5,s0,1000441e <stdio_stack_buffer_flush+0x1e>
10004430:	b7d5                	j	10004414 <stdio_stack_buffer_flush+0x14>
10004432:	0004a023          	sw	zero,0(s1)
10004436:	40b2                	lw	ra,12(sp)
10004438:	4422                	lw	s0,8(sp)
1000443a:	4492                	lw	s1,4(sp)
1000443c:	0141                	addi	sp,sp,16
1000443e:	8082                	ret
10004440:	8082                	ret

10004442 <stdio_buffered_printer>:
10004442:	1141                	addi	sp,sp,-16
10004444:	c606                	sw	ra,12(sp)
10004446:	c422                	sw	s0,8(sp)
10004448:	c226                	sw	s1,4(sp)
1000444a:	84aa                	mv	s1,a0
1000444c:	842e                	mv	s0,a1
1000444e:	4198                	lw	a4,0(a1)
10004450:	08000793          	li	a5,128
10004454:	00f70e63          	beq	a4,a5,10004470 <stdio_buffered_printer+0x2e>
10004458:	401c                	lw	a5,0(s0)
1000445a:	00178713          	addi	a4,a5,1
1000445e:	c018                	sw	a4,0(s0)
10004460:	943e                	add	s0,s0,a5
10004462:	00940223          	sb	s1,4(s0)
10004466:	40b2                	lw	ra,12(sp)
10004468:	4422                	lw	s0,8(sp)
1000446a:	4492                	lw	s1,4(sp)
1000446c:	0141                	addi	sp,sp,16
1000446e:	8082                	ret
10004470:	852e                	mv	a0,a1
10004472:	3779                	jal	10004400 <stdio_stack_buffer_flush>
10004474:	b7d5                	j	10004458 <stdio_buffered_printer+0x16>

10004476 <stdout_serialize_begin>:
10004476:	1141                	addi	sp,sp,-16
10004478:	c606                	sw	ra,12(sp)
1000447a:	9cafe0ef          	jal	10002644 <time_us_64>
1000447e:	000f47b7          	lui	a5,0xf4
10004482:	24078793          	addi	a5,a5,576 # f4240 <HeapSize+0xf3a40>
10004486:	97aa                	add	a5,a5,a0
10004488:	00a7b633          	sltu	a2,a5,a0
1000448c:	962e                	add	a2,a2,a1
1000448e:	00064e63          	bltz	a2,100044aa <stdout_serialize_begin+0x34>
10004492:	85be                	mv	a1,a5
10004494:	20004537          	lui	a0,0x20004
10004498:	f3450513          	addi	a0,a0,-204 # 20003f34 <print_mutex>
1000449c:	0fffc097          	auipc	ra,0xfffc
100044a0:	c66080e7          	jalr	-922(ra) # 20000102 <mutex_try_enter_block_until>
100044a4:	40b2                	lw	ra,12(sp)
100044a6:	0141                	addi	sp,sp,16
100044a8:	8082                	ret
100044aa:	57fd                	li	a5,-1
100044ac:	80000637          	lui	a2,0x80000
100044b0:	963e                	add	a2,a2,a5
100044b2:	b7c5                	j	10004492 <stdout_serialize_begin+0x1c>

100044b4 <stdout_serialize_end>:
100044b4:	1141                	addi	sp,sp,-16
100044b6:	c606                	sw	ra,12(sp)
100044b8:	20004537          	lui	a0,0x20004
100044bc:	f3450513          	addi	a0,a0,-204 # 20003f34 <print_mutex>
100044c0:	0fffc097          	auipc	ra,0xfffc
100044c4:	cc8080e7          	jalr	-824(ra) # 20000188 <mutex_exit>
100044c8:	40b2                	lw	ra,12(sp)
100044ca:	0141                	addi	sp,sp,16
100044cc:	8082                	ret

100044ce <stdio_put_string>:
100044ce:	7179                	addi	sp,sp,-48
100044d0:	d606                	sw	ra,44(sp)
100044d2:	d422                	sw	s0,40(sp)
100044d4:	d226                	sw	s1,36(sp)
100044d6:	d04a                	sw	s2,32(sp)
100044d8:	ce4e                	sw	s3,28(sp)
100044da:	cc52                	sw	s4,24(sp)
100044dc:	ca56                	sw	s5,20(sp)
100044de:	89aa                	mv	s3,a0
100044e0:	84ae                	mv	s1,a1
100044e2:	8a32                	mv	s4,a2
100044e4:	8436                	mv	s0,a3
100044e6:	3f41                	jal	10004476 <stdout_serialize_begin>
100044e8:	8aaa                	mv	s5,a0
100044ea:	57fd                	li	a5,-1
100044ec:	00f48a63          	beq	s1,a5,10004500 <stdio_put_string+0x32>
100044f0:	cc09                	beqz	s0,1000450a <stdio_put_string+0x3c>
100044f2:	10004937          	lui	s2,0x10004
100044f6:	34a90913          	addi	s2,s2,842 # 1000434a <stdio_out_chars_crlf>
100044fa:	8271a403          	lw	s0,-2009(gp) # 20004ee4 <drivers>
100044fe:	a821                	j	10004516 <stdio_put_string+0x48>
10004500:	854e                	mv	a0,s3
10004502:	4e0040ef          	jal	100089e2 <strlen>
10004506:	84aa                	mv	s1,a0
10004508:	b7e5                	j	100044f0 <stdio_put_string+0x22>
1000450a:	10004937          	lui	s2,0x10004
1000450e:	33690913          	addi	s2,s2,822 # 10004336 <stdio_out_chars_no_crlf>
10004512:	b7e5                	j	100044fa <stdio_put_string+0x2c>
10004514:	4800                	lw	s0,16(s0)
10004516:	c41d                	beqz	s0,10004544 <stdio_put_string+0x76>
10004518:	401c                	lw	a5,0(s0)
1000451a:	dfed                	beqz	a5,10004514 <stdio_put_string+0x46>
1000451c:	8231a783          	lw	a5,-2013(gp) # 20004ee0 <filter>
10004520:	c399                	beqz	a5,10004526 <stdio_put_string+0x58>
10004522:	fe8799e3          	bne	a5,s0,10004514 <stdio_put_string+0x46>
10004526:	8626                	mv	a2,s1
10004528:	85ce                	mv	a1,s3
1000452a:	8522                	mv	a0,s0
1000452c:	9902                	jalr	s2
1000452e:	fe0a03e3          	beqz	s4,10004514 <stdio_put_string+0x46>
10004532:	47a9                	li	a5,10
10004534:	00f107a3          	sb	a5,15(sp)
10004538:	4605                	li	a2,1
1000453a:	00f10593          	addi	a1,sp,15
1000453e:	8522                	mv	a0,s0
10004540:	9902                	jalr	s2
10004542:	bfc9                	j	10004514 <stdio_put_string+0x46>
10004544:	000a9c63          	bnez	s5,1000455c <stdio_put_string+0x8e>
10004548:	8526                	mv	a0,s1
1000454a:	50b2                	lw	ra,44(sp)
1000454c:	5422                	lw	s0,40(sp)
1000454e:	5492                	lw	s1,36(sp)
10004550:	5902                	lw	s2,32(sp)
10004552:	49f2                	lw	s3,28(sp)
10004554:	4a62                	lw	s4,24(sp)
10004556:	4ad2                	lw	s5,20(sp)
10004558:	6145                	addi	sp,sp,48
1000455a:	8082                	ret
1000455c:	3fa1                	jal	100044b4 <stdout_serialize_end>
1000455e:	b7ed                	j	10004548 <stdio_put_string+0x7a>

10004560 <stdio_set_driver_enabled>:
10004560:	8271a783          	lw	a5,-2009(gp) # 20004ee4 <drivers>
10004564:	82718713          	addi	a4,gp,-2009 # 20004ee4 <drivers>
10004568:	a021                	j	10004570 <stdio_set_driver_enabled+0x10>
1000456a:	01078713          	addi	a4,a5,16
1000456e:	4b9c                	lw	a5,16(a5)
10004570:	cb91                	beqz	a5,10004584 <stdio_set_driver_enabled+0x24>
10004572:	431c                	lw	a5,0(a4)
10004574:	fea79be3          	bne	a5,a0,1000456a <stdio_set_driver_enabled+0xa>
10004578:	e981                	bnez	a1,10004588 <stdio_set_driver_enabled+0x28>
1000457a:	491c                	lw	a5,16(a0)
1000457c:	c31c                	sw	a5,0(a4)
1000457e:	00052823          	sw	zero,16(a0)
10004582:	8082                	ret
10004584:	c191                	beqz	a1,10004588 <stdio_set_driver_enabled+0x28>
10004586:	c308                	sw	a0,0(a4)
10004588:	8082                	ret

1000458a <stdio_flush>:
1000458a:	1141                	addi	sp,sp,-16
1000458c:	c606                	sw	ra,12(sp)
1000458e:	c422                	sw	s0,8(sp)
10004590:	8271a403          	lw	s0,-2009(gp) # 20004ee4 <drivers>
10004594:	a011                	j	10004598 <stdio_flush+0xe>
10004596:	4800                	lw	s0,16(s0)
10004598:	c409                	beqz	s0,100045a2 <stdio_flush+0x18>
1000459a:	405c                	lw	a5,4(s0)
1000459c:	dfed                	beqz	a5,10004596 <stdio_flush+0xc>
1000459e:	9782                	jalr	a5
100045a0:	bfdd                	j	10004596 <stdio_flush+0xc>
100045a2:	40b2                	lw	ra,12(sp)
100045a4:	4422                	lw	s0,8(sp)
100045a6:	0141                	addi	sp,sp,16
100045a8:	8082                	ret

100045aa <stdio_init_all>:
100045aa:	1141                	addi	sp,sp,-16
100045ac:	c606                	sw	ra,12(sp)
100045ae:	2911                	jal	100049c2 <stdio_usb_init>
100045b0:	40b2                	lw	ra,12(sp)
100045b2:	0141                	addi	sp,sp,16
100045b4:	8082                	ret

100045b6 <__wrap_puts>:
100045b6:	1141                	addi	sp,sp,-16
100045b8:	c606                	sw	ra,12(sp)
100045ba:	c422                	sw	s0,8(sp)
100045bc:	c226                	sw	s1,4(sp)
100045be:	84aa                	mv	s1,a0
100045c0:	422040ef          	jal	100089e2 <strlen>
100045c4:	842a                	mv	s0,a0
100045c6:	4685                	li	a3,1
100045c8:	8636                	mv	a2,a3
100045ca:	85aa                	mv	a1,a0
100045cc:	8526                	mv	a0,s1
100045ce:	3701                	jal	100044ce <stdio_put_string>
100045d0:	3f6d                	jal	1000458a <stdio_flush>
100045d2:	8522                	mv	a0,s0
100045d4:	40b2                	lw	ra,12(sp)
100045d6:	4422                	lw	s0,8(sp)
100045d8:	4492                	lw	s1,4(sp)
100045da:	0141                	addi	sp,sp,16
100045dc:	8082                	ret

100045de <__wrap_vprintf>:
100045de:	7171                	addi	sp,sp,-176
100045e0:	d706                	sw	ra,172(sp)
100045e2:	d522                	sw	s0,168(sp)
100045e4:	d326                	sw	s1,164(sp)
100045e6:	d14a                	sw	s2,160(sp)
100045e8:	cf4e                	sw	s3,156(sp)
100045ea:	89aa                	mv	s3,a0
100045ec:	892e                	mv	s2,a1
100045ee:	3561                	jal	10004476 <stdout_serialize_begin>
100045f0:	84aa                	mv	s1,a0
100045f2:	c602                	sw	zero,12(sp)
100045f4:	0060                	addi	s0,sp,12
100045f6:	86ca                	mv	a3,s2
100045f8:	864e                	mv	a2,s3
100045fa:	85a2                	mv	a1,s0
100045fc:	10004537          	lui	a0,0x10004
10004600:	44250513          	addi	a0,a0,1090 # 10004442 <stdio_buffered_printer>
10004604:	c79ff0ef          	jal	1000427c <vfctprintf>
10004608:	892a                	mv	s2,a0
1000460a:	8522                	mv	a0,s0
1000460c:	3bd5                	jal	10004400 <stdio_stack_buffer_flush>
1000460e:	3fb5                	jal	1000458a <stdio_flush>
10004610:	e889                	bnez	s1,10004622 <__wrap_vprintf+0x44>
10004612:	854a                	mv	a0,s2
10004614:	50ba                	lw	ra,172(sp)
10004616:	542a                	lw	s0,168(sp)
10004618:	549a                	lw	s1,164(sp)
1000461a:	590a                	lw	s2,160(sp)
1000461c:	49fa                	lw	s3,156(sp)
1000461e:	614d                	addi	sp,sp,176
10004620:	8082                	ret
10004622:	3d49                	jal	100044b4 <stdout_serialize_end>
10004624:	b7fd                	j	10004612 <__wrap_vprintf+0x34>

10004626 <__wrap_printf>:
10004626:	7139                	addi	sp,sp,-64
10004628:	ce06                	sw	ra,28(sp)
1000462a:	d22e                	sw	a1,36(sp)
1000462c:	d432                	sw	a2,40(sp)
1000462e:	d636                	sw	a3,44(sp)
10004630:	d83a                	sw	a4,48(sp)
10004632:	da3e                	sw	a5,52(sp)
10004634:	dc42                	sw	a6,56(sp)
10004636:	de46                	sw	a7,60(sp)
10004638:	104c                	addi	a1,sp,36
1000463a:	c62e                	sw	a1,12(sp)
1000463c:	374d                	jal	100045de <__wrap_vprintf>
1000463e:	40f2                	lw	ra,28(sp)
10004640:	6121                	addi	sp,sp,64
10004642:	8082                	ret

10004644 <resetd_init>:
10004644:	8082                	ret

10004646 <resetd_reset>:
10004646:	820185a3          	sb	zero,-2005(gp) # 20004ee8 <itf_num>
1000464a:	8082                	ret

1000464c <resetd_open>:
1000464c:	0055c703          	lbu	a4,5(a1)
10004650:	0ff00793          	li	a5,255
10004654:	02f71363          	bne	a4,a5,1000467a <resetd_open+0x2e>
10004658:	0065c783          	lbu	a5,6(a1)
1000465c:	e38d                	bnez	a5,1000467e <resetd_open+0x32>
1000465e:	0075c703          	lbu	a4,7(a1)
10004662:	4785                	li	a5,1
10004664:	00f71f63          	bne	a4,a5,10004682 <resetd_open+0x36>
10004668:	47a1                	li	a5,8
1000466a:	00c7fe63          	bgeu	a5,a2,10004686 <resetd_open+0x3a>
1000466e:	0025c703          	lbu	a4,2(a1)
10004672:	82e185a3          	sb	a4,-2005(gp) # 20004ee8 <itf_num>
10004676:	4525                	li	a0,9
10004678:	8082                	ret
1000467a:	4501                	li	a0,0
1000467c:	8082                	ret
1000467e:	4501                	li	a0,0
10004680:	8082                	ret
10004682:	4501                	li	a0,0
10004684:	8082                	ret
10004686:	4501                	li	a0,0
10004688:	8082                	ret

1000468a <resetd_xfer_cb>:
1000468a:	4505                	li	a0,1
1000468c:	8082                	ret

1000468e <resetd_control_xfer_cb>:
1000468e:	4785                	li	a5,1
10004690:	06f59663          	bne	a1,a5,100046fc <resetd_control_xfer_cb+0x6e>
10004694:	00464703          	lbu	a4,4(a2) # 80000004 <__StackTop+0x5ff7e004>
10004698:	00564783          	lbu	a5,5(a2)
1000469c:	07a2                	slli	a5,a5,0x8
1000469e:	8fd9                	or	a5,a5,a4
100046a0:	82b1c703          	lbu	a4,-2005(gp) # 20004ee8 <itf_num>
100046a4:	00e78463          	beq	a5,a4,100046ac <resetd_control_xfer_cb+0x1e>
100046a8:	4501                	li	a0,0
100046aa:	8082                	ret
100046ac:	1141                	addi	sp,sp,-16
100046ae:	c606                	sw	ra,12(sp)
100046b0:	00164783          	lbu	a5,1(a2)
100046b4:	00b78963          	beq	a5,a1,100046c6 <resetd_control_xfer_cb+0x38>
100046b8:	4709                	li	a4,2
100046ba:	02e78963          	beq	a5,a4,100046ec <resetd_control_xfer_cb+0x5e>
100046be:	4501                	li	a0,0
100046c0:	40b2                	lw	ra,12(sp)
100046c2:	0141                	addi	sp,sp,16
100046c4:	8082                	ret
100046c6:	00264583          	lbu	a1,2(a2)
100046ca:	00364783          	lbu	a5,3(a2)
100046ce:	07a2                	slli	a5,a5,0x8
100046d0:	8ddd                	or	a1,a1,a5
100046d2:	1007f793          	andi	a5,a5,256
100046d6:	cb89                	beqz	a5,100046e8 <resetd_control_xfer_cb+0x5a>
100046d8:	0095d513          	srli	a0,a1,0x9
100046dc:	4895d613          	bexti	a2,a1,0x9
100046e0:	07f5f593          	andi	a1,a1,127
100046e4:	cbefe0ef          	jal	10002ba2 <rom_reset_usb_boot_extra>
100046e8:	557d                	li	a0,-1
100046ea:	bfcd                	j	100046dc <resetd_control_xfer_cb+0x4e>
100046ec:	06400613          	li	a2,100
100046f0:	4581                	li	a1,0
100046f2:	4501                	li	a0,0
100046f4:	c00fe0ef          	jal	10002af4 <watchdog_reboot>
100046f8:	4505                	li	a0,1
100046fa:	b7d9                	j	100046c0 <resetd_control_xfer_cb+0x32>
100046fc:	4505                	li	a0,1
100046fe:	8082                	ret

10004700 <tud_descriptor_bos_cb>:
10004700:	1000a537          	lui	a0,0x1000a
10004704:	d5850513          	addi	a0,a0,-680 # 10009d58 <desc_bos>
10004708:	8082                	ret

1000470a <tud_vendor_control_xfer_cb>:
1000470a:	4705                	li	a4,1
1000470c:	04e59063          	bne	a1,a4,1000474c <tud_vendor_control_xfer_cb+0x42>
10004710:	87b2                	mv	a5,a2
10004712:	00164683          	lbu	a3,1(a2)
10004716:	02b69d63          	bne	a3,a1,10004750 <tud_vendor_control_xfer_cb+0x46>
1000471a:	00464683          	lbu	a3,4(a2)
1000471e:	00564703          	lbu	a4,5(a2)
10004722:	0722                	slli	a4,a4,0x8
10004724:	8f55                	or	a4,a4,a3
10004726:	469d                	li	a3,7
10004728:	00d70463          	beq	a4,a3,10004730 <tud_vendor_control_xfer_cb+0x26>
1000472c:	4501                	li	a0,0
1000472e:	8082                	ret
10004730:	1141                	addi	sp,sp,-16
10004732:	c606                	sw	ra,12(sp)
10004734:	0a600693          	li	a3,166
10004738:	1000a637          	lui	a2,0x1000a
1000473c:	cb060613          	addi	a2,a2,-848 # 10009cb0 <desc_ms_os_20>
10004740:	85be                	mv	a1,a5
10004742:	483010ef          	jal	100063c4 <tud_control_xfer>
10004746:	40b2                	lw	ra,12(sp)
10004748:	0141                	addi	sp,sp,16
1000474a:	8082                	ret
1000474c:	4505                	li	a0,1
1000474e:	8082                	ret
10004750:	4501                	li	a0,0
10004752:	8082                	ret

10004754 <usbd_app_driver_get_cb>:
10004754:	4785                	li	a5,1
10004756:	00f50023          	sb	a5,0(a0)
1000475a:	1000a537          	lui	a0,0x1000a
1000475e:	c9050513          	addi	a0,a0,-880 # 10009c90 <_resetd_driver>
10004762:	8082                	ret

10004764 <tud_cdc_line_coding_cb>:
10004764:	0005c703          	lbu	a4,0(a1)
10004768:	0015c783          	lbu	a5,1(a1)
1000476c:	07a2                	slli	a5,a5,0x8
1000476e:	8fd9                	or	a5,a5,a4
10004770:	0025c703          	lbu	a4,2(a1)
10004774:	0742                	slli	a4,a4,0x10
10004776:	8f5d                	or	a4,a4,a5
10004778:	0035c783          	lbu	a5,3(a1)
1000477c:	07e2                	slli	a5,a5,0x18
1000477e:	8fd9                	or	a5,a5,a4
10004780:	4b000713          	li	a4,1200
10004784:	00e78363          	beq	a5,a4,1000478a <tud_cdc_line_coding_cb+0x26>
10004788:	8082                	ret
1000478a:	1141                	addi	sp,sp,-16
1000478c:	c606                	sw	ra,12(sp)
1000478e:	4601                	li	a2,0
10004790:	4581                	li	a1,0
10004792:	557d                	li	a0,-1
10004794:	c0efe0ef          	jal	10002ba2 <rom_reset_usb_boot_extra>

10004798 <stdio_usb_set_chars_available_callback>:
10004798:	84a1a5a3          	sw	a0,-1973(gp) # 20004f08 <chars_available_callback>
1000479c:	84b1a3a3          	sw	a1,-1977(gp) # 20004f04 <chars_available_param>
100047a0:	8082                	ret

100047a2 <stdio_usb_out_flush>:
100047a2:	1141                	addi	sp,sp,-16
100047a4:	c606                	sw	ra,12(sp)
100047a6:	e9ffd0ef          	jal	10002644 <time_us_64>
100047aa:	000f47b7          	lui	a5,0xf4
100047ae:	24078793          	addi	a5,a5,576 # f4240 <HeapSize+0xf3a40>
100047b2:	97aa                	add	a5,a5,a0
100047b4:	00a7b633          	sltu	a2,a5,a0
100047b8:	962e                	add	a2,a2,a1
100047ba:	02064b63          	bltz	a2,100047f0 <stdio_usb_out_flush+0x4e>
100047be:	85be                	mv	a1,a5
100047c0:	84f18513          	addi	a0,gp,-1969 # 20004f0c <stdio_usb_mutex>
100047c4:	0fffc097          	auipc	ra,0xfffc
100047c8:	93e080e7          	jalr	-1730(ra) # 20000102 <mutex_try_enter_block_until>
100047cc:	cd19                	beqz	a0,100047ea <stdio_usb_out_flush+0x48>
100047ce:	4581                	li	a1,0
100047d0:	557d                	li	a0,-1
100047d2:	08b010ef          	jal	1000605c <tud_task_ext>
100047d6:	4501                	li	a0,0
100047d8:	056020ef          	jal	1000682e <tud_cdc_n_write_flush>
100047dc:	f96d                	bnez	a0,100047ce <stdio_usb_out_flush+0x2c>
100047de:	84f18513          	addi	a0,gp,-1969 # 20004f0c <stdio_usb_mutex>
100047e2:	0fffc097          	auipc	ra,0xfffc
100047e6:	9a6080e7          	jalr	-1626(ra) # 20000188 <mutex_exit>
100047ea:	40b2                	lw	ra,12(sp)
100047ec:	0141                	addi	sp,sp,16
100047ee:	8082                	ret
100047f0:	57fd                	li	a5,-1
100047f2:	80000637          	lui	a2,0x80000
100047f6:	963e                	add	a2,a2,a5
100047f8:	b7d9                	j	100047be <stdio_usb_out_flush+0x1c>

100047fa <usb_irq>:
100047fa:	1141                	addi	sp,sp,-16
100047fc:	c606                	sw	ra,12(sp)
100047fe:	83b1c503          	lbu	a0,-1989(gp) # 20004ef8 <low_priority_irq_num>
10004802:	d7bfc0ef          	jal	1000157c <irq_set_pending>
10004806:	40b2                	lw	ra,12(sp)
10004808:	0141                	addi	sp,sp,16
1000480a:	8082                	ret

1000480c <timer_task>:
1000480c:	1141                	addi	sp,sp,-16
1000480e:	c606                	sw	ra,12(sp)
10004810:	c422                	sw	s0,8(sp)
10004812:	c226                	sw	s1,4(sp)
10004814:	83f1a783          	lw	a5,-1985(gp) # 20004efc <one_shot_timer_crit_sec>
10004818:	cbb9                	beqz	a5,1000486e <timer_task+0x62>
1000481a:	30047773          	csrrci	a4,mstatus,8
1000481e:	00379693          	slli	a3,a5,0x3
10004822:	28d016b3          	bset	a3,zero,a3
10004826:	9bf1                	andi	a5,a5,-4
10004828:	44d7a62f          	amoor.w.aq	a2,a3,(a5)
1000482c:	8e75                	and	a2,a2,a3
1000482e:	fe6d                	bnez	a2,10004828 <timer_task+0x1c>
10004830:	0330000f          	fence	rw,rw
10004834:	83f18793          	addi	a5,gp,-1985 # 20004efc <one_shot_timer_crit_sec>
10004838:	c3d8                	sw	a4,4(a5)
1000483a:	82018e23          	sb	zero,-1988(gp) # 20004ef9 <one_shot_timer_pending>
1000483e:	439c                	lw	a5,0(a5)
10004840:	0330000f          	fence	rw,rw
10004844:	00078023          	sb	zero,0(a5)
10004848:	8b21                	andi	a4,a4,8
1000484a:	30072073          	csrs	mstatus,a4
1000484e:	4401                	li	s0,0
10004850:	4481                	li	s1,0
10004852:	83b1c503          	lbu	a0,-1989(gp) # 20004ef8 <low_priority_irq_num>
10004856:	ceffc0ef          	jal	10001544 <irq_is_enabled>
1000485a:	ed11                	bnez	a0,10004876 <timer_task+0x6a>
1000485c:	4401                	li	s0,0
1000485e:	4481                	li	s1,0
10004860:	8522                	mv	a0,s0
10004862:	85a6                	mv	a1,s1
10004864:	40b2                	lw	ra,12(sp)
10004866:	4422                	lw	s0,8(sp)
10004868:	4492                	lw	s1,4(sp)
1000486a:	0141                	addi	sp,sp,16
1000486c:	8082                	ret
1000486e:	3e800413          	li	s0,1000
10004872:	4481                	li	s1,0
10004874:	bff9                	j	10004852 <timer_task+0x46>
10004876:	83b1c503          	lbu	a0,-1989(gp) # 20004ef8 <low_priority_irq_num>
1000487a:	d03fc0ef          	jal	1000157c <irq_set_pending>
1000487e:	b7cd                	j	10004860 <timer_task+0x54>

10004880 <alarm_pool_add_alarm_in_us>:
10004880:	1101                	addi	sp,sp,-32
10004882:	ce06                	sw	ra,28(sp)
10004884:	cc22                	sw	s0,24(sp)
10004886:	ca26                	sw	s1,20(sp)
10004888:	c84a                	sw	s2,16(sp)
1000488a:	c64e                	sw	s3,12(sp)
1000488c:	c452                	sw	s4,8(sp)
1000488e:	c256                	sw	s5,4(sp)
10004890:	892a                	mv	s2,a0
10004892:	842e                	mv	s0,a1
10004894:	84b2                	mv	s1,a2
10004896:	89b6                	mv	s3,a3
10004898:	8a3a                	mv	s4,a4
1000489a:	8abe                	mv	s5,a5
1000489c:	da9fd0ef          	jal	10002644 <time_us_64>
100048a0:	00a40833          	add	a6,s0,a0
100048a4:	00883433          	sltu	s0,a6,s0
100048a8:	00b487b3          	add	a5,s1,a1
100048ac:	85c2                	mv	a1,a6
100048ae:	00f40633          	add	a2,s0,a5
100048b2:	02064163          	bltz	a2,100048d4 <alarm_pool_add_alarm_in_us+0x54>
100048b6:	87d6                	mv	a5,s5
100048b8:	8752                	mv	a4,s4
100048ba:	86ce                	mv	a3,s3
100048bc:	854a                	mv	a0,s2
100048be:	8f9fd0ef          	jal	100021b6 <alarm_pool_add_alarm_at>
100048c2:	40f2                	lw	ra,28(sp)
100048c4:	4462                	lw	s0,24(sp)
100048c6:	44d2                	lw	s1,20(sp)
100048c8:	4942                	lw	s2,16(sp)
100048ca:	49b2                	lw	s3,12(sp)
100048cc:	4a22                	lw	s4,8(sp)
100048ce:	4a92                	lw	s5,4(sp)
100048d0:	6105                	addi	sp,sp,32
100048d2:	8082                	ret
100048d4:	55fd                	li	a1,-1
100048d6:	80000637          	lui	a2,0x80000
100048da:	962e                	add	a2,a2,a1
100048dc:	bfe9                	j	100048b6 <alarm_pool_add_alarm_in_us+0x36>

100048de <add_alarm_in_us>:
100048de:	1101                	addi	sp,sp,-32
100048e0:	ce06                	sw	ra,28(sp)
100048e2:	cc22                	sw	s0,24(sp)
100048e4:	ca26                	sw	s1,20(sp)
100048e6:	c84a                	sw	s2,16(sp)
100048e8:	c64e                	sw	s3,12(sp)
100048ea:	c452                	sw	s4,8(sp)
100048ec:	8a2a                	mv	s4,a0
100048ee:	89ae                	mv	s3,a1
100048f0:	8932                	mv	s2,a2
100048f2:	84b6                	mv	s1,a3
100048f4:	843a                	mv	s0,a4
100048f6:	fa8fd0ef          	jal	1000209e <alarm_pool_get_default>
100048fa:	87a2                	mv	a5,s0
100048fc:	8726                	mv	a4,s1
100048fe:	86ca                	mv	a3,s2
10004900:	85d2                	mv	a1,s4
10004902:	864e                	mv	a2,s3
10004904:	3fb5                	jal	10004880 <alarm_pool_add_alarm_in_us>
10004906:	40f2                	lw	ra,28(sp)
10004908:	4462                	lw	s0,24(sp)
1000490a:	44d2                	lw	s1,20(sp)
1000490c:	4942                	lw	s2,16(sp)
1000490e:	49b2                	lw	s3,12(sp)
10004910:	4a22                	lw	s4,8(sp)
10004912:	6105                	addi	sp,sp,32
10004914:	8082                	ret

10004916 <low_priority_worker_irq>:
10004916:	1141                	addi	sp,sp,-16
10004918:	c606                	sw	ra,12(sp)
1000491a:	4581                	li	a1,0
1000491c:	84f18513          	addi	a0,gp,-1969 # 20004f0c <stdio_usb_mutex>
10004920:	0fffb097          	auipc	ra,0xfffb
10004924:	6e0080e7          	jalr	1760(ra) # 20000000 <mutex_try_enter>
10004928:	e539                	bnez	a0,10004976 <low_priority_worker_irq+0x60>
1000492a:	83f1a783          	lw	a5,-1985(gp) # 20004efc <one_shot_timer_crit_sec>
1000492e:	c3a9                	beqz	a5,10004970 <low_priority_worker_irq+0x5a>
10004930:	30047773          	csrrci	a4,mstatus,8
10004934:	00379693          	slli	a3,a5,0x3
10004938:	28d016b3          	bset	a3,zero,a3
1000493c:	9bf1                	andi	a5,a5,-4
1000493e:	44d7a62f          	amoor.w.aq	a2,a3,(a5)
10004942:	8e75                	and	a2,a2,a3
10004944:	fe6d                	bnez	a2,1000493e <low_priority_worker_irq+0x28>
10004946:	0330000f          	fence	rw,rw
1000494a:	83f18793          	addi	a5,gp,-1985 # 20004efc <one_shot_timer_crit_sec>
1000494e:	c3d8                	sw	a4,4(a5)
10004950:	83c1c683          	lbu	a3,-1988(gp) # 20004ef9 <one_shot_timer_pending>
10004954:	0ff6f693          	zext.b	a3,a3
10004958:	4585                	li	a1,1
1000495a:	82b18e23          	sb	a1,-1988(gp) # 20004ef9 <one_shot_timer_pending>
1000495e:	439c                	lw	a5,0(a5)
10004960:	0330000f          	fence	rw,rw
10004964:	00078023          	sb	zero,0(a5)
10004968:	8b21                	andi	a4,a4,8
1000496a:	30072073          	csrs	mstatus,a4
1000496e:	ce85                	beqz	a3,100049a6 <low_priority_worker_irq+0x90>
10004970:	40b2                	lw	ra,12(sp)
10004972:	0141                	addi	sp,sp,16
10004974:	8082                	ret
10004976:	c422                	sw	s0,8(sp)
10004978:	4581                	li	a1,0
1000497a:	557d                	li	a0,-1
1000497c:	6e0010ef          	jal	1000605c <tud_task_ext>
10004980:	4501                	li	a0,0
10004982:	63b010ef          	jal	100067bc <tud_cdc_n_available>
10004986:	842a                	mv	s0,a0
10004988:	84f18513          	addi	a0,gp,-1969 # 20004f0c <stdio_usb_mutex>
1000498c:	0fffb097          	auipc	ra,0xfffb
10004990:	7fc080e7          	jalr	2044(ra) # 20000188 <mutex_exit>
10004994:	c01d                	beqz	s0,100049ba <low_priority_worker_irq+0xa4>
10004996:	84b1a783          	lw	a5,-1973(gp) # 20004f08 <chars_available_callback>
1000499a:	c395                	beqz	a5,100049be <low_priority_worker_irq+0xa8>
1000499c:	8471a503          	lw	a0,-1977(gp) # 20004f04 <chars_available_param>
100049a0:	9782                	jalr	a5
100049a2:	4422                	lw	s0,8(sp)
100049a4:	b7f1                	j	10004970 <low_priority_worker_irq+0x5a>
100049a6:	872e                	mv	a4,a1
100049a8:	10005637          	lui	a2,0x10005
100049ac:	80c60613          	addi	a2,a2,-2036 # 1000480c <timer_task>
100049b0:	3e800513          	li	a0,1000
100049b4:	4581                	li	a1,0
100049b6:	3725                	jal	100048de <add_alarm_in_us>
100049b8:	bf65                	j	10004970 <low_priority_worker_irq+0x5a>
100049ba:	4422                	lw	s0,8(sp)
100049bc:	bf55                	j	10004970 <low_priority_worker_irq+0x5a>
100049be:	4422                	lw	s0,8(sp)
100049c0:	bf45                	j	10004970 <low_priority_worker_irq+0x5a>

100049c2 <stdio_usb_init>:
100049c2:	1141                	addi	sp,sp,-16
100049c4:	c606                	sw	ra,12(sp)
100049c6:	c422                	sw	s0,8(sp)
100049c8:	d00007b7          	lui	a5,0xd0000
100049cc:	4380                	lw	s0,0(a5)
100049ce:	ed0fd0ef          	jal	1000209e <alarm_pool_get_default>
100049d2:	909fd0ef          	jal	100022da <alarm_pool_core_num>
100049d6:	08851063          	bne	a0,s0,10004a56 <stdio_usb_init+0x94>
100049da:	1000a7b7          	lui	a5,0x1000a
100049de:	3087c783          	lbu	a5,776(a5) # 1000a308 <__bi_ptr202.4>
100049e2:	4581                	li	a1,0
100049e4:	4501                	li	a0,0
100049e6:	2f7020ef          	jal	100074dc <tusb_rhport_init>
100049ea:	84f1a783          	lw	a5,-1969(gp) # 20004f0c <stdio_usb_mutex>
100049ee:	c7c1                	beqz	a5,10004a76 <stdio_usb_init+0xb4>
100049f0:	4505                	li	a0,1
100049f2:	8d6fd0ef          	jal	10001ac8 <user_irq_claim_unused>
100049f6:	82a18da3          	sb	a0,-1989(gp) # 20004ef8 <low_priority_irq_num>
100049fa:	100055b7          	lui	a1,0x10005
100049fe:	91658593          	addi	a1,a1,-1770 # 10004916 <low_priority_worker_irq>
10004a02:	0ff57513          	zext.b	a0,a0
10004a06:	bb7fc0ef          	jal	100015bc <irq_set_exclusive_handler>
10004a0a:	4585                	li	a1,1
10004a0c:	83b1c503          	lbu	a0,-1989(gp) # 20004ef8 <low_priority_irq_num>
10004a10:	b59fc0ef          	jal	10001568 <irq_set_enabled>
10004a14:	4539                	li	a0,14
10004a16:	b8dfc0ef          	jal	100015a2 <irq_has_shared_handler>
10004a1a:	842a                	mv	s0,a0
10004a1c:	c135                	beqz	a0,10004a80 <stdio_usb_init+0xbe>
10004a1e:	4505                	li	a0,1
10004a20:	93ffc0ef          	jal	1000135e <spin_lock_claim_unused>
10004a24:	85aa                	mv	a1,a0
10004a26:	83f18513          	addi	a0,gp,-1985 # 20004efc <one_shot_timer_crit_sec>
10004a2a:	97efd0ef          	jal	10001ba8 <critical_section_init_with_lock_num>
10004a2e:	4601                	li	a2,0
10004a30:	100045b7          	lui	a1,0x10004
10004a34:	7fa58593          	addi	a1,a1,2042 # 100047fa <usb_irq>
10004a38:	4539                	li	a0,14
10004a3a:	bfbfc0ef          	jal	10001634 <irq_add_shared_handler>
10004a3e:	4585                	li	a1,1
10004a40:	20004537          	lui	a0,0x20004
10004a44:	da850513          	addi	a0,a0,-600 # 20003da8 <stdio_usb>
10004a48:	b19ff0ef          	jal	10004560 <stdio_set_driver_enabled>
10004a4c:	8522                	mv	a0,s0
10004a4e:	40b2                	lw	ra,12(sp)
10004a50:	4422                	lw	s0,8(sp)
10004a52:	0141                	addi	sp,sp,16
10004a54:	8082                	ret
10004a56:	100096b7          	lui	a3,0x10009
10004a5a:	62068693          	addi	a3,a3,1568 # 10009620 <__EH_FRAME_BEGIN__+0x960>
10004a5e:	1000a637          	lui	a2,0x1000a
10004a62:	d8860613          	addi	a2,a2,-632 # 10009d88 <__func__.2>
10004a66:	0c600593          	li	a1,198
10004a6a:	10009537          	lui	a0,0x10009
10004a6e:	62850513          	addi	a0,a0,1576 # 10009628 <__EH_FRAME_BEGIN__+0x968>
10004a72:	857ff0ef          	jal	100042c8 <__assert_func>
10004a76:	84f18513          	addi	a0,gp,-1969 # 20004f0c <stdio_usb_mutex>
10004a7a:	888fd0ef          	jal	10001b02 <mutex_init>
10004a7e:	bf8d                	j	100049f0 <stdio_usb_init+0x2e>
10004a80:	83f18793          	addi	a5,gp,-1985 # 20004efc <one_shot_timer_crit_sec>
10004a84:	0007a023          	sw	zero,0(a5)
10004a88:	0007a223          	sw	zero,4(a5)
10004a8c:	4705                	li	a4,1
10004a8e:	4681                	li	a3,0
10004a90:	10005637          	lui	a2,0x10005
10004a94:	80c60613          	addi	a2,a2,-2036 # 1000480c <timer_task>
10004a98:	3e800513          	li	a0,1000
10004a9c:	4581                	li	a1,0
10004a9e:	3581                	jal	100048de <add_alarm_in_us>
10004aa0:	fff54513          	not	a0,a0
10004aa4:	01f55413          	srli	s0,a0,0x1f
10004aa8:	fa0552e3          	bgez	a0,10004a4c <stdio_usb_init+0x8a>
10004aac:	bf49                	j	10004a3e <stdio_usb_init+0x7c>

10004aae <stdio_usb_connected>:
10004aae:	1141                	addi	sp,sp,-16
10004ab0:	c606                	sw	ra,12(sp)
10004ab2:	4501                	li	a0,0
10004ab4:	4c5010ef          	jal	10006778 <tud_cdc_n_connected>
10004ab8:	40b2                	lw	ra,12(sp)
10004aba:	0141                	addi	sp,sp,16
10004abc:	8082                	ret

10004abe <stdio_usb_in_chars>:
10004abe:	1141                	addi	sp,sp,-16
10004ac0:	c606                	sw	ra,12(sp)
10004ac2:	c422                	sw	s0,8(sp)
10004ac4:	c226                	sw	s1,4(sp)
10004ac6:	842a                	mv	s0,a0
10004ac8:	84ae                	mv	s1,a1
10004aca:	37d5                	jal	10004aae <stdio_usb_connected>
10004acc:	c141                	beqz	a0,10004b4c <stdio_usb_in_chars+0x8e>
10004ace:	4501                	li	a0,0
10004ad0:	4ed010ef          	jal	100067bc <tud_cdc_n_available>
10004ad4:	cd3d                	beqz	a0,10004b52 <stdio_usb_in_chars+0x94>
10004ad6:	b6ffd0ef          	jal	10002644 <time_us_64>
10004ada:	000f47b7          	lui	a5,0xf4
10004ade:	24078793          	addi	a5,a5,576 # f4240 <HeapSize+0xf3a40>
10004ae2:	97aa                	add	a5,a5,a0
10004ae4:	00a7b633          	sltu	a2,a5,a0
10004ae8:	962e                	add	a2,a2,a1
10004aea:	04064263          	bltz	a2,10004b2e <stdio_usb_in_chars+0x70>
10004aee:	85be                	mv	a1,a5
10004af0:	84f18513          	addi	a0,gp,-1969 # 20004f0c <stdio_usb_mutex>
10004af4:	0fffb097          	auipc	ra,0xfffb
10004af8:	60e080e7          	jalr	1550(ra) # 20000102 <mutex_try_enter_block_until>
10004afc:	cd31                	beqz	a0,10004b58 <stdio_usb_in_chars+0x9a>
10004afe:	3f45                	jal	10004aae <stdio_usb_connected>
10004b00:	c509                	beqz	a0,10004b0a <stdio_usb_in_chars+0x4c>
10004b02:	4501                	li	a0,0
10004b04:	4b9010ef          	jal	100067bc <tud_cdc_n_available>
10004b08:	e905                	bnez	a0,10004b38 <stdio_usb_in_chars+0x7a>
10004b0a:	4581                	li	a1,0
10004b0c:	557d                	li	a0,-1
10004b0e:	54e010ef          	jal	1000605c <tud_task_ext>
10004b12:	57f5                	li	a5,-3
10004b14:	843e                	mv	s0,a5
10004b16:	84f18513          	addi	a0,gp,-1969 # 20004f0c <stdio_usb_mutex>
10004b1a:	0fffb097          	auipc	ra,0xfffb
10004b1e:	66e080e7          	jalr	1646(ra) # 20000188 <mutex_exit>
10004b22:	8522                	mv	a0,s0
10004b24:	40b2                	lw	ra,12(sp)
10004b26:	4422                	lw	s0,8(sp)
10004b28:	4492                	lw	s1,4(sp)
10004b2a:	0141                	addi	sp,sp,16
10004b2c:	8082                	ret
10004b2e:	57fd                	li	a5,-1
10004b30:	80000637          	lui	a2,0x80000
10004b34:	963e                	add	a2,a2,a5
10004b36:	bf65                	j	10004aee <stdio_usb_in_chars+0x30>
10004b38:	8626                	mv	a2,s1
10004b3a:	85a2                	mv	a1,s0
10004b3c:	4501                	li	a0,0
10004b3e:	4a5010ef          	jal	100067e2 <tud_cdc_n_read>
10004b42:	842a                	mv	s0,a0
10004b44:	f969                	bnez	a0,10004b16 <stdio_usb_in_chars+0x58>
10004b46:	57f5                	li	a5,-3
10004b48:	843e                	mv	s0,a5
10004b4a:	b7f1                	j	10004b16 <stdio_usb_in_chars+0x58>
10004b4c:	57f5                	li	a5,-3
10004b4e:	843e                	mv	s0,a5
10004b50:	bfc9                	j	10004b22 <stdio_usb_in_chars+0x64>
10004b52:	57f5                	li	a5,-3
10004b54:	843e                	mv	s0,a5
10004b56:	b7f1                	j	10004b22 <stdio_usb_in_chars+0x64>
10004b58:	57f5                	li	a5,-3
10004b5a:	843e                	mv	s0,a5
10004b5c:	b7d9                	j	10004b22 <stdio_usb_in_chars+0x64>

10004b5e <stdio_usb_out_chars>:
10004b5e:	1101                	addi	sp,sp,-32
10004b60:	ce06                	sw	ra,28(sp)
10004b62:	ca26                	sw	s1,20(sp)
10004b64:	c64e                	sw	s3,12(sp)
10004b66:	89aa                	mv	s3,a0
10004b68:	84ae                	mv	s1,a1
10004b6a:	adbfd0ef          	jal	10002644 <time_us_64>
10004b6e:	000f47b7          	lui	a5,0xf4
10004b72:	24078793          	addi	a5,a5,576 # f4240 <HeapSize+0xf3a40>
10004b76:	97aa                	add	a5,a5,a0
10004b78:	00a7b633          	sltu	a2,a5,a0
10004b7c:	962e                	add	a2,a2,a1
10004b7e:	00064f63          	bltz	a2,10004b9c <stdio_usb_out_chars+0x3e>
10004b82:	85be                	mv	a1,a5
10004b84:	84f18513          	addi	a0,gp,-1969 # 20004f0c <stdio_usb_mutex>
10004b88:	0fffb097          	auipc	ra,0xfffb
10004b8c:	57a080e7          	jalr	1402(ra) # 20000102 <mutex_try_enter_block_until>
10004b90:	e919                	bnez	a0,10004ba6 <stdio_usb_out_chars+0x48>
10004b92:	40f2                	lw	ra,28(sp)
10004b94:	44d2                	lw	s1,20(sp)
10004b96:	49b2                	lw	s3,12(sp)
10004b98:	6105                	addi	sp,sp,32
10004b9a:	8082                	ret
10004b9c:	57fd                	li	a5,-1
10004b9e:	80000637          	lui	a2,0x80000
10004ba2:	963e                	add	a2,a2,a5
10004ba4:	bff9                	j	10004b82 <stdio_usb_out_chars+0x24>
10004ba6:	3721                	jal	10004aae <stdio_usb_connected>
10004ba8:	e15d                	bnez	a0,10004c4e <stdio_usb_out_chars+0xf0>
10004baa:	4681                	li	a3,0
10004bac:	4701                	li	a4,0
10004bae:	82d1a9a3          	sw	a3,-1997(gp) # 20004ef0 <last_avail_time.3>
10004bb2:	82e1aba3          	sw	a4,-1993(gp) # 20004ef4 <last_avail_time.3+0x4>
10004bb6:	84f18513          	addi	a0,gp,-1969 # 20004f0c <stdio_usb_mutex>
10004bba:	0fffb097          	auipc	ra,0xfffb
10004bbe:	5ce080e7          	jalr	1486(ra) # 20000188 <mutex_exit>
10004bc2:	bfc1                	j	10004b92 <stdio_usb_out_chars+0x34>
10004bc4:	4581                	li	a1,0
10004bc6:	557d                	li	a0,-1
10004bc8:	494010ef          	jal	1000605c <tud_task_ext>
10004bcc:	4501                	li	a0,0
10004bce:	461010ef          	jal	1000682e <tud_cdc_n_write_flush>
10004bd2:	3df1                	jal	10004aae <stdio_usb_connected>
10004bd4:	c541                	beqz	a0,10004c5c <stdio_usb_out_chars+0xfe>
10004bd6:	4501                	li	a0,0
10004bd8:	5c1010ef          	jal	10006998 <tud_cdc_n_write_available>
10004bdc:	c131                	beqz	a0,10004c20 <stdio_usb_out_chars+0xc2>
10004bde:	06945c63          	bge	s0,s1,10004c56 <stdio_usb_out_chars+0xf8>
10004be2:	40848933          	sub	s2,s1,s0
10004be6:	4501                	li	a0,0
10004be8:	5b1010ef          	jal	10006998 <tud_cdc_n_write_available>
10004bec:	01254363          	blt	a0,s2,10004bf2 <stdio_usb_out_chars+0x94>
10004bf0:	854a                	mv	a0,s2
10004bf2:	d969                	beqz	a0,10004bc4 <stdio_usb_out_chars+0x66>
10004bf4:	862a                	mv	a2,a0
10004bf6:	008985b3          	add	a1,s3,s0
10004bfa:	4501                	li	a0,0
10004bfc:	539010ef          	jal	10006934 <tud_cdc_n_write>
10004c00:	892a                	mv	s2,a0
10004c02:	4581                	li	a1,0
10004c04:	557d                	li	a0,-1
10004c06:	456010ef          	jal	1000605c <tud_task_ext>
10004c0a:	4501                	li	a0,0
10004c0c:	423010ef          	jal	1000682e <tud_cdc_n_write_flush>
10004c10:	944a                	add	s0,s0,s2
10004c12:	a33fd0ef          	jal	10002644 <time_us_64>
10004c16:	82a1a9a3          	sw	a0,-1997(gp) # 20004ef0 <last_avail_time.3>
10004c1a:	82b1aba3          	sw	a1,-1993(gp) # 20004ef4 <last_avail_time.3+0x4>
10004c1e:	b7c1                	j	10004bde <stdio_usb_out_chars+0x80>
10004c20:	a25fd0ef          	jal	10002644 <time_us_64>
10004c24:	8331a703          	lw	a4,-1997(gp) # 20004ef0 <last_avail_time.3>
10004c28:	8371a683          	lw	a3,-1993(gp) # 20004ef4 <last_avail_time.3+0x4>
10004c2c:	0007a7b7          	lui	a5,0x7a
10004c30:	12078793          	addi	a5,a5,288 # 7a120 <HeapSize+0x79920>
10004c34:	97ba                	add	a5,a5,a4
10004c36:	00e7b733          	sltu	a4,a5,a4
10004c3a:	9736                	add	a4,a4,a3
10004c3c:	02b76363          	bltu	a4,a1,10004c62 <stdio_usb_out_chars+0x104>
10004c40:	f8e59fe3          	bne	a1,a4,10004bde <stdio_usb_out_chars+0x80>
10004c44:	f8a7fde3          	bgeu	a5,a0,10004bde <stdio_usb_out_chars+0x80>
10004c48:	4462                	lw	s0,24(sp)
10004c4a:	4942                	lw	s2,16(sp)
10004c4c:	b7ad                	j	10004bb6 <stdio_usb_out_chars+0x58>
10004c4e:	cc22                	sw	s0,24(sp)
10004c50:	c84a                	sw	s2,16(sp)
10004c52:	4401                	li	s0,0
10004c54:	b769                	j	10004bde <stdio_usb_out_chars+0x80>
10004c56:	4462                	lw	s0,24(sp)
10004c58:	4942                	lw	s2,16(sp)
10004c5a:	bfb1                	j	10004bb6 <stdio_usb_out_chars+0x58>
10004c5c:	4462                	lw	s0,24(sp)
10004c5e:	4942                	lw	s2,16(sp)
10004c60:	bf99                	j	10004bb6 <stdio_usb_out_chars+0x58>
10004c62:	4462                	lw	s0,24(sp)
10004c64:	4942                	lw	s2,16(sp)
10004c66:	bf81                	j	10004bb6 <stdio_usb_out_chars+0x58>

10004c68 <tud_descriptor_device_cb>:
10004c68:	1000a537          	lui	a0,0x1000a
10004c6c:	e0450513          	addi	a0,a0,-508 # 10009e04 <usbd_desc_device>
10004c70:	8082                	ret

10004c72 <tud_descriptor_configuration_cb>:
10004c72:	1000a537          	lui	a0,0x1000a
10004c76:	db050513          	addi	a0,a0,-592 # 10009db0 <usbd_desc_cfg>
10004c7a:	8082                	ret

10004c7c <tud_descriptor_string_cb>:
10004c7c:	1141                	addi	sp,sp,-16
10004c7e:	c606                	sw	ra,12(sp)
10004c80:	c422                	sw	s0,8(sp)
10004c82:	842a                	mv	s0,a0
10004c84:	200057b7          	lui	a5,0x20005
10004c88:	eac7c783          	lbu	a5,-340(a5) # 20004eac <usbd_serial_str>
10004c8c:	cb9d                	beqz	a5,10004cc2 <tud_descriptor_string_cb+0x46>
10004c8e:	e029                	bnez	s0,10004cd0 <tud_descriptor_string_cb+0x54>
10004c90:	200057b7          	lui	a5,0x20005
10004c94:	94c78793          	addi	a5,a5,-1716 # 2000494c <desc_str.0>
10004c98:	40900713          	li	a4,1033
10004c9c:	00e79123          	sh	a4,2(a5)
10004ca0:	4785                	li	a5,1
10004ca2:	0785                	addi	a5,a5,1
10004ca4:	0786                	slli	a5,a5,0x1
10004ca6:	0807c7b3          	zext.h	a5,a5
10004caa:	20005537          	lui	a0,0x20005
10004cae:	94c50513          	addi	a0,a0,-1716 # 2000494c <desc_str.0>
10004cb2:	3007e793          	ori	a5,a5,768
10004cb6:	00f51023          	sh	a5,0(a0)
10004cba:	40b2                	lw	ra,12(sp)
10004cbc:	4422                	lw	s0,8(sp)
10004cbe:	0141                	addi	sp,sp,16
10004cc0:	8082                	ret
10004cc2:	45c5                	li	a1,17
10004cc4:	20005537          	lui	a0,0x20005
10004cc8:	eac50513          	addi	a0,a0,-340 # 20004eac <usbd_serial_str>
10004ccc:	207d                	jal	10004d7a <pico_get_unique_board_id_string>
10004cce:	b7c1                	j	10004c8e <tud_descriptor_string_cb+0x12>
10004cd0:	4795                	li	a5,5
10004cd2:	0287ee63          	bltu	a5,s0,10004d0e <tud_descriptor_string_cb+0x92>
10004cd6:	1000a7b7          	lui	a5,0x1000a
10004cda:	d9878793          	addi	a5,a5,-616 # 10009d98 <usbd_desc_str>
10004cde:	20f44433          	sh2add	s0,s0,a5
10004ce2:	4010                	lw	a2,0(s0)
10004ce4:	4781                	li	a5,0
10004ce6:	4749                	li	a4,18
10004ce8:	faf76de3          	bltu	a4,a5,10004ca2 <tud_descriptor_string_cb+0x26>
10004cec:	00f60733          	add	a4,a2,a5
10004cf0:	00074683          	lbu	a3,0(a4)
10004cf4:	d6dd                	beqz	a3,10004ca2 <tud_descriptor_string_cb+0x26>
10004cf6:	0785                	addi	a5,a5,1
10004cf8:	20005737          	lui	a4,0x20005
10004cfc:	94c70713          	addi	a4,a4,-1716 # 2000494c <desc_str.0>
10004d00:	20e7a733          	sh1add	a4,a5,a4
10004d04:	00d71023          	sh	a3,0(a4)
10004d08:	0ff7f793          	zext.b	a5,a5
10004d0c:	bfe9                	j	10004ce6 <tud_descriptor_string_cb+0x6a>
10004d0e:	4501                	li	a0,0
10004d10:	b76d                	j	10004cba <tud_descriptor_string_cb+0x3e>

10004d12 <_retrieve_unique_id_on_boot>:
10004d12:	7139                	addi	sp,sp,-64
10004d14:	de06                	sw	ra,60(sp)
10004d16:	6515                	lui	a0,0x5
10004d18:	34750513          	addi	a0,a0,839 # 5347 <HeapSize+0x4b47>
10004d1c:	e73fd0ef          	jal	10002b8e <rom_func_lookup>
10004d20:	87aa                	mv	a5,a0
10004d22:	4605                	li	a2,1
10004d24:	45a5                	li	a1,9
10004d26:	0068                	addi	a0,sp,12
10004d28:	9782                	jalr	a5
10004d2a:	4791                	li	a5,4
10004d2c:	00f51463          	bne	a0,a5,10004d34 <_retrieve_unique_id_on_boot+0x22>
10004d30:	4701                	li	a4,0
10004d32:	a835                	j	10004d6e <_retrieve_unique_id_on_boot+0x5c>
10004d34:	100096b7          	lui	a3,0x10009
10004d38:	6b868693          	addi	a3,a3,1720 # 100096b8 <__EH_FRAME_BEGIN__+0x9f8>
10004d3c:	1000a637          	lui	a2,0x1000a
10004d40:	e3860613          	addi	a2,a2,-456 # 10009e38 <__func__.1>
10004d44:	02f00593          	li	a1,47
10004d48:	10009537          	lui	a0,0x10009
10004d4c:	6c050513          	addi	a0,a0,1728 # 100096c0 <__EH_FRAME_BEGIN__+0xa00>
10004d50:	d78ff0ef          	jal	100042c8 <__assert_func>
10004d54:	47bd                	li	a5,15
10004d56:	8f99                	sub	a5,a5,a4
10004d58:	03078793          	addi	a5,a5,48
10004d5c:	978a                	add	a5,a5,sp
10004d5e:	fdc7c683          	lbu	a3,-36(a5)
10004d62:	85718793          	addi	a5,gp,-1961 # 20004f14 <retrieved_id>
10004d66:	97ba                	add	a5,a5,a4
10004d68:	00d78023          	sb	a3,0(a5)
10004d6c:	0705                	addi	a4,a4,1
10004d6e:	479d                	li	a5,7
10004d70:	fee7d2e3          	bge	a5,a4,10004d54 <_retrieve_unique_id_on_boot+0x42>
10004d74:	50f2                	lw	ra,60(sp)
10004d76:	6121                	addi	sp,sp,64
10004d78:	8082                	ret

10004d7a <pico_get_unique_board_id_string>:
10004d7a:	c199                	beqz	a1,10004d80 <pico_get_unique_board_id_string+0x6>
10004d7c:	4701                	li	a4,0
10004d7e:	a815                	j	10004db2 <pico_get_unique_board_id_string+0x38>
10004d80:	1141                	addi	sp,sp,-16
10004d82:	c606                	sw	ra,12(sp)
10004d84:	100096b7          	lui	a3,0x10009
10004d88:	71068693          	addi	a3,a3,1808 # 10009710 <__EH_FRAME_BEGIN__+0xa50>
10004d8c:	1000a637          	lui	a2,0x1000a
10004d90:	e1860613          	addi	a2,a2,-488 # 10009e18 <__func__.0>
10004d94:	03b00593          	li	a1,59
10004d98:	10009537          	lui	a0,0x10009
10004d9c:	6c050513          	addi	a0,a0,1728 # 100096c0 <__EH_FRAME_BEGIN__+0xa00>
10004da0:	d28ff0ef          	jal	100042c8 <__assert_func>
10004da4:	03778793          	addi	a5,a5,55
10004da8:	00e506b3          	add	a3,a0,a4
10004dac:	00f68023          	sb	a5,0(a3)
10004db0:	0705                	addi	a4,a4,1
10004db2:	fff58793          	addi	a5,a1,-1
10004db6:	02f77963          	bgeu	a4,a5,10004de8 <pico_get_unique_board_id_string+0x6e>
10004dba:	47bd                	li	a5,15
10004dbc:	02e7e663          	bltu	a5,a4,10004de8 <pico_get_unique_board_id_string+0x6e>
10004dc0:	00175693          	srli	a3,a4,0x1
10004dc4:	85718793          	addi	a5,gp,-1961 # 20004f14 <retrieved_id>
10004dc8:	97b6                	add	a5,a5,a3
10004dca:	0007c783          	lbu	a5,0(a5)
10004dce:	4605                	li	a2,1
10004dd0:	40e676b3          	andn	a3,a2,a4
10004dd4:	068a                	slli	a3,a3,0x2
10004dd6:	40d7d7b3          	sra	a5,a5,a3
10004dda:	8bbd                	andi	a5,a5,15
10004ddc:	46a5                	li	a3,9
10004dde:	fcf6c3e3          	blt	a3,a5,10004da4 <pico_get_unique_board_id_string+0x2a>
10004de2:	03078793          	addi	a5,a5,48
10004de6:	b7c9                	j	10004da8 <pico_get_unique_board_id_string+0x2e>
10004de8:	953a                	add	a0,a0,a4
10004dea:	00050023          	sb	zero,0(a0)
10004dee:	8082                	ret

10004df0 <hw_endpoint_init>:
10004df0:	07f57693          	andi	a3,a0,127
10004df4:	00755793          	srli	a5,a0,0x7
10004df8:	20005737          	lui	a4,0x20005
10004dfc:	20f6a833          	sh1add	a6,a3,a5
10004e00:	0816                	slli	a6,a6,0x5
10004e02:	97470713          	addi	a4,a4,-1676 # 20004974 <hw_endpoints>
10004e06:	9742                	add	a4,a4,a6
10004e08:	00a70123          	sb	a0,2(a4)
10004e0c:	0017c513          	xori	a0,a5,1
10004e10:	00a700a3          	sb	a0,1(a4)
10004e14:	000701a3          	sb	zero,3(a4)
10004e18:	00b71c23          	sh	a1,24(a4)
10004e1c:	00c70da3          	sb	a2,27(a4)
10004e20:	efb9                	bnez	a5,10004e7e <hw_endpoint_init+0x8e>
10004e22:	00369613          	slli	a2,a3,0x3
10004e26:	0611                	addi	a2,a2,4
10004e28:	50100737          	lui	a4,0x50100
10004e2c:	08070713          	addi	a4,a4,128 # 50100080 <__StackTop+0x3007e080>
10004e30:	963a                	add	a2,a2,a4
10004e32:	20005737          	lui	a4,0x20005
10004e36:	20f6a5b3          	sh1add	a1,a3,a5
10004e3a:	0596                	slli	a1,a1,0x5
10004e3c:	97470713          	addi	a4,a4,-1676 # 20004974 <hw_endpoints>
10004e40:	972e                	add	a4,a4,a1
10004e42:	c710                	sw	a2,8(a4)
10004e44:	20005737          	lui	a4,0x20005
10004e48:	20f6a633          	sh1add	a2,a3,a5
10004e4c:	0616                	slli	a2,a2,0x5
10004e4e:	97470713          	addi	a4,a4,-1676 # 20004974 <hw_endpoints>
10004e52:	9732                	add	a4,a4,a2
10004e54:	4718                	lw	a4,8(a4)
10004e56:	00072023          	sw	zero,0(a4)
10004e5a:	ee9d                	bnez	a3,10004e98 <hw_endpoint_init+0xa8>
10004e5c:	20005737          	lui	a4,0x20005
10004e60:	20f6a7b3          	sh1add	a5,a3,a5
10004e64:	00579693          	slli	a3,a5,0x5
10004e68:	97470793          	addi	a5,a4,-1676 # 20004974 <hw_endpoints>
10004e6c:	97b6                	add	a5,a5,a3
10004e6e:	0007a223          	sw	zero,4(a5)
10004e72:	50100737          	lui	a4,0x50100
10004e76:	10070713          	addi	a4,a4,256 # 50100100 <__StackTop+0x3007e100>
10004e7a:	c7d8                	sw	a4,12(a5)
10004e7c:	8082                	ret
10004e7e:	50100637          	lui	a2,0x50100
10004e82:	08060613          	addi	a2,a2,128 # 50100080 <__StackTop+0x3007e080>
10004e86:	20c6e633          	sh3add	a2,a3,a2
10004e8a:	20005737          	lui	a4,0x20005
10004e8e:	97470713          	addi	a4,a4,-1676 # 20004974 <hw_endpoints>
10004e92:	9742                	add	a4,a4,a6
10004e94:	c710                	sw	a2,8(a4)
10004e96:	b77d                	j	10004e44 <hw_endpoint_init+0x54>
10004e98:	e39d                	bnez	a5,10004ebe <hw_endpoint_init+0xce>
10004e9a:	fff68713          	addi	a4,a3,-1
10004e9e:	070e                	slli	a4,a4,0x3
10004ea0:	0711                	addi	a4,a4,4
10004ea2:	50100637          	lui	a2,0x50100
10004ea6:	0621                	addi	a2,a2,8 # 50100008 <__StackTop+0x3007e008>
10004ea8:	9732                	add	a4,a4,a2
10004eaa:	20005637          	lui	a2,0x20005
10004eae:	20f6a6b3          	sh1add	a3,a3,a5
10004eb2:	0696                	slli	a3,a3,0x5
10004eb4:	97460793          	addi	a5,a2,-1676 # 20004974 <hw_endpoints>
10004eb8:	97b6                	add	a5,a5,a3
10004eba:	c3d8                	sw	a4,4(a5)
10004ebc:	8082                	ret
10004ebe:	fff68613          	addi	a2,a3,-1
10004ec2:	50100737          	lui	a4,0x50100
10004ec6:	0721                	addi	a4,a4,8 # 50100008 <__StackTop+0x3007e008>
10004ec8:	20e66633          	sh3add	a2,a2,a4
10004ecc:	20005737          	lui	a4,0x20005
10004ed0:	20f6a7b3          	sh1add	a5,a3,a5
10004ed4:	00579693          	slli	a3,a5,0x5
10004ed8:	97470793          	addi	a5,a4,-1676 # 20004974 <hw_endpoints>
10004edc:	97b6                	add	a5,a5,a3
10004ede:	c3d0                	sw	a2,4(a5)
10004ee0:	8082                	ret

10004ee2 <hw_endpoint_alloc>:
10004ee2:	01855783          	lhu	a5,24(a0)
10004ee6:	03f78793          	addi	a5,a5,63
10004eea:	8399                	srli	a5,a5,0x6
10004eec:	00679693          	slli	a3,a5,0x6
10004ef0:	01b54603          	lbu	a2,27(a0)
10004ef4:	4709                	li	a4,2
10004ef6:	00e60d63          	beq	a2,a4,10004f10 <hw_endpoint_alloc+0x2e>
10004efa:	8631a783          	lw	a5,-1949(gp) # 20004f20 <next_buffer_ptr>
10004efe:	c55c                	sw	a5,12(a0)
10004f00:	97b6                	add	a5,a5,a3
10004f02:	86f1a1a3          	sw	a5,-1949(gp) # 20004f20 <next_buffer_ptr>
10004f06:	50101737          	lui	a4,0x50101
10004f0a:	00e7f663          	bgeu	a5,a4,10004f16 <hw_endpoint_alloc+0x34>
10004f0e:	8082                	ret
10004f10:	00779693          	slli	a3,a5,0x7
10004f14:	b7dd                	j	10004efa <hw_endpoint_alloc+0x18>
10004f16:	1141                	addi	sp,sp,-16
10004f18:	c606                	sw	ra,12(sp)
10004f1a:	100096b7          	lui	a3,0x10009
10004f1e:	71868693          	addi	a3,a3,1816 # 10009718 <__EH_FRAME_BEGIN__+0xa58>
10004f22:	1000a637          	lui	a2,0x1000a
10004f26:	e8460613          	addi	a2,a2,-380 # 10009e84 <__func__.6>
10004f2a:	05200593          	li	a1,82
10004f2e:	10009537          	lui	a0,0x10009
10004f32:	75c50513          	addi	a0,a0,1884 # 1000975c <__EH_FRAME_BEGIN__+0xa9c>
10004f36:	b92ff0ef          	jal	100042c8 <__assert_func>

10004f3a <hw_endpoint_open>:
10004f3a:	1101                	addi	sp,sp,-32
10004f3c:	ce06                	sw	ra,28(sp)
10004f3e:	cc22                	sw	s0,24(sp)
10004f40:	ca26                	sw	s1,20(sp)
10004f42:	c84a                	sw	s2,16(sp)
10004f44:	c64e                	sw	s3,12(sp)
10004f46:	07f57493          	andi	s1,a0,127
10004f4a:	00755413          	srli	s0,a0,0x7
10004f4e:	2084a7b3          	sh1add	a5,s1,s0
10004f52:	0796                	slli	a5,a5,0x5
10004f54:	20005737          	lui	a4,0x20005
10004f58:	97470713          	addi	a4,a4,-1676 # 20004974 <hw_endpoints>
10004f5c:	97ba                	add	a5,a5,a4
10004f5e:	89be                	mv	s3,a5
10004f60:	e91ff0ef          	jal	10004df0 <hw_endpoint_init>
10004f64:	e881                	bnez	s1,10004f74 <hw_endpoint_open+0x3a>
10004f66:	40f2                	lw	ra,28(sp)
10004f68:	4462                	lw	s0,24(sp)
10004f6a:	44d2                	lw	s1,20(sp)
10004f6c:	4942                	lw	s2,16(sp)
10004f6e:	49b2                	lw	s3,12(sp)
10004f70:	6105                	addi	sp,sp,32
10004f72:	8082                	ret
10004f74:	0189d583          	lhu	a1,24(s3)
10004f78:	854e                	mv	a0,s3
10004f7a:	37a5                	jal	10004ee2 <hw_endpoint_alloc>
10004f7c:	01b9c783          	lbu	a5,27(s3)
10004f80:	07ea                	slli	a5,a5,0x1a
10004f82:	00c9a703          	lw	a4,12(s3)
10004f86:	501006b7          	lui	a3,0x50100
10004f8a:	8f35                	xor	a4,a4,a3
10004f8c:	8fd9                	or	a5,a5,a4
10004f8e:	29f79793          	bseti	a5,a5,0x1f
10004f92:	0049a703          	lw	a4,4(s3)
10004f96:	c31c                	sw	a5,0(a4)
10004f98:	b7f9                	j	10004f66 <hw_endpoint_open+0x2c>

10004f9a <hw_endpoint_xfer>:
10004f9a:	1141                	addi	sp,sp,-16
10004f9c:	c606                	sw	ra,12(sp)
10004f9e:	07f57793          	andi	a5,a0,127
10004fa2:	811d                	srli	a0,a0,0x7
10004fa4:	20a7a7b3          	sh1add	a5,a5,a0
10004fa8:	0796                	slli	a5,a5,0x5
10004faa:	20005537          	lui	a0,0x20005
10004fae:	97450513          	addi	a0,a0,-1676 # 20004974 <hw_endpoints>
10004fb2:	953e                	add	a0,a0,a5
10004fb4:	2455                	jal	10005258 <hw_endpoint_xfer_start>
10004fb6:	40b2                	lw	ra,12(sp)
10004fb8:	0141                	addi	sp,sp,16
10004fba:	8082                	ret

10004fbc <dcd_int_enable>:
10004fbc:	1141                	addi	sp,sp,-16
10004fbe:	c606                	sw	ra,12(sp)
10004fc0:	e901                	bnez	a0,10004fd0 <dcd_int_enable+0x14>
10004fc2:	4585                	li	a1,1
10004fc4:	4539                	li	a0,14
10004fc6:	da2fc0ef          	jal	10001568 <irq_set_enabled>
10004fca:	40b2                	lw	ra,12(sp)
10004fcc:	0141                	addi	sp,sp,16
10004fce:	8082                	ret
10004fd0:	100096b7          	lui	a3,0x10009
10004fd4:	7cc68693          	addi	a3,a3,1996 # 100097cc <__EH_FRAME_BEGIN__+0xb0c>
10004fd8:	1000a637          	lui	a2,0x1000a
10004fdc:	e7460613          	addi	a2,a2,-396 # 10009e74 <__func__.5>
10004fe0:	19700593          	li	a1,407
10004fe4:	10009537          	lui	a0,0x10009
10004fe8:	75c50513          	addi	a0,a0,1884 # 1000975c <__EH_FRAME_BEGIN__+0xa9c>
10004fec:	adcff0ef          	jal	100042c8 <__assert_func>

10004ff0 <dcd_set_address>:
10004ff0:	1141                	addi	sp,sp,-16
10004ff2:	c606                	sw	ra,12(sp)
10004ff4:	e909                	bnez	a0,10005006 <dcd_set_address+0x16>
10004ff6:	4601                	li	a2,0
10004ff8:	4581                	li	a1,0
10004ffa:	08000513          	li	a0,128
10004ffe:	3f71                	jal	10004f9a <hw_endpoint_xfer>
10005000:	40b2                	lw	ra,12(sp)
10005002:	0141                	addi	sp,sp,16
10005004:	8082                	ret
10005006:	100096b7          	lui	a3,0x10009
1000500a:	7cc68693          	addi	a3,a3,1996 # 100097cc <__EH_FRAME_BEGIN__+0xb0c>
1000500e:	1000a637          	lui	a2,0x1000a
10005012:	e6460613          	addi	a2,a2,-412 # 10009e64 <__func__.3>
10005016:	1a100593          	li	a1,417
1000501a:	10009537          	lui	a0,0x10009
1000501e:	75c50513          	addi	a0,a0,1884 # 1000975c <__EH_FRAME_BEGIN__+0xa9c>
10005022:	aa6ff0ef          	jal	100042c8 <__assert_func>

10005026 <dcd_connect>:
10005026:	501127b7          	lui	a5,0x50112
1000502a:	6741                	lui	a4,0x10
1000502c:	c7f8                	sw	a4,76(a5)
1000502e:	8082                	ret

10005030 <dcd_init>:
10005030:	1141                	addi	sp,sp,-16
10005032:	c606                	sw	ra,12(sp)
10005034:	c422                	sw	s0,8(sp)
10005036:	c226                	sw	s1,4(sp)
10005038:	e935                	bnez	a0,100050ac <dcd_init+0x7c>
1000503a:	842a                	mv	s0,a0
1000503c:	2af9                	jal	1000521a <rp2040_usb_init>
1000503e:	501104b7          	lui	s1,0x50110
10005042:	47b1                	li	a5,12
10005044:	dcbc                	sw	a5,120(s1)
10005046:	0ff00613          	li	a2,255
1000504a:	200005b7          	lui	a1,0x20000
1000504e:	2ea58593          	addi	a1,a1,746 # 200002ea <dcd_rp2040_irq>
10005052:	4539                	li	a0,14
10005054:	de0fc0ef          	jal	10001634 <irq_add_shared_handler>
10005058:	04000613          	li	a2,64
1000505c:	4581                	li	a1,0
1000505e:	20005537          	lui	a0,0x20005
10005062:	97450513          	addi	a0,a0,-1676 # 20004974 <hw_endpoints>
10005066:	7ec030ef          	jal	10008852 <memset>
1000506a:	4601                	li	a2,0
1000506c:	04000593          	li	a1,64
10005070:	4501                	li	a0,0
10005072:	35e1                	jal	10004f3a <hw_endpoint_open>
10005074:	4601                	li	a2,0
10005076:	04000593          	li	a1,64
1000507a:	08000513          	li	a0,128
1000507e:	ebdff0ef          	jal	10004f3a <hw_endpoint_open>
10005082:	0fffb097          	auipc	ra,0xfffb
10005086:	16e080e7          	jalr	366(ra) # 200001f0 <reset_non_control_endpoints>
1000508a:	4785                	li	a5,1
1000508c:	c0bc                	sw	a5,64(s1)
1000508e:	200007b7          	lui	a5,0x20000
10005092:	c4fc                	sw	a5,76(s1)
10005094:	67f5                	lui	a5,0x1d
10005096:	07c1                	addi	a5,a5,16 # 1d010 <HeapSize+0x1c810>
10005098:	08f4a823          	sw	a5,144(s1) # 50110090 <__StackTop+0x3008e090>
1000509c:	8522                	mv	a0,s0
1000509e:	3761                	jal	10005026 <dcd_connect>
100050a0:	4505                	li	a0,1
100050a2:	40b2                	lw	ra,12(sp)
100050a4:	4422                	lw	s0,8(sp)
100050a6:	4492                	lw	s1,4(sp)
100050a8:	0141                	addi	sp,sp,16
100050aa:	8082                	ret
100050ac:	100096b7          	lui	a3,0x10009
100050b0:	7cc68693          	addi	a3,a3,1996 # 100097cc <__EH_FRAME_BEGIN__+0xb0c>
100050b4:	1000a637          	lui	a2,0x1000a
100050b8:	e9860613          	addi	a2,a2,-360 # 10009e98 <__func__.7>
100050bc:	16300593          	li	a1,355
100050c0:	10009537          	lui	a0,0x10009
100050c4:	75c50513          	addi	a0,a0,1884 # 1000975c <__EH_FRAME_BEGIN__+0xa9c>
100050c8:	a00ff0ef          	jal	100042c8 <__assert_func>

100050cc <dcd_sof_enable>:
100050cc:	84b18fa3          	sb	a1,-1953(gp) # 20004f1c <_sof_enable>
100050d0:	c599                	beqz	a1,100050de <dcd_sof_enable+0x12>
100050d2:	501127b7          	lui	a5,0x50112
100050d6:	00020737          	lui	a4,0x20
100050da:	08e7a823          	sw	a4,144(a5) # 50112090 <__StackTop+0x30090090>
100050de:	8082                	ret

100050e0 <dcd_edpt0_status_complete>:
100050e0:	0005c783          	lbu	a5,0(a1)
100050e4:	01f7f713          	andi	a4,a5,31
100050e8:	eb09                	bnez	a4,100050fa <dcd_edpt0_status_complete+0x1a>
100050ea:	0607f793          	andi	a5,a5,96
100050ee:	e791                	bnez	a5,100050fa <dcd_edpt0_status_complete+0x1a>
100050f0:	0015c703          	lbu	a4,1(a1)
100050f4:	4795                	li	a5,5
100050f6:	00f70363          	beq	a4,a5,100050fc <dcd_edpt0_status_complete+0x1c>
100050fa:	8082                	ret
100050fc:	0025c703          	lbu	a4,2(a1)
10005100:	501107b7          	lui	a5,0x50110
10005104:	c398                	sw	a4,0(a5)
10005106:	8082                	ret

10005108 <dcd_edpt_open>:
10005108:	0035c603          	lbu	a2,3(a1)
1000510c:	8a0d                	andi	a2,a2,3
1000510e:	4705                	li	a4,1
10005110:	02e60563          	beq	a2,a4,1000513a <dcd_edpt_open+0x32>
10005114:	1141                	addi	sp,sp,-16
10005116:	c606                	sw	ra,12(sp)
10005118:	87ae                	mv	a5,a1
1000511a:	0045c703          	lbu	a4,4(a1)
1000511e:	0055c583          	lbu	a1,5(a1)
10005122:	05a2                	slli	a1,a1,0x8
10005124:	8dd9                	or	a1,a1,a4
10005126:	7ff5f593          	andi	a1,a1,2047
1000512a:	0027c503          	lbu	a0,2(a5) # 50110002 <__StackTop+0x3008e002>
1000512e:	e0dff0ef          	jal	10004f3a <hw_endpoint_open>
10005132:	4505                	li	a0,1
10005134:	40b2                	lw	ra,12(sp)
10005136:	0141                	addi	sp,sp,16
10005138:	8082                	ret
1000513a:	4501                	li	a0,0
1000513c:	8082                	ret

1000513e <dcd_edpt_close_all>:
1000513e:	1141                	addi	sp,sp,-16
10005140:	c606                	sw	ra,12(sp)
10005142:	0fffb097          	auipc	ra,0xfffb
10005146:	0ae080e7          	jalr	174(ra) # 200001f0 <reset_non_control_endpoints>
1000514a:	40b2                	lw	ra,12(sp)
1000514c:	0141                	addi	sp,sp,16
1000514e:	8082                	ret

10005150 <dcd_edpt_xfer>:
10005150:	1141                	addi	sp,sp,-16
10005152:	c606                	sw	ra,12(sp)
10005154:	e911                	bnez	a0,10005168 <dcd_edpt_xfer+0x18>
10005156:	852e                	mv	a0,a1
10005158:	85b2                	mv	a1,a2
1000515a:	8636                	mv	a2,a3
1000515c:	e3fff0ef          	jal	10004f9a <hw_endpoint_xfer>
10005160:	4505                	li	a0,1
10005162:	40b2                	lw	ra,12(sp)
10005164:	0141                	addi	sp,sp,16
10005166:	8082                	ret
10005168:	100096b7          	lui	a3,0x10009
1000516c:	7cc68693          	addi	a3,a3,1996 # 100097cc <__EH_FRAME_BEGIN__+0xb0c>
10005170:	1000a637          	lui	a2,0x1000a
10005174:	e5460613          	addi	a2,a2,-428 # 10009e54 <__func__.0>
10005178:	20400593          	li	a1,516
1000517c:	10009537          	lui	a0,0x10009
10005180:	75c50513          	addi	a0,a0,1884 # 1000975c <__EH_FRAME_BEGIN__+0xa9c>
10005184:	944ff0ef          	jal	100042c8 <__assert_func>

10005188 <dcd_edpt_stall>:
10005188:	1141                	addi	sp,sp,-16
1000518a:	c606                	sw	ra,12(sp)
1000518c:	07f5f513          	andi	a0,a1,127
10005190:	e901                	bnez	a0,100051a0 <dcd_edpt_stall+0x18>
10005192:	0075d793          	srli	a5,a1,0x7
10005196:	eb85                	bnez	a5,100051c6 <dcd_edpt_stall+0x3e>
10005198:	4709                	li	a4,2
1000519a:	501127b7          	lui	a5,0x50112
1000519e:	d7b8                	sw	a4,104(a5)
100051a0:	819d                	srli	a1,a1,0x7
100051a2:	20b52533          	sh1add	a0,a0,a1
100051a6:	0516                	slli	a0,a0,0x5
100051a8:	28b01613          	bseti	a2,zero,0xb
100051ac:	4581                	li	a1,0
100051ae:	200057b7          	lui	a5,0x20005
100051b2:	97478793          	addi	a5,a5,-1676 # 20004974 <hw_endpoints>
100051b6:	953e                	add	a0,a0,a5
100051b8:	0fffb097          	auipc	ra,0xfffb
100051bc:	544080e7          	jalr	1348(ra) # 200006fc <_hw_endpoint_buffer_control_update32>
100051c0:	40b2                	lw	ra,12(sp)
100051c2:	0141                	addi	sp,sp,16
100051c4:	8082                	ret
100051c6:	4705                	li	a4,1
100051c8:	bfc9                	j	1000519a <dcd_edpt_stall+0x12>

100051ca <dcd_edpt_clear_stall>:
100051ca:	07f5f513          	andi	a0,a1,127
100051ce:	e111                	bnez	a0,100051d2 <dcd_edpt_clear_stall+0x8>
100051d0:	8082                	ret
100051d2:	1141                	addi	sp,sp,-16
100051d4:	c606                	sw	ra,12(sp)
100051d6:	819d                	srli	a1,a1,0x7
100051d8:	20b52533          	sh1add	a0,a0,a1
100051dc:	0516                	slli	a0,a0,0x5
100051de:	200057b7          	lui	a5,0x20005
100051e2:	97478793          	addi	a5,a5,-1676 # 20004974 <hw_endpoints>
100051e6:	953e                	add	a0,a0,a5
100051e8:	000501a3          	sb	zero,3(a0)
100051ec:	4601                	li	a2,0
100051ee:	75fd                	lui	a1,0xfffff
100051f0:	7ff58593          	addi	a1,a1,2047 # fffff7ff <__StackTop+0xdff7d7ff>
100051f4:	0fffb097          	auipc	ra,0xfffb
100051f8:	508080e7          	jalr	1288(ra) # 200006fc <_hw_endpoint_buffer_control_update32>
100051fc:	40b2                	lw	ra,12(sp)
100051fe:	0141                	addi	sp,sp,16
10005200:	8082                	ret

10005202 <unaligned_memcpy>:
10005202:	a801                	j	10005212 <unaligned_memcpy+0x10>
10005204:	0005c703          	lbu	a4,0(a1)
10005208:	00e50023          	sb	a4,0(a0)
1000520c:	0585                	addi	a1,a1,1
1000520e:	0505                	addi	a0,a0,1
10005210:	863e                	mv	a2,a5
10005212:	fff60793          	addi	a5,a2,-1
10005216:	f67d                	bnez	a2,10005204 <unaligned_memcpy+0x2>
10005218:	8082                	ret

1000521a <rp2040_usb_init>:
1000521a:	1141                	addi	sp,sp,-16
1000521c:	c606                	sw	ra,12(sp)
1000521e:	100007b7          	lui	a5,0x10000
10005222:	40022737          	lui	a4,0x40022
10005226:	c31c                	sw	a5,0(a4)
10005228:	40023737          	lui	a4,0x40023
1000522c:	c31c                	sw	a5,0(a4)
1000522e:	400207b7          	lui	a5,0x40020
10005232:	479c                	lw	a5,8(a5)
10005234:	10000737          	lui	a4,0x10000
10005238:	40f777b3          	andn	a5,a4,a5
1000523c:	fbed                	bnez	a5,1000522e <rp2040_usb_init+0x14>
1000523e:	6605                	lui	a2,0x1
10005240:	4581                	li	a1,0
10005242:	50100537          	lui	a0,0x50100
10005246:	60c030ef          	jal	10008852 <memset>
1000524a:	501107b7          	lui	a5,0x50110
1000524e:	4725                	li	a4,9
10005250:	dbf8                	sw	a4,116(a5)
10005252:	40b2                	lw	ra,12(sp)
10005254:	0141                	addi	sp,sp,16
10005256:	8082                	ret

10005258 <hw_endpoint_xfer_start>:
10005258:	1141                	addi	sp,sp,-16
1000525a:	c606                	sw	ra,12(sp)
1000525c:	c422                	sw	s0,8(sp)
1000525e:	c226                	sw	s1,4(sp)
10005260:	c04a                	sw	s2,0(sp)
10005262:	842a                	mv	s0,a0
10005264:	84ae                	mv	s1,a1
10005266:	8932                	mv	s2,a2
10005268:	01a54783          	lbu	a5,26(a0) # 5010001a <__StackTop+0x3007e01a>
1000526c:	e7a1                	bnez	a5,100052b4 <hw_endpoint_xfer_start+0x5c>
1000526e:	01241a23          	sh	s2,20(s0)
10005272:	00041b23          	sh	zero,22(s0)
10005276:	4785                	li	a5,1
10005278:	00f40d23          	sb	a5,26(s0)
1000527c:	c804                	sw	s1,16(s0)
1000527e:	8522                	mv	a0,s0
10005280:	0fffb097          	auipc	ra,0xfffb
10005284:	324080e7          	jalr	804(ra) # 200005a4 <e15_is_bulkin_ep>
10005288:	c519                	beqz	a0,10005296 <hw_endpoint_xfer_start+0x3e>
1000528a:	501127b7          	lui	a5,0x50112
1000528e:	00020737          	lui	a4,0x20
10005292:	08e7a823          	sw	a4,144(a5) # 50112090 <__StackTop+0x30090090>
10005296:	8522                	mv	a0,s0
10005298:	0fffb097          	auipc	ra,0xfffb
1000529c:	338080e7          	jalr	824(ra) # 200005d0 <e15_is_critical_frame_period>
100052a0:	c905                	beqz	a0,100052d0 <hw_endpoint_xfer_start+0x78>
100052a2:	4785                	li	a5,1
100052a4:	00f40e23          	sb	a5,28(s0)
100052a8:	40b2                	lw	ra,12(sp)
100052aa:	4422                	lw	s0,8(sp)
100052ac:	4492                	lw	s1,4(sp)
100052ae:	4902                	lw	s2,0(sp)
100052b0:	0141                	addi	sp,sp,16
100052b2:	8082                	ret
100052b4:	00254583          	lbu	a1,2(a0)
100052b8:	1000a537          	lui	a0,0x1000a
100052bc:	8bc50513          	addi	a0,a0,-1860 # 100098bc <__EH_FRAME_BEGIN__+0xbfc>
100052c0:	b66ff0ef          	jal	10004626 <__wrap_printf>
100052c4:	8522                	mv	a0,s0
100052c6:	0fffb097          	auipc	ra,0xfffb
100052ca:	422080e7          	jalr	1058(ra) # 200006e8 <hw_endpoint_reset_transfer>
100052ce:	b745                	j	1000526e <hw_endpoint_xfer_start+0x16>
100052d0:	8522                	mv	a0,s0
100052d2:	0fffb097          	auipc	ra,0xfffb
100052d6:	482080e7          	jalr	1154(ra) # 20000754 <hw_endpoint_start_next_buffer>
100052da:	b7f9                	j	100052a8 <hw_endpoint_xfer_start+0x50>

100052dc <configuration_reset>:
100052dc:	1141                	addi	sp,sp,-16
100052de:	c606                	sw	ra,12(sp)
100052e0:	c422                	sw	s0,8(sp)
100052e2:	c226                	sw	s1,4(sp)
100052e4:	84aa                	mv	s1,a0
100052e6:	4401                	li	s0,0
100052e8:	a831                	j	10005304 <configuration_reset+0x28>
100052ea:	8f99                	sub	a5,a5,a4
100052ec:	0796                	slli	a5,a5,0x5
100052ee:	1000a737          	lui	a4,0x1000a
100052f2:	f6c70713          	addi	a4,a4,-148 # 10009f6c <_usbd_driver>
100052f6:	97ba                	add	a5,a5,a4
100052f8:	47dc                	lw	a5,12(a5)
100052fa:	8526                	mv	a0,s1
100052fc:	9782                	jalr	a5
100052fe:	0405                	addi	s0,s0,1
10005300:	0ff47413          	zext.b	s0,s0
10005304:	87b1c703          	lbu	a4,-1925(gp) # 20004f38 <_app_driver_count>
10005308:	87a2                	mv	a5,s0
1000530a:	00170693          	addi	a3,a4,1
1000530e:	0286c863          	blt	a3,s0,1000533e <configuration_reset+0x62>
10005312:	fce47ce3          	bgeu	s0,a4,100052ea <configuration_reset+0xe>
10005316:	87f1a783          	lw	a5,-1921(gp) # 20004f3c <_app_driver>
1000531a:	00541713          	slli	a4,s0,0x5
1000531e:	97ba                	add	a5,a5,a4
10005320:	ffe1                	bnez	a5,100052f8 <configuration_reset+0x1c>
10005322:	22500613          	li	a2,549
10005326:	1000a5b7          	lui	a1,0x1000a
1000532a:	f3858593          	addi	a1,a1,-200 # 10009f38 <__func__.10>
1000532e:	1000a537          	lui	a0,0x1000a
10005332:	8f450513          	addi	a0,a0,-1804 # 100098f4 <__EH_FRAME_BEGIN__+0xc34>
10005336:	af0ff0ef          	jal	10004626 <__wrap_printf>
1000533a:	9002                	ebreak
1000533c:	a83d                	j	1000537a <configuration_reset+0x9e>
1000533e:	05400613          	li	a2,84
10005342:	4581                	li	a1,0
10005344:	20004537          	lui	a0,0x20004
10005348:	54450513          	addi	a0,a0,1348 # 20004544 <_usbd_dev>
1000534c:	506030ef          	jal	10008852 <memset>
10005350:	20004737          	lui	a4,0x20004
10005354:	54870713          	addi	a4,a4,1352 # 20004548 <_usbd_dev+0x4>
10005358:	57fd                	li	a5,-1
1000535a:	c31c                	sw	a5,0(a4)
1000535c:	c35c                	sw	a5,4(a4)
1000535e:	c71c                	sw	a5,8(a4)
10005360:	c75c                	sw	a5,12(a4)
10005362:	20004737          	lui	a4,0x20004
10005366:	55870713          	addi	a4,a4,1368 # 20004558 <_usbd_dev+0x14>
1000536a:	c31c                	sw	a5,0(a4)
1000536c:	c35c                	sw	a5,4(a4)
1000536e:	c71c                	sw	a5,8(a4)
10005370:	c75c                	sw	a5,12(a4)
10005372:	cb1c                	sw	a5,16(a4)
10005374:	cb5c                	sw	a5,20(a4)
10005376:	cf1c                	sw	a5,24(a4)
10005378:	cf5c                	sw	a5,28(a4)
1000537a:	40b2                	lw	ra,12(sp)
1000537c:	4422                	lw	s0,8(sp)
1000537e:	4492                	lw	s1,4(sp)
10005380:	0141                	addi	sp,sp,16
10005382:	8082                	ret

10005384 <usbd_reset>:
10005384:	1141                	addi	sp,sp,-16
10005386:	c606                	sw	ra,12(sp)
10005388:	3f91                	jal	100052dc <configuration_reset>
1000538a:	126010ef          	jal	100064b0 <usbd_control_reset>
1000538e:	40b2                	lw	ra,12(sp)
10005390:	0141                	addi	sp,sp,16
10005392:	8082                	ret

10005394 <invoke_class_control>:
10005394:	1141                	addi	sp,sp,-16
10005396:	c606                	sw	ra,12(sp)
10005398:	c422                	sw	s0,8(sp)
1000539a:	c226                	sw	s1,4(sp)
1000539c:	c04a                	sw	s2,0(sp)
1000539e:	892a                	mv	s2,a0
100053a0:	842e                	mv	s0,a1
100053a2:	84b2                	mv	s1,a2
100053a4:	49c8                	lw	a0,20(a1)
100053a6:	128010ef          	jal	100064ce <usbd_control_set_complete_callback>
100053aa:	485c                	lw	a5,20(s0)
100053ac:	8626                	mv	a2,s1
100053ae:	4585                	li	a1,1
100053b0:	854a                	mv	a0,s2
100053b2:	9782                	jalr	a5
100053b4:	40b2                	lw	ra,12(sp)
100053b6:	4422                	lw	s0,8(sp)
100053b8:	4492                	lw	s1,4(sp)
100053ba:	4902                	lw	s2,0(sp)
100053bc:	0141                	addi	sp,sp,16
100053be:	8082                	ret

100053c0 <process_set_config>:
100053c0:	7179                	addi	sp,sp,-48
100053c2:	d606                	sw	ra,44(sp)
100053c4:	c85a                	sw	s6,16(sp)
100053c6:	8b2a                	mv	s6,a0
100053c8:	fff58513          	addi	a0,a1,-1
100053cc:	0ff57513          	zext.b	a0,a0
100053d0:	8a3ff0ef          	jal	10004c72 <tud_descriptor_configuration_cb>
100053d4:	c901                	beqz	a0,100053e4 <process_set_config+0x24>
100053d6:	c266                	sw	s9,4(sp)
100053d8:	00154c83          	lbu	s9,1(a0)
100053dc:	4789                	li	a5,2
100053de:	02fc8563          	beq	s9,a5,10005408 <process_set_config+0x48>
100053e2:	4c92                	lw	s9,4(sp)
100053e4:	3d600613          	li	a2,982
100053e8:	1000a5b7          	lui	a1,0x1000a
100053ec:	f0c58593          	addi	a1,a1,-244 # 10009f0c <__func__.8>
100053f0:	1000a537          	lui	a0,0x1000a
100053f4:	8f450513          	addi	a0,a0,-1804 # 100098f4 <__EH_FRAME_BEGIN__+0xc34>
100053f8:	a2eff0ef          	jal	10004626 <__wrap_printf>
100053fc:	9002                	ebreak
100053fe:	4501                	li	a0,0
10005400:	50b2                	lw	ra,44(sp)
10005402:	4b42                	lw	s6,16(sp)
10005404:	6145                	addi	sp,sp,48
10005406:	8082                	ret
10005408:	d422                	sw	s0,40(sp)
1000540a:	d226                	sw	s1,36(sp)
1000540c:	d04a                	sw	s2,32(sp)
1000540e:	ce4e                	sw	s3,28(sp)
10005410:	cc52                	sw	s4,24(sp)
10005412:	ca56                	sw	s5,20(sp)
10005414:	c65e                	sw	s7,12(sp)
10005416:	c462                	sw	s8,8(sp)
10005418:	00754703          	lbu	a4,7(a0)
1000541c:	200047b7          	lui	a5,0x20004
10005420:	54478793          	addi	a5,a5,1348 # 20004544 <_usbd_dev>
10005424:	48575613          	bexti	a2,a4,0x5
10005428:	0612                	slli	a2,a2,0x4
1000542a:	0007c683          	lbu	a3,0(a5)
1000542e:	9abd                	andi	a3,a3,-17
10005430:	8ed1                	or	a3,a3,a2
10005432:	00d78023          	sb	a3,0(a5)
10005436:	48675713          	bexti	a4,a4,0x6
1000543a:	0716                	slli	a4,a4,0x5
1000543c:	0ff6f693          	zext.b	a3,a3
10005440:	fdf6f693          	andi	a3,a3,-33
10005444:	8f55                	or	a4,a4,a3
10005446:	00e78023          	sb	a4,0(a5)
1000544a:	00950a13          	addi	s4,a0,9
1000544e:	00254703          	lbu	a4,2(a0)
10005452:	00354783          	lbu	a5,3(a0)
10005456:	07a2                	slli	a5,a5,0x8
10005458:	8fd9                	or	a5,a5,a4
1000545a:	00f50bb3          	add	s7,a0,a5
1000545e:	a295                	j	100055c2 <process_set_config+0x202>
10005460:	003a4c03          	lbu	s8,3(s4)
10005464:	000a4783          	lbu	a5,0(s4)
10005468:	9a3e                	add	s4,s4,a5
1000546a:	a2a5                	j	100055d2 <process_set_config+0x212>
1000546c:	3f100613          	li	a2,1009
10005470:	1000a5b7          	lui	a1,0x1000a
10005474:	f0c58593          	addi	a1,a1,-244 # 10009f0c <__func__.8>
10005478:	1000a537          	lui	a0,0x1000a
1000547c:	8f450513          	addi	a0,a0,-1804 # 100098f4 <__EH_FRAME_BEGIN__+0xc34>
10005480:	9a6ff0ef          	jal	10004626 <__wrap_printf>
10005484:	9002                	ebreak
10005486:	4501                	li	a0,0
10005488:	5422                	lw	s0,40(sp)
1000548a:	5492                	lw	s1,36(sp)
1000548c:	5902                	lw	s2,32(sp)
1000548e:	49f2                	lw	s3,28(sp)
10005490:	4a62                	lw	s4,24(sp)
10005492:	4ad2                	lw	s5,20(sp)
10005494:	4bb2                	lw	s7,12(sp)
10005496:	4c22                	lw	s8,8(sp)
10005498:	4c92                	lw	s9,4(sp)
1000549a:	b79d                	j	10005400 <process_set_config+0x40>
1000549c:	408a8433          	sub	s0,s5,s0
100054a0:	0416                	slli	s0,s0,0x5
100054a2:	1000a7b7          	lui	a5,0x1000a
100054a6:	f6c78793          	addi	a5,a5,-148 # 10009f6c <_usbd_driver>
100054aa:	943e                	add	s0,s0,a5
100054ac:	481c                	lw	a5,16(s0)
100054ae:	864e                	mv	a2,s3
100054b0:	85d2                	mv	a1,s4
100054b2:	855a                	mv	a0,s6
100054b4:	9782                	jalr	a5
100054b6:	892a                	mv	s2,a0
100054b8:	00953793          	sltiu	a5,a0,9
100054bc:	0017c793          	xori	a5,a5,1
100054c0:	00a9b733          	sltu	a4,s3,a0
100054c4:	00174713          	xori	a4,a4,1
100054c8:	8ff9                	and	a5,a5,a4
100054ca:	ebb9                	bnez	a5,10005520 <process_set_config+0x160>
100054cc:	0485                	addi	s1,s1,1
100054ce:	0ff4f493          	zext.b	s1,s1
100054d2:	87b1c403          	lbu	s0,-1925(gp) # 20004f38 <_app_driver_count>
100054d6:	8aa6                	mv	s5,s1
100054d8:	00140793          	addi	a5,s0,1
100054dc:	0c97ce63          	blt	a5,s1,100055b8 <process_set_config+0x1f8>
100054e0:	fa84fee3          	bgeu	s1,s0,1000549c <process_set_config+0xdc>
100054e4:	87f1a403          	lw	s0,-1921(gp) # 20004f3c <_app_driver>
100054e8:	00549793          	slli	a5,s1,0x5
100054ec:	943e                	add	s0,s0,a5
100054ee:	fc5d                	bnez	s0,100054ac <process_set_config+0xec>
100054f0:	3fa00613          	li	a2,1018
100054f4:	1000a5b7          	lui	a1,0x1000a
100054f8:	f0c58593          	addi	a1,a1,-244 # 10009f0c <__func__.8>
100054fc:	1000a537          	lui	a0,0x1000a
10005500:	8f450513          	addi	a0,a0,-1804 # 100098f4 <__EH_FRAME_BEGIN__+0xc34>
10005504:	922ff0ef          	jal	10004626 <__wrap_printf>
10005508:	9002                	ebreak
1000550a:	4501                	li	a0,0
1000550c:	5422                	lw	s0,40(sp)
1000550e:	5492                	lw	s1,36(sp)
10005510:	5902                	lw	s2,32(sp)
10005512:	49f2                	lw	s3,28(sp)
10005514:	4a62                	lw	s4,24(sp)
10005516:	4ad2                	lw	s5,20(sp)
10005518:	4bb2                	lw	s7,12(sp)
1000551a:	4c22                	lw	s8,8(sp)
1000551c:	4c92                	lw	s9,4(sp)
1000551e:	b5cd                	j	10005400 <process_set_config+0x40>
10005520:	4785                	li	a5,1
10005522:	04fc0063          	beq	s8,a5,10005562 <process_set_config+0x1a2>
10005526:	4681                	li	a3,0
10005528:	0786fe63          	bgeu	a3,s8,100055a4 <process_set_config+0x1e4>
1000552c:	002a4783          	lbu	a5,2(s4)
10005530:	97b6                	add	a5,a5,a3
10005532:	0ff7f793          	zext.b	a5,a5
10005536:	20004737          	lui	a4,0x20004
1000553a:	54470713          	addi	a4,a4,1348 # 20004544 <_usbd_dev>
1000553e:	973e                	add	a4,a4,a5
10005540:	00474603          	lbu	a2,4(a4)
10005544:	0ff00713          	li	a4,255
10005548:	02e61663          	bne	a2,a4,10005574 <process_set_config+0x1b4>
1000554c:	20004737          	lui	a4,0x20004
10005550:	54470713          	addi	a4,a4,1348 # 20004544 <_usbd_dev>
10005554:	97ba                	add	a5,a5,a4
10005556:	00978223          	sb	s1,4(a5)
1000555a:	0685                	addi	a3,a3,1
1000555c:	0ff6f693          	zext.b	a3,a3
10005560:	b7e1                	j	10005528 <process_set_config+0x168>
10005562:	4818                	lw	a4,16(s0)
10005564:	100077b7          	lui	a5,0x10007
10005568:	bda78793          	addi	a5,a5,-1062 # 10006bda <cdcd_open>
1000556c:	faf71de3          	bne	a4,a5,10005526 <process_set_config+0x166>
10005570:	8c66                	mv	s8,s9
10005572:	bf55                	j	10005526 <process_set_config+0x166>
10005574:	41900613          	li	a2,1049
10005578:	1000a5b7          	lui	a1,0x1000a
1000557c:	f0c58593          	addi	a1,a1,-244 # 10009f0c <__func__.8>
10005580:	1000a537          	lui	a0,0x1000a
10005584:	8f450513          	addi	a0,a0,-1804 # 100098f4 <__EH_FRAME_BEGIN__+0xc34>
10005588:	89eff0ef          	jal	10004626 <__wrap_printf>
1000558c:	9002                	ebreak
1000558e:	4501                	li	a0,0
10005590:	5422                	lw	s0,40(sp)
10005592:	5492                	lw	s1,36(sp)
10005594:	5902                	lw	s2,32(sp)
10005596:	49f2                	lw	s3,28(sp)
10005598:	4a62                	lw	s4,24(sp)
1000559a:	4ad2                	lw	s5,20(sp)
1000559c:	4bb2                	lw	s7,12(sp)
1000559e:	4c22                	lw	s8,8(sp)
100055a0:	4c92                	lw	s9,4(sp)
100055a2:	bdb9                	j	10005400 <process_set_config+0x40>
100055a4:	86a6                	mv	a3,s1
100055a6:	864a                	mv	a2,s2
100055a8:	85d2                	mv	a1,s4
100055aa:	20004537          	lui	a0,0x20004
100055ae:	55850513          	addi	a0,a0,1368 # 20004558 <_usbd_dev+0x14>
100055b2:	19a020ef          	jal	1000774c <tu_edpt_bind_driver>
100055b6:	9a4a                	add	s4,s4,s2
100055b8:	87b1c783          	lbu	a5,-1925(gp) # 20004f38 <_app_driver_count>
100055bc:	0785                	addi	a5,a5,1
100055be:	0357c563          	blt	a5,s5,100055e8 <process_set_config+0x228>
100055c2:	057a7b63          	bgeu	s4,s7,10005618 <process_set_config+0x258>
100055c6:	001a4703          	lbu	a4,1(s4)
100055ca:	47ad                	li	a5,11
100055cc:	e8f70ae3          	beq	a4,a5,10005460 <process_set_config+0xa0>
100055d0:	4c05                	li	s8,1
100055d2:	001a4703          	lbu	a4,1(s4)
100055d6:	4791                	li	a5,4
100055d8:	e8f71ae3          	bne	a4,a5,1000546c <process_set_config+0xac>
100055dc:	414b89b3          	sub	s3,s7,s4
100055e0:	0809c9b3          	zext.h	s3,s3
100055e4:	4481                	li	s1,0
100055e6:	b5f5                	j	100054d2 <process_set_config+0x112>
100055e8:	42800613          	li	a2,1064
100055ec:	1000a5b7          	lui	a1,0x1000a
100055f0:	f0c58593          	addi	a1,a1,-244 # 10009f0c <__func__.8>
100055f4:	1000a537          	lui	a0,0x1000a
100055f8:	8f450513          	addi	a0,a0,-1804 # 100098f4 <__EH_FRAME_BEGIN__+0xc34>
100055fc:	82aff0ef          	jal	10004626 <__wrap_printf>
10005600:	9002                	ebreak
10005602:	4501                	li	a0,0
10005604:	5422                	lw	s0,40(sp)
10005606:	5492                	lw	s1,36(sp)
10005608:	5902                	lw	s2,32(sp)
1000560a:	49f2                	lw	s3,28(sp)
1000560c:	4a62                	lw	s4,24(sp)
1000560e:	4ad2                	lw	s5,20(sp)
10005610:	4bb2                	lw	s7,12(sp)
10005612:	4c22                	lw	s8,8(sp)
10005614:	4c92                	lw	s9,4(sp)
10005616:	b3ed                	j	10005400 <process_set_config+0x40>
10005618:	4505                	li	a0,1
1000561a:	5422                	lw	s0,40(sp)
1000561c:	5492                	lw	s1,36(sp)
1000561e:	5902                	lw	s2,32(sp)
10005620:	49f2                	lw	s3,28(sp)
10005622:	4a62                	lw	s4,24(sp)
10005624:	4ad2                	lw	s5,20(sp)
10005626:	4bb2                	lw	s7,12(sp)
10005628:	4c22                	lw	s8,8(sp)
1000562a:	4c92                	lw	s9,4(sp)
1000562c:	bbd1                	j	10005400 <process_set_config+0x40>

1000562e <tud_event_hook_cb>:
1000562e:	8082                	ret

10005630 <tud_sof_cb>:
10005630:	8082                	ret

10005632 <tud_descriptor_device_qualifier_cb>:
10005632:	4501                	li	a0,0
10005634:	8082                	ret

10005636 <tud_descriptor_other_speed_configuration_cb>:
10005636:	4501                	li	a0,0
10005638:	8082                	ret

1000563a <process_get_descriptor>:
1000563a:	1141                	addi	sp,sp,-16
1000563c:	c606                	sw	ra,12(sp)
1000563e:	c422                	sw	s0,8(sp)
10005640:	c226                	sw	s1,4(sp)
10005642:	84aa                	mv	s1,a0
10005644:	842e                	mv	s0,a1
10005646:	0025c503          	lbu	a0,2(a1)
1000564a:	0035c783          	lbu	a5,3(a1)
1000564e:	07a2                	slli	a5,a5,0x8
10005650:	83a1                	srli	a5,a5,0x8
10005652:	4719                	li	a4,6
10005654:	0ee78863          	beq	a5,a4,10005744 <process_get_descriptor+0x10a>
10005658:	02f76763          	bltu	a4,a5,10005686 <process_get_descriptor+0x4c>
1000565c:	4709                	li	a4,2
1000565e:	06e78a63          	beq	a5,a4,100056d2 <process_get_descriptor+0x98>
10005662:	470d                	li	a4,3
10005664:	0ae78f63          	beq	a5,a4,10005722 <process_get_descriptor+0xe8>
10005668:	4705                	li	a4,1
1000566a:	00e79c63          	bne	a5,a4,10005682 <process_get_descriptor+0x48>
1000566e:	dfaff0ef          	jal	10004c68 <tud_descriptor_device_cb>
10005672:	862a                	mv	a2,a0
10005674:	c121                	beqz	a0,100056b4 <process_get_descriptor+0x7a>
10005676:	46c9                	li	a3,18
10005678:	85a2                	mv	a1,s0
1000567a:	8526                	mv	a0,s1
1000567c:	549000ef          	jal	100063c4 <tud_control_xfer>
10005680:	a88d                	j	100056f2 <process_get_descriptor+0xb8>
10005682:	4501                	li	a0,0
10005684:	a0bd                	j	100056f2 <process_get_descriptor+0xb8>
10005686:	471d                	li	a4,7
10005688:	04e78563          	beq	a5,a4,100056d2 <process_get_descriptor+0x98>
1000568c:	473d                	li	a4,15
1000568e:	02e79163          	bne	a5,a4,100056b0 <process_get_descriptor+0x76>
10005692:	86eff0ef          	jal	10004700 <tud_descriptor_bos_cb>
10005696:	862a                	mv	a2,a0
10005698:	c169                	beqz	a0,1000575a <process_get_descriptor+0x120>
1000569a:	00254683          	lbu	a3,2(a0)
1000569e:	00354783          	lbu	a5,3(a0)
100056a2:	07a2                	slli	a5,a5,0x8
100056a4:	8edd                	or	a3,a3,a5
100056a6:	85a2                	mv	a1,s0
100056a8:	8526                	mv	a0,s1
100056aa:	51b000ef          	jal	100063c4 <tud_control_xfer>
100056ae:	a091                	j	100056f2 <process_get_descriptor+0xb8>
100056b0:	4501                	li	a0,0
100056b2:	a081                	j	100056f2 <process_get_descriptor+0xb8>
100056b4:	43a00613          	li	a2,1082
100056b8:	1000a5b7          	lui	a1,0x1000a
100056bc:	ef458593          	addi	a1,a1,-268 # 10009ef4 <__func__.7>
100056c0:	1000a537          	lui	a0,0x1000a
100056c4:	8f450513          	addi	a0,a0,-1804 # 100098f4 <__EH_FRAME_BEGIN__+0xc34>
100056c8:	f5ffe0ef          	jal	10004626 <__wrap_printf>
100056cc:	9002                	ebreak
100056ce:	4501                	li	a0,0
100056d0:	a00d                	j	100056f2 <process_get_descriptor+0xb8>
100056d2:	4709                	li	a4,2
100056d4:	02e78463          	beq	a5,a4,100056fc <process_get_descriptor+0xc2>
100056d8:	3fb9                	jal	10005636 <tud_descriptor_other_speed_configuration_cb>
100056da:	862a                	mv	a2,a0
100056dc:	c149                	beqz	a0,1000575e <process_get_descriptor+0x124>
100056de:	00264683          	lbu	a3,2(a2) # 1002 <HeapSize+0x802>
100056e2:	00364783          	lbu	a5,3(a2)
100056e6:	07a2                	slli	a5,a5,0x8
100056e8:	8edd                	or	a3,a3,a5
100056ea:	85a2                	mv	a1,s0
100056ec:	8526                	mv	a0,s1
100056ee:	4d7000ef          	jal	100063c4 <tud_control_xfer>
100056f2:	40b2                	lw	ra,12(sp)
100056f4:	4422                	lw	s0,8(sp)
100056f6:	4492                	lw	s1,4(sp)
100056f8:	0141                	addi	sp,sp,16
100056fa:	8082                	ret
100056fc:	d76ff0ef          	jal	10004c72 <tud_descriptor_configuration_cb>
10005700:	862a                	mv	a2,a0
10005702:	fd71                	bnez	a0,100056de <process_get_descriptor+0xa4>
10005704:	46100613          	li	a2,1121
10005708:	1000a5b7          	lui	a1,0x1000a
1000570c:	ef458593          	addi	a1,a1,-268 # 10009ef4 <__func__.7>
10005710:	1000a537          	lui	a0,0x1000a
10005714:	8f450513          	addi	a0,a0,-1804 # 100098f4 <__EH_FRAME_BEGIN__+0xc34>
10005718:	f0ffe0ef          	jal	10004626 <__wrap_printf>
1000571c:	9002                	ebreak
1000571e:	4501                	li	a0,0
10005720:	bfc9                	j	100056f2 <process_get_descriptor+0xb8>
10005722:	0045c583          	lbu	a1,4(a1)
10005726:	00544783          	lbu	a5,5(s0)
1000572a:	07a2                	slli	a5,a5,0x8
1000572c:	8ddd                	or	a1,a1,a5
1000572e:	d4eff0ef          	jal	10004c7c <tud_descriptor_string_cb>
10005732:	862a                	mv	a2,a0
10005734:	c51d                	beqz	a0,10005762 <process_get_descriptor+0x128>
10005736:	00054683          	lbu	a3,0(a0)
1000573a:	85a2                	mv	a1,s0
1000573c:	8526                	mv	a0,s1
1000573e:	487000ef          	jal	100063c4 <tud_control_xfer>
10005742:	bf45                	j	100056f2 <process_get_descriptor+0xb8>
10005744:	eefff0ef          	jal	10005632 <tud_descriptor_device_qualifier_cb>
10005748:	862a                	mv	a2,a0
1000574a:	cd11                	beqz	a0,10005766 <process_get_descriptor+0x12c>
1000574c:	00054683          	lbu	a3,0(a0)
10005750:	85a2                	mv	a1,s0
10005752:	8526                	mv	a0,s1
10005754:	471000ef          	jal	100063c4 <tud_control_xfer>
10005758:	bf69                	j	100056f2 <process_get_descriptor+0xb8>
1000575a:	4501                	li	a0,0
1000575c:	bf59                	j	100056f2 <process_get_descriptor+0xb8>
1000575e:	4501                	li	a0,0
10005760:	bf49                	j	100056f2 <process_get_descriptor+0xb8>
10005762:	4501                	li	a0,0
10005764:	b779                	j	100056f2 <process_get_descriptor+0xb8>
10005766:	4501                	li	a0,0
10005768:	b769                	j	100056f2 <process_get_descriptor+0xb8>

1000576a <tud_mount_cb>:
1000576a:	8082                	ret

1000576c <tud_umount_cb>:
1000576c:	8082                	ret

1000576e <tud_suspend_cb>:
1000576e:	8082                	ret

10005770 <tud_resume_cb>:
10005770:	8082                	ret

10005772 <tud_mounted>:
10005772:	200047b7          	lui	a5,0x20004
10005776:	54478793          	addi	a5,a5,1348 # 20004544 <_usbd_dev>
1000577a:	0017c503          	lbu	a0,1(a5)
1000577e:	00a03533          	snez	a0,a0
10005782:	8082                	ret

10005784 <tud_suspended>:
10005784:	200047b7          	lui	a5,0x20004
10005788:	5447a503          	lw	a0,1348(a5) # 20004544 <_usbd_dev>
1000578c:	48255513          	bexti	a0,a0,0x2
10005790:	8082                	ret

10005792 <tud_inited>:
10005792:	200047b7          	lui	a5,0x20004
10005796:	f217c503          	lbu	a0,-223(a5) # 20003f21 <_usbd_rhport>
1000579a:	f0150513          	addi	a0,a0,-255
1000579e:	00a03533          	snez	a0,a0
100057a2:	8082                	ret

100057a4 <tud_rhport_init>:
100057a4:	1101                	addi	sp,sp,-32
100057a6:	ce06                	sw	ra,28(sp)
100057a8:	cc22                	sw	s0,24(sp)
100057aa:	ca26                	sw	s1,20(sp)
100057ac:	c84a                	sw	s2,16(sp)
100057ae:	c64e                	sw	s3,12(sp)
100057b0:	892a                	mv	s2,a0
100057b2:	842e                	mv	s0,a1
100057b4:	89ae                	mv	s3,a1
100057b6:	3ff1                	jal	10005792 <tud_inited>
100057b8:	84aa                	mv	s1,a0
100057ba:	0c051a63          	bnez	a0,1000588e <tud_rhport_init+0xea>
100057be:	c02d                	beqz	s0,10005820 <tud_rhport_init+0x7c>
100057c0:	05400613          	li	a2,84
100057c4:	4581                	li	a1,0
100057c6:	20004537          	lui	a0,0x20004
100057ca:	54450513          	addi	a0,a0,1348 # 20004544 <_usbd_dev>
100057ce:	084030ef          	jal	10008852 <memset>
100057d2:	880181a3          	sb	zero,-1917(gp) # 20004f40 <_usbd_queued_setup>
100057d6:	86f18513          	addi	a0,gp,-1937 # 20004f2c <_ubsd_mutexdef>
100057da:	b28fc0ef          	jal	10001b02 <mutex_init>
100057de:	86f18413          	addi	s0,gp,-1937 # 20004f2c <_ubsd_mutexdef>
100057e2:	8681a5a3          	sw	s0,-1941(gp) # 20004f28 <_usbd_mutex>
100057e6:	20004537          	lui	a0,0x20004
100057ea:	dd450513          	addi	a0,a0,-556 # 20003dd4 <_usbd_qdef+0x14>
100057ee:	bccfc0ef          	jal	10001bba <critical_section_init>
100057f2:	20004437          	lui	s0,0x20004
100057f6:	dc040513          	addi	a0,s0,-576 # 20003dc0 <_usbd_qdef>
100057fa:	0af020ef          	jal	100080a8 <tu_fifo_clear>
100057fe:	dc040413          	addi	s0,s0,-576
10005802:	8681aba3          	sw	s0,-1929(gp) # 20004f34 <_usbd_q>
10005806:	100047b7          	lui	a5,0x10004
1000580a:	75478793          	addi	a5,a5,1876 # 10004754 <usbd_app_driver_get_cb>
1000580e:	c799                	beqz	a5,1000581c <tud_rhport_init+0x78>
10005810:	87b18513          	addi	a0,gp,-1925 # 20004f38 <_app_driver_count>
10005814:	f41fe0ef          	jal	10004754 <usbd_app_driver_get_cb>
10005818:	86a1afa3          	sw	a0,-1921(gp) # 20004f3c <_app_driver>
1000581c:	4401                	li	s0,0
1000581e:	a825                	j	10005856 <tud_rhport_init+0xb2>
10005820:	1d200613          	li	a2,466
10005824:	1000a5b7          	lui	a1,0x1000a
10005828:	f5c58593          	addi	a1,a1,-164 # 10009f5c <__func__.12>
1000582c:	1000a537          	lui	a0,0x1000a
10005830:	8f450513          	addi	a0,a0,-1804 # 100098f4 <__EH_FRAME_BEGIN__+0xc34>
10005834:	df3fe0ef          	jal	10004626 <__wrap_printf>
10005838:	9002                	ebreak
1000583a:	a891                	j	1000588e <tud_rhport_init+0xea>
1000583c:	8f99                	sub	a5,a5,a4
1000583e:	0796                	slli	a5,a5,0x5
10005840:	1000a737          	lui	a4,0x1000a
10005844:	f6c70713          	addi	a4,a4,-148 # 10009f6c <_usbd_driver>
10005848:	97ba                	add	a5,a5,a4
1000584a:	43dc                	lw	a5,4(a5)
1000584c:	c785                	beqz	a5,10005874 <tud_rhport_init+0xd0>
1000584e:	9782                	jalr	a5
10005850:	0405                	addi	s0,s0,1
10005852:	0ff47413          	zext.b	s0,s0
10005856:	87b1c703          	lbu	a4,-1925(gp) # 20004f38 <_app_driver_count>
1000585a:	87a2                	mv	a5,s0
1000585c:	00170693          	addi	a3,a4,1
10005860:	0286cf63          	blt	a3,s0,1000589e <tud_rhport_init+0xfa>
10005864:	fce47ce3          	bgeu	s0,a4,1000583c <tud_rhport_init+0x98>
10005868:	87f1a783          	lw	a5,-1921(gp) # 20004f3c <_app_driver>
1000586c:	00541713          	slli	a4,s0,0x5
10005870:	97ba                	add	a5,a5,a4
10005872:	ffe1                	bnez	a5,1000584a <tud_rhport_init+0xa6>
10005874:	1f000613          	li	a2,496
10005878:	1000a5b7          	lui	a1,0x1000a
1000587c:	f5c58593          	addi	a1,a1,-164 # 10009f5c <__func__.12>
10005880:	1000a537          	lui	a0,0x1000a
10005884:	8f450513          	addi	a0,a0,-1804 # 100098f4 <__EH_FRAME_BEGIN__+0xc34>
10005888:	d9ffe0ef          	jal	10004626 <__wrap_printf>
1000588c:	9002                	ebreak
1000588e:	8526                	mv	a0,s1
10005890:	40f2                	lw	ra,28(sp)
10005892:	4462                	lw	s0,24(sp)
10005894:	44d2                	lw	s1,20(sp)
10005896:	4942                	lw	s2,16(sp)
10005898:	49b2                	lw	s3,12(sp)
1000589a:	6105                	addi	sp,sp,32
1000589c:	8082                	ret
1000589e:	200047b7          	lui	a5,0x20004
100058a2:	f32780a3          	sb	s2,-223(a5) # 20003f21 <_usbd_rhport>
100058a6:	85ce                	mv	a1,s3
100058a8:	854a                	mv	a0,s2
100058aa:	f86ff0ef          	jal	10005030 <dcd_init>
100058ae:	84aa                	mv	s1,a0
100058b0:	c509                	beqz	a0,100058ba <tud_rhport_init+0x116>
100058b2:	854a                	mv	a0,s2
100058b4:	f08ff0ef          	jal	10004fbc <dcd_int_enable>
100058b8:	bfd9                	j	1000588e <tud_rhport_init+0xea>
100058ba:	1f800613          	li	a2,504
100058be:	1000a5b7          	lui	a1,0x1000a
100058c2:	f5c58593          	addi	a1,a1,-164 # 10009f5c <__func__.12>
100058c6:	1000a537          	lui	a0,0x1000a
100058ca:	8f450513          	addi	a0,a0,-1804 # 100098f4 <__EH_FRAME_BEGIN__+0xc34>
100058ce:	d59fe0ef          	jal	10004626 <__wrap_printf>
100058d2:	9002                	ebreak
100058d4:	bf6d                	j	1000588e <tud_rhport_init+0xea>

100058d6 <usbd_edpt_open>:
100058d6:	1141                	addi	sp,sp,-16
100058d8:	c606                	sw	ra,12(sp)
100058da:	c226                	sw	s1,4(sp)
100058dc:	c04a                	sw	s2,0(sp)
100058de:	200047b7          	lui	a5,0x20004
100058e2:	f217c783          	lbu	a5,-223(a5) # 20003f21 <_usbd_rhport>
100058e6:	893e                	mv	s2,a5
100058e8:	0025c783          	lbu	a5,2(a1)
100058ec:	0707f793          	andi	a5,a5,112
100058f0:	eb95                	bnez	a5,10005924 <usbd_edpt_open+0x4e>
100058f2:	c422                	sw	s0,8(sp)
100058f4:	842e                	mv	s0,a1
100058f6:	200047b7          	lui	a5,0x20004
100058fa:	54478793          	addi	a5,a5,1348 # 20004544 <_usbd_dev>
100058fe:	0027c583          	lbu	a1,2(a5)
10005902:	8522                	mv	a0,s0
10005904:	54f010ef          	jal	10007652 <tu_edpt_validate>
10005908:	84aa                	mv	s1,a0
1000590a:	cd05                	beqz	a0,10005942 <usbd_edpt_open+0x6c>
1000590c:	85a2                	mv	a1,s0
1000590e:	854a                	mv	a0,s2
10005910:	ff8ff0ef          	jal	10005108 <dcd_edpt_open>
10005914:	84aa                	mv	s1,a0
10005916:	4422                	lw	s0,8(sp)
10005918:	8526                	mv	a0,s1
1000591a:	40b2                	lw	ra,12(sp)
1000591c:	4492                	lw	s1,4(sp)
1000591e:	4902                	lw	s2,0(sp)
10005920:	0141                	addi	sp,sp,16
10005922:	8082                	ret
10005924:	50b00613          	li	a2,1291
10005928:	1000a5b7          	lui	a1,0x1000a
1000592c:	ec458593          	addi	a1,a1,-316 # 10009ec4 <__func__.4>
10005930:	1000a537          	lui	a0,0x1000a
10005934:	8f450513          	addi	a0,a0,-1804 # 100098f4 <__EH_FRAME_BEGIN__+0xc34>
10005938:	ceffe0ef          	jal	10004626 <__wrap_printf>
1000593c:	9002                	ebreak
1000593e:	4481                	li	s1,0
10005940:	bfe1                	j	10005918 <usbd_edpt_open+0x42>
10005942:	50c00613          	li	a2,1292
10005946:	1000a5b7          	lui	a1,0x1000a
1000594a:	ec458593          	addi	a1,a1,-316 # 10009ec4 <__func__.4>
1000594e:	1000a537          	lui	a0,0x1000a
10005952:	8f450513          	addi	a0,a0,-1804 # 100098f4 <__EH_FRAME_BEGIN__+0xc34>
10005956:	cd1fe0ef          	jal	10004626 <__wrap_printf>
1000595a:	9002                	ebreak
1000595c:	4422                	lw	s0,8(sp)
1000595e:	bf6d                	j	10005918 <usbd_edpt_open+0x42>

10005960 <usbd_open_edpt_pair>:
10005960:	7179                	addi	sp,sp,-48
10005962:	d606                	sw	ra,44(sp)
10005964:	d422                	sw	s0,40(sp)
10005966:	d226                	sw	s1,36(sp)
10005968:	d04a                	sw	s2,32(sp)
1000596a:	ce4e                	sw	s3,28(sp)
1000596c:	cc52                	sw	s4,24(sp)
1000596e:	ca56                	sw	s5,20(sp)
10005970:	c85a                	sw	s6,16(sp)
10005972:	c65e                	sw	s7,12(sp)
10005974:	8aaa                	mv	s5,a0
10005976:	842e                	mv	s0,a1
10005978:	89b2                	mv	s3,a2
1000597a:	8a36                	mv	s4,a3
1000597c:	8b3a                	mv	s6,a4
1000597e:	8bbe                	mv	s7,a5
10005980:	4901                	li	s2,0
10005982:	a8b9                	j	100059e0 <usbd_open_edpt_pair+0x80>
10005984:	4e700613          	li	a2,1255
10005988:	1000a5b7          	lui	a1,0x1000a
1000598c:	ed458593          	addi	a1,a1,-300 # 10009ed4 <__func__.5>
10005990:	1000a537          	lui	a0,0x1000a
10005994:	8f450513          	addi	a0,a0,-1804 # 100098f4 <__EH_FRAME_BEGIN__+0xc34>
10005998:	c8ffe0ef          	jal	10004626 <__wrap_printf>
1000599c:	9002                	ebreak
1000599e:	4481                	li	s1,0
100059a0:	8526                	mv	a0,s1
100059a2:	50b2                	lw	ra,44(sp)
100059a4:	5422                	lw	s0,40(sp)
100059a6:	5492                	lw	s1,36(sp)
100059a8:	5902                	lw	s2,32(sp)
100059aa:	49f2                	lw	s3,28(sp)
100059ac:	4a62                	lw	s4,24(sp)
100059ae:	4ad2                	lw	s5,20(sp)
100059b0:	4b42                	lw	s6,16(sp)
100059b2:	4bb2                	lw	s7,12(sp)
100059b4:	6145                	addi	sp,sp,48
100059b6:	8082                	ret
100059b8:	4e800613          	li	a2,1256
100059bc:	1000a5b7          	lui	a1,0x1000a
100059c0:	ed458593          	addi	a1,a1,-300 # 10009ed4 <__func__.5>
100059c4:	1000a537          	lui	a0,0x1000a
100059c8:	8f450513          	addi	a0,a0,-1804 # 100098f4 <__EH_FRAME_BEGIN__+0xc34>
100059cc:	c5bfe0ef          	jal	10004626 <__wrap_printf>
100059d0:	9002                	ebreak
100059d2:	b7f9                	j	100059a0 <usbd_open_edpt_pair+0x40>
100059d4:	00bb8023          	sb	a1,0(s7)
100059d8:	00044783          	lbu	a5,0(s0)
100059dc:	943e                	add	s0,s0,a5
100059de:	0905                	addi	s2,s2,1
100059e0:	03395a63          	bge	s2,s3,10005a14 <usbd_open_edpt_pair+0xb4>
100059e4:	00144703          	lbu	a4,1(s0)
100059e8:	4795                	li	a5,5
100059ea:	f8f71de3          	bne	a4,a5,10005984 <usbd_open_edpt_pair+0x24>
100059ee:	00344583          	lbu	a1,3(s0)
100059f2:	898d                	andi	a1,a1,3
100059f4:	f94598e3          	bne	a1,s4,10005984 <usbd_open_edpt_pair+0x24>
100059f8:	85a2                	mv	a1,s0
100059fa:	8556                	mv	a0,s5
100059fc:	edbff0ef          	jal	100058d6 <usbd_edpt_open>
10005a00:	84aa                	mv	s1,a0
10005a02:	d95d                	beqz	a0,100059b8 <usbd_open_edpt_pair+0x58>
10005a04:	00244583          	lbu	a1,2(s0)
10005a08:	0075d793          	srli	a5,a1,0x7
10005a0c:	f7e1                	bnez	a5,100059d4 <usbd_open_edpt_pair+0x74>
10005a0e:	00bb0023          	sb	a1,0(s6)
10005a12:	b7d9                	j	100059d8 <usbd_open_edpt_pair+0x78>
10005a14:	4485                	li	s1,1
10005a16:	b769                	j	100059a0 <usbd_open_edpt_pair+0x40>

10005a18 <usbd_edpt_claim>:
10005a18:	1141                	addi	sp,sp,-16
10005a1a:	c606                	sw	ra,12(sp)
10005a1c:	07f5f513          	andi	a0,a1,127
10005a20:	819d                	srli	a1,a1,0x7
10005a22:	20b52533          	sh1add	a0,a0,a1
10005a26:	03050513          	addi	a0,a0,48
10005a2a:	200047b7          	lui	a5,0x20004
10005a2e:	54478793          	addi	a5,a5,1348 # 20004544 <_usbd_dev>
10005a32:	953e                	add	a0,a0,a5
10005a34:	86b1a583          	lw	a1,-1941(gp) # 20004f28 <_usbd_mutex>
10005a38:	0511                	addi	a0,a0,4
10005a3a:	34b010ef          	jal	10007584 <tu_edpt_claim>
10005a3e:	40b2                	lw	ra,12(sp)
10005a40:	0141                	addi	sp,sp,16
10005a42:	8082                	ret

10005a44 <usbd_edpt_release>:
10005a44:	1141                	addi	sp,sp,-16
10005a46:	c606                	sw	ra,12(sp)
10005a48:	07f5f513          	andi	a0,a1,127
10005a4c:	819d                	srli	a1,a1,0x7
10005a4e:	20b52533          	sh1add	a0,a0,a1
10005a52:	03050513          	addi	a0,a0,48
10005a56:	200047b7          	lui	a5,0x20004
10005a5a:	54478793          	addi	a5,a5,1348 # 20004544 <_usbd_dev>
10005a5e:	953e                	add	a0,a0,a5
10005a60:	86b1a583          	lw	a1,-1941(gp) # 20004f28 <_usbd_mutex>
10005a64:	0511                	addi	a0,a0,4
10005a66:	399010ef          	jal	100075fe <tu_edpt_release>
10005a6a:	40b2                	lw	ra,12(sp)
10005a6c:	0141                	addi	sp,sp,16
10005a6e:	8082                	ret

10005a70 <usbd_edpt_xfer>:
10005a70:	1141                	addi	sp,sp,-16
10005a72:	c606                	sw	ra,12(sp)
10005a74:	c422                	sw	s0,8(sp)
10005a76:	c226                	sw	s1,4(sp)
10005a78:	200047b7          	lui	a5,0x20004
10005a7c:	f217c503          	lbu	a0,-223(a5) # 20003f21 <_usbd_rhport>
10005a80:	07f5f413          	andi	s0,a1,127
10005a84:	0075d493          	srli	s1,a1,0x7
10005a88:	200047b7          	lui	a5,0x20004
10005a8c:	54478793          	addi	a5,a5,1348 # 20004544 <_usbd_dev>
10005a90:	20f427b3          	sh1add	a5,s0,a5
10005a94:	97a6                	add	a5,a5,s1
10005a96:	0347c783          	lbu	a5,52(a5)
10005a9a:	8b85                	andi	a5,a5,1
10005a9c:	e7a1                	bnez	a5,10005ae4 <usbd_edpt_xfer+0x74>
10005a9e:	200047b7          	lui	a5,0x20004
10005aa2:	54478793          	addi	a5,a5,1348 # 20004544 <_usbd_dev>
10005aa6:	20f427b3          	sh1add	a5,s0,a5
10005aaa:	97a6                	add	a5,a5,s1
10005aac:	0347c703          	lbu	a4,52(a5)
10005ab0:	00176713          	ori	a4,a4,1
10005ab4:	02e78a23          	sb	a4,52(a5)
10005ab8:	e98ff0ef          	jal	10005150 <dcd_edpt_xfer>
10005abc:	e131                	bnez	a0,10005b00 <usbd_edpt_xfer+0x90>
10005abe:	200047b7          	lui	a5,0x20004
10005ac2:	54478793          	addi	a5,a5,1348 # 20004544 <_usbd_dev>
10005ac6:	20f42433          	sh1add	s0,s0,a5
10005aca:	9426                	add	s0,s0,s1
10005acc:	03444783          	lbu	a5,52(s0)
10005ad0:	9bf9                	andi	a5,a5,-2
10005ad2:	02f40a23          	sb	a5,52(s0)
10005ad6:	03444783          	lbu	a5,52(s0)
10005ada:	9bed                	andi	a5,a5,-5
10005adc:	02f40a23          	sb	a5,52(s0)
10005ae0:	9002                	ebreak
10005ae2:	a839                	j	10005b00 <usbd_edpt_xfer+0x90>
10005ae4:	53900613          	li	a2,1337
10005ae8:	1000a5b7          	lui	a1,0x1000a
10005aec:	eb458593          	addi	a1,a1,-332 # 10009eb4 <__func__.3>
10005af0:	1000a537          	lui	a0,0x1000a
10005af4:	8f450513          	addi	a0,a0,-1804 # 100098f4 <__EH_FRAME_BEGIN__+0xc34>
10005af8:	b2ffe0ef          	jal	10004626 <__wrap_printf>
10005afc:	9002                	ebreak
10005afe:	4501                	li	a0,0
10005b00:	40b2                	lw	ra,12(sp)
10005b02:	4422                	lw	s0,8(sp)
10005b04:	4492                	lw	s1,4(sp)
10005b06:	0141                	addi	sp,sp,16
10005b08:	8082                	ret

10005b0a <usbd_edpt_stall>:
10005b0a:	1141                	addi	sp,sp,-16
10005b0c:	c606                	sw	ra,12(sp)
10005b0e:	c422                	sw	s0,8(sp)
10005b10:	c226                	sw	s1,4(sp)
10005b12:	84ae                	mv	s1,a1
10005b14:	07f5f413          	andi	s0,a1,127
10005b18:	200047b7          	lui	a5,0x20004
10005b1c:	f217c503          	lbu	a0,-223(a5) # 20003f21 <_usbd_rhport>
10005b20:	e68ff0ef          	jal	10005188 <dcd_edpt_stall>
10005b24:	809d                	srli	s1,s1,0x7
10005b26:	200047b7          	lui	a5,0x20004
10005b2a:	54478793          	addi	a5,a5,1348 # 20004544 <_usbd_dev>
10005b2e:	20f427b3          	sh1add	a5,s0,a5
10005b32:	97a6                	add	a5,a5,s1
10005b34:	0347c703          	lbu	a4,52(a5)
10005b38:	00276713          	ori	a4,a4,2
10005b3c:	02e78a23          	sb	a4,52(a5)
10005b40:	0347c703          	lbu	a4,52(a5)
10005b44:	00176713          	ori	a4,a4,1
10005b48:	02e78a23          	sb	a4,52(a5)
10005b4c:	40b2                	lw	ra,12(sp)
10005b4e:	4422                	lw	s0,8(sp)
10005b50:	4492                	lw	s1,4(sp)
10005b52:	0141                	addi	sp,sp,16
10005b54:	8082                	ret

10005b56 <usbd_edpt_clear_stall>:
10005b56:	1141                	addi	sp,sp,-16
10005b58:	c606                	sw	ra,12(sp)
10005b5a:	c422                	sw	s0,8(sp)
10005b5c:	c226                	sw	s1,4(sp)
10005b5e:	84ae                	mv	s1,a1
10005b60:	07f5f413          	andi	s0,a1,127
10005b64:	200047b7          	lui	a5,0x20004
10005b68:	f217c503          	lbu	a0,-223(a5) # 20003f21 <_usbd_rhport>
10005b6c:	e5eff0ef          	jal	100051ca <dcd_edpt_clear_stall>
10005b70:	809d                	srli	s1,s1,0x7
10005b72:	200047b7          	lui	a5,0x20004
10005b76:	54478793          	addi	a5,a5,1348 # 20004544 <_usbd_dev>
10005b7a:	20f427b3          	sh1add	a5,s0,a5
10005b7e:	97a6                	add	a5,a5,s1
10005b80:	0347c703          	lbu	a4,52(a5)
10005b84:	9b75                	andi	a4,a4,-3
10005b86:	02e78a23          	sb	a4,52(a5)
10005b8a:	0347c703          	lbu	a4,52(a5)
10005b8e:	9b79                	andi	a4,a4,-2
10005b90:	02e78a23          	sb	a4,52(a5)
10005b94:	40b2                	lw	ra,12(sp)
10005b96:	4422                	lw	s0,8(sp)
10005b98:	4492                	lw	s1,4(sp)
10005b9a:	0141                	addi	sp,sp,16
10005b9c:	8082                	ret

10005b9e <usbd_edpt_stalled>:
10005b9e:	07f5f793          	andi	a5,a1,127
10005ba2:	819d                	srli	a1,a1,0x7
10005ba4:	20004737          	lui	a4,0x20004
10005ba8:	54470713          	addi	a4,a4,1348 # 20004544 <_usbd_dev>
10005bac:	20e7a7b3          	sh1add	a5,a5,a4
10005bb0:	97ae                	add	a5,a5,a1
10005bb2:	0347c503          	lbu	a0,52(a5)
10005bb6:	48155513          	bexti	a0,a0,0x1
10005bba:	8082                	ret

10005bbc <process_control_request>:
10005bbc:	7179                	addi	sp,sp,-48
10005bbe:	d606                	sw	ra,44(sp)
10005bc0:	d422                	sw	s0,40(sp)
10005bc2:	d226                	sw	s1,36(sp)
10005bc4:	d04a                	sw	s2,32(sp)
10005bc6:	892a                	mv	s2,a0
10005bc8:	842e                	mv	s0,a1
10005bca:	4501                	li	a0,0
10005bcc:	103000ef          	jal	100064ce <usbd_control_set_complete_callback>
10005bd0:	00044783          	lbu	a5,0(s0)
10005bd4:	0607f793          	andi	a5,a5,96
10005bd8:	06000713          	li	a4,96
10005bdc:	06e78b63          	beq	a5,a4,10005c52 <process_control_request+0x96>
10005be0:	04000713          	li	a4,64
10005be4:	08e78663          	beq	a5,a4,10005c70 <process_control_request+0xb4>
10005be8:	00044703          	lbu	a4,0(s0)
10005bec:	8b7d                	andi	a4,a4,31
10005bee:	4685                	li	a3,1
10005bf0:	28d70663          	beq	a4,a3,10005e7c <process_control_request+0x2c0>
10005bf4:	4689                	li	a3,2
10005bf6:	32d70663          	beq	a4,a3,10005f22 <process_control_request+0x366>
10005bfa:	42071963          	bnez	a4,1000602c <process_control_request+0x470>
10005bfe:	02000713          	li	a4,32
10005c02:	08e78463          	beq	a5,a4,10005c8a <process_control_request+0xce>
10005c06:	e3e5                	bnez	a5,10005ce6 <process_control_request+0x12a>
10005c08:	00144783          	lbu	a5,1(s0)
10005c0c:	4715                	li	a4,5
10005c0e:	0ee78e63          	beq	a5,a4,10005d0a <process_control_request+0x14e>
10005c12:	0cf76d63          	bltu	a4,a5,10005cec <process_control_request+0x130>
10005c16:	4705                	li	a4,1
10005c18:	22e78563          	beq	a5,a4,10005e42 <process_control_request+0x286>
10005c1c:	470d                	li	a4,3
10005c1e:	1ee78763          	beq	a5,a4,10005e0c <process_control_request+0x250>
10005c22:	24079a63          	bnez	a5,10005e76 <process_control_request+0x2ba>
10005c26:	200047b7          	lui	a5,0x20004
10005c2a:	5447c783          	lbu	a5,1348(a5) # 20004544 <_usbd_dev>
10005c2e:	0027d713          	srli	a4,a5,0x2
10005c32:	4857d793          	bexti	a5,a5,0x5
10005c36:	8b09                	andi	a4,a4,2
10005c38:	8fd9                	or	a5,a5,a4
10005c3a:	00f11723          	sh	a5,14(sp)
10005c3e:	4689                	li	a3,2
10005c40:	00e10613          	addi	a2,sp,14
10005c44:	85a2                	mv	a1,s0
10005c46:	854a                	mv	a0,s2
10005c48:	77c000ef          	jal	100063c4 <tud_control_xfer>
10005c4c:	4785                	li	a5,1
10005c4e:	84be                	mv	s1,a5
10005c50:	a6c5                	j	10006030 <process_control_request+0x474>
10005c52:	2d400613          	li	a2,724
10005c56:	1000a5b7          	lui	a1,0x1000a
10005c5a:	f2058593          	addi	a1,a1,-224 # 10009f20 <__func__.9>
10005c5e:	1000a537          	lui	a0,0x1000a
10005c62:	8f450513          	addi	a0,a0,-1804 # 100098f4 <__EH_FRAME_BEGIN__+0xc34>
10005c66:	9c1fe0ef          	jal	10004626 <__wrap_printf>
10005c6a:	9002                	ebreak
10005c6c:	4481                	li	s1,0
10005c6e:	a6c9                	j	10006030 <process_control_request+0x474>
10005c70:	10004537          	lui	a0,0x10004
10005c74:	70a50513          	addi	a0,a0,1802 # 1000470a <tud_vendor_control_xfer_cb>
10005c78:	057000ef          	jal	100064ce <usbd_control_set_complete_callback>
10005c7c:	8622                	mv	a2,s0
10005c7e:	4585                	li	a1,1
10005c80:	854a                	mv	a0,s2
10005c82:	a89fe0ef          	jal	1000470a <tud_vendor_control_xfer_cb>
10005c86:	84aa                	mv	s1,a0
10005c88:	a665                	j	10006030 <process_control_request+0x474>
10005c8a:	00444703          	lbu	a4,4(s0)
10005c8e:	00544783          	lbu	a5,5(s0)
10005c92:	07a2                	slli	a5,a5,0x8
10005c94:	8fd9                	or	a5,a5,a4
10005c96:	46bd                	li	a3,15
10005c98:	3ae6e363          	bltu	a3,a4,1000603e <process_control_request+0x482>
10005c9c:	20004737          	lui	a4,0x20004
10005ca0:	0ff7f793          	zext.b	a5,a5
10005ca4:	54470713          	addi	a4,a4,1348 # 20004544 <_usbd_dev>
10005ca8:	97ba                	add	a5,a5,a4
10005caa:	0047c783          	lbu	a5,4(a5)
10005cae:	87b1c703          	lbu	a4,-1925(gp) # 20004f38 <_app_driver_count>
10005cb2:	00e7f963          	bgeu	a5,a4,10005cc4 <process_control_request+0x108>
10005cb6:	87f1a583          	lw	a1,-1921(gp) # 20004f3c <_app_driver>
10005cba:	0796                	slli	a5,a5,0x5
10005cbc:	95be                	add	a1,a1,a5
10005cbe:	ed91                	bnez	a1,10005cda <process_control_request+0x11e>
10005cc0:	4481                	li	s1,0
10005cc2:	a6bd                	j	10006030 <process_control_request+0x474>
10005cc4:	00170693          	addi	a3,a4,1
10005cc8:	36f6cd63          	blt	a3,a5,10006042 <process_control_request+0x486>
10005ccc:	8f99                	sub	a5,a5,a4
10005cce:	0796                	slli	a5,a5,0x5
10005cd0:	1000a5b7          	lui	a1,0x1000a
10005cd4:	f6c58593          	addi	a1,a1,-148 # 10009f6c <_usbd_driver>
10005cd8:	95be                	add	a1,a1,a5
10005cda:	8622                	mv	a2,s0
10005cdc:	854a                	mv	a0,s2
10005cde:	eb6ff0ef          	jal	10005394 <invoke_class_control>
10005ce2:	84aa                	mv	s1,a0
10005ce4:	a6b1                	j	10006030 <process_control_request+0x474>
10005ce6:	9002                	ebreak
10005ce8:	4481                	li	s1,0
10005cea:	a699                	j	10006030 <process_control_request+0x474>
10005cec:	4721                	li	a4,8
10005cee:	04e78363          	beq	a5,a4,10005d34 <process_control_request+0x178>
10005cf2:	4725                	li	a4,9
10005cf4:	06e78163          	beq	a5,a4,10005d56 <process_control_request+0x19a>
10005cf8:	4719                	li	a4,6
10005cfa:	16e79e63          	bne	a5,a4,10005e76 <process_control_request+0x2ba>
10005cfe:	85a2                	mv	a1,s0
10005d00:	854a                	mv	a0,s2
10005d02:	939ff0ef          	jal	1000563a <process_get_descriptor>
10005d06:	84aa                	mv	s1,a0
10005d08:	a625                	j	10006030 <process_control_request+0x474>
10005d0a:	8522                	mv	a0,s0
10005d0c:	7ce000ef          	jal	100064da <usbd_control_set_request>
10005d10:	00244583          	lbu	a1,2(s0)
10005d14:	854a                	mv	a0,s2
10005d16:	adaff0ef          	jal	10004ff0 <dcd_set_address>
10005d1a:	200047b7          	lui	a5,0x20004
10005d1e:	54478793          	addi	a5,a5,1348 # 20004544 <_usbd_dev>
10005d22:	0007c703          	lbu	a4,0(a5)
10005d26:	00276713          	ori	a4,a4,2
10005d2a:	00e78023          	sb	a4,0(a5)
10005d2e:	4785                	li	a5,1
10005d30:	84be                	mv	s1,a5
10005d32:	acfd                	j	10006030 <process_control_request+0x474>
10005d34:	200047b7          	lui	a5,0x20004
10005d38:	54478793          	addi	a5,a5,1348 # 20004544 <_usbd_dev>
10005d3c:	0017c783          	lbu	a5,1(a5)
10005d40:	00f10723          	sb	a5,14(sp)
10005d44:	4685                	li	a3,1
10005d46:	00e10613          	addi	a2,sp,14
10005d4a:	85a2                	mv	a1,s0
10005d4c:	854a                	mv	a0,s2
10005d4e:	2d9d                	jal	100063c4 <tud_control_xfer>
10005d50:	4785                	li	a5,1
10005d52:	84be                	mv	s1,a5
10005d54:	acf1                	j	10006030 <process_control_request+0x474>
10005d56:	ce4e                	sw	s3,28(sp)
10005d58:	00244783          	lbu	a5,2(s0)
10005d5c:	89be                	mv	s3,a5
10005d5e:	200047b7          	lui	a5,0x20004
10005d62:	54478793          	addi	a5,a5,1348 # 20004544 <_usbd_dev>
10005d66:	0017c783          	lbu	a5,1(a5)
10005d6a:	09378a63          	beq	a5,s3,10005dfe <process_control_request+0x242>
10005d6e:	200047b7          	lui	a5,0x20004
10005d72:	54478793          	addi	a5,a5,1348 # 20004544 <_usbd_dev>
10005d76:	0017c783          	lbu	a5,1(a5)
10005d7a:	e395                	bnez	a5,10005d9e <process_control_request+0x1e2>
10005d7c:	200047b7          	lui	a5,0x20004
10005d80:	54478793          	addi	a5,a5,1348 # 20004544 <_usbd_dev>
10005d84:	013780a3          	sb	s3,1(a5)
10005d88:	06098963          	beqz	s3,10005dfa <process_control_request+0x23e>
10005d8c:	85ce                	mv	a1,s3
10005d8e:	854a                	mv	a0,s2
10005d90:	e30ff0ef          	jal	100053c0 <process_set_config>
10005d94:	84aa                	mv	s1,a0
10005d96:	cd0d                	beqz	a0,10005dd0 <process_control_request+0x214>
10005d98:	9d3ff0ef          	jal	1000576a <tud_mount_cb>
10005d9c:	a08d                	j	10005dfe <process_control_request+0x242>
10005d9e:	cc52                	sw	s4,24(sp)
10005da0:	ca56                	sw	s5,20(sp)
10005da2:	4581                	li	a1,0
10005da4:	854a                	mv	a0,s2
10005da6:	b26ff0ef          	jal	100050cc <dcd_sof_enable>
10005daa:	854a                	mv	a0,s2
10005dac:	b92ff0ef          	jal	1000513e <dcd_edpt_close_all>
10005db0:	200047b7          	lui	a5,0x20004
10005db4:	54478793          	addi	a5,a5,1348 # 20004544 <_usbd_dev>
10005db8:	8a3e                	mv	s4,a5
10005dba:	0027c783          	lbu	a5,2(a5)
10005dbe:	8abe                	mv	s5,a5
10005dc0:	854a                	mv	a0,s2
10005dc2:	d1aff0ef          	jal	100052dc <configuration_reset>
10005dc6:	015a0123          	sb	s5,2(s4)
10005dca:	4a62                	lw	s4,24(sp)
10005dcc:	4ad2                	lw	s5,20(sp)
10005dce:	b77d                	j	10005d7c <process_control_request+0x1c0>
10005dd0:	32400613          	li	a2,804
10005dd4:	1000a5b7          	lui	a1,0x1000a
10005dd8:	f2058593          	addi	a1,a1,-224 # 10009f20 <__func__.9>
10005ddc:	1000a537          	lui	a0,0x1000a
10005de0:	8f450513          	addi	a0,a0,-1804 # 100098f4 <__EH_FRAME_BEGIN__+0xc34>
10005de4:	843fe0ef          	jal	10004626 <__wrap_printf>
10005de8:	9002                	ebreak
10005dea:	200047b7          	lui	a5,0x20004
10005dee:	54478793          	addi	a5,a5,1348 # 20004544 <_usbd_dev>
10005df2:	000780a3          	sb	zero,1(a5)
10005df6:	49f2                	lw	s3,28(sp)
10005df8:	ac25                	j	10006030 <process_control_request+0x474>
10005dfa:	973ff0ef          	jal	1000576c <tud_umount_cb>
10005dfe:	85a2                	mv	a1,s0
10005e00:	854a                	mv	a0,s2
10005e02:	2385                	jal	10006362 <tud_control_status>
10005e04:	4785                	li	a5,1
10005e06:	84be                	mv	s1,a5
10005e08:	49f2                	lw	s3,28(sp)
10005e0a:	a41d                	j	10006030 <process_control_request+0x474>
10005e0c:	00244703          	lbu	a4,2(s0)
10005e10:	00344783          	lbu	a5,3(s0)
10005e14:	07a2                	slli	a5,a5,0x8
10005e16:	8fd9                	or	a5,a5,a4
10005e18:	4705                	li	a4,1
10005e1a:	00e78463          	beq	a5,a4,10005e22 <process_control_request+0x266>
10005e1e:	4481                	li	s1,0
10005e20:	ac01                	j	10006030 <process_control_request+0x474>
10005e22:	200047b7          	lui	a5,0x20004
10005e26:	54478793          	addi	a5,a5,1348 # 20004544 <_usbd_dev>
10005e2a:	0007c703          	lbu	a4,0(a5)
10005e2e:	00876713          	ori	a4,a4,8
10005e32:	00e78023          	sb	a4,0(a5)
10005e36:	85a2                	mv	a1,s0
10005e38:	854a                	mv	a0,s2
10005e3a:	2325                	jal	10006362 <tud_control_status>
10005e3c:	4785                	li	a5,1
10005e3e:	84be                	mv	s1,a5
10005e40:	aac5                	j	10006030 <process_control_request+0x474>
10005e42:	00244703          	lbu	a4,2(s0)
10005e46:	00344783          	lbu	a5,3(s0)
10005e4a:	07a2                	slli	a5,a5,0x8
10005e4c:	8fd9                	or	a5,a5,a4
10005e4e:	4705                	li	a4,1
10005e50:	00e78463          	beq	a5,a4,10005e58 <process_control_request+0x29c>
10005e54:	4481                	li	s1,0
10005e56:	aae9                	j	10006030 <process_control_request+0x474>
10005e58:	200047b7          	lui	a5,0x20004
10005e5c:	54478793          	addi	a5,a5,1348 # 20004544 <_usbd_dev>
10005e60:	0007c703          	lbu	a4,0(a5)
10005e64:	9b5d                	andi	a4,a4,-9
10005e66:	00e78023          	sb	a4,0(a5)
10005e6a:	85a2                	mv	a1,s0
10005e6c:	854a                	mv	a0,s2
10005e6e:	29d5                	jal	10006362 <tud_control_status>
10005e70:	4785                	li	a5,1
10005e72:	84be                	mv	s1,a5
10005e74:	aa75                	j	10006030 <process_control_request+0x474>
10005e76:	9002                	ebreak
10005e78:	4481                	li	s1,0
10005e7a:	aa5d                	j	10006030 <process_control_request+0x474>
10005e7c:	00444703          	lbu	a4,4(s0)
10005e80:	00544783          	lbu	a5,5(s0)
10005e84:	07a2                	slli	a5,a5,0x8
10005e86:	8fd9                	or	a5,a5,a4
10005e88:	46bd                	li	a3,15
10005e8a:	1ae6ee63          	bltu	a3,a4,10006046 <process_control_request+0x48a>
10005e8e:	20004737          	lui	a4,0x20004
10005e92:	0ff7f793          	zext.b	a5,a5
10005e96:	54470713          	addi	a4,a4,1348 # 20004544 <_usbd_dev>
10005e9a:	97ba                	add	a5,a5,a4
10005e9c:	0047c783          	lbu	a5,4(a5)
10005ea0:	87b1c703          	lbu	a4,-1925(gp) # 20004f38 <_app_driver_count>
10005ea4:	04e7f863          	bgeu	a5,a4,10005ef4 <process_control_request+0x338>
10005ea8:	87f1a583          	lw	a1,-1921(gp) # 20004f3c <_app_driver>
10005eac:	0796                	slli	a5,a5,0x5
10005eae:	95be                	add	a1,a1,a5
10005eb0:	18058d63          	beqz	a1,1000604a <process_control_request+0x48e>
10005eb4:	8622                	mv	a2,s0
10005eb6:	854a                	mv	a0,s2
10005eb8:	cdcff0ef          	jal	10005394 <invoke_class_control>
10005ebc:	84aa                	mv	s1,a0
10005ebe:	16051963          	bnez	a0,10006030 <process_control_request+0x474>
10005ec2:	00044783          	lbu	a5,0(s0)
10005ec6:	0607f793          	andi	a5,a5,96
10005eca:	16079363          	bnez	a5,10006030 <process_control_request+0x474>
10005ece:	00144783          	lbu	a5,1(s0)
10005ed2:	17d9                	addi	a5,a5,-10
10005ed4:	4705                	li	a4,1
10005ed6:	14f76d63          	bltu	a4,a5,10006030 <process_control_request+0x474>
10005eda:	4501                	li	a0,0
10005edc:	2bcd                	jal	100064ce <usbd_control_set_complete_callback>
10005ede:	00144703          	lbu	a4,1(s0)
10005ee2:	47a9                	li	a5,10
10005ee4:	02f70463          	beq	a4,a5,10005f0c <process_control_request+0x350>
10005ee8:	85a2                	mv	a1,s0
10005eea:	854a                	mv	a0,s2
10005eec:	299d                	jal	10006362 <tud_control_status>
10005eee:	4785                	li	a5,1
10005ef0:	84be                	mv	s1,a5
10005ef2:	aa3d                	j	10006030 <process_control_request+0x474>
10005ef4:	00170693          	addi	a3,a4,1
10005ef8:	14f6cb63          	blt	a3,a5,1000604e <process_control_request+0x492>
10005efc:	8f99                	sub	a5,a5,a4
10005efe:	0796                	slli	a5,a5,0x5
10005f00:	1000a5b7          	lui	a1,0x1000a
10005f04:	f6c58593          	addi	a1,a1,-148 # 10009f6c <_usbd_driver>
10005f08:	95be                	add	a1,a1,a5
10005f0a:	b76d                	j	10005eb4 <process_control_request+0x2f8>
10005f0c:	00010723          	sb	zero,14(sp)
10005f10:	4685                	li	a3,1
10005f12:	00e10613          	addi	a2,sp,14
10005f16:	85a2                	mv	a1,s0
10005f18:	854a                	mv	a0,s2
10005f1a:	216d                	jal	100063c4 <tud_control_xfer>
10005f1c:	4785                	li	a5,1
10005f1e:	84be                	mv	s1,a5
10005f20:	aa01                	j	10006030 <process_control_request+0x474>
10005f22:	00444583          	lbu	a1,4(s0)
10005f26:	07f5f713          	andi	a4,a1,127
10005f2a:	0075d613          	srli	a2,a1,0x7
10005f2e:	0705f693          	andi	a3,a1,112
10005f32:	ee8d                	bnez	a3,10005f6c <process_control_request+0x3b0>
10005f34:	200046b7          	lui	a3,0x20004
10005f38:	54468693          	addi	a3,a3,1348 # 20004544 <_usbd_dev>
10005f3c:	20d72733          	sh1add	a4,a4,a3
10005f40:	9732                	add	a4,a4,a2
10005f42:	01474703          	lbu	a4,20(a4)
10005f46:	87b1c683          	lbu	a3,-1925(gp) # 20004f38 <_app_driver_count>
10005f4a:	04d77063          	bgeu	a4,a3,10005f8a <process_control_request+0x3ce>
10005f4e:	87f1a683          	lw	a3,-1921(gp) # 20004f3c <_app_driver>
10005f52:	0716                	slli	a4,a4,0x5
10005f54:	9736                	add	a4,a4,a3
10005f56:	84ba                	mv	s1,a4
10005f58:	cba1                	beqz	a5,10005fa8 <process_control_request+0x3ec>
10005f5a:	0e048c63          	beqz	s1,10006052 <process_control_request+0x496>
10005f5e:	8622                	mv	a2,s0
10005f60:	85a6                	mv	a1,s1
10005f62:	854a                	mv	a0,s2
10005f64:	c30ff0ef          	jal	10005394 <invoke_class_control>
10005f68:	84aa                	mv	s1,a0
10005f6a:	a0d9                	j	10006030 <process_control_request+0x474>
10005f6c:	39500613          	li	a2,917
10005f70:	1000a5b7          	lui	a1,0x1000a
10005f74:	f2058593          	addi	a1,a1,-224 # 10009f20 <__func__.9>
10005f78:	1000a537          	lui	a0,0x1000a
10005f7c:	8f450513          	addi	a0,a0,-1804 # 100098f4 <__EH_FRAME_BEGIN__+0xc34>
10005f80:	ea6fe0ef          	jal	10004626 <__wrap_printf>
10005f84:	9002                	ebreak
10005f86:	4481                	li	s1,0
10005f88:	a065                	j	10006030 <process_control_request+0x474>
10005f8a:	00168613          	addi	a2,a3,1
10005f8e:	00e64b63          	blt	a2,a4,10005fa4 <process_control_request+0x3e8>
10005f92:	8f15                	sub	a4,a4,a3
10005f94:	0716                	slli	a4,a4,0x5
10005f96:	1000a6b7          	lui	a3,0x1000a
10005f9a:	f6c68693          	addi	a3,a3,-148 # 10009f6c <_usbd_driver>
10005f9e:	9736                	add	a4,a4,a3
10005fa0:	84ba                	mv	s1,a4
10005fa2:	bf5d                	j	10005f58 <process_control_request+0x39c>
10005fa4:	4481                	li	s1,0
10005fa6:	bf4d                	j	10005f58 <process_control_request+0x39c>
10005fa8:	00144783          	lbu	a5,1(s0)
10005fac:	4705                	li	a4,1
10005fae:	02e78463          	beq	a5,a4,10005fd6 <process_control_request+0x41a>
10005fb2:	470d                	li	a4,3
10005fb4:	02e78163          	beq	a5,a4,10005fd6 <process_control_request+0x41a>
10005fb8:	e7bd                	bnez	a5,10006026 <process_control_request+0x46a>
10005fba:	854a                	mv	a0,s2
10005fbc:	be3ff0ef          	jal	10005b9e <usbd_edpt_stalled>
10005fc0:	00a11723          	sh	a0,14(sp)
10005fc4:	4689                	li	a3,2
10005fc6:	00e10613          	addi	a2,sp,14
10005fca:	85a2                	mv	a1,s0
10005fcc:	854a                	mv	a0,s2
10005fce:	2edd                	jal	100063c4 <tud_control_xfer>
10005fd0:	4785                	li	a5,1
10005fd2:	84be                	mv	s1,a5
10005fd4:	a8b1                	j	10006030 <process_control_request+0x474>
10005fd6:	00244683          	lbu	a3,2(s0)
10005fda:	00344703          	lbu	a4,3(s0)
10005fde:	0722                	slli	a4,a4,0x8
10005fe0:	8f55                	or	a4,a4,a3
10005fe2:	e719                	bnez	a4,10005ff0 <process_control_request+0x434>
10005fe4:	4705                	li	a4,1
10005fe6:	02e78c63          	beq	a5,a4,1000601e <process_control_request+0x462>
10005fea:	854a                	mv	a0,s2
10005fec:	b1fff0ef          	jal	10005b0a <usbd_edpt_stall>
10005ff0:	c0bd                	beqz	s1,10006056 <process_control_request+0x49a>
10005ff2:	8622                	mv	a2,s0
10005ff4:	85a6                	mv	a1,s1
10005ff6:	854a                	mv	a0,s2
10005ff8:	b9cff0ef          	jal	10005394 <invoke_class_control>
10005ffc:	4501                	li	a0,0
10005ffe:	29c1                	jal	100064ce <usbd_control_set_complete_callback>
10006000:	200047b7          	lui	a5,0x20004
10006004:	54478793          	addi	a5,a5,1348 # 20004544 <_usbd_dev>
10006008:	5bdc                	lw	a5,52(a5)
1000600a:	4887d793          	bexti	a5,a5,0x8
1000600e:	84be                	mv	s1,a5
10006010:	e385                	bnez	a5,10006030 <process_control_request+0x474>
10006012:	85a2                	mv	a1,s0
10006014:	854a                	mv	a0,s2
10006016:	26b1                	jal	10006362 <tud_control_status>
10006018:	4785                	li	a5,1
1000601a:	84be                	mv	s1,a5
1000601c:	a811                	j	10006030 <process_control_request+0x474>
1000601e:	854a                	mv	a0,s2
10006020:	b37ff0ef          	jal	10005b56 <usbd_edpt_clear_stall>
10006024:	b7f1                	j	10005ff0 <process_control_request+0x434>
10006026:	9002                	ebreak
10006028:	4481                	li	s1,0
1000602a:	a019                	j	10006030 <process_control_request+0x474>
1000602c:	9002                	ebreak
1000602e:	4481                	li	s1,0
10006030:	8526                	mv	a0,s1
10006032:	50b2                	lw	ra,44(sp)
10006034:	5422                	lw	s0,40(sp)
10006036:	5492                	lw	s1,36(sp)
10006038:	5902                	lw	s2,32(sp)
1000603a:	6145                	addi	sp,sp,48
1000603c:	8082                	ret
1000603e:	4481                	li	s1,0
10006040:	bfc5                	j	10006030 <process_control_request+0x474>
10006042:	4481                	li	s1,0
10006044:	b7f5                	j	10006030 <process_control_request+0x474>
10006046:	4481                	li	s1,0
10006048:	b7e5                	j	10006030 <process_control_request+0x474>
1000604a:	4481                	li	s1,0
1000604c:	b7d5                	j	10006030 <process_control_request+0x474>
1000604e:	4481                	li	s1,0
10006050:	b7c5                	j	10006030 <process_control_request+0x474>
10006052:	4481                	li	s1,0
10006054:	bff1                	j	10006030 <process_control_request+0x474>
10006056:	4785                	li	a5,1
10006058:	84be                	mv	s1,a5
1000605a:	bfd9                	j	10006030 <process_control_request+0x474>

1000605c <tud_task_ext>:
1000605c:	1101                	addi	sp,sp,-32
1000605e:	ce06                	sw	ra,28(sp)
10006060:	f32ff0ef          	jal	10005792 <tud_inited>
10006064:	24050463          	beqz	a0,100062ac <tud_task_ext+0x250>
10006068:	cc22                	sw	s0,24(sp)
1000606a:	a0e9                	j	10006134 <tud_task_ext+0xd8>
1000606c:	4711                	li	a4,4
1000606e:	22e79c63          	bne	a5,a4,100062a6 <tud_task_ext+0x24a>
10006072:	200047b7          	lui	a5,0x20004
10006076:	5447a783          	lw	a5,1348(a5) # 20004544 <_usbd_dev>
1000607a:	8b85                	andi	a5,a5,1
1000607c:	cfc5                	beqz	a5,10006134 <tud_task_ext+0xd8>
1000607e:	200047b7          	lui	a5,0x20004
10006082:	5447a503          	lw	a0,1348(a5) # 20004544 <_usbd_dev>
10006086:	48355513          	bexti	a0,a0,0x3
1000608a:	ee4ff0ef          	jal	1000576e <tud_suspend_cb>
1000608e:	a05d                	j	10006134 <tud_task_ext+0xd8>
10006090:	471d                	li	a4,7
10006092:	12e78963          	beq	a5,a4,100061c4 <tud_task_ext+0x168>
10006096:	4721                	li	a4,8
10006098:	1ee78463          	beq	a5,a4,10006280 <tud_task_ext+0x224>
1000609c:	4719                	li	a4,6
1000609e:	20e79463          	bne	a5,a4,100062a6 <tud_task_ext+0x24a>
100060a2:	8831c783          	lbu	a5,-1917(gp) # 20004f40 <_usbd_queued_setup>
100060a6:	10078063          	beqz	a5,100061a6 <tud_task_ext+0x14a>
100060aa:	8831c783          	lbu	a5,-1917(gp) # 20004f40 <_usbd_queued_setup>
100060ae:	17fd                	addi	a5,a5,-1
100060b0:	0ff7f793          	zext.b	a5,a5
100060b4:	88f181a3          	sb	a5,-1917(gp) # 20004f40 <_usbd_queued_setup>
100060b8:	8831c783          	lbu	a5,-1917(gp) # 20004f40 <_usbd_queued_setup>
100060bc:	efa5                	bnez	a5,10006134 <tud_task_ext+0xd8>
100060be:	200047b7          	lui	a5,0x20004
100060c2:	54478793          	addi	a5,a5,1348 # 20004544 <_usbd_dev>
100060c6:	0007c703          	lbu	a4,0(a5)
100060ca:	00176713          	ori	a4,a4,1
100060ce:	00e78023          	sb	a4,0(a5)
100060d2:	0347c703          	lbu	a4,52(a5)
100060d6:	9b79                	andi	a4,a4,-2
100060d8:	02e78a23          	sb	a4,52(a5)
100060dc:	0347c703          	lbu	a4,52(a5)
100060e0:	9b6d                	andi	a4,a4,-5
100060e2:	02e78a23          	sb	a4,52(a5)
100060e6:	0357c703          	lbu	a4,53(a5)
100060ea:	9b79                	andi	a4,a4,-2
100060ec:	02e78aa3          	sb	a4,53(a5)
100060f0:	0357c703          	lbu	a4,53(a5)
100060f4:	9b6d                	andi	a4,a4,-5
100060f6:	02e78aa3          	sb	a4,53(a5)
100060fa:	002c                	addi	a1,sp,8
100060fc:	00414503          	lbu	a0,4(sp)
10006100:	abdff0ef          	jal	10005bbc <process_control_request>
10006104:	e905                	bnez	a0,10006134 <tud_task_ext+0xd8>
10006106:	4581                	li	a1,0
10006108:	00414503          	lbu	a0,4(sp)
1000610c:	87cff0ef          	jal	10005188 <dcd_edpt_stall>
10006110:	08000593          	li	a1,128
10006114:	00414503          	lbu	a0,4(sp)
10006118:	870ff0ef          	jal	10005188 <dcd_edpt_stall>
1000611c:	a821                	j	10006134 <tud_task_ext+0xd8>
1000611e:	00414503          	lbu	a0,4(sp)
10006122:	a62ff0ef          	jal	10005384 <usbd_reset>
10006126:	200047b7          	lui	a5,0x20004
1000612a:	4722                	lw	a4,8(sp)
1000612c:	54478793          	addi	a5,a5,1348 # 20004544 <_usbd_dev>
10006130:	00e78123          	sb	a4,2(a5)
10006134:	8771a403          	lw	s0,-1929(gp) # 20004f34 <_usbd_q>
10006138:	485c                	lw	a5,20(s0)
1000613a:	30047773          	csrrci	a4,mstatus,8
1000613e:	00379693          	slli	a3,a5,0x3
10006142:	28d016b3          	bset	a3,zero,a3
10006146:	9bf1                	andi	a5,a5,-4
10006148:	44d7a62f          	amoor.w.aq	a2,a3,(a5)
1000614c:	8e75                	and	a2,a2,a3
1000614e:	fe6d                	bnez	a2,10006148 <tud_task_ext+0xec>
10006150:	0330000f          	fence	rw,rw
10006154:	cc18                	sw	a4,24(s0)
10006156:	004c                	addi	a1,sp,4
10006158:	8522                	mv	a0,s0
1000615a:	647010ef          	jal	10007fa0 <tu_fifo_read>
1000615e:	4858                	lw	a4,20(s0)
10006160:	4c1c                	lw	a5,24(s0)
10006162:	0330000f          	fence	rw,rw
10006166:	00070023          	sb	zero,0(a4)
1000616a:	8ba1                	andi	a5,a5,8
1000616c:	3007a073          	csrs	mstatus,a5
10006170:	12050d63          	beqz	a0,100062aa <tud_task_ext+0x24e>
10006174:	00514783          	lbu	a5,5(sp)
10006178:	4715                	li	a4,5
1000617a:	0ee78963          	beq	a5,a4,1000626c <tud_task_ext+0x210>
1000617e:	f0f769e3          	bltu	a4,a5,10006090 <tud_task_ext+0x34>
10006182:	470d                	li	a4,3
10006184:	10e78463          	beq	a5,a4,1000628c <tud_task_ext+0x230>
10006188:	eef762e3          	bltu	a4,a5,1000606c <tud_task_ext+0x10>
1000618c:	4705                	li	a4,1
1000618e:	f8e788e3          	beq	a5,a4,1000611e <tud_task_ext+0xc2>
10006192:	4709                	li	a4,2
10006194:	10e79963          	bne	a5,a4,100062a6 <tud_task_ext+0x24a>
10006198:	00414503          	lbu	a0,4(sp)
1000619c:	9e8ff0ef          	jal	10005384 <usbd_reset>
100061a0:	dccff0ef          	jal	1000576c <tud_umount_cb>
100061a4:	bf41                	j	10006134 <tud_task_ext+0xd8>
100061a6:	26500613          	li	a2,613
100061aa:	1000a5b7          	lui	a1,0x1000a
100061ae:	f4c58593          	addi	a1,a1,-180 # 10009f4c <__func__.11>
100061b2:	1000a537          	lui	a0,0x1000a
100061b6:	8f450513          	addi	a0,a0,-1804 # 100098f4 <__EH_FRAME_BEGIN__+0xc34>
100061ba:	c6cfe0ef          	jal	10004626 <__wrap_printf>
100061be:	9002                	ebreak
100061c0:	4462                	lw	s0,24(sp)
100061c2:	a0ed                	j	100062ac <tud_task_ext+0x250>
100061c4:	00814583          	lbu	a1,8(sp)
100061c8:	07f5f713          	andi	a4,a1,127
100061cc:	0075d613          	srli	a2,a1,0x7
100061d0:	200047b7          	lui	a5,0x20004
100061d4:	54478793          	addi	a5,a5,1348 # 20004544 <_usbd_dev>
100061d8:	20f727b3          	sh1add	a5,a4,a5
100061dc:	97b2                	add	a5,a5,a2
100061de:	0347c683          	lbu	a3,52(a5)
100061e2:	9af9                	andi	a3,a3,-2
100061e4:	02d78a23          	sb	a3,52(a5)
100061e8:	0347c683          	lbu	a3,52(a5)
100061ec:	9aed                	andi	a3,a3,-5
100061ee:	02d78a23          	sb	a3,52(a5)
100061f2:	cb1d                	beqz	a4,10006228 <tud_task_ext+0x1cc>
100061f4:	200047b7          	lui	a5,0x20004
100061f8:	54478793          	addi	a5,a5,1348 # 20004544 <_usbd_dev>
100061fc:	20f72733          	sh1add	a4,a4,a5
10006200:	9732                	add	a4,a4,a2
10006202:	01474783          	lbu	a5,20(a4)
10006206:	87b1c703          	lbu	a4,-1925(gp) # 20004f38 <_app_driver_count>
1000620a:	02e7f663          	bgeu	a5,a4,10006236 <tud_task_ext+0x1da>
1000620e:	87f1a703          	lw	a4,-1921(gp) # 20004f3c <_app_driver>
10006212:	0796                	slli	a5,a5,0x5
10006214:	97ba                	add	a5,a5,a4
10006216:	cf85                	beqz	a5,1000624e <tud_task_ext+0x1f2>
10006218:	4f9c                	lw	a5,24(a5)
1000621a:	46b2                	lw	a3,12(sp)
1000621c:	00914603          	lbu	a2,9(sp)
10006220:	00414503          	lbu	a0,4(sp)
10006224:	9782                	jalr	a5
10006226:	b739                	j	10006134 <tud_task_ext+0xd8>
10006228:	46b2                	lw	a3,12(sp)
1000622a:	00914603          	lbu	a2,9(sp)
1000622e:	00414503          	lbu	a0,4(sp)
10006232:	2cfd                	jal	10006530 <usbd_control_xfer_cb>
10006234:	b701                	j	10006134 <tud_task_ext+0xd8>
10006236:	00170693          	addi	a3,a4,1
1000623a:	00f6ca63          	blt	a3,a5,1000624e <tud_task_ext+0x1f2>
1000623e:	8f99                	sub	a5,a5,a4
10006240:	0796                	slli	a5,a5,0x5
10006242:	1000a737          	lui	a4,0x1000a
10006246:	f6c70713          	addi	a4,a4,-148 # 10009f6c <_usbd_driver>
1000624a:	97ba                	add	a5,a5,a4
1000624c:	b7f1                	j	10006218 <tud_task_ext+0x1bc>
1000624e:	29000613          	li	a2,656
10006252:	1000a5b7          	lui	a1,0x1000a
10006256:	f4c58593          	addi	a1,a1,-180 # 10009f4c <__func__.11>
1000625a:	1000a537          	lui	a0,0x1000a
1000625e:	8f450513          	addi	a0,a0,-1804 # 100098f4 <__EH_FRAME_BEGIN__+0xc34>
10006262:	bc4fe0ef          	jal	10004626 <__wrap_printf>
10006266:	9002                	ebreak
10006268:	4462                	lw	s0,24(sp)
1000626a:	a089                	j	100062ac <tud_task_ext+0x250>
1000626c:	200047b7          	lui	a5,0x20004
10006270:	5447a783          	lw	a5,1348(a5) # 20004544 <_usbd_dev>
10006274:	8b85                	andi	a5,a5,1
10006276:	ea078fe3          	beqz	a5,10006134 <tud_task_ext+0xd8>
1000627a:	cf6ff0ef          	jal	10005770 <tud_resume_cb>
1000627e:	bd5d                	j	10006134 <tud_task_ext+0xd8>
10006280:	47a2                	lw	a5,8(sp)
10006282:	ea0789e3          	beqz	a5,10006134 <tud_task_ext+0xd8>
10006286:	4532                	lw	a0,12(sp)
10006288:	9782                	jalr	a5
1000628a:	b56d                	j	10006134 <tud_task_ext+0xd8>
1000628c:	200047b7          	lui	a5,0x20004
10006290:	54478793          	addi	a5,a5,1348 # 20004544 <_usbd_dev>
10006294:	0037c783          	lbu	a5,3(a5)
10006298:	8b85                	andi	a5,a5,1
1000629a:	e8078de3          	beqz	a5,10006134 <tud_task_ext+0xd8>
1000629e:	4522                	lw	a0,8(sp)
100062a0:	b90ff0ef          	jal	10005630 <tud_sof_cb>
100062a4:	bd41                	j	10006134 <tud_task_ext+0xd8>
100062a6:	9002                	ebreak
100062a8:	b571                	j	10006134 <tud_task_ext+0xd8>
100062aa:	4462                	lw	s0,24(sp)
100062ac:	40f2                	lw	ra,28(sp)
100062ae:	6105                	addi	sp,sp,32
100062b0:	8082                	ret

100062b2 <status_stage_xact>:
100062b2:	1141                	addi	sp,sp,-16
100062b4:	c606                	sw	ra,12(sp)
100062b6:	00058783          	lb	a5,0(a1)
100062ba:	0007cb63          	bltz	a5,100062d0 <status_stage_xact+0x1e>
100062be:	08000593          	li	a1,128
100062c2:	4681                	li	a3,0
100062c4:	4601                	li	a2,0
100062c6:	faaff0ef          	jal	10005a70 <usbd_edpt_xfer>
100062ca:	40b2                	lw	ra,12(sp)
100062cc:	0141                	addi	sp,sp,16
100062ce:	8082                	ret
100062d0:	4581                	li	a1,0
100062d2:	bfc5                	j	100062c2 <status_stage_xact+0x10>

100062d4 <data_stage_xact>:
100062d4:	1101                	addi	sp,sp,-32
100062d6:	ce06                	sw	ra,28(sp)
100062d8:	cc22                	sw	s0,24(sp)
100062da:	ca26                	sw	s1,20(sp)
100062dc:	c84a                	sw	s2,16(sp)
100062de:	c64e                	sw	s3,12(sp)
100062e0:	89aa                	mv	s3,a0
100062e2:	200047b7          	lui	a5,0x20004
100062e6:	51078793          	addi	a5,a5,1296 # 20004510 <_ctrl_xfer>
100062ea:	00c7d903          	lhu	s2,12(a5)
100062ee:	00e7d483          	lhu	s1,14(a5)
100062f2:	40990433          	sub	s0,s2,s1
100062f6:	08044433          	zext.h	s0,s0
100062fa:	04000713          	li	a4,64
100062fe:	0ae45433          	minu	s0,s0,a4
10006302:	00078783          	lb	a5,0(a5)
10006306:	0207c463          	bltz	a5,1000632e <data_stage_xact+0x5a>
1000630a:	4581                	li	a1,0
1000630c:	04990763          	beq	s2,s1,1000635a <data_stage_xact+0x86>
10006310:	20004637          	lui	a2,0x20004
10006314:	4d060613          	addi	a2,a2,1232 # 200044d0 <_ctrl_epbuf>
10006318:	86a2                	mv	a3,s0
1000631a:	854e                	mv	a0,s3
1000631c:	f54ff0ef          	jal	10005a70 <usbd_edpt_xfer>
10006320:	40f2                	lw	ra,28(sp)
10006322:	4462                	lw	s0,24(sp)
10006324:	44d2                	lw	s1,20(sp)
10006326:	4942                	lw	s2,16(sp)
10006328:	49b2                	lw	s3,12(sp)
1000632a:	6105                	addi	sp,sp,32
1000632c:	8082                	ret
1000632e:	02990363          	beq	s2,s1,10006354 <data_stage_xact+0x80>
10006332:	200047b7          	lui	a5,0x20004
10006336:	51078793          	addi	a5,a5,1296 # 20004510 <_ctrl_xfer>
1000633a:	478c                	lw	a1,8(a5)
1000633c:	02876163          	bltu	a4,s0,1000635e <data_stage_xact+0x8a>
10006340:	8622                	mv	a2,s0
10006342:	20004537          	lui	a0,0x20004
10006346:	4d050513          	addi	a0,a0,1232 # 200044d0 <_ctrl_epbuf>
1000634a:	5b0020ef          	jal	100088fa <memcpy>
1000634e:	08000593          	li	a1,128
10006352:	bf6d                	j	1000630c <data_stage_xact+0x38>
10006354:	08000593          	li	a1,128
10006358:	bf55                	j	1000630c <data_stage_xact+0x38>
1000635a:	4601                	li	a2,0
1000635c:	bf75                	j	10006318 <data_stage_xact+0x44>
1000635e:	4501                	li	a0,0
10006360:	b7c1                	j	10006320 <data_stage_xact+0x4c>

10006362 <tud_control_status>:
10006362:	1141                	addi	sp,sp,-16
10006364:	c606                	sw	ra,12(sp)
10006366:	200047b7          	lui	a5,0x20004
1000636a:	51078793          	addi	a5,a5,1296 # 20004510 <_ctrl_xfer>
1000636e:	0005ce83          	lbu	t4,0(a1)
10006372:	0015ce03          	lbu	t3,1(a1)
10006376:	0025c303          	lbu	t1,2(a1)
1000637a:	0035c883          	lbu	a7,3(a1)
1000637e:	0045c803          	lbu	a6,4(a1)
10006382:	0055c603          	lbu	a2,5(a1)
10006386:	0065c683          	lbu	a3,6(a1)
1000638a:	01d78023          	sb	t4,0(a5)
1000638e:	01c780a3          	sb	t3,1(a5)
10006392:	00678123          	sb	t1,2(a5)
10006396:	011781a3          	sb	a7,3(a5)
1000639a:	01078223          	sb	a6,4(a5)
1000639e:	00c782a3          	sb	a2,5(a5)
100063a2:	00d78323          	sb	a3,6(a5)
100063a6:	0075c703          	lbu	a4,7(a1)
100063aa:	00e783a3          	sb	a4,7(a5)
100063ae:	0007a423          	sw	zero,8(a5)
100063b2:	00079723          	sh	zero,14(a5)
100063b6:	00079623          	sh	zero,12(a5)
100063ba:	ef9ff0ef          	jal	100062b2 <status_stage_xact>
100063be:	40b2                	lw	ra,12(sp)
100063c0:	0141                	addi	sp,sp,16
100063c2:	8082                	ret

100063c4 <tud_control_xfer>:
100063c4:	1141                	addi	sp,sp,-16
100063c6:	c606                	sw	ra,12(sp)
100063c8:	c422                	sw	s0,8(sp)
100063ca:	200047b7          	lui	a5,0x20004
100063ce:	51078793          	addi	a5,a5,1296 # 20004510 <_ctrl_xfer>
100063d2:	0005cf03          	lbu	t5,0(a1)
100063d6:	0015ce83          	lbu	t4,1(a1)
100063da:	0025ce03          	lbu	t3,2(a1)
100063de:	0035c303          	lbu	t1,3(a1)
100063e2:	0045c883          	lbu	a7,4(a1)
100063e6:	0055c803          	lbu	a6,5(a1)
100063ea:	0065c703          	lbu	a4,6(a1)
100063ee:	01e78023          	sb	t5,0(a5)
100063f2:	01d780a3          	sb	t4,1(a5)
100063f6:	01c78123          	sb	t3,2(a5)
100063fa:	006781a3          	sb	t1,3(a5)
100063fe:	01178223          	sb	a7,4(a5)
10006402:	010782a3          	sb	a6,5(a5)
10006406:	00e78323          	sb	a4,6(a5)
1000640a:	0075c703          	lbu	a4,7(a1)
1000640e:	00e783a3          	sb	a4,7(a5)
10006412:	c790                	sw	a2,8(a5)
10006414:	00079723          	sh	zero,14(a5)
10006418:	0065c803          	lbu	a6,6(a1)
1000641c:	0075c703          	lbu	a4,7(a1)
10006420:	0722                	slli	a4,a4,0x8
10006422:	01076733          	or	a4,a4,a6
10006426:	0ad756b3          	minu	a3,a4,a3
1000642a:	00d79623          	sh	a3,12(a5)
1000642e:	0065c703          	lbu	a4,6(a1)
10006432:	0075c783          	lbu	a5,7(a1)
10006436:	07a2                	slli	a5,a5,0x8
10006438:	8fd9                	or	a5,a5,a4
1000643a:	cba9                	beqz	a5,1000648c <tud_control_xfer+0xc8>
1000643c:	c291                	beqz	a3,10006440 <tud_control_xfer+0x7c>
1000643e:	ca11                	beqz	a2,10006452 <tud_control_xfer+0x8e>
10006440:	e95ff0ef          	jal	100062d4 <data_stage_xact>
10006444:	842a                	mv	s0,a0
10006446:	c50d                	beqz	a0,10006470 <tud_control_xfer+0xac>
10006448:	8522                	mv	a0,s0
1000644a:	40b2                	lw	ra,12(sp)
1000644c:	4422                	lw	s0,8(sp)
1000644e:	0141                	addi	sp,sp,16
10006450:	8082                	ret
10006452:	07200613          	li	a2,114
10006456:	1000a5b7          	lui	a1,0x1000a
1000645a:	fc458593          	addi	a1,a1,-60 # 10009fc4 <__func__.1>
1000645e:	1000a537          	lui	a0,0x1000a
10006462:	8f450513          	addi	a0,a0,-1804 # 100098f4 <__EH_FRAME_BEGIN__+0xc34>
10006466:	9c0fe0ef          	jal	10004626 <__wrap_printf>
1000646a:	9002                	ebreak
1000646c:	4401                	li	s0,0
1000646e:	bfe9                	j	10006448 <tud_control_xfer+0x84>
10006470:	07400613          	li	a2,116
10006474:	1000a5b7          	lui	a1,0x1000a
10006478:	fc458593          	addi	a1,a1,-60 # 10009fc4 <__func__.1>
1000647c:	1000a537          	lui	a0,0x1000a
10006480:	8f450513          	addi	a0,a0,-1804 # 100098f4 <__EH_FRAME_BEGIN__+0xc34>
10006484:	9a2fe0ef          	jal	10004626 <__wrap_printf>
10006488:	9002                	ebreak
1000648a:	bf7d                	j	10006448 <tud_control_xfer+0x84>
1000648c:	e27ff0ef          	jal	100062b2 <status_stage_xact>
10006490:	842a                	mv	s0,a0
10006492:	f95d                	bnez	a0,10006448 <tud_control_xfer+0x84>
10006494:	07600613          	li	a2,118
10006498:	1000a5b7          	lui	a1,0x1000a
1000649c:	fc458593          	addi	a1,a1,-60 # 10009fc4 <__func__.1>
100064a0:	1000a537          	lui	a0,0x1000a
100064a4:	8f450513          	addi	a0,a0,-1804 # 100098f4 <__EH_FRAME_BEGIN__+0xc34>
100064a8:	97efe0ef          	jal	10004626 <__wrap_printf>
100064ac:	9002                	ebreak
100064ae:	bf69                	j	10006448 <tud_control_xfer+0x84>

100064b0 <usbd_control_reset>:
100064b0:	200047b7          	lui	a5,0x20004
100064b4:	51078793          	addi	a5,a5,1296 # 20004510 <_ctrl_xfer>
100064b8:	0007a023          	sw	zero,0(a5)
100064bc:	0007a223          	sw	zero,4(a5)
100064c0:	0007a423          	sw	zero,8(a5)
100064c4:	0007a623          	sw	zero,12(a5)
100064c8:	0007a823          	sw	zero,16(a5)
100064cc:	8082                	ret

100064ce <usbd_control_set_complete_callback>:
100064ce:	200047b7          	lui	a5,0x20004
100064d2:	51078793          	addi	a5,a5,1296 # 20004510 <_ctrl_xfer>
100064d6:	cb88                	sw	a0,16(a5)
100064d8:	8082                	ret

100064da <usbd_control_set_request>:
100064da:	200047b7          	lui	a5,0x20004
100064de:	51078793          	addi	a5,a5,1296 # 20004510 <_ctrl_xfer>
100064e2:	00054303          	lbu	t1,0(a0)
100064e6:	00154883          	lbu	a7,1(a0)
100064ea:	00254803          	lbu	a6,2(a0)
100064ee:	00354583          	lbu	a1,3(a0)
100064f2:	00454603          	lbu	a2,4(a0)
100064f6:	00554683          	lbu	a3,5(a0)
100064fa:	00654703          	lbu	a4,6(a0)
100064fe:	00678023          	sb	t1,0(a5)
10006502:	011780a3          	sb	a7,1(a5)
10006506:	01078123          	sb	a6,2(a5)
1000650a:	00b781a3          	sb	a1,3(a5)
1000650e:	00c78223          	sb	a2,4(a5)
10006512:	00d782a3          	sb	a3,5(a5)
10006516:	00e78323          	sb	a4,6(a5)
1000651a:	00754703          	lbu	a4,7(a0)
1000651e:	00e783a3          	sb	a4,7(a5)
10006522:	0007a423          	sw	zero,8(a5)
10006526:	00079723          	sh	zero,14(a5)
1000652a:	00079623          	sh	zero,12(a5)
1000652e:	8082                	ret

10006530 <usbd_control_xfer_cb>:
10006530:	1141                	addi	sp,sp,-16
10006532:	c606                	sw	ra,12(sp)
10006534:	c422                	sw	s0,8(sp)
10006536:	c226                	sw	s1,4(sp)
10006538:	84aa                	mv	s1,a0
1000653a:	819d                	srli	a1,a1,0x7
1000653c:	200047b7          	lui	a5,0x20004
10006540:	5107a783          	lw	a5,1296(a5) # 20004510 <_ctrl_xfer>
10006544:	4877d793          	bexti	a5,a5,0x7
10006548:	04b78963          	beq	a5,a1,1000659a <usbd_control_xfer_cb+0x6a>
1000654c:	c68d                	beqz	a3,10006576 <usbd_control_xfer_cb+0x46>
1000654e:	09d00613          	li	a2,157
10006552:	1000a5b7          	lui	a1,0x1000a
10006556:	fac58593          	addi	a1,a1,-84 # 10009fac <__func__.0>
1000655a:	1000a537          	lui	a0,0x1000a
1000655e:	8f450513          	addi	a0,a0,-1804 # 100098f4 <__EH_FRAME_BEGIN__+0xc34>
10006562:	8c4fe0ef          	jal	10004626 <__wrap_printf>
10006566:	9002                	ebreak
10006568:	4401                	li	s0,0
1000656a:	8522                	mv	a0,s0
1000656c:	40b2                	lw	ra,12(sp)
1000656e:	4422                	lw	s0,8(sp)
10006570:	4492                	lw	s1,4(sp)
10006572:	0141                	addi	sp,sp,16
10006574:	8082                	ret
10006576:	20004437          	lui	s0,0x20004
1000657a:	51040593          	addi	a1,s0,1296 # 20004510 <_ctrl_xfer>
1000657e:	b63fe0ef          	jal	100050e0 <dcd_edpt0_status_complete>
10006582:	51040793          	addi	a5,s0,1296
10006586:	4b9c                	lw	a5,16(a5)
10006588:	c791                	beqz	a5,10006594 <usbd_control_xfer_cb+0x64>
1000658a:	51040613          	addi	a2,s0,1296
1000658e:	458d                	li	a1,3
10006590:	8526                	mv	a0,s1
10006592:	9782                	jalr	a5
10006594:	4785                	li	a5,1
10006596:	843e                	mv	s0,a5
10006598:	bfc9                	j	1000656a <usbd_control_xfer_cb+0x3a>
1000659a:	8436                	mv	s0,a3
1000659c:	200047b7          	lui	a5,0x20004
100065a0:	51078783          	lb	a5,1296(a5) # 20004510 <_ctrl_xfer>
100065a4:	0007cf63          	bltz	a5,100065c2 <usbd_control_xfer_cb+0x92>
100065a8:	200047b7          	lui	a5,0x20004
100065ac:	51078793          	addi	a5,a5,1296 # 20004510 <_ctrl_xfer>
100065b0:	4788                	lw	a0,8(a5)
100065b2:	c569                	beqz	a0,1000667c <usbd_control_xfer_cb+0x14c>
100065b4:	8636                	mv	a2,a3
100065b6:	200045b7          	lui	a1,0x20004
100065ba:	4d058593          	addi	a1,a1,1232 # 200044d0 <_ctrl_epbuf>
100065be:	33c020ef          	jal	100088fa <memcpy>
100065c2:	200047b7          	lui	a5,0x20004
100065c6:	51078793          	addi	a5,a5,1296 # 20004510 <_ctrl_xfer>
100065ca:	00e7d703          	lhu	a4,14(a5)
100065ce:	080446b3          	zext.h	a3,s0
100065d2:	9736                	add	a4,a4,a3
100065d4:	08074733          	zext.h	a4,a4
100065d8:	00e79723          	sh	a4,14(a5)
100065dc:	4794                	lw	a3,8(a5)
100065de:	96a2                	add	a3,a3,s0
100065e0:	c794                	sw	a3,8(a5)
100065e2:	0067d783          	lhu	a5,6(a5)
100065e6:	00f70663          	beq	a4,a5,100065f2 <usbd_control_xfer_cb+0xc2>
100065ea:	03f00793          	li	a5,63
100065ee:	0687e363          	bltu	a5,s0,10006654 <usbd_control_xfer_cb+0x124>
100065f2:	200047b7          	lui	a5,0x20004
100065f6:	51078793          	addi	a5,a5,1296 # 20004510 <_ctrl_xfer>
100065fa:	4b9c                	lw	a5,16(a5)
100065fc:	cb89                	beqz	a5,1000660e <usbd_control_xfer_cb+0xde>
100065fe:	20004637          	lui	a2,0x20004
10006602:	51060613          	addi	a2,a2,1296 # 20004510 <_ctrl_xfer>
10006606:	4589                	li	a1,2
10006608:	8526                	mv	a0,s1
1000660a:	9782                	jalr	a5
1000660c:	c905                	beqz	a0,1000663c <usbd_control_xfer_cb+0x10c>
1000660e:	200045b7          	lui	a1,0x20004
10006612:	51058593          	addi	a1,a1,1296 # 20004510 <_ctrl_xfer>
10006616:	8526                	mv	a0,s1
10006618:	c9bff0ef          	jal	100062b2 <status_stage_xact>
1000661c:	842a                	mv	s0,a0
1000661e:	f531                	bnez	a0,1000656a <usbd_control_xfer_cb+0x3a>
10006620:	0c500613          	li	a2,197
10006624:	1000a5b7          	lui	a1,0x1000a
10006628:	fac58593          	addi	a1,a1,-84 # 10009fac <__func__.0>
1000662c:	1000a537          	lui	a0,0x1000a
10006630:	8f450513          	addi	a0,a0,-1804 # 100098f4 <__EH_FRAME_BEGIN__+0xc34>
10006634:	ff3fd0ef          	jal	10004626 <__wrap_printf>
10006638:	9002                	ebreak
1000663a:	bf05                	j	1000656a <usbd_control_xfer_cb+0x3a>
1000663c:	4581                	li	a1,0
1000663e:	8526                	mv	a0,s1
10006640:	b49fe0ef          	jal	10005188 <dcd_edpt_stall>
10006644:	08000593          	li	a1,128
10006648:	8526                	mv	a0,s1
1000664a:	b3ffe0ef          	jal	10005188 <dcd_edpt_stall>
1000664e:	4785                	li	a5,1
10006650:	843e                	mv	s0,a5
10006652:	bf21                	j	1000656a <usbd_control_xfer_cb+0x3a>
10006654:	8526                	mv	a0,s1
10006656:	c7fff0ef          	jal	100062d4 <data_stage_xact>
1000665a:	842a                	mv	s0,a0
1000665c:	f00517e3          	bnez	a0,1000656a <usbd_control_xfer_cb+0x3a>
10006660:	0cd00613          	li	a2,205
10006664:	1000a5b7          	lui	a1,0x1000a
10006668:	fac58593          	addi	a1,a1,-84 # 10009fac <__func__.0>
1000666c:	1000a537          	lui	a0,0x1000a
10006670:	8f450513          	addi	a0,a0,-1804 # 100098f4 <__EH_FRAME_BEGIN__+0xc34>
10006674:	fb3fd0ef          	jal	10004626 <__wrap_printf>
10006678:	9002                	ebreak
1000667a:	bdc5                	j	1000656a <usbd_control_xfer_cb+0x3a>
1000667c:	4401                	li	s0,0
1000667e:	b5f5                	j	1000656a <usbd_control_xfer_cb+0x3a>

10006680 <_prep_out_transaction>:
10006680:	1141                	addi	sp,sp,-16
10006682:	c606                	sw	ra,12(sp)
10006684:	c226                	sw	s1,4(sp)
10006686:	c04a                	sw	s2,0(sp)
10006688:	892a                	mv	s2,a0
1000668a:	8e8ff0ef          	jal	10005772 <tud_mounted>
1000668e:	e901                	bnez	a0,1000669e <_prep_out_transaction+0x1e>
10006690:	4481                	li	s1,0
10006692:	8526                	mv	a0,s1
10006694:	40b2                	lw	ra,12(sp)
10006696:	4492                	lw	s1,4(sp)
10006698:	4902                	lw	s2,0(sp)
1000669a:	0141                	addi	sp,sp,16
1000669c:	8082                	ret
1000669e:	8e6ff0ef          	jal	10005784 <tud_suspended>
100066a2:	84aa                	mv	s1,a0
100066a4:	f575                	bnez	a0,10006690 <_prep_out_transaction+0x10>
100066a6:	20004737          	lui	a4,0x20004
100066aa:	212947b3          	sh2add	a5,s2,s2
100066ae:	20f7c7b3          	sh2add	a5,a5,a5
100066b2:	40870713          	addi	a4,a4,1032 # 20004408 <_cdcd_itf>
100066b6:	20e7e7b3          	sh3add	a5,a5,a4
100066ba:	0037c783          	lbu	a5,3(a5)
100066be:	dbe9                	beqz	a5,10006690 <_prep_out_transaction+0x10>
100066c0:	c422                	sw	s0,8(sp)
100066c2:	212947b3          	sh2add	a5,s2,s2
100066c6:	20f7c7b3          	sh2add	a5,a5,a5
100066ca:	078e                	slli	a5,a5,0x3
100066cc:	07c1                	addi	a5,a5,16
100066ce:	20004737          	lui	a4,0x20004
100066d2:	40870713          	addi	a4,a4,1032 # 20004408 <_cdcd_itf>
100066d6:	97ba                	add	a5,a5,a4
100066d8:	843e                	mv	s0,a5
100066da:	853e                	mv	a0,a5
100066dc:	085010ef          	jal	10007f60 <tu_fifo_remaining>
100066e0:	03f00793          	li	a5,63
100066e4:	00a7e463          	bltu	a5,a0,100066ec <_prep_out_transaction+0x6c>
100066e8:	4422                	lw	s0,8(sp)
100066ea:	b765                	j	10006692 <_prep_out_transaction+0x12>
100066ec:	20004737          	lui	a4,0x20004
100066f0:	212947b3          	sh2add	a5,s2,s2
100066f4:	20f7c7b3          	sh2add	a5,a5,a5
100066f8:	40870713          	addi	a4,a4,1032 # 20004408 <_cdcd_itf>
100066fc:	20e7e7b3          	sh3add	a5,a5,a4
10006700:	0037c583          	lbu	a1,3(a5)
10006704:	4501                	li	a0,0
10006706:	b12ff0ef          	jal	10005a18 <usbd_edpt_claim>
1000670a:	e501                	bnez	a0,10006712 <_prep_out_transaction+0x92>
1000670c:	84aa                	mv	s1,a0
1000670e:	4422                	lw	s0,8(sp)
10006710:	b749                	j	10006692 <_prep_out_transaction+0x12>
10006712:	8522                	mv	a0,s0
10006714:	04d010ef          	jal	10007f60 <tu_fifo_remaining>
10006718:	03f00793          	li	a5,63
1000671c:	02a7fd63          	bgeu	a5,a0,10006756 <_prep_out_transaction+0xd6>
10006720:	00791613          	slli	a2,s2,0x7
10006724:	200047b7          	lui	a5,0x20004
10006728:	21294533          	sh2add	a0,s2,s2
1000672c:	20a54533          	sh2add	a0,a0,a0
10006730:	40878793          	addi	a5,a5,1032 # 20004408 <_cdcd_itf>
10006734:	20f567b3          	sh3add	a5,a0,a5
10006738:	04000693          	li	a3,64
1000673c:	20004737          	lui	a4,0x20004
10006740:	38870713          	addi	a4,a4,904 # 20004388 <_cdcd_epbuf>
10006744:	963a                	add	a2,a2,a4
10006746:	0037c583          	lbu	a1,3(a5)
1000674a:	4501                	li	a0,0
1000674c:	b24ff0ef          	jal	10005a70 <usbd_edpt_xfer>
10006750:	84aa                	mv	s1,a0
10006752:	4422                	lw	s0,8(sp)
10006754:	bf3d                	j	10006692 <_prep_out_transaction+0x12>
10006756:	20004737          	lui	a4,0x20004
1000675a:	212947b3          	sh2add	a5,s2,s2
1000675e:	20f7c7b3          	sh2add	a5,a5,a5
10006762:	40870713          	addi	a4,a4,1032 # 20004408 <_cdcd_itf>
10006766:	20e7e7b3          	sh3add	a5,a5,a4
1000676a:	0037c583          	lbu	a1,3(a5)
1000676e:	4501                	li	a0,0
10006770:	ad4ff0ef          	jal	10005a44 <usbd_edpt_release>
10006774:	4422                	lw	s0,8(sp)
10006776:	bf31                	j	10006692 <_prep_out_transaction+0x12>

10006778 <tud_cdc_n_connected>:
10006778:	1141                	addi	sp,sp,-16
1000677a:	c606                	sw	ra,12(sp)
1000677c:	c422                	sw	s0,8(sp)
1000677e:	842a                	mv	s0,a0
10006780:	ff3fe0ef          	jal	10005772 <tud_mounted>
10006784:	e509                	bnez	a0,1000678e <tud_cdc_n_connected+0x16>
10006786:	40b2                	lw	ra,12(sp)
10006788:	4422                	lw	s0,8(sp)
1000678a:	0141                	addi	sp,sp,16
1000678c:	8082                	ret
1000678e:	ff7fe0ef          	jal	10005784 <tud_suspended>
10006792:	e10d                	bnez	a0,100067b4 <tud_cdc_n_connected+0x3c>
10006794:	200047b7          	lui	a5,0x20004
10006798:	20844533          	sh2add	a0,s0,s0
1000679c:	20a54533          	sh2add	a0,a0,a0
100067a0:	40878793          	addi	a5,a5,1032 # 20004408 <_cdcd_itf>
100067a4:	20f56533          	sh3add	a0,a0,a5
100067a8:	00454783          	lbu	a5,4(a0)
100067ac:	8b85                	andi	a5,a5,1
100067ae:	c789                	beqz	a5,100067b8 <tud_cdc_n_connected+0x40>
100067b0:	4505                	li	a0,1
100067b2:	bfd1                	j	10006786 <tud_cdc_n_connected+0xe>
100067b4:	4501                	li	a0,0
100067b6:	bfc1                	j	10006786 <tud_cdc_n_connected+0xe>
100067b8:	4501                	li	a0,0
100067ba:	b7f1                	j	10006786 <tud_cdc_n_connected+0xe>

100067bc <tud_cdc_n_available>:
100067bc:	1141                	addi	sp,sp,-16
100067be:	c606                	sw	ra,12(sp)
100067c0:	20a54533          	sh2add	a0,a0,a0
100067c4:	20a54533          	sh2add	a0,a0,a0
100067c8:	00351793          	slli	a5,a0,0x3
100067cc:	07c1                	addi	a5,a5,16
100067ce:	20004537          	lui	a0,0x20004
100067d2:	40850513          	addi	a0,a0,1032 # 20004408 <_cdcd_itf>
100067d6:	953e                	add	a0,a0,a5
100067d8:	70a010ef          	jal	10007ee2 <tu_fifo_count>
100067dc:	40b2                	lw	ra,12(sp)
100067de:	0141                	addi	sp,sp,16
100067e0:	8082                	ret

100067e2 <tud_cdc_n_read>:
100067e2:	1141                	addi	sp,sp,-16
100067e4:	c606                	sw	ra,12(sp)
100067e6:	c422                	sw	s0,8(sp)
100067e8:	c226                	sw	s1,4(sp)
100067ea:	842a                	mv	s0,a0
100067ec:	20a547b3          	sh2add	a5,a0,a0
100067f0:	20f7c7b3          	sh2add	a5,a5,a5
100067f4:	078e                	slli	a5,a5,0x3
100067f6:	07c1                	addi	a5,a5,16
100067f8:	20004737          	lui	a4,0x20004
100067fc:	40870713          	addi	a4,a4,1032 # 20004408 <_cdcd_itf>
10006800:	00e78533          	add	a0,a5,a4
10006804:	67c1                	lui	a5,0x10
10006806:	17f9                	addi	a5,a5,-2 # fffe <HeapSize+0xf7fe>
10006808:	02c7e063          	bltu	a5,a2,10006828 <tud_cdc_n_read+0x46>
1000680c:	08064633          	zext.h	a2,a2
10006810:	7e6010ef          	jal	10007ff6 <tu_fifo_read_n>
10006814:	84aa                	mv	s1,a0
10006816:	8522                	mv	a0,s0
10006818:	e69ff0ef          	jal	10006680 <_prep_out_transaction>
1000681c:	8526                	mv	a0,s1
1000681e:	40b2                	lw	ra,12(sp)
10006820:	4422                	lw	s0,8(sp)
10006822:	4492                	lw	s1,4(sp)
10006824:	0141                	addi	sp,sp,16
10006826:	8082                	ret
10006828:	6641                	lui	a2,0x10
1000682a:	167d                	addi	a2,a2,-1 # ffff <HeapSize+0xf7ff>
1000682c:	b7d5                	j	10006810 <tud_cdc_n_read+0x2e>

1000682e <tud_cdc_n_write_flush>:
1000682e:	1141                	addi	sp,sp,-16
10006830:	c606                	sw	ra,12(sp)
10006832:	c226                	sw	s1,4(sp)
10006834:	84aa                	mv	s1,a0
10006836:	f3dfe0ef          	jal	10005772 <tud_mounted>
1000683a:	e511                	bnez	a0,10006846 <tud_cdc_n_write_flush+0x18>
1000683c:	4501                	li	a0,0
1000683e:	40b2                	lw	ra,12(sp)
10006840:	4492                	lw	s1,4(sp)
10006842:	0141                	addi	sp,sp,16
10006844:	8082                	ret
10006846:	f3ffe0ef          	jal	10005784 <tud_suspended>
1000684a:	f96d                	bnez	a0,1000683c <tud_cdc_n_write_flush+0xe>
1000684c:	c04a                	sw	s2,0(sp)
1000684e:	2094c7b3          	sh2add	a5,s1,s1
10006852:	20f7c7b3          	sh2add	a5,a5,a5
10006856:	078e                	slli	a5,a5,0x3
10006858:	02078793          	addi	a5,a5,32
1000685c:	20004737          	lui	a4,0x20004
10006860:	40870713          	addi	a4,a4,1032 # 20004408 <_cdcd_itf>
10006864:	97ba                	add	a5,a5,a4
10006866:	0791                	addi	a5,a5,4
10006868:	893e                	mv	s2,a5
1000686a:	853e                	mv	a0,a5
1000686c:	676010ef          	jal	10007ee2 <tu_fifo_count>
10006870:	e119                	bnez	a0,10006876 <tud_cdc_n_write_flush+0x48>
10006872:	4902                	lw	s2,0(sp)
10006874:	b7e9                	j	1000683e <tud_cdc_n_write_flush+0x10>
10006876:	20004737          	lui	a4,0x20004
1000687a:	2094c7b3          	sh2add	a5,s1,s1
1000687e:	20f7c7b3          	sh2add	a5,a5,a5
10006882:	40870713          	addi	a4,a4,1032 # 20004408 <_cdcd_itf>
10006886:	20e7e7b3          	sh3add	a5,a5,a4
1000688a:	0027c583          	lbu	a1,2(a5)
1000688e:	4501                	li	a0,0
10006890:	988ff0ef          	jal	10005a18 <usbd_edpt_claim>
10006894:	e119                	bnez	a0,1000689a <tud_cdc_n_write_flush+0x6c>
10006896:	4902                	lw	s2,0(sp)
10006898:	b75d                	j	1000683e <tud_cdc_n_write_flush+0x10>
1000689a:	c422                	sw	s0,8(sp)
1000689c:	00749793          	slli	a5,s1,0x7
100068a0:	04078793          	addi	a5,a5,64
100068a4:	20004737          	lui	a4,0x20004
100068a8:	38870713          	addi	a4,a4,904 # 20004388 <_cdcd_epbuf>
100068ac:	97ba                	add	a5,a5,a4
100068ae:	04000613          	li	a2,64
100068b2:	843e                	mv	s0,a5
100068b4:	85be                	mv	a1,a5
100068b6:	854a                	mv	a0,s2
100068b8:	73e010ef          	jal	10007ff6 <tu_fifo_read_n>
100068bc:	892a                	mv	s2,a0
100068be:	c921                	beqz	a0,1000690e <tud_cdc_n_write_flush+0xe0>
100068c0:	200047b7          	lui	a5,0x20004
100068c4:	2094c533          	sh2add	a0,s1,s1
100068c8:	20a54533          	sh2add	a0,a0,a0
100068cc:	40878793          	addi	a5,a5,1032 # 20004408 <_cdcd_itf>
100068d0:	20f56533          	sh3add	a0,a0,a5
100068d4:	86ca                	mv	a3,s2
100068d6:	8622                	mv	a2,s0
100068d8:	00254583          	lbu	a1,2(a0)
100068dc:	4501                	li	a0,0
100068de:	992ff0ef          	jal	10005a70 <usbd_edpt_xfer>
100068e2:	c509                	beqz	a0,100068ec <tud_cdc_n_write_flush+0xbe>
100068e4:	854a                	mv	a0,s2
100068e6:	4422                	lw	s0,8(sp)
100068e8:	4902                	lw	s2,0(sp)
100068ea:	bf91                	j	1000683e <tud_cdc_n_write_flush+0x10>
100068ec:	0d500613          	li	a2,213
100068f0:	1000a5b7          	lui	a1,0x1000a
100068f4:	ff458593          	addi	a1,a1,-12 # 10009ff4 <__func__.3>
100068f8:	1000a537          	lui	a0,0x1000a
100068fc:	8f450513          	addi	a0,a0,-1804 # 100098f4 <__EH_FRAME_BEGIN__+0xc34>
10006900:	d27fd0ef          	jal	10004626 <__wrap_printf>
10006904:	9002                	ebreak
10006906:	4501                	li	a0,0
10006908:	4422                	lw	s0,8(sp)
1000690a:	4902                	lw	s2,0(sp)
1000690c:	bf0d                	j	1000683e <tud_cdc_n_write_flush+0x10>
1000690e:	200047b7          	lui	a5,0x20004
10006912:	2094c533          	sh2add	a0,s1,s1
10006916:	20a54533          	sh2add	a0,a0,a0
1000691a:	40878793          	addi	a5,a5,1032 # 20004408 <_cdcd_itf>
1000691e:	20f567b3          	sh3add	a5,a0,a5
10006922:	0027c583          	lbu	a1,2(a5)
10006926:	4501                	li	a0,0
10006928:	91cff0ef          	jal	10005a44 <usbd_edpt_release>
1000692c:	4501                	li	a0,0
1000692e:	4422                	lw	s0,8(sp)
10006930:	4902                	lw	s2,0(sp)
10006932:	b731                	j	1000683e <tud_cdc_n_write_flush+0x10>

10006934 <tud_cdc_n_write>:
10006934:	1141                	addi	sp,sp,-16
10006936:	c606                	sw	ra,12(sp)
10006938:	c422                	sw	s0,8(sp)
1000693a:	c226                	sw	s1,4(sp)
1000693c:	c04a                	sw	s2,0(sp)
1000693e:	84aa                	mv	s1,a0
10006940:	20a54433          	sh2add	s0,a0,a0
10006944:	20844433          	sh2add	s0,s0,s0
10006948:	040e                	slli	s0,s0,0x3
1000694a:	02040413          	addi	s0,s0,32
1000694e:	200047b7          	lui	a5,0x20004
10006952:	40878793          	addi	a5,a5,1032 # 20004408 <_cdcd_itf>
10006956:	943e                	add	s0,s0,a5
10006958:	0411                	addi	s0,s0,4
1000695a:	67c1                	lui	a5,0x10
1000695c:	17f9                	addi	a5,a5,-2 # fffe <HeapSize+0xf7fe>
1000695e:	02c7e663          	bltu	a5,a2,1000698a <tud_cdc_n_write+0x56>
10006962:	08064633          	zext.h	a2,a2
10006966:	8522                	mv	a0,s0
10006968:	730010ef          	jal	10008098 <tu_fifo_write_n>
1000696c:	892a                	mv	s2,a0
1000696e:	8522                	mv	a0,s0
10006970:	572010ef          	jal	10007ee2 <tu_fifo_count>
10006974:	03f00793          	li	a5,63
10006978:	00a7ec63          	bltu	a5,a0,10006990 <tud_cdc_n_write+0x5c>
1000697c:	854a                	mv	a0,s2
1000697e:	40b2                	lw	ra,12(sp)
10006980:	4422                	lw	s0,8(sp)
10006982:	4492                	lw	s1,4(sp)
10006984:	4902                	lw	s2,0(sp)
10006986:	0141                	addi	sp,sp,16
10006988:	8082                	ret
1000698a:	6641                	lui	a2,0x10
1000698c:	167d                	addi	a2,a2,-1 # ffff <HeapSize+0xf7ff>
1000698e:	bfe1                	j	10006966 <tud_cdc_n_write+0x32>
10006990:	8526                	mv	a0,s1
10006992:	e9dff0ef          	jal	1000682e <tud_cdc_n_write_flush>
10006996:	b7dd                	j	1000697c <tud_cdc_n_write+0x48>

10006998 <tud_cdc_n_write_available>:
10006998:	1141                	addi	sp,sp,-16
1000699a:	c606                	sw	ra,12(sp)
1000699c:	20a54533          	sh2add	a0,a0,a0
100069a0:	20a54533          	sh2add	a0,a0,a0
100069a4:	050e                	slli	a0,a0,0x3
100069a6:	02050513          	addi	a0,a0,32
100069aa:	200047b7          	lui	a5,0x20004
100069ae:	40878793          	addi	a5,a5,1032 # 20004408 <_cdcd_itf>
100069b2:	953e                	add	a0,a0,a5
100069b4:	0511                	addi	a0,a0,4
100069b6:	5aa010ef          	jal	10007f60 <tu_fifo_remaining>
100069ba:	40b2                	lw	ra,12(sp)
100069bc:	0141                	addi	sp,sp,16
100069be:	8082                	ret

100069c0 <cdcd_init>:
100069c0:	1101                	addi	sp,sp,-32
100069c2:	ce06                	sw	ra,28(sp)
100069c4:	c452                	sw	s4,8(sp)
100069c6:	0c800613          	li	a2,200
100069ca:	4581                	li	a1,0
100069cc:	20004537          	lui	a0,0x20004
100069d0:	40850513          	addi	a0,a0,1032 # 20004408 <_cdcd_itf>
100069d4:	67f010ef          	jal	10008852 <memset>
100069d8:	880183a3          	sb	zero,-1913(gp) # 20004f44 <_cdcd_fifo_cfg>
100069dc:	4a01                	li	s4,0
100069de:	000a0663          	beqz	s4,100069ea <cdcd_init+0x2a>
100069e2:	40f2                	lw	ra,28(sp)
100069e4:	4a22                	lw	s4,8(sp)
100069e6:	6105                	addi	sp,sp,32
100069e8:	8082                	ret
100069ea:	cc22                	sw	s0,24(sp)
100069ec:	ca26                	sw	s1,20(sp)
100069ee:	c84a                	sw	s2,16(sp)
100069f0:	c64e                	sw	s3,12(sp)
100069f2:	c256                	sw	s5,4(sp)
100069f4:	c05a                	sw	s6,0(sp)
100069f6:	200044b7          	lui	s1,0x20004
100069fa:	40848493          	addi	s1,s1,1032 # 20004408 <_cdcd_itf>
100069fe:	214a4433          	sh2add	s0,s4,s4
10006a02:	00241b13          	slli	s6,s0,0x2
10006a06:	20844933          	sh2add	s2,s0,s0
10006a0a:	20996933          	sh3add	s2,s2,s1
10006a0e:	57fd                	li	a5,-1
10006a10:	00f902a3          	sb	a5,5(s2)
10006a14:	67f1                	lui	a5,0x1c
10006a16:	20078793          	addi	a5,a5,512 # 1c200 <HeapSize+0x1ba00>
10006a1a:	00f92423          	sw	a5,8(s2)
10006a1e:	00090623          	sb	zero,12(s2)
10006a22:	000906a3          	sb	zero,13(s2)
10006a26:	47a1                	li	a5,8
10006a28:	00f90723          	sb	a5,14(s2)
10006a2c:	208445b3          	sh2add	a1,s0,s0
10006a30:	058e                	slli	a1,a1,0x3
10006a32:	03058593          	addi	a1,a1,48
10006a36:	95a6                	add	a1,a1,s1
10006a38:	20844533          	sh2add	a0,s0,s0
10006a3c:	050e                	slli	a0,a0,0x3
10006a3e:	0541                	addi	a0,a0,16
10006a40:	4701                	li	a4,0
10006a42:	4685                	li	a3,1
10006a44:	04000613          	li	a2,64
10006a48:	95be                	add	a1,a1,a5
10006a4a:	9526                	add	a0,a0,s1
10006a4c:	3ec010ef          	jal	10007e38 <tu_fifo_config>
10006a50:	016405b3          	add	a1,s0,s6
10006a54:	058e                	slli	a1,a1,0x3
10006a56:	07058593          	addi	a1,a1,112
10006a5a:	95a6                	add	a1,a1,s1
10006a5c:	01640533          	add	a0,s0,s6
10006a60:	050e                	slli	a0,a0,0x3
10006a62:	02050513          	addi	a0,a0,32
10006a66:	9526                	add	a0,a0,s1
10006a68:	4705                	li	a4,1
10006a6a:	86ba                	mv	a3,a4
10006a6c:	04000613          	li	a2,64
10006a70:	05a1                	addi	a1,a1,8
10006a72:	0511                	addi	a0,a0,4
10006a74:	3c4010ef          	jal	10007e38 <tu_fifo_config>
10006a78:	016409b3          	add	s3,s0,s6
10006a7c:	098e                	slli	s3,s3,0x3
10006a7e:	0b098993          	addi	s3,s3,176
10006a82:	99a6                	add	s3,s3,s1
10006a84:	09a1                	addi	s3,s3,8
10006a86:	854e                	mv	a0,s3
10006a88:	87afb0ef          	jal	10001b02 <mutex_init>
10006a8c:	01640ab3          	add	s5,s0,s6
10006a90:	0a8e                	slli	s5,s5,0x3
10006a92:	0c0a8a93          	addi	s5,s5,192
10006a96:	9aa6                	add	s5,s5,s1
10006a98:	8556                	mv	a0,s5
10006a9a:	868fb0ef          	jal	10001b02 <mutex_init>
10006a9e:	00092e23          	sw	zero,28(s2)
10006aa2:	03392023          	sw	s3,32(s2)
10006aa6:	03592823          	sw	s5,48(s2)
10006aaa:	02092a23          	sw	zero,52(s2)
10006aae:	0a05                	addi	s4,s4,1
10006ab0:	0ffa7a13          	zext.b	s4,s4
10006ab4:	4462                	lw	s0,24(sp)
10006ab6:	44d2                	lw	s1,20(sp)
10006ab8:	4942                	lw	s2,16(sp)
10006aba:	49b2                	lw	s3,12(sp)
10006abc:	4a92                	lw	s5,4(sp)
10006abe:	4b02                	lw	s6,0(sp)
10006ac0:	bf39                	j	100069de <cdcd_init+0x1e>

10006ac2 <cdcd_deinit>:
10006ac2:	4781                	li	a5,0
10006ac4:	c399                	beqz	a5,10006aca <cdcd_deinit+0x8>
10006ac6:	4505                	li	a0,1
10006ac8:	8082                	ret
10006aca:	873e                	mv	a4,a5
10006acc:	20004637          	lui	a2,0x20004
10006ad0:	20f7c6b3          	sh2add	a3,a5,a5
10006ad4:	20d6c6b3          	sh2add	a3,a3,a3
10006ad8:	40860613          	addi	a2,a2,1032 # 20004408 <_cdcd_itf>
10006adc:	20c6e6b3          	sh3add	a3,a3,a2
10006ae0:	5290                	lw	a2,32(a3)
10006ae2:	5a8c                	lw	a1,48(a3)
10006ae4:	ce19                	beqz	a2,10006b02 <cdcd_deinit+0x40>
10006ae6:	20004637          	lui	a2,0x20004
10006aea:	20f7c6b3          	sh2add	a3,a5,a5
10006aee:	20d6c6b3          	sh2add	a3,a3,a3
10006af2:	40860613          	addi	a2,a2,1032 # 20004408 <_cdcd_itf>
10006af6:	20c6e6b3          	sh3add	a3,a3,a2
10006afa:	0006ae23          	sw	zero,28(a3)
10006afe:	0206a023          	sw	zero,32(a3)
10006b02:	cd99                	beqz	a1,10006b20 <cdcd_deinit+0x5e>
10006b04:	200046b7          	lui	a3,0x20004
10006b08:	40868693          	addi	a3,a3,1032 # 20004408 <_cdcd_itf>
10006b0c:	20e74733          	sh2add	a4,a4,a4
10006b10:	20e74633          	sh2add	a2,a4,a4
10006b14:	20d66633          	sh3add	a2,a2,a3
10006b18:	02062823          	sw	zero,48(a2)
10006b1c:	02062a23          	sw	zero,52(a2)
10006b20:	0785                	addi	a5,a5,1
10006b22:	0ff7f793          	zext.b	a5,a5
10006b26:	bf79                	j	10006ac4 <cdcd_deinit+0x2>

10006b28 <cdcd_reset>:
10006b28:	1141                	addi	sp,sp,-16
10006b2a:	c606                	sw	ra,12(sp)
10006b2c:	c226                	sw	s1,4(sp)
10006b2e:	4481                	li	s1,0
10006b30:	c489                	beqz	s1,10006b3a <cdcd_reset+0x12>
10006b32:	40b2                	lw	ra,12(sp)
10006b34:	4492                	lw	s1,4(sp)
10006b36:	0141                	addi	sp,sp,16
10006b38:	8082                	ret
10006b3a:	c422                	sw	s0,8(sp)
10006b3c:	8426                	mv	s0,s1
10006b3e:	2094c7b3          	sh2add	a5,s1,s1
10006b42:	20f7c7b3          	sh2add	a5,a5,a5
10006b46:	20004737          	lui	a4,0x20004
10006b4a:	40870713          	addi	a4,a4,1032 # 20004408 <_cdcd_itf>
10006b4e:	20e7e7b3          	sh3add	a5,a5,a4
10006b52:	00078023          	sb	zero,0(a5)
10006b56:	000780a3          	sb	zero,1(a5)
10006b5a:	00078123          	sb	zero,2(a5)
10006b5e:	000781a3          	sb	zero,3(a5)
10006b62:	00078223          	sb	zero,4(a5)
10006b66:	8871c783          	lbu	a5,-1913(gp) # 20004f44 <_cdcd_fifo_cfg>
10006b6a:	8b85                	andi	a5,a5,1
10006b6c:	cb9d                	beqz	a5,10006ba2 <cdcd_reset+0x7a>
10006b6e:	8871c783          	lbu	a5,-1913(gp) # 20004f44 <_cdcd_fifo_cfg>
10006b72:	8b89                	andi	a5,a5,2
10006b74:	c3b9                	beqz	a5,10006bba <cdcd_reset+0x92>
10006b76:	20844433          	sh2add	s0,s0,s0
10006b7a:	20844433          	sh2add	s0,s0,s0
10006b7e:	00341513          	slli	a0,s0,0x3
10006b82:	02050513          	addi	a0,a0,32
10006b86:	200047b7          	lui	a5,0x20004
10006b8a:	40878793          	addi	a5,a5,1032 # 20004408 <_cdcd_itf>
10006b8e:	953e                	add	a0,a0,a5
10006b90:	4585                	li	a1,1
10006b92:	0511                	addi	a0,a0,4
10006b94:	562010ef          	jal	100080f6 <tu_fifo_set_overwritable>
10006b98:	0485                	addi	s1,s1,1
10006b9a:	0ff4f493          	zext.b	s1,s1
10006b9e:	4422                	lw	s0,8(sp)
10006ba0:	bf41                	j	10006b30 <cdcd_reset+0x8>
10006ba2:	2094c533          	sh2add	a0,s1,s1
10006ba6:	20a54533          	sh2add	a0,a0,a0
10006baa:	00351793          	slli	a5,a0,0x3
10006bae:	07c1                	addi	a5,a5,16
10006bb0:	00f70533          	add	a0,a4,a5
10006bb4:	4f4010ef          	jal	100080a8 <tu_fifo_clear>
10006bb8:	bf5d                	j	10006b6e <cdcd_reset+0x46>
10006bba:	208447b3          	sh2add	a5,s0,s0
10006bbe:	20f7c533          	sh2add	a0,a5,a5
10006bc2:	050e                	slli	a0,a0,0x3
10006bc4:	02050513          	addi	a0,a0,32
10006bc8:	200047b7          	lui	a5,0x20004
10006bcc:	40878793          	addi	a5,a5,1032 # 20004408 <_cdcd_itf>
10006bd0:	953e                	add	a0,a0,a5
10006bd2:	0511                	addi	a0,a0,4
10006bd4:	4d4010ef          	jal	100080a8 <tu_fifo_clear>
10006bd8:	bf79                	j	10006b76 <cdcd_reset+0x4e>

10006bda <cdcd_open>:
10006bda:	1101                	addi	sp,sp,-32
10006bdc:	ce06                	sw	ra,28(sp)
10006bde:	ca26                	sw	s1,20(sp)
10006be0:	0055c703          	lbu	a4,5(a1)
10006be4:	4789                	li	a5,2
10006be6:	14f71b63          	bne	a4,a5,10006d3c <cdcd_open+0x162>
10006bea:	c64e                	sw	s3,12(sp)
10006bec:	89aa                	mv	s3,a0
10006bee:	0065c703          	lbu	a4,6(a1)
10006bf2:	14f71b63          	bne	a4,a5,10006d48 <cdcd_open+0x16e>
10006bf6:	c84a                	sw	s2,16(sp)
10006bf8:	c452                	sw	s4,8(sp)
10006bfa:	4901                	li	s2,0
10006bfc:	00090f63          	beqz	s2,10006c1a <cdcd_open+0x40>
10006c00:	02091f63          	bnez	s2,10006c3e <cdcd_open+0x64>
10006c04:	cc22                	sw	s0,24(sp)
10006c06:	0025c783          	lbu	a5,2(a1)
10006c0a:	00fa0023          	sb	a5,0(s4)
10006c0e:	0005c783          	lbu	a5,0(a1)
10006c12:	00f58433          	add	s0,a1,a5
10006c16:	44a5                	li	s1,9
10006c18:	a899                	j	10006c6e <cdcd_open+0x94>
10006c1a:	212947b3          	sh2add	a5,s2,s2
10006c1e:	20f7c6b3          	sh2add	a3,a5,a5
10006c22:	20004737          	lui	a4,0x20004
10006c26:	40870713          	addi	a4,a4,1032 # 20004408 <_cdcd_itf>
10006c2a:	20e6e6b3          	sh3add	a3,a3,a4
10006c2e:	8a36                	mv	s4,a3
10006c30:	0026c783          	lbu	a5,2(a3)
10006c34:	d7f1                	beqz	a5,10006c00 <cdcd_open+0x26>
10006c36:	0905                	addi	s2,s2,1
10006c38:	0ff97913          	zext.b	s2,s2
10006c3c:	b7c1                	j	10006bfc <cdcd_open+0x22>
10006c3e:	14100613          	li	a2,321
10006c42:	1000a5b7          	lui	a1,0x1000a
10006c46:	fe858593          	addi	a1,a1,-24 # 10009fe8 <__func__.1>
10006c4a:	1000a537          	lui	a0,0x1000a
10006c4e:	8f450513          	addi	a0,a0,-1804 # 100098f4 <__EH_FRAME_BEGIN__+0xc34>
10006c52:	9d5fd0ef          	jal	10004626 <__wrap_printf>
10006c56:	9002                	ebreak
10006c58:	4481                	li	s1,0
10006c5a:	4942                	lw	s2,16(sp)
10006c5c:	49b2                	lw	s3,12(sp)
10006c5e:	4a22                	lw	s4,8(sp)
10006c60:	a8f9                	j	10006d3e <cdcd_open+0x164>
10006c62:	00044783          	lbu	a5,0(s0)
10006c66:	94be                	add	s1,s1,a5
10006c68:	0804c4b3          	zext.h	s1,s1
10006c6c:	943e                	add	s0,s0,a5
10006c6e:	00144783          	lbu	a5,1(s0)
10006c72:	02400713          	li	a4,36
10006c76:	00e79463          	bne	a5,a4,10006c7e <cdcd_open+0xa4>
10006c7a:	fe9674e3          	bgeu	a2,s1,10006c62 <cdcd_open+0x88>
10006c7e:	4715                	li	a4,5
10006c80:	02e78463          	beq	a5,a4,10006ca8 <cdcd_open+0xce>
10006c84:	00144703          	lbu	a4,1(s0)
10006c88:	4791                	li	a5,4
10006c8a:	00f71763          	bne	a4,a5,10006c98 <cdcd_open+0xbe>
10006c8e:	00544703          	lbu	a4,5(s0)
10006c92:	47a9                	li	a5,10
10006c94:	04f70d63          	beq	a4,a5,10006cee <cdcd_open+0x114>
10006c98:	854a                	mv	a0,s2
10006c9a:	9e7ff0ef          	jal	10006680 <_prep_out_transaction>
10006c9e:	4462                	lw	s0,24(sp)
10006ca0:	4942                	lw	s2,16(sp)
10006ca2:	49b2                	lw	s3,12(sp)
10006ca4:	4a22                	lw	s4,8(sp)
10006ca6:	a861                	j	10006d3e <cdcd_open+0x164>
10006ca8:	85a2                	mv	a1,s0
10006caa:	854e                	mv	a0,s3
10006cac:	c2bfe0ef          	jal	100058d6 <usbd_edpt_open>
10006cb0:	cd01                	beqz	a0,10006cc8 <cdcd_open+0xee>
10006cb2:	00244783          	lbu	a5,2(s0)
10006cb6:	00fa00a3          	sb	a5,1(s4)
10006cba:	00044783          	lbu	a5,0(s0)
10006cbe:	94be                	add	s1,s1,a5
10006cc0:	0804c4b3          	zext.h	s1,s1
10006cc4:	943e                	add	s0,s0,a5
10006cc6:	bf7d                	j	10006c84 <cdcd_open+0xaa>
10006cc8:	15300613          	li	a2,339
10006ccc:	1000a5b7          	lui	a1,0x1000a
10006cd0:	fe858593          	addi	a1,a1,-24 # 10009fe8 <__func__.1>
10006cd4:	1000a537          	lui	a0,0x1000a
10006cd8:	8f450513          	addi	a0,a0,-1804 # 100098f4 <__EH_FRAME_BEGIN__+0xc34>
10006cdc:	94bfd0ef          	jal	10004626 <__wrap_printf>
10006ce0:	9002                	ebreak
10006ce2:	4481                	li	s1,0
10006ce4:	4462                	lw	s0,24(sp)
10006ce6:	4942                	lw	s2,16(sp)
10006ce8:	49b2                	lw	s3,12(sp)
10006cea:	4a22                	lw	s4,8(sp)
10006cec:	a889                	j	10006d3e <cdcd_open+0x164>
10006cee:	00044583          	lbu	a1,0(s0)
10006cf2:	94ae                	add	s1,s1,a1
10006cf4:	0804c4b3          	zext.h	s1,s1
10006cf8:	002a0793          	addi	a5,s4,2
10006cfc:	003a0713          	addi	a4,s4,3
10006d00:	4689                	li	a3,2
10006d02:	8636                	mv	a2,a3
10006d04:	95a2                	add	a1,a1,s0
10006d06:	854e                	mv	a0,s3
10006d08:	c59fe0ef          	jal	10005960 <usbd_open_edpt_pair>
10006d0c:	c509                	beqz	a0,10006d16 <cdcd_open+0x13c>
10006d0e:	04b9                	addi	s1,s1,14
10006d10:	0804c4b3          	zext.h	s1,s1
10006d14:	b751                	j	10006c98 <cdcd_open+0xbe>
10006d16:	16200613          	li	a2,354
10006d1a:	1000a5b7          	lui	a1,0x1000a
10006d1e:	fe858593          	addi	a1,a1,-24 # 10009fe8 <__func__.1>
10006d22:	1000a537          	lui	a0,0x1000a
10006d26:	8f450513          	addi	a0,a0,-1804 # 100098f4 <__EH_FRAME_BEGIN__+0xc34>
10006d2a:	8fdfd0ef          	jal	10004626 <__wrap_printf>
10006d2e:	9002                	ebreak
10006d30:	4481                	li	s1,0
10006d32:	4462                	lw	s0,24(sp)
10006d34:	4942                	lw	s2,16(sp)
10006d36:	49b2                	lw	s3,12(sp)
10006d38:	4a22                	lw	s4,8(sp)
10006d3a:	a011                	j	10006d3e <cdcd_open+0x164>
10006d3c:	4481                	li	s1,0
10006d3e:	8526                	mv	a0,s1
10006d40:	40f2                	lw	ra,28(sp)
10006d42:	44d2                	lw	s1,20(sp)
10006d44:	6105                	addi	sp,sp,32
10006d46:	8082                	ret
10006d48:	4481                	li	s1,0
10006d4a:	49b2                	lw	s3,12(sp)
10006d4c:	bfcd                	j	10006d3e <cdcd_open+0x164>

10006d4e <cdcd_control_xfer_cb>:
10006d4e:	00064703          	lbu	a4,0(a2)
10006d52:	06077713          	andi	a4,a4,96
10006d56:	02000693          	li	a3,32
10006d5a:	14d71e63          	bne	a4,a3,10006eb6 <cdcd_control_xfer_cb+0x168>
10006d5e:	1141                	addi	sp,sp,-16
10006d60:	c606                	sw	ra,12(sp)
10006d62:	c422                	sw	s0,8(sp)
10006d64:	87b2                	mv	a5,a2
10006d66:	4401                	li	s0,0
10006d68:	c805                	beqz	s0,10006d98 <cdcd_control_xfer_cb+0x4a>
10006d6a:	14041863          	bnez	s0,10006eba <cdcd_control_xfer_cb+0x16c>
10006d6e:	0017c703          	lbu	a4,1(a5)
10006d72:	02200693          	li	a3,34
10006d76:	0ad70d63          	beq	a4,a3,10006e30 <cdcd_control_xfer_cb+0xe2>
10006d7a:	04e6e963          	bltu	a3,a4,10006dcc <cdcd_control_xfer_cb+0x7e>
10006d7e:	02000693          	li	a3,32
10006d82:	06d70363          	beq	a4,a3,10006de8 <cdcd_control_xfer_cb+0x9a>
10006d86:	02100693          	li	a3,33
10006d8a:	02d71f63          	bne	a4,a3,10006dc8 <cdcd_control_xfer_cb+0x7a>
10006d8e:	4705                	li	a4,1
10006d90:	08e58863          	beq	a1,a4,10006e20 <cdcd_control_xfer_cb+0xd2>
10006d94:	4505                	li	a0,1
10006d96:	a21d                	j	10006ebc <cdcd_control_xfer_cb+0x16e>
10006d98:	20844733          	sh2add	a4,s0,s0
10006d9c:	20e74633          	sh2add	a2,a4,a4
10006da0:	200046b7          	lui	a3,0x20004
10006da4:	40868693          	addi	a3,a3,1032 # 20004408 <_cdcd_itf>
10006da8:	20d66833          	sh3add	a6,a2,a3
10006dac:	00084683          	lbu	a3,0(a6)
10006db0:	0047c603          	lbu	a2,4(a5)
10006db4:	0057c703          	lbu	a4,5(a5)
10006db8:	0722                	slli	a4,a4,0x8
10006dba:	8f51                	or	a4,a4,a2
10006dbc:	fae687e3          	beq	a3,a4,10006d6a <cdcd_control_xfer_cb+0x1c>
10006dc0:	0405                	addi	s0,s0,1
10006dc2:	0ff47413          	zext.b	s0,s0
10006dc6:	b74d                	j	10006d68 <cdcd_control_xfer_cb+0x1a>
10006dc8:	4501                	li	a0,0
10006dca:	a8cd                	j	10006ebc <cdcd_control_xfer_cb+0x16e>
10006dcc:	02300693          	li	a3,35
10006dd0:	00d71a63          	bne	a4,a3,10006de4 <cdcd_control_xfer_cb+0x96>
10006dd4:	4705                	li	a4,1
10006dd6:	0ae58b63          	beq	a1,a4,10006e8c <cdcd_control_xfer_cb+0x13e>
10006dda:	470d                	li	a4,3
10006ddc:	0ae58d63          	beq	a1,a4,10006e96 <cdcd_control_xfer_cb+0x148>
10006de0:	4505                	li	a0,1
10006de2:	a8e9                	j	10006ebc <cdcd_control_xfer_cb+0x16e>
10006de4:	4501                	li	a0,0
10006de6:	a8d9                	j	10006ebc <cdcd_control_xfer_cb+0x16e>
10006de8:	4705                	li	a4,1
10006dea:	00e58763          	beq	a1,a4,10006df8 <cdcd_control_xfer_cb+0xaa>
10006dee:	478d                	li	a5,3
10006df0:	00f58c63          	beq	a1,a5,10006e08 <cdcd_control_xfer_cb+0xba>
10006df4:	4505                	li	a0,1
10006df6:	a0d9                	j	10006ebc <cdcd_control_xfer_cb+0x16e>
10006df8:	469d                	li	a3,7
10006dfa:	00880613          	addi	a2,a6,8
10006dfe:	85be                	mv	a1,a5
10006e00:	dc4ff0ef          	jal	100063c4 <tud_control_xfer>
10006e04:	4505                	li	a0,1
10006e06:	a85d                	j	10006ebc <cdcd_control_xfer_cb+0x16e>
10006e08:	100047b7          	lui	a5,0x10004
10006e0c:	76478793          	addi	a5,a5,1892 # 10004764 <tud_cdc_line_coding_cb>
10006e10:	cbd5                	beqz	a5,10006ec4 <cdcd_control_xfer_cb+0x176>
10006e12:	00880593          	addi	a1,a6,8
10006e16:	8522                	mv	a0,s0
10006e18:	94dfd0ef          	jal	10004764 <tud_cdc_line_coding_cb>
10006e1c:	4505                	li	a0,1
10006e1e:	a879                	j	10006ebc <cdcd_control_xfer_cb+0x16e>
10006e20:	469d                	li	a3,7
10006e22:	00880613          	addi	a2,a6,8
10006e26:	85be                	mv	a1,a5
10006e28:	d9cff0ef          	jal	100063c4 <tud_control_xfer>
10006e2c:	4505                	li	a0,1
10006e2e:	a079                	j	10006ebc <cdcd_control_xfer_cb+0x16e>
10006e30:	4705                	li	a4,1
10006e32:	00e58763          	beq	a1,a4,10006e40 <cdcd_control_xfer_cb+0xf2>
10006e36:	470d                	li	a4,3
10006e38:	00e58963          	beq	a1,a4,10006e4a <cdcd_control_xfer_cb+0xfc>
10006e3c:	4505                	li	a0,1
10006e3e:	a8bd                	j	10006ebc <cdcd_control_xfer_cb+0x16e>
10006e40:	85be                	mv	a1,a5
10006e42:	d20ff0ef          	jal	10006362 <tud_control_status>
10006e46:	4505                	li	a0,1
10006e48:	a895                	j	10006ebc <cdcd_control_xfer_cb+0x16e>
10006e4a:	c226                	sw	s1,4(sp)
10006e4c:	c04a                	sw	s2,0(sp)
10006e4e:	0027c583          	lbu	a1,2(a5)
10006e52:	0015f793          	andi	a5,a1,1
10006e56:	893e                	mv	s2,a5
10006e58:	4815d793          	bexti	a5,a1,0x1
10006e5c:	84be                	mv	s1,a5
10006e5e:	00b80223          	sb	a1,4(a6)
10006e62:	4785                	li	a5,1
10006e64:	40b7f5b3          	andn	a1,a5,a1
10006e68:	02480513          	addi	a0,a6,36
10006e6c:	28a010ef          	jal	100080f6 <tu_fifo_set_overwritable>
10006e70:	00000793          	li	a5,0
10006e74:	cbb1                	beqz	a5,10006ec8 <cdcd_control_xfer_cb+0x17a>
10006e76:	8626                	mv	a2,s1
10006e78:	85ca                	mv	a1,s2
10006e7a:	8522                	mv	a0,s0
10006e7c:	00000097          	auipc	ra,0x0
10006e80:	000000e7          	jalr	zero # 0 <next_slot_number-0x5>
10006e84:	4505                	li	a0,1
10006e86:	4492                	lw	s1,4(sp)
10006e88:	4902                	lw	s2,0(sp)
10006e8a:	a80d                	j	10006ebc <cdcd_control_xfer_cb+0x16e>
10006e8c:	85be                	mv	a1,a5
10006e8e:	cd4ff0ef          	jal	10006362 <tud_control_status>
10006e92:	4505                	li	a0,1
10006e94:	a025                	j	10006ebc <cdcd_control_xfer_cb+0x16e>
10006e96:	00000713          	li	a4,0
10006e9a:	cb1d                	beqz	a4,10006ed0 <cdcd_control_xfer_cb+0x182>
10006e9c:	0027c583          	lbu	a1,2(a5)
10006ea0:	0037c783          	lbu	a5,3(a5)
10006ea4:	07a2                	slli	a5,a5,0x8
10006ea6:	8ddd                	or	a1,a1,a5
10006ea8:	8522                	mv	a0,s0
10006eaa:	00000097          	auipc	ra,0x0
10006eae:	000000e7          	jalr	zero # 0 <next_slot_number-0x5>
10006eb2:	4505                	li	a0,1
10006eb4:	a021                	j	10006ebc <cdcd_control_xfer_cb+0x16e>
10006eb6:	4501                	li	a0,0
10006eb8:	8082                	ret
10006eba:	4501                	li	a0,0
10006ebc:	40b2                	lw	ra,12(sp)
10006ebe:	4422                	lw	s0,8(sp)
10006ec0:	0141                	addi	sp,sp,16
10006ec2:	8082                	ret
10006ec4:	4505                	li	a0,1
10006ec6:	bfdd                	j	10006ebc <cdcd_control_xfer_cb+0x16e>
10006ec8:	4505                	li	a0,1
10006eca:	4492                	lw	s1,4(sp)
10006ecc:	4902                	lw	s2,0(sp)
10006ece:	b7fd                	j	10006ebc <cdcd_control_xfer_cb+0x16e>
10006ed0:	4505                	li	a0,1
10006ed2:	b7ed                	j	10006ebc <cdcd_control_xfer_cb+0x16e>

10006ed4 <cdcd_xfer_cb>:
10006ed4:	7179                	addi	sp,sp,-48
10006ed6:	d606                	sw	ra,44(sp)
10006ed8:	d422                	sw	s0,40(sp)
10006eda:	d226                	sw	s1,36(sp)
10006edc:	d04a                	sw	s2,32(sp)
10006ede:	cc52                	sw	s4,24(sp)
10006ee0:	c85a                	sw	s6,16(sp)
10006ee2:	8b2a                	mv	s6,a0
10006ee4:	892e                	mv	s2,a1
10006ee6:	8a36                	mv	s4,a3
10006ee8:	4401                	li	s0,0
10006eea:	c41d                	beqz	s0,10006f18 <cdcd_xfer_cb+0x44>
10006eec:	ec21                	bnez	s0,10006f44 <cdcd_xfer_cb+0x70>
10006eee:	ca56                	sw	s5,20(sp)
10006ef0:	8aa2                	mv	s5,s0
10006ef2:	0034c783          	lbu	a5,3(s1)
10006ef6:	07278663          	beq	a5,s2,10006f62 <cdcd_xfer_cb+0x8e>
10006efa:	0024c783          	lbu	a5,2(s1)
10006efe:	0f278e63          	beq	a5,s2,10006ffa <cdcd_xfer_cb+0x126>
10006f02:	4405                	li	s0,1
10006f04:	4ad2                	lw	s5,20(sp)
10006f06:	8522                	mv	a0,s0
10006f08:	50b2                	lw	ra,44(sp)
10006f0a:	5422                	lw	s0,40(sp)
10006f0c:	5492                	lw	s1,36(sp)
10006f0e:	5902                	lw	s2,32(sp)
10006f10:	4a62                	lw	s4,24(sp)
10006f12:	4b42                	lw	s6,16(sp)
10006f14:	6145                	addi	sp,sp,48
10006f16:	8082                	ret
10006f18:	208444b3          	sh2add	s1,s0,s0
10006f1c:	2094c4b3          	sh2add	s1,s1,s1
10006f20:	200047b7          	lui	a5,0x20004
10006f24:	40878793          	addi	a5,a5,1032 # 20004408 <_cdcd_itf>
10006f28:	20f4e4b3          	sh3add	s1,s1,a5
10006f2c:	0034c783          	lbu	a5,3(s1)
10006f30:	fb278ee3          	beq	a5,s2,10006eec <cdcd_xfer_cb+0x18>
10006f34:	0024c783          	lbu	a5,2(s1)
10006f38:	fb278ae3          	beq	a5,s2,10006eec <cdcd_xfer_cb+0x18>
10006f3c:	0405                	addi	s0,s0,1
10006f3e:	0ff47413          	zext.b	s0,s0
10006f42:	b765                	j	10006eea <cdcd_xfer_cb+0x16>
10006f44:	1cc00613          	li	a2,460
10006f48:	1000a5b7          	lui	a1,0x1000a
10006f4c:	fd858593          	addi	a1,a1,-40 # 10009fd8 <__func__.0>
10006f50:	1000a537          	lui	a0,0x1000a
10006f54:	8f450513          	addi	a0,a0,-1804 # 100098f4 <__EH_FRAME_BEGIN__+0xc34>
10006f58:	ecefd0ef          	jal	10004626 <__wrap_printf>
10006f5c:	9002                	ebreak
10006f5e:	4401                	li	s0,0
10006f60:	b75d                	j	10006f06 <cdcd_xfer_cb+0x32>
10006f62:	c65e                	sw	s7,12(sp)
10006f64:	01048793          	addi	a5,s1,16
10006f68:	8bbe                	mv	s7,a5
10006f6a:	00741593          	slli	a1,s0,0x7
10006f6e:	080a4633          	zext.h	a2,s4
10006f72:	200047b7          	lui	a5,0x20004
10006f76:	38878793          	addi	a5,a5,904 # 20004388 <_cdcd_epbuf>
10006f7a:	95be                	add	a1,a1,a5
10006f7c:	855e                	mv	a0,s7
10006f7e:	11a010ef          	jal	10008098 <tu_fifo_write_n>
10006f82:	00000793          	li	a5,0
10006f86:	cba1                	beqz	a5,10006fd6 <cdcd_xfer_cb+0x102>
10006f88:	0054c703          	lbu	a4,5(s1)
10006f8c:	0ff00793          	li	a5,255
10006f90:	04f70363          	beq	a4,a5,10006fd6 <cdcd_xfer_cb+0x102>
10006f94:	ce4e                	sw	s3,28(sp)
10006f96:	4981                	li	s3,0
10006f98:	a011                	j	10006f9c <cdcd_xfer_cb+0xc8>
10006f9a:	0985                	addi	s3,s3,1
10006f9c:	0349fc63          	bgeu	s3,s4,10006fd4 <cdcd_xfer_cb+0x100>
10006fa0:	0054c683          	lbu	a3,5(s1)
10006fa4:	200047b7          	lui	a5,0x20004
10006fa8:	007a9713          	slli	a4,s5,0x7
10006fac:	38878793          	addi	a5,a5,904 # 20004388 <_cdcd_epbuf>
10006fb0:	97ba                	add	a5,a5,a4
10006fb2:	97ce                	add	a5,a5,s3
10006fb4:	0007c783          	lbu	a5,0(a5)
10006fb8:	fef691e3          	bne	a3,a5,10006f9a <cdcd_xfer_cb+0xc6>
10006fbc:	855e                	mv	a0,s7
10006fbe:	759000ef          	jal	10007f16 <tu_fifo_empty>
10006fc2:	fd61                	bnez	a0,10006f9a <cdcd_xfer_cb+0xc6>
10006fc4:	0054c583          	lbu	a1,5(s1)
10006fc8:	8522                	mv	a0,s0
10006fca:	00000097          	auipc	ra,0x0
10006fce:	000000e7          	jalr	zero # 0 <next_slot_number-0x5>
10006fd2:	b7e1                	j	10006f9a <cdcd_xfer_cb+0xc6>
10006fd4:	49f2                	lw	s3,28(sp)
10006fd6:	00000793          	li	a5,0
10006fda:	c789                	beqz	a5,10006fe4 <cdcd_xfer_cb+0x110>
10006fdc:	855e                	mv	a0,s7
10006fde:	739000ef          	jal	10007f16 <tu_fifo_empty>
10006fe2:	c511                	beqz	a0,10006fee <cdcd_xfer_cb+0x11a>
10006fe4:	8522                	mv	a0,s0
10006fe6:	e9aff0ef          	jal	10006680 <_prep_out_transaction>
10006fea:	4bb2                	lw	s7,12(sp)
10006fec:	b739                	j	10006efa <cdcd_xfer_cb+0x26>
10006fee:	8522                	mv	a0,s0
10006ff0:	00000097          	auipc	ra,0x0
10006ff4:	000000e7          	jalr	zero # 0 <next_slot_number-0x5>
10006ff8:	b7f5                	j	10006fe4 <cdcd_xfer_cb+0x110>
10006ffa:	00000793          	li	a5,0
10006ffe:	c791                	beqz	a5,1000700a <cdcd_xfer_cb+0x136>
10007000:	8522                	mv	a0,s0
10007002:	00000097          	auipc	ra,0x0
10007006:	000000e7          	jalr	zero # 0 <next_slot_number-0x5>
1000700a:	8522                	mv	a0,s0
1000700c:	823ff0ef          	jal	1000682e <tud_cdc_n_write_flush>
10007010:	c501                	beqz	a0,10007018 <cdcd_xfer_cb+0x144>
10007012:	4405                	li	s0,1
10007014:	4ad2                	lw	s5,20(sp)
10007016:	bdc5                	j	10006f06 <cdcd_xfer_cb+0x32>
10007018:	02448513          	addi	a0,s1,36
1000701c:	6c7000ef          	jal	10007ee2 <tu_fifo_count>
10007020:	ed05                	bnez	a0,10007058 <cdcd_xfer_cb+0x184>
10007022:	020a0e63          	beqz	s4,1000705e <cdcd_xfer_cb+0x18a>
10007026:	03fa7793          	andi	a5,s4,63
1000702a:	c781                	beqz	a5,10007032 <cdcd_xfer_cb+0x15e>
1000702c:	4405                	li	s0,1
1000702e:	4ad2                	lw	s5,20(sp)
10007030:	bdd9                	j	10006f06 <cdcd_xfer_cb+0x32>
10007032:	0024c583          	lbu	a1,2(s1)
10007036:	855a                	mv	a0,s6
10007038:	9e1fe0ef          	jal	10005a18 <usbd_edpt_claim>
1000703c:	842a                	mv	s0,a0
1000703e:	e501                	bnez	a0,10007046 <cdcd_xfer_cb+0x172>
10007040:	4405                	li	s0,1
10007042:	4ad2                	lw	s5,20(sp)
10007044:	b5c9                	j	10006f06 <cdcd_xfer_cb+0x32>
10007046:	4681                	li	a3,0
10007048:	4601                	li	a2,0
1000704a:	0024c583          	lbu	a1,2(s1)
1000704e:	855a                	mv	a0,s6
10007050:	a21fe0ef          	jal	10005a70 <usbd_edpt_xfer>
10007054:	4ad2                	lw	s5,20(sp)
10007056:	bd45                	j	10006f06 <cdcd_xfer_cb+0x32>
10007058:	4405                	li	s0,1
1000705a:	4ad2                	lw	s5,20(sp)
1000705c:	b56d                	j	10006f06 <cdcd_xfer_cb+0x32>
1000705e:	4405                	li	s0,1
10007060:	4ad2                	lw	s5,20(sp)
10007062:	b555                	j	10006f06 <cdcd_xfer_cb+0x32>

10007064 <tud_vendor_n_mounted>:
10007064:	e529                	bnez	a0,100070ae <tud_vendor_n_mounted+0x4a>
10007066:	20004737          	lui	a4,0x20004
1000706a:	20a567b3          	sh3add	a5,a0,a0
1000706e:	20a7e7b3          	sh3add	a5,a5,a0
10007072:	20a7a7b3          	sh1add	a5,a5,a0
10007076:	6d870713          	addi	a4,a4,1752 # 200046d8 <_vendord_itf>
1000707a:	20e7c7b3          	sh2add	a5,a5,a4
1000707e:	1297c783          	lbu	a5,297(a5)
10007082:	e395                	bnez	a5,100070a6 <tud_vendor_n_mounted+0x42>
10007084:	20004737          	lui	a4,0x20004
10007088:	20a567b3          	sh3add	a5,a0,a0
1000708c:	20a7e7b3          	sh3add	a5,a5,a0
10007090:	20a7a7b3          	sh1add	a5,a5,a0
10007094:	6d870713          	addi	a4,a4,1752 # 200046d8 <_vendord_itf>
10007098:	20e7c7b3          	sh2add	a5,a5,a4
1000709c:	0057c783          	lbu	a5,5(a5)
100070a0:	c789                	beqz	a5,100070aa <tud_vendor_n_mounted+0x46>
100070a2:	4505                	li	a0,1
100070a4:	8082                	ret
100070a6:	4505                	li	a0,1
100070a8:	8082                	ret
100070aa:	4501                	li	a0,0
100070ac:	8082                	ret
100070ae:	4501                	li	a0,0
100070b0:	8082                	ret

100070b2 <tud_vendor_n_write_flush>:
100070b2:	c119                	beqz	a0,100070b8 <tud_vendor_n_write_flush+0x6>
100070b4:	4501                	li	a0,0
100070b6:	8082                	ret
100070b8:	1141                	addi	sp,sp,-16
100070ba:	c606                	sw	ra,12(sp)
100070bc:	20a565b3          	sh3add	a1,a0,a0
100070c0:	20a5e5b3          	sh3add	a1,a1,a0
100070c4:	20a5a5b3          	sh1add	a1,a1,a0
100070c8:	200047b7          	lui	a5,0x20004
100070cc:	6d878793          	addi	a5,a5,1752 # 200046d8 <_vendord_itf>
100070d0:	20f5c5b3          	sh2add	a1,a1,a5
100070d4:	0591                	addi	a1,a1,4
100070d6:	7c6000ef          	jal	1000789c <tu_edpt_stream_write_xfer>
100070da:	40b2                	lw	ra,12(sp)
100070dc:	0141                	addi	sp,sp,16
100070de:	8082                	ret

100070e0 <vendord_init>:
100070e0:	1101                	addi	sp,sp,-32
100070e2:	ce06                	sw	ra,28(sp)
100070e4:	cc22                	sw	s0,24(sp)
100070e6:	24c00613          	li	a2,588
100070ea:	4581                	li	a1,0
100070ec:	20004537          	lui	a0,0x20004
100070f0:	6d850513          	addi	a0,a0,1752 # 200046d8 <_vendord_itf>
100070f4:	75e010ef          	jal	10008852 <memset>
100070f8:	4401                	li	s0,0
100070fa:	c409                	beqz	s0,10007104 <vendord_init+0x24>
100070fc:	40f2                	lw	ra,28(sp)
100070fe:	4462                	lw	s0,24(sp)
10007100:	6105                	addi	sp,sp,32
10007102:	8082                	ret
10007104:	ca26                	sw	s1,20(sp)
10007106:	c84a                	sw	s2,16(sp)
10007108:	c64e                	sw	s3,12(sp)
1000710a:	c452                	sw	s4,8(sp)
1000710c:	208467b3          	sh3add	a5,s0,s0
10007110:	2087e7b3          	sh3add	a5,a5,s0
10007114:	00179493          	slli	s1,a5,0x1
10007118:	2087a733          	sh1add	a4,a5,s0
1000711c:	070a                	slli	a4,a4,0x2
1000711e:	14070713          	addi	a4,a4,320
10007122:	20004937          	lui	s2,0x20004
10007126:	6d890913          	addi	s2,s2,1752 # 200046d8 <_vendord_itf>
1000712a:	974a                	add	a4,a4,s2
1000712c:	00741993          	slli	s3,s0,0x7
10007130:	20004a37          	lui	s4,0x20004
10007134:	658a0a13          	addi	s4,s4,1624 # 20004658 <_vendord_epbuf>
10007138:	2087a533          	sh1add	a0,a5,s0
1000713c:	050a                	slli	a0,a0,0x2
1000713e:	12050513          	addi	a0,a0,288
10007142:	954a                	add	a0,a0,s2
10007144:	04000893          	li	a7,64
10007148:	013a0833          	add	a6,s4,s3
1000714c:	10000793          	li	a5,256
10007150:	0731                	addi	a4,a4,12
10007152:	4681                	li	a3,0
10007154:	4601                	li	a2,0
10007156:	4581                	li	a1,0
10007158:	0521                	addi	a0,a0,8
1000715a:	250d                	jal	1000777c <tu_edpt_stream_init>
1000715c:	00848733          	add	a4,s1,s0
10007160:	070a                	slli	a4,a4,0x2
10007162:	02070713          	addi	a4,a4,32
10007166:	974a                	add	a4,a4,s2
10007168:	04098813          	addi	a6,s3,64
1000716c:	00848533          	add	a0,s1,s0
10007170:	21254533          	sh2add	a0,a0,s2
10007174:	04000893          	li	a7,64
10007178:	9852                	add	a6,a6,s4
1000717a:	10000793          	li	a5,256
1000717e:	0721                	addi	a4,a4,8
10007180:	4681                	li	a3,0
10007182:	4605                	li	a2,1
10007184:	4581                	li	a1,0
10007186:	0511                	addi	a0,a0,4
10007188:	2bd5                	jal	1000777c <tu_edpt_stream_init>
1000718a:	0405                	addi	s0,s0,1
1000718c:	0ff47413          	zext.b	s0,s0
10007190:	44d2                	lw	s1,20(sp)
10007192:	4942                	lw	s2,16(sp)
10007194:	49b2                	lw	s3,12(sp)
10007196:	4a22                	lw	s4,8(sp)
10007198:	b78d                	j	100070fa <vendord_init+0x1a>

1000719a <vendord_deinit>:
1000719a:	1141                	addi	sp,sp,-16
1000719c:	c606                	sw	ra,12(sp)
1000719e:	c422                	sw	s0,8(sp)
100071a0:	4401                	li	s0,0
100071a2:	c411                	beqz	s0,100071ae <vendord_deinit+0x14>
100071a4:	4505                	li	a0,1
100071a6:	40b2                	lw	ra,12(sp)
100071a8:	4422                	lw	s0,8(sp)
100071aa:	0141                	addi	sp,sp,16
100071ac:	8082                	ret
100071ae:	c226                	sw	s1,4(sp)
100071b0:	c04a                	sw	s2,0(sp)
100071b2:	208467b3          	sh3add	a5,s0,s0
100071b6:	2087e7b3          	sh3add	a5,a5,s0
100071ba:	00179493          	slli	s1,a5,0x1
100071be:	2087a533          	sh1add	a0,a5,s0
100071c2:	050a                	slli	a0,a0,0x2
100071c4:	12050513          	addi	a0,a0,288
100071c8:	20004937          	lui	s2,0x20004
100071cc:	6d890913          	addi	s2,s2,1752 # 200046d8 <_vendord_itf>
100071d0:	954a                	add	a0,a0,s2
100071d2:	0521                	addi	a0,a0,8
100071d4:	250d                	jal	100077f6 <tu_edpt_stream_deinit>
100071d6:	00848533          	add	a0,s1,s0
100071da:	21254533          	sh2add	a0,a0,s2
100071de:	0511                	addi	a0,a0,4
100071e0:	2d19                	jal	100077f6 <tu_edpt_stream_deinit>
100071e2:	0405                	addi	s0,s0,1
100071e4:	0ff47413          	zext.b	s0,s0
100071e8:	4492                	lw	s1,4(sp)
100071ea:	4902                	lw	s2,0(sp)
100071ec:	bf5d                	j	100071a2 <vendord_deinit+0x8>

100071ee <vendord_reset>:
100071ee:	1101                	addi	sp,sp,-32
100071f0:	ce06                	sw	ra,28(sp)
100071f2:	cc22                	sw	s0,24(sp)
100071f4:	4401                	li	s0,0
100071f6:	c409                	beqz	s0,10007200 <vendord_reset+0x12>
100071f8:	40f2                	lw	ra,28(sp)
100071fa:	4462                	lw	s0,24(sp)
100071fc:	6105                	addi	sp,sp,32
100071fe:	8082                	ret
10007200:	ca26                	sw	s1,20(sp)
10007202:	c84a                	sw	s2,16(sp)
10007204:	c64e                	sw	s3,12(sp)
10007206:	208467b3          	sh3add	a5,s0,s0
1000720a:	2087e7b3          	sh3add	a5,a5,s0
1000720e:	2087a9b3          	sh1add	s3,a5,s0
10007212:	20004937          	lui	s2,0x20004
10007216:	6d890913          	addi	s2,s2,1752 # 200046d8 <_vendord_itf>
1000721a:	2129c9b3          	sh2add	s3,s3,s2
1000721e:	00098023          	sb	zero,0(s3)
10007222:	2087a533          	sh1add	a0,a5,s0
10007226:	050a                	slli	a0,a0,0x2
10007228:	12050513          	addi	a0,a0,288
1000722c:	954a                	add	a0,a0,s2
1000722e:	0541                	addi	a0,a0,16
10007230:	679000ef          	jal	100080a8 <tu_fifo_clear>
10007234:	00c98513          	addi	a0,s3,12
10007238:	671000ef          	jal	100080a8 <tu_fifo_clear>
1000723c:	120984a3          	sb	zero,297(s3)
10007240:	000982a3          	sb	zero,5(s3)
10007244:	0405                	addi	s0,s0,1
10007246:	0ff47413          	zext.b	s0,s0
1000724a:	44d2                	lw	s1,20(sp)
1000724c:	4942                	lw	s2,16(sp)
1000724e:	49b2                	lw	s3,12(sp)
10007250:	b75d                	j	100071f6 <vendord_reset+0x8>

10007252 <vendord_open>:
10007252:	0055c703          	lbu	a4,5(a1)
10007256:	0ff00793          	li	a5,255
1000725a:	18f71a63          	bne	a4,a5,100073ee <vendord_open+0x19c>
1000725e:	1101                	addi	sp,sp,-32
10007260:	ce06                	sw	ra,28(sp)
10007262:	cc22                	sw	s0,24(sp)
10007264:	ca26                	sw	s1,20(sp)
10007266:	c84a                	sw	s2,16(sp)
10007268:	c64e                	sw	s3,12(sp)
1000726a:	c452                	sw	s4,8(sp)
1000726c:	8a2a                	mv	s4,a0
1000726e:	89ae                	mv	s3,a1
10007270:	0005c403          	lbu	s0,0(a1)
10007274:	942e                	add	s0,s0,a1
10007276:	00c404b3          	add	s1,s0,a2
1000727a:	4901                	li	s2,0
1000727c:	00090b63          	beqz	s2,10007292 <vendord_open+0x40>
10007280:	4501                	li	a0,0
10007282:	40f2                	lw	ra,28(sp)
10007284:	4462                	lw	s0,24(sp)
10007286:	44d2                	lw	s1,20(sp)
10007288:	4942                	lw	s2,16(sp)
1000728a:	49b2                	lw	s3,12(sp)
1000728c:	4a22                	lw	s4,8(sp)
1000728e:	6105                	addi	sp,sp,32
10007290:	8082                	ret
10007292:	854a                	mv	a0,s2
10007294:	dd1ff0ef          	jal	10007064 <tud_vendor_n_mounted>
10007298:	c509                	beqz	a0,100072a2 <vendord_open+0x50>
1000729a:	0905                	addi	s2,s2,1
1000729c:	0ff97913          	zext.b	s2,s2
100072a0:	bff1                	j	1000727c <vendord_open+0x2a>
100072a2:	c256                	sw	s5,4(sp)
100072a4:	212967b3          	sh3add	a5,s2,s2
100072a8:	2127e7b3          	sh3add	a5,a5,s2
100072ac:	2127a7b3          	sh1add	a5,a5,s2
100072b0:	20004737          	lui	a4,0x20004
100072b4:	6d870713          	addi	a4,a4,1752 # 200046d8 <_vendord_itf>
100072b8:	20e7c7b3          	sh2add	a5,a5,a4
100072bc:	8abe                	mv	s5,a5
100072be:	0029c783          	lbu	a5,2(s3)
100072c2:	00fa8023          	sb	a5,0(s5)
100072c6:	a095                	j	1000732a <vendord_open+0xd8>
100072c8:	10947d63          	bgeu	s0,s1,100073e2 <vendord_open+0x190>
100072cc:	85a2                	mv	a1,s0
100072ce:	8552                	mv	a0,s4
100072d0:	e06fe0ef          	jal	100058d6 <usbd_edpt_open>
100072d4:	c935                	beqz	a0,10007348 <vendord_open+0xf6>
100072d6:	0905                	addi	s2,s2,1
100072d8:	0ff97913          	zext.b	s2,s2
100072dc:	00244783          	lbu	a5,2(s0)
100072e0:	839d                	srli	a5,a5,0x7
100072e2:	e3d9                	bnez	a5,10007368 <vendord_open+0x116>
100072e4:	130a8513          	addi	a0,s5,304
100072e8:	5c1000ef          	jal	100080a8 <tu_fifo_clear>
100072ec:	00244783          	lbu	a5,2(s0)
100072f0:	12fa84a3          	sb	a5,297(s5)
100072f4:	00444703          	lbu	a4,4(s0)
100072f8:	00544783          	lbu	a5,5(s0)
100072fc:	07a2                	slli	a5,a5,0x8
100072fe:	8fd9                	or	a5,a5,a4
10007300:	7ff7f793          	andi	a5,a5,2047
10007304:	e0078793          	addi	a5,a5,-512
10007308:	0017b793          	seqz	a5,a5
1000730c:	0786                	slli	a5,a5,0x1
1000730e:	128ac703          	lbu	a4,296(s5)
10007312:	9b75                	andi	a4,a4,-3
10007314:	8fd9                	or	a5,a5,a4
10007316:	12fa8423          	sb	a5,296(s5)
1000731a:	128a8593          	addi	a1,s5,296
1000731e:	8552                	mv	a0,s4
10007320:	2d21                	jal	10007938 <tu_edpt_stream_read_xfer>
10007322:	c145                	beqz	a0,100073c2 <vendord_open+0x170>
10007324:	00044783          	lbu	a5,0(s0)
10007328:	943e                	add	s0,s0,a5
1000732a:	0049c783          	lbu	a5,4(s3)
1000732e:	0af97a63          	bgeu	s2,a5,100073e2 <vendord_open+0x190>
10007332:	00144703          	lbu	a4,1(s0)
10007336:	4795                	li	a5,5
10007338:	f8f708e3          	beq	a4,a5,100072c8 <vendord_open+0x76>
1000733c:	f89476e3          	bgeu	s0,s1,100072c8 <vendord_open+0x76>
10007340:	00044783          	lbu	a5,0(s0)
10007344:	943e                	add	s0,s0,a5
10007346:	b7f5                	j	10007332 <vendord_open+0xe0>
10007348:	0e000613          	li	a2,224
1000734c:	1000a5b7          	lui	a1,0x1000a
10007350:	00c58593          	addi	a1,a1,12 # 1000a00c <__func__.0>
10007354:	1000a537          	lui	a0,0x1000a
10007358:	8f450513          	addi	a0,a0,-1804 # 100098f4 <__EH_FRAME_BEGIN__+0xc34>
1000735c:	acafd0ef          	jal	10004626 <__wrap_printf>
10007360:	9002                	ebreak
10007362:	4501                	li	a0,0
10007364:	4a92                	lw	s5,4(sp)
10007366:	bf31                	j	10007282 <vendord_open+0x30>
10007368:	00ca8513          	addi	a0,s5,12
1000736c:	53d000ef          	jal	100080a8 <tu_fifo_clear>
10007370:	00244783          	lbu	a5,2(s0)
10007374:	00fa82a3          	sb	a5,5(s5)
10007378:	00444703          	lbu	a4,4(s0)
1000737c:	00544783          	lbu	a5,5(s0)
10007380:	07a2                	slli	a5,a5,0x8
10007382:	8fd9                	or	a5,a5,a4
10007384:	7ff7f793          	andi	a5,a5,2047
10007388:	e0078793          	addi	a5,a5,-512
1000738c:	0017b793          	seqz	a5,a5
10007390:	0786                	slli	a5,a5,0x1
10007392:	004ac703          	lbu	a4,4(s5)
10007396:	9b75                	andi	a4,a4,-3
10007398:	8fd9                	or	a5,a5,a4
1000739a:	00fa8223          	sb	a5,4(s5)
1000739e:	20004537          	lui	a0,0x20004
100073a2:	6d850513          	addi	a0,a0,1752 # 200046d8 <_vendord_itf>
100073a6:	40aa8533          	sub	a0,s5,a0
100073aa:	8509                	srai	a0,a0,0x2
100073ac:	08b527b7          	lui	a5,0x8b52
100073b0:	d9b78793          	addi	a5,a5,-613 # 8b51d9b <HeapSize+0x8b5159b>
100073b4:	02f50533          	mul	a0,a0,a5
100073b8:	0ff57513          	zext.b	a0,a0
100073bc:	cf7ff0ef          	jal	100070b2 <tud_vendor_n_write_flush>
100073c0:	b795                	j	10007324 <vendord_open+0xd2>
100073c2:	0e800613          	li	a2,232
100073c6:	1000a5b7          	lui	a1,0x1000a
100073ca:	00c58593          	addi	a1,a1,12 # 1000a00c <__func__.0>
100073ce:	1000a537          	lui	a0,0x1000a
100073d2:	8f450513          	addi	a0,a0,-1804 # 100098f4 <__EH_FRAME_BEGIN__+0xc34>
100073d6:	a50fd0ef          	jal	10004626 <__wrap_printf>
100073da:	9002                	ebreak
100073dc:	4501                	li	a0,0
100073de:	4a92                	lw	s5,4(sp)
100073e0:	b54d                	j	10007282 <vendord_open+0x30>
100073e2:	413405b3          	sub	a1,s0,s3
100073e6:	0805c533          	zext.h	a0,a1
100073ea:	4a92                	lw	s5,4(sp)
100073ec:	bd59                	j	10007282 <vendord_open+0x30>
100073ee:	4501                	li	a0,0
100073f0:	8082                	ret

100073f2 <vendord_xfer_cb>:
100073f2:	1101                	addi	sp,sp,-32
100073f4:	ce06                	sw	ra,28(sp)
100073f6:	cc22                	sw	s0,24(sp)
100073f8:	ca26                	sw	s1,20(sp)
100073fa:	c84a                	sw	s2,16(sp)
100073fc:	c64e                	sw	s3,12(sp)
100073fe:	892a                	mv	s2,a0
10007400:	89b6                	mv	s3,a3
10007402:	4401                	li	s0,0
10007404:	cc19                	beqz	s0,10007422 <vendord_xfer_cb+0x30>
10007406:	e079                	bnez	s0,100074cc <vendord_xfer_cb+0xda>
10007408:	c452                	sw	s4,8(sp)
1000740a:	8a22                	mv	s4,s0
1000740c:	1294c783          	lbu	a5,297(s1)
10007410:	04b78163          	beq	a5,a1,10007452 <vendord_xfer_cb+0x60>
10007414:	0054c783          	lbu	a5,5(s1)
10007418:	08b78163          	beq	a5,a1,1000749a <vendord_xfer_cb+0xa8>
1000741c:	4505                	li	a0,1
1000741e:	4a22                	lw	s4,8(sp)
10007420:	a07d                	j	100074ce <vendord_xfer_cb+0xdc>
10007422:	208464b3          	sh3add	s1,s0,s0
10007426:	2084e4b3          	sh3add	s1,s1,s0
1000742a:	2084a4b3          	sh1add	s1,s1,s0
1000742e:	200047b7          	lui	a5,0x20004
10007432:	6d878793          	addi	a5,a5,1752 # 200046d8 <_vendord_itf>
10007436:	20f4c4b3          	sh2add	s1,s1,a5
1000743a:	1294c783          	lbu	a5,297(s1)
1000743e:	fcb784e3          	beq	a5,a1,10007406 <vendord_xfer_cb+0x14>
10007442:	0054c783          	lbu	a5,5(s1)
10007446:	fcb780e3          	beq	a5,a1,10007406 <vendord_xfer_cb+0x14>
1000744a:	0405                	addi	s0,s0,1
1000744c:	0ff47413          	zext.b	s0,s0
10007450:	bf55                	j	10007404 <vendord_xfer_cb+0x12>
10007452:	1344d783          	lhu	a5,308(s1)
10007456:	eb8d                	bnez	a5,10007488 <vendord_xfer_cb+0x96>
10007458:	00000793          	li	a5,0
1000745c:	cf99                	beqz	a5,1000747a <vendord_xfer_cb+0x88>
1000745e:	007a1793          	slli	a5,s4,0x7
10007462:	0809c633          	zext.h	a2,s3
10007466:	200045b7          	lui	a1,0x20004
1000746a:	65858593          	addi	a1,a1,1624 # 20004658 <_vendord_epbuf>
1000746e:	95be                	add	a1,a1,a5
10007470:	8522                	mv	a0,s0
10007472:	00000097          	auipc	ra,0x0
10007476:	000000e7          	jalr	zero # 0 <next_slot_number-0x5>
1000747a:	12848593          	addi	a1,s1,296
1000747e:	854a                	mv	a0,s2
10007480:	2965                	jal	10007938 <tu_edpt_stream_read_xfer>
10007482:	4505                	li	a0,1
10007484:	4a22                	lw	s4,8(sp)
10007486:	a0a1                	j	100074ce <vendord_xfer_cb+0xdc>
10007488:	0809c633          	zext.h	a2,s3
1000748c:	12c4a583          	lw	a1,300(s1)
10007490:	13048513          	addi	a0,s1,304
10007494:	405000ef          	jal	10008098 <tu_fifo_write_n>
10007498:	b7c1                	j	10007458 <vendord_xfer_cb+0x66>
1000749a:	00000793          	li	a5,0
1000749e:	cb81                	beqz	a5,100074ae <vendord_xfer_cb+0xbc>
100074a0:	0809c5b3          	zext.h	a1,s3
100074a4:	8522                	mv	a0,s0
100074a6:	00000097          	auipc	ra,0x0
100074aa:	000000e7          	jalr	zero # 0 <next_slot_number-0x5>
100074ae:	0491                	addi	s1,s1,4
100074b0:	85a6                	mv	a1,s1
100074b2:	854a                	mv	a0,s2
100074b4:	26e5                	jal	1000789c <tu_edpt_stream_write_xfer>
100074b6:	c501                	beqz	a0,100074be <vendord_xfer_cb+0xcc>
100074b8:	4505                	li	a0,1
100074ba:	4a22                	lw	s4,8(sp)
100074bc:	a809                	j	100074ce <vendord_xfer_cb+0xdc>
100074be:	864e                	mv	a2,s3
100074c0:	85a6                	mv	a1,s1
100074c2:	854a                	mv	a0,s2
100074c4:	2e1d                	jal	100077fa <tu_edpt_stream_write_zlp_if_needed>
100074c6:	4505                	li	a0,1
100074c8:	4a22                	lw	s4,8(sp)
100074ca:	a011                	j	100074ce <vendord_xfer_cb+0xdc>
100074cc:	4501                	li	a0,0
100074ce:	40f2                	lw	ra,28(sp)
100074d0:	4462                	lw	s0,24(sp)
100074d2:	44d2                	lw	s1,20(sp)
100074d4:	4942                	lw	s2,16(sp)
100074d6:	49b2                	lw	s3,12(sp)
100074d8:	6105                	addi	sp,sp,32
100074da:	8082                	ret

100074dc <tusb_rhport_init>:
100074dc:	1101                	addi	sp,sp,-32
100074de:	ce06                	sw	ra,28(sp)
100074e0:	cc22                	sw	s0,24(sp)
100074e2:	c18d                	beqz	a1,10007504 <tusb_rhport_init+0x28>
100074e4:	4785                	li	a5,1
100074e6:	04a7ea63          	bltu	a5,a0,1000753a <tusb_rhport_init+0x5e>
100074ea:	4198                	lw	a4,0(a1)
100074ec:	c739                	beqz	a4,1000753a <tusb_rhport_init+0x5e>
100074ee:	88b18793          	addi	a5,gp,-1909 # 20004f48 <_tusb_rhport_role>
100074f2:	20f547b3          	sh2add	a5,a0,a5
100074f6:	c398                	sw	a4,0(a5)
100074f8:	4785                	li	a5,1
100074fa:	06f70363          	beq	a4,a5,10007560 <tusb_rhport_init+0x84>
100074fe:	4785                	li	a5,1
10007500:	843e                	mv	s0,a5
10007502:	a891                	j	10007556 <tusb_rhport_init+0x7a>
10007504:	4785                	li	a5,1
10007506:	c43e                	sw	a5,8(sp)
10007508:	c602                	sw	zero,12(sp)
1000750a:	002c                	addi	a1,sp,8
1000750c:	4501                	li	a0,0
1000750e:	a96fe0ef          	jal	100057a4 <tud_rhport_init>
10007512:	842a                	mv	s0,a0
10007514:	c509                	beqz	a0,1000751e <tusb_rhport_init+0x42>
10007516:	4705                	li	a4,1
10007518:	88e1a5a3          	sw	a4,-1909(gp) # 20004f48 <_tusb_rhport_role>
1000751c:	a82d                	j	10007556 <tusb_rhport_init+0x7a>
1000751e:	04700613          	li	a2,71
10007522:	1000a5b7          	lui	a1,0x1000a
10007526:	08c58593          	addi	a1,a1,140 # 1000a08c <__func__.5>
1000752a:	1000a537          	lui	a0,0x1000a
1000752e:	8f450513          	addi	a0,a0,-1804 # 100098f4 <__EH_FRAME_BEGIN__+0xc34>
10007532:	8f4fd0ef          	jal	10004626 <__wrap_printf>
10007536:	9002                	ebreak
10007538:	a839                	j	10007556 <tusb_rhport_init+0x7a>
1000753a:	05a00613          	li	a2,90
1000753e:	1000a5b7          	lui	a1,0x1000a
10007542:	08c58593          	addi	a1,a1,140 # 1000a08c <__func__.5>
10007546:	1000a537          	lui	a0,0x1000a
1000754a:	8f450513          	addi	a0,a0,-1804 # 100098f4 <__EH_FRAME_BEGIN__+0xc34>
1000754e:	8d8fd0ef          	jal	10004626 <__wrap_printf>
10007552:	9002                	ebreak
10007554:	4401                	li	s0,0
10007556:	8522                	mv	a0,s0
10007558:	40f2                	lw	ra,28(sp)
1000755a:	4462                	lw	s0,24(sp)
1000755c:	6105                	addi	sp,sp,32
1000755e:	8082                	ret
10007560:	a44fe0ef          	jal	100057a4 <tud_rhport_init>
10007564:	842a                	mv	s0,a0
10007566:	f965                	bnez	a0,10007556 <tusb_rhport_init+0x7a>
10007568:	05f00613          	li	a2,95
1000756c:	1000a5b7          	lui	a1,0x1000a
10007570:	08c58593          	addi	a1,a1,140 # 1000a08c <__func__.5>
10007574:	1000a537          	lui	a0,0x1000a
10007578:	8f450513          	addi	a0,a0,-1804 # 100098f4 <__EH_FRAME_BEGIN__+0xc34>
1000757c:	8aafd0ef          	jal	10004626 <__wrap_printf>
10007580:	9002                	ebreak
10007582:	bfd1                	j	10007556 <tusb_rhport_init+0x7a>

10007584 <tu_edpt_claim>:
10007584:	1141                	addi	sp,sp,-16
10007586:	c606                	sw	ra,12(sp)
10007588:	c422                	sw	s0,8(sp)
1000758a:	842a                	mv	s0,a0
1000758c:	00054783          	lbu	a5,0(a0)
10007590:	0017f513          	andi	a0,a5,1
10007594:	e125                	bnez	a0,100075f4 <tu_edpt_claim+0x70>
10007596:	c226                	sw	s1,4(sp)
10007598:	c04a                	sw	s2,0(sp)
1000759a:	872e                	mv	a4,a1
1000759c:	892e                	mv	s2,a1
1000759e:	00044783          	lbu	a5,0(s0)
100075a2:	4827d793          	bexti	a5,a5,0x2
100075a6:	84be                	mv	s1,a5
100075a8:	c781                	beqz	a5,100075b0 <tu_edpt_claim+0x2c>
100075aa:	4492                	lw	s1,4(sp)
100075ac:	4902                	lw	s2,0(sp)
100075ae:	a0a1                	j	100075f6 <tu_edpt_claim+0x72>
100075b0:	55fd                	li	a1,-1
100075b2:	853a                	mv	a0,a4
100075b4:	0fff9097          	auipc	ra,0xfff9
100075b8:	b8a080e7          	jalr	-1142(ra) # 2000013e <mutex_enter_timeout_ms>
100075bc:	00044783          	lbu	a5,0(s0)
100075c0:	8b85                	andi	a5,a5,1
100075c2:	ef91                	bnez	a5,100075de <tu_edpt_claim+0x5a>
100075c4:	00044703          	lbu	a4,0(s0)
100075c8:	48275713          	bexti	a4,a4,0x2
100075cc:	e315                	bnez	a4,100075f0 <tu_edpt_claim+0x6c>
100075ce:	00044783          	lbu	a5,0(s0)
100075d2:	0047e793          	ori	a5,a5,4
100075d6:	00f40023          	sb	a5,0(s0)
100075da:	4785                	li	a5,1
100075dc:	84be                	mv	s1,a5
100075de:	854a                	mv	a0,s2
100075e0:	0fff9097          	auipc	ra,0xfff9
100075e4:	ba8080e7          	jalr	-1112(ra) # 20000188 <mutex_exit>
100075e8:	8526                	mv	a0,s1
100075ea:	4492                	lw	s1,4(sp)
100075ec:	4902                	lw	s2,0(sp)
100075ee:	a021                	j	100075f6 <tu_edpt_claim+0x72>
100075f0:	84be                	mv	s1,a5
100075f2:	b7f5                	j	100075de <tu_edpt_claim+0x5a>
100075f4:	4501                	li	a0,0
100075f6:	40b2                	lw	ra,12(sp)
100075f8:	4422                	lw	s0,8(sp)
100075fa:	0141                	addi	sp,sp,16
100075fc:	8082                	ret

100075fe <tu_edpt_release>:
100075fe:	1141                	addi	sp,sp,-16
10007600:	c606                	sw	ra,12(sp)
10007602:	c422                	sw	s0,8(sp)
10007604:	c226                	sw	s1,4(sp)
10007606:	c04a                	sw	s2,0(sp)
10007608:	84aa                	mv	s1,a0
1000760a:	852e                	mv	a0,a1
1000760c:	892e                	mv	s2,a1
1000760e:	55fd                	li	a1,-1
10007610:	0fff9097          	auipc	ra,0xfff9
10007614:	b2e080e7          	jalr	-1234(ra) # 2000013e <mutex_enter_timeout_ms>
10007618:	0004c403          	lbu	s0,0(s1)
1000761c:	48245413          	bexti	s0,s0,0x2
10007620:	ec09                	bnez	s0,1000763a <tu_edpt_release+0x3c>
10007622:	854a                	mv	a0,s2
10007624:	0fff9097          	auipc	ra,0xfff9
10007628:	b64080e7          	jalr	-1180(ra) # 20000188 <mutex_exit>
1000762c:	8522                	mv	a0,s0
1000762e:	40b2                	lw	ra,12(sp)
10007630:	4422                	lw	s0,8(sp)
10007632:	4492                	lw	s1,4(sp)
10007634:	4902                	lw	s2,0(sp)
10007636:	0141                	addi	sp,sp,16
10007638:	8082                	ret
1000763a:	0004c783          	lbu	a5,0(s1)
1000763e:	8b85                	andi	a5,a5,1
10007640:	e799                	bnez	a5,1000764e <tu_edpt_release+0x50>
10007642:	0004c783          	lbu	a5,0(s1)
10007646:	9bed                	andi	a5,a5,-5
10007648:	00f48023          	sb	a5,0(s1)
1000764c:	bfd9                	j	10007622 <tu_edpt_release+0x24>
1000764e:	4401                	li	s0,0
10007650:	bfc9                	j	10007622 <tu_edpt_release+0x24>

10007652 <tu_edpt_validate>:
10007652:	1141                	addi	sp,sp,-16
10007654:	c606                	sw	ra,12(sp)
10007656:	00454703          	lbu	a4,4(a0)
1000765a:	00554783          	lbu	a5,5(a0)
1000765e:	07a2                	slli	a5,a5,0x8
10007660:	8fd9                	or	a5,a5,a4
10007662:	7ff7f793          	andi	a5,a5,2047
10007666:	00354703          	lbu	a4,3(a0)
1000766a:	8b0d                	andi	a4,a4,3
1000766c:	4689                	li	a3,2
1000766e:	04d70363          	beq	a4,a3,100076b4 <tu_edpt_validate+0x62>
10007672:	468d                	li	a3,3
10007674:	08d70d63          	beq	a4,a3,1000770e <tu_edpt_validate+0xbc>
10007678:	4685                	li	a3,1
1000767a:	0cd71563          	bne	a4,a3,10007744 <tu_edpt_validate+0xf2>
1000767e:	4709                	li	a4,2
10007680:	00e58863          	beq	a1,a4,10007690 <tu_edpt_validate+0x3e>
10007684:	3ff00713          	li	a4,1023
10007688:	00f76763          	bltu	a4,a5,10007696 <tu_edpt_validate+0x44>
1000768c:	4505                	li	a0,1
1000768e:	a865                	j	10007746 <tu_edpt_validate+0xf4>
10007690:	40000713          	li	a4,1024
10007694:	bfd5                	j	10007688 <tu_edpt_validate+0x36>
10007696:	0d100613          	li	a2,209
1000769a:	1000a5b7          	lui	a1,0x1000a
1000769e:	07858593          	addi	a1,a1,120 # 1000a078 <__func__.4>
100076a2:	1000a537          	lui	a0,0x1000a
100076a6:	8f450513          	addi	a0,a0,-1804 # 100098f4 <__EH_FRAME_BEGIN__+0xc34>
100076aa:	f7dfc0ef          	jal	10004626 <__wrap_printf>
100076ae:	9002                	ebreak
100076b0:	4501                	li	a0,0
100076b2:	a851                	j	10007746 <tu_edpt_validate+0xf4>
100076b4:	4709                	li	a4,2
100076b6:	00e58863          	beq	a1,a4,100076c6 <tu_edpt_validate+0x74>
100076ba:	04000713          	li	a4,64
100076be:	02f76963          	bltu	a4,a5,100076f0 <tu_edpt_validate+0x9e>
100076c2:	4505                	li	a0,1
100076c4:	a049                	j	10007746 <tu_edpt_validate+0xf4>
100076c6:	20000713          	li	a4,512
100076ca:	00e79463          	bne	a5,a4,100076d2 <tu_edpt_validate+0x80>
100076ce:	4505                	li	a0,1
100076d0:	a89d                	j	10007746 <tu_edpt_validate+0xf4>
100076d2:	0d800613          	li	a2,216
100076d6:	1000a5b7          	lui	a1,0x1000a
100076da:	07858593          	addi	a1,a1,120 # 1000a078 <__func__.4>
100076de:	1000a537          	lui	a0,0x1000a
100076e2:	8f450513          	addi	a0,a0,-1804 # 100098f4 <__EH_FRAME_BEGIN__+0xc34>
100076e6:	f41fc0ef          	jal	10004626 <__wrap_printf>
100076ea:	9002                	ebreak
100076ec:	4501                	li	a0,0
100076ee:	a8a1                	j	10007746 <tu_edpt_validate+0xf4>
100076f0:	0db00613          	li	a2,219
100076f4:	1000a5b7          	lui	a1,0x1000a
100076f8:	07858593          	addi	a1,a1,120 # 1000a078 <__func__.4>
100076fc:	1000a537          	lui	a0,0x1000a
10007700:	8f450513          	addi	a0,a0,-1804 # 100098f4 <__EH_FRAME_BEGIN__+0xc34>
10007704:	f23fc0ef          	jal	10004626 <__wrap_printf>
10007708:	9002                	ebreak
1000770a:	4501                	li	a0,0
1000770c:	a82d                	j	10007746 <tu_edpt_validate+0xf4>
1000770e:	4709                	li	a4,2
10007710:	00e58863          	beq	a1,a4,10007720 <tu_edpt_validate+0xce>
10007714:	04000713          	li	a4,64
10007718:	00f76763          	bltu	a4,a5,10007726 <tu_edpt_validate+0xd4>
1000771c:	4505                	li	a0,1
1000771e:	a025                	j	10007746 <tu_edpt_validate+0xf4>
10007720:	40000713          	li	a4,1024
10007724:	bfd5                	j	10007718 <tu_edpt_validate+0xc6>
10007726:	0e100613          	li	a2,225
1000772a:	1000a5b7          	lui	a1,0x1000a
1000772e:	07858593          	addi	a1,a1,120 # 1000a078 <__func__.4>
10007732:	1000a537          	lui	a0,0x1000a
10007736:	8f450513          	addi	a0,a0,-1804 # 100098f4 <__EH_FRAME_BEGIN__+0xc34>
1000773a:	eedfc0ef          	jal	10004626 <__wrap_printf>
1000773e:	9002                	ebreak
10007740:	4501                	li	a0,0
10007742:	a011                	j	10007746 <tu_edpt_validate+0xf4>
10007744:	4501                	li	a0,0
10007746:	40b2                	lw	ra,12(sp)
10007748:	0141                	addi	sp,sp,16
1000774a:	8082                	ret

1000774c <tu_edpt_bind_driver>:
1000774c:	962e                	add	a2,a2,a1
1000774e:	a021                	j	10007756 <tu_edpt_bind_driver+0xa>
10007750:	0005c783          	lbu	a5,0(a1)
10007754:	95be                	add	a1,a1,a5
10007756:	02c5f263          	bgeu	a1,a2,1000777a <tu_edpt_bind_driver+0x2e>
1000775a:	0015c703          	lbu	a4,1(a1)
1000775e:	4795                	li	a5,5
10007760:	fef718e3          	bne	a4,a5,10007750 <tu_edpt_bind_driver+0x4>
10007764:	0025c703          	lbu	a4,2(a1)
10007768:	07f77793          	andi	a5,a4,127
1000776c:	20a7a7b3          	sh1add	a5,a5,a0
10007770:	831d                	srli	a4,a4,0x7
10007772:	97ba                	add	a5,a5,a4
10007774:	00d78023          	sb	a3,0(a5)
10007778:	bfe1                	j	10007750 <tu_edpt_bind_driver+0x4>
1000777a:	8082                	ret

1000777c <tu_edpt_stream_init>:
1000777c:	1101                	addi	sp,sp,-32
1000777e:	ce06                	sw	ra,28(sp)
10007780:	cc22                	sw	s0,24(sp)
10007782:	ca26                	sw	s1,20(sp)
10007784:	c84a                	sw	s2,16(sp)
10007786:	c64e                	sw	s3,12(sp)
10007788:	c452                	sw	s4,8(sp)
1000778a:	c256                	sw	s5,4(sp)
1000778c:	84aa                	mv	s1,a0
1000778e:	8ab2                	mv	s5,a2
10007790:	843a                	mv	s0,a4
10007792:	893e                	mv	s2,a5
10007794:	89c2                	mv	s3,a6
10007796:	8a46                	mv	s4,a7
10007798:	8985                	andi	a1,a1,1
1000779a:	00054783          	lbu	a5,0(a0)
1000779e:	9bf9                	andi	a5,a5,-2
100077a0:	8fcd                	or	a5,a5,a1
100077a2:	00f50023          	sb	a5,0(a0)
100077a6:	8736                	mv	a4,a3
100077a8:	4685                	li	a3,1
100077aa:	864a                	mv	a2,s2
100077ac:	85a2                	mv	a1,s0
100077ae:	0521                	addi	a0,a0,8
100077b0:	2561                	jal	10007e38 <tu_fifo_config>
100077b2:	00803433          	snez	s0,s0
100077b6:	01203933          	snez	s2,s2
100077ba:	01247433          	and	s0,s0,s2
100077be:	ec19                	bnez	s0,100077dc <tu_edpt_stream_init+0x60>
100077c0:	0134a223          	sw	s3,4(s1)
100077c4:	01449123          	sh	s4,2(s1)
100077c8:	4505                	li	a0,1
100077ca:	40f2                	lw	ra,28(sp)
100077cc:	4462                	lw	s0,24(sp)
100077ce:	44d2                	lw	s1,20(sp)
100077d0:	4942                	lw	s2,16(sp)
100077d2:	49b2                	lw	s3,12(sp)
100077d4:	4a22                	lw	s4,8(sp)
100077d6:	4a92                	lw	s5,4(sp)
100077d8:	6105                	addi	sp,sp,32
100077da:	8082                	ret
100077dc:	01c48413          	addi	s0,s1,28
100077e0:	8522                	mv	a0,s0
100077e2:	b20fa0ef          	jal	10001b02 <mutex_init>
100077e6:	87d6                	mv	a5,s5
100077e8:	000a8463          	beqz	s5,100077f0 <tu_edpt_stream_init+0x74>
100077ec:	87a2                	mv	a5,s0
100077ee:	4401                	li	s0,0
100077f0:	c8dc                	sw	a5,20(s1)
100077f2:	cc80                	sw	s0,24(s1)
100077f4:	b7f1                	j	100077c0 <tu_edpt_stream_init+0x44>

100077f6 <tu_edpt_stream_deinit>:
100077f6:	4505                	li	a0,1
100077f8:	8082                	ret

100077fa <tu_edpt_stream_write_zlp_if_needed>:
100077fa:	1101                	addi	sp,sp,-32
100077fc:	ce06                	sw	ra,28(sp)
100077fe:	cc22                	sw	s0,24(sp)
10007800:	ca26                	sw	s1,20(sp)
10007802:	c84a                	sw	s2,16(sp)
10007804:	c64e                	sw	s3,12(sp)
10007806:	89aa                	mv	s3,a0
10007808:	842e                	mv	s0,a1
1000780a:	84b2                	mv	s1,a2
1000780c:	0005c783          	lbu	a5,0(a1)
10007810:	8b89                	andi	a5,a5,2
10007812:	c39d                	beqz	a5,10007838 <tu_edpt_stream_write_zlp_if_needed+0x3e>
10007814:	20000793          	li	a5,512
10007818:	893e                	mv	s2,a5
1000781a:	00840513          	addi	a0,s0,8
1000781e:	25d1                	jal	10007ee2 <tu_fifo_count>
10007820:	e135                	bnez	a0,10007884 <tu_edpt_stream_write_zlp_if_needed+0x8a>
10007822:	c8ad                	beqz	s1,10007894 <tu_edpt_stream_write_zlp_if_needed+0x9a>
10007824:	fff90793          	addi	a5,s2,-1
10007828:	8fe5                	and	a5,a5,s1
1000782a:	e7bd                	bnez	a5,10007898 <tu_edpt_stream_write_zlp_if_needed+0x9e>
1000782c:	00044783          	lbu	a5,0(s0)
10007830:	8b85                	andi	a5,a5,1
10007832:	c799                	beqz	a5,10007840 <tu_edpt_stream_write_zlp_if_needed+0x46>
10007834:	4501                	li	a0,0
10007836:	a881                	j	10007886 <tu_edpt_stream_write_zlp_if_needed+0x8c>
10007838:	04000793          	li	a5,64
1000783c:	893e                	mv	s2,a5
1000783e:	bff1                	j	1000781a <tu_edpt_stream_write_zlp_if_needed+0x20>
10007840:	00144583          	lbu	a1,1(s0)
10007844:	854e                	mv	a0,s3
10007846:	9d2fe0ef          	jal	10005a18 <usbd_edpt_claim>
1000784a:	d56d                	beqz	a0,10007834 <tu_edpt_stream_write_zlp_if_needed+0x3a>
1000784c:	00044783          	lbu	a5,0(s0)
10007850:	8b85                	andi	a5,a5,1
10007852:	c385                	beqz	a5,10007872 <tu_edpt_stream_write_zlp_if_needed+0x78>
10007854:	16a00613          	li	a2,362
10007858:	1000a5b7          	lui	a1,0x1000a
1000785c:	05458593          	addi	a1,a1,84 # 1000a054 <__func__.3>
10007860:	1000a537          	lui	a0,0x1000a
10007864:	8f450513          	addi	a0,a0,-1804 # 100098f4 <__EH_FRAME_BEGIN__+0xc34>
10007868:	dbffc0ef          	jal	10004626 <__wrap_printf>
1000786c:	9002                	ebreak
1000786e:	4501                	li	a0,0
10007870:	a819                	j	10007886 <tu_edpt_stream_write_zlp_if_needed+0x8c>
10007872:	4681                	li	a3,0
10007874:	4601                	li	a2,0
10007876:	00144583          	lbu	a1,1(s0)
1000787a:	854e                	mv	a0,s3
1000787c:	9f4fe0ef          	jal	10005a70 <usbd_edpt_xfer>
10007880:	e119                	bnez	a0,10007886 <tu_edpt_stream_write_zlp_if_needed+0x8c>
10007882:	bfc9                	j	10007854 <tu_edpt_stream_write_zlp_if_needed+0x5a>
10007884:	4501                	li	a0,0
10007886:	40f2                	lw	ra,28(sp)
10007888:	4462                	lw	s0,24(sp)
1000788a:	44d2                	lw	s1,20(sp)
1000788c:	4942                	lw	s2,16(sp)
1000788e:	49b2                	lw	s3,12(sp)
10007890:	6105                	addi	sp,sp,32
10007892:	8082                	ret
10007894:	4501                	li	a0,0
10007896:	bfc5                	j	10007886 <tu_edpt_stream_write_zlp_if_needed+0x8c>
10007898:	4501                	li	a0,0
1000789a:	b7f5                	j	10007886 <tu_edpt_stream_write_zlp_if_needed+0x8c>

1000789c <tu_edpt_stream_write_xfer>:
1000789c:	1141                	addi	sp,sp,-16
1000789e:	c606                	sw	ra,12(sp)
100078a0:	c422                	sw	s0,8(sp)
100078a2:	c226                	sw	s1,4(sp)
100078a4:	c04a                	sw	s2,0(sp)
100078a6:	892a                	mv	s2,a0
100078a8:	842e                	mv	s0,a1
100078aa:	00858793          	addi	a5,a1,8
100078ae:	84be                	mv	s1,a5
100078b0:	853e                	mv	a0,a5
100078b2:	2d05                	jal	10007ee2 <tu_fifo_count>
100078b4:	c511                	beqz	a0,100078c0 <tu_edpt_stream_write_xfer+0x24>
100078b6:	00044783          	lbu	a5,0(s0)
100078ba:	8b85                	andi	a5,a5,1
100078bc:	cb81                	beqz	a5,100078cc <tu_edpt_stream_write_xfer+0x30>
100078be:	4501                	li	a0,0
100078c0:	40b2                	lw	ra,12(sp)
100078c2:	4422                	lw	s0,8(sp)
100078c4:	4492                	lw	s1,4(sp)
100078c6:	4902                	lw	s2,0(sp)
100078c8:	0141                	addi	sp,sp,16
100078ca:	8082                	ret
100078cc:	00144583          	lbu	a1,1(s0)
100078d0:	854a                	mv	a0,s2
100078d2:	946fe0ef          	jal	10005a18 <usbd_edpt_claim>
100078d6:	d565                	beqz	a0,100078be <tu_edpt_stream_write_xfer+0x22>
100078d8:	00245603          	lhu	a2,2(s0)
100078dc:	404c                	lw	a1,4(s0)
100078de:	8526                	mv	a0,s1
100078e0:	2f19                	jal	10007ff6 <tu_fifo_read_n>
100078e2:	84aa                	mv	s1,a0
100078e4:	cd15                	beqz	a0,10007920 <tu_edpt_stream_write_xfer+0x84>
100078e6:	00044783          	lbu	a5,0(s0)
100078ea:	8b85                	andi	a5,a5,1
100078ec:	c385                	beqz	a5,1000790c <tu_edpt_stream_write_xfer+0x70>
100078ee:	17800613          	li	a2,376
100078f2:	1000a5b7          	lui	a1,0x1000a
100078f6:	03858593          	addi	a1,a1,56 # 1000a038 <__func__.2>
100078fa:	1000a537          	lui	a0,0x1000a
100078fe:	8f450513          	addi	a0,a0,-1804 # 100098f4 <__EH_FRAME_BEGIN__+0xc34>
10007902:	d25fc0ef          	jal	10004626 <__wrap_printf>
10007906:	9002                	ebreak
10007908:	4501                	li	a0,0
1000790a:	bf5d                	j	100078c0 <tu_edpt_stream_write_xfer+0x24>
1000790c:	86aa                	mv	a3,a0
1000790e:	4050                	lw	a2,4(s0)
10007910:	00144583          	lbu	a1,1(s0)
10007914:	854a                	mv	a0,s2
10007916:	95afe0ef          	jal	10005a70 <usbd_edpt_xfer>
1000791a:	d971                	beqz	a0,100078ee <tu_edpt_stream_write_xfer+0x52>
1000791c:	8526                	mv	a0,s1
1000791e:	b74d                	j	100078c0 <tu_edpt_stream_write_xfer+0x24>
10007920:	00044783          	lbu	a5,0(s0)
10007924:	8b85                	andi	a5,a5,1
10007926:	c399                	beqz	a5,1000792c <tu_edpt_stream_write_xfer+0x90>
10007928:	4501                	li	a0,0
1000792a:	bf59                	j	100078c0 <tu_edpt_stream_write_xfer+0x24>
1000792c:	00144583          	lbu	a1,1(s0)
10007930:	854a                	mv	a0,s2
10007932:	912fe0ef          	jal	10005a44 <usbd_edpt_release>
10007936:	bfcd                	j	10007928 <tu_edpt_stream_write_xfer+0x8c>

10007938 <tu_edpt_stream_read_xfer>:
10007938:	1101                	addi	sp,sp,-32
1000793a:	ce06                	sw	ra,28(sp)
1000793c:	cc22                	sw	s0,24(sp)
1000793e:	ca26                	sw	s1,20(sp)
10007940:	84aa                	mv	s1,a0
10007942:	842e                	mv	s0,a1
10007944:	00c5d783          	lhu	a5,12(a1)
10007948:	e3b5                	bnez	a5,100079ac <tu_edpt_stream_read_xfer+0x74>
1000794a:	0005c783          	lbu	a5,0(a1)
1000794e:	8b85                	andi	a5,a5,1
10007950:	c799                	beqz	a5,1000795e <tu_edpt_stream_read_xfer+0x26>
10007952:	4501                	li	a0,0
10007954:	40f2                	lw	ra,28(sp)
10007956:	4462                	lw	s0,24(sp)
10007958:	44d2                	lw	s1,20(sp)
1000795a:	6105                	addi	sp,sp,32
1000795c:	8082                	ret
1000795e:	0015c583          	lbu	a1,1(a1)
10007962:	8b6fe0ef          	jal	10005a18 <usbd_edpt_claim>
10007966:	d575                	beqz	a0,10007952 <tu_edpt_stream_read_xfer+0x1a>
10007968:	00245683          	lhu	a3,2(s0)
1000796c:	00044783          	lbu	a5,0(s0)
10007970:	8b85                	andi	a5,a5,1
10007972:	c385                	beqz	a5,10007992 <tu_edpt_stream_read_xfer+0x5a>
10007974:	1b200613          	li	a2,434
10007978:	1000a5b7          	lui	a1,0x1000a
1000797c:	01c58593          	addi	a1,a1,28 # 1000a01c <__func__.0>
10007980:	1000a537          	lui	a0,0x1000a
10007984:	8f450513          	addi	a0,a0,-1804 # 100098f4 <__EH_FRAME_BEGIN__+0xc34>
10007988:	c9ffc0ef          	jal	10004626 <__wrap_printf>
1000798c:	9002                	ebreak
1000798e:	4501                	li	a0,0
10007990:	b7d1                	j	10007954 <tu_edpt_stream_read_xfer+0x1c>
10007992:	00144583          	lbu	a1,1(s0)
10007996:	ca89                	beqz	a3,100079a8 <tu_edpt_stream_read_xfer+0x70>
10007998:	4050                	lw	a2,4(s0)
1000799a:	8526                	mv	a0,s1
1000799c:	8d4fe0ef          	jal	10005a70 <usbd_edpt_xfer>
100079a0:	d971                	beqz	a0,10007974 <tu_edpt_stream_read_xfer+0x3c>
100079a2:	00245503          	lhu	a0,2(s0)
100079a6:	b77d                	j	10007954 <tu_edpt_stream_read_xfer+0x1c>
100079a8:	4601                	li	a2,0
100079aa:	bfc5                	j	1000799a <tu_edpt_stream_read_xfer+0x62>
100079ac:	c84a                	sw	s2,16(sp)
100079ae:	c64e                	sw	s3,12(sp)
100079b0:	0005c783          	lbu	a5,0(a1)
100079b4:	8b89                	andi	a5,a5,2
100079b6:	c39d                	beqz	a5,100079dc <tu_edpt_stream_read_xfer+0xa4>
100079b8:	20000793          	li	a5,512
100079bc:	893e                	mv	s2,a5
100079be:	00840793          	addi	a5,s0,8
100079c2:	89be                	mv	s3,a5
100079c4:	853e                	mv	a0,a5
100079c6:	2b69                	jal	10007f60 <tu_fifo_remaining>
100079c8:	0b256563          	bltu	a0,s2,10007a72 <tu_edpt_stream_read_xfer+0x13a>
100079cc:	00044783          	lbu	a5,0(s0)
100079d0:	8b85                	andi	a5,a5,1
100079d2:	cb89                	beqz	a5,100079e4 <tu_edpt_stream_read_xfer+0xac>
100079d4:	4501                	li	a0,0
100079d6:	4942                	lw	s2,16(sp)
100079d8:	49b2                	lw	s3,12(sp)
100079da:	bfad                	j	10007954 <tu_edpt_stream_read_xfer+0x1c>
100079dc:	04000793          	li	a5,64
100079e0:	893e                	mv	s2,a5
100079e2:	bff1                	j	100079be <tu_edpt_stream_read_xfer+0x86>
100079e4:	00144583          	lbu	a1,1(s0)
100079e8:	8526                	mv	a0,s1
100079ea:	82efe0ef          	jal	10005a18 <usbd_edpt_claim>
100079ee:	d17d                	beqz	a0,100079d4 <tu_edpt_stream_read_xfer+0x9c>
100079f0:	854e                	mv	a0,s3
100079f2:	23bd                	jal	10007f60 <tu_fifo_remaining>
100079f4:	07256163          	bltu	a0,s2,10007a56 <tu_edpt_stream_read_xfer+0x11e>
100079f8:	412007b3          	neg	a5,s2
100079fc:	0807c7b3          	zext.h	a5,a5
10007a00:	00245703          	lhu	a4,2(s0)
10007a04:	8fe9                	and	a5,a5,a0
10007a06:	0ae7d7b3          	minu	a5,a5,a4
10007a0a:	893e                	mv	s2,a5
10007a0c:	00044783          	lbu	a5,0(s0)
10007a10:	8b85                	andi	a5,a5,1
10007a12:	c395                	beqz	a5,10007a36 <tu_edpt_stream_read_xfer+0xfe>
10007a14:	1c700613          	li	a2,455
10007a18:	1000a5b7          	lui	a1,0x1000a
10007a1c:	01c58593          	addi	a1,a1,28 # 1000a01c <__func__.0>
10007a20:	1000a537          	lui	a0,0x1000a
10007a24:	8f450513          	addi	a0,a0,-1804 # 100098f4 <__EH_FRAME_BEGIN__+0xc34>
10007a28:	bfffc0ef          	jal	10004626 <__wrap_printf>
10007a2c:	9002                	ebreak
10007a2e:	4501                	li	a0,0
10007a30:	4942                	lw	s2,16(sp)
10007a32:	49b2                	lw	s3,12(sp)
10007a34:	b705                	j	10007954 <tu_edpt_stream_read_xfer+0x1c>
10007a36:	00144583          	lbu	a1,1(s0)
10007a3a:	00090c63          	beqz	s2,10007a52 <tu_edpt_stream_read_xfer+0x11a>
10007a3e:	4050                	lw	a2,4(s0)
10007a40:	86ca                	mv	a3,s2
10007a42:	8526                	mv	a0,s1
10007a44:	82cfe0ef          	jal	10005a70 <usbd_edpt_xfer>
10007a48:	d571                	beqz	a0,10007a14 <tu_edpt_stream_read_xfer+0xdc>
10007a4a:	854a                	mv	a0,s2
10007a4c:	4942                	lw	s2,16(sp)
10007a4e:	49b2                	lw	s3,12(sp)
10007a50:	b711                	j	10007954 <tu_edpt_stream_read_xfer+0x1c>
10007a52:	4601                	li	a2,0
10007a54:	b7f5                	j	10007a40 <tu_edpt_stream_read_xfer+0x108>
10007a56:	00044783          	lbu	a5,0(s0)
10007a5a:	8b85                	andi	a5,a5,1
10007a5c:	c789                	beqz	a5,10007a66 <tu_edpt_stream_read_xfer+0x12e>
10007a5e:	4501                	li	a0,0
10007a60:	4942                	lw	s2,16(sp)
10007a62:	49b2                	lw	s3,12(sp)
10007a64:	bdc5                	j	10007954 <tu_edpt_stream_read_xfer+0x1c>
10007a66:	00144583          	lbu	a1,1(s0)
10007a6a:	8526                	mv	a0,s1
10007a6c:	fd9fd0ef          	jal	10005a44 <usbd_edpt_release>
10007a70:	b7fd                	j	10007a5e <tu_edpt_stream_read_xfer+0x126>
10007a72:	4501                	li	a0,0
10007a74:	4942                	lw	s2,16(sp)
10007a76:	49b2                	lw	s3,12(sp)
10007a78:	bdf1                	j	10007954 <tu_edpt_stream_read_xfer+0x1c>

10007a7a <advance_index>:
10007a7a:	87aa                	mv	a5,a0
10007a7c:	962e                	add	a2,a2,a1
10007a7e:	08064533          	zext.h	a0,a2
10007a82:	00b56663          	bltu	a0,a1,10007a8e <advance_index+0x14>
10007a86:	00179713          	slli	a4,a5,0x1
10007a8a:	00e54863          	blt	a0,a4,10007a9a <advance_index+0x20>
10007a8e:	0786                	slli	a5,a5,0x1
10007a90:	0807c7b3          	zext.h	a5,a5
10007a94:	8d1d                	sub	a0,a0,a5
10007a96:	08054533          	zext.h	a0,a0
10007a9a:	8082                	ret

10007a9c <_tu_fifo_peek>:
10007a9c:	882a                	mv	a6,a0
10007a9e:	852e                	mv	a0,a1
10007aa0:	00485783          	lhu	a5,4(a6)
10007aa4:	02d66363          	bltu	a2,a3,10007aca <_tu_fifo_peek+0x2e>
10007aa8:	40d60733          	sub	a4,a2,a3
10007aac:	08074733          	zext.h	a4,a4
10007ab0:	cf39                	beqz	a4,10007b0e <_tu_fifo_peek+0x72>
10007ab2:	1141                	addi	sp,sp,-16
10007ab4:	c606                	sw	ra,12(sp)
10007ab6:	02e7fa63          	bgeu	a5,a4,10007aea <_tu_fifo_peek+0x4e>
10007aba:	02f66163          	bltu	a2,a5,10007adc <_tu_fifo_peek+0x40>
10007abe:	8e1d                	sub	a2,a2,a5
10007ac0:	080646b3          	zext.h	a3,a2
10007ac4:	00d81523          	sh	a3,10(a6)
10007ac8:	a00d                	j	10007aea <_tu_fifo_peek+0x4e>
10007aca:	40d60733          	sub	a4,a2,a3
10007ace:	08074733          	zext.h	a4,a4
10007ad2:	20e7a733          	sh1add	a4,a5,a4
10007ad6:	08074733          	zext.h	a4,a4
10007ada:	bfd9                	j	10007ab0 <_tu_fifo_peek+0x14>
10007adc:	963e                	add	a2,a2,a5
10007ade:	080646b3          	zext.h	a3,a2
10007ae2:	b7cd                	j	10007ac4 <_tu_fifo_peek+0x28>
10007ae4:	8e9d                	sub	a3,a3,a5
10007ae6:	0806c6b3          	zext.h	a3,a3
10007aea:	fef6fde3          	bgeu	a3,a5,10007ae4 <_tu_fifo_peek+0x48>
10007aee:	00082583          	lw	a1,0(a6)
10007af2:	00685603          	lhu	a2,6(a6)
10007af6:	67a1                	lui	a5,0x8
10007af8:	17fd                	addi	a5,a5,-1 # 7fff <HeapSize+0x77ff>
10007afa:	8e7d                	and	a2,a2,a5
10007afc:	02c686b3          	mul	a3,a3,a2
10007b00:	95b6                	add	a1,a1,a3
10007b02:	5f9000ef          	jal	100088fa <memcpy>
10007b06:	4505                	li	a0,1
10007b08:	40b2                	lw	ra,12(sp)
10007b0a:	0141                	addi	sp,sp,16
10007b0c:	8082                	ret
10007b0e:	4501                	li	a0,0
10007b10:	8082                	ret

10007b12 <_ff_pull_n>:
10007b12:	1101                	addi	sp,sp,-32
10007b14:	ce06                	sw	ra,28(sp)
10007b16:	cc22                	sw	s0,24(sp)
10007b18:	842a                	mv	s0,a0
10007b1a:	852e                	mv	a0,a1
10007b1c:	00445783          	lhu	a5,4(s0)
10007b20:	40d788b3          	sub	a7,a5,a3
10007b24:	0808c8b3          	zext.h	a7,a7
10007b28:	40f687b3          	sub	a5,a3,a5
10007b2c:	97b2                	add	a5,a5,a2
10007b2e:	0807c7b3          	zext.h	a5,a5
10007b32:	00645803          	lhu	a6,6(s0)
10007b36:	65a1                	lui	a1,0x8
10007b38:	15fd                	addi	a1,a1,-1 # 7fff <HeapSize+0x77ff>
10007b3a:	00b87833          	and	a6,a6,a1
10007b3e:	031805b3          	mul	a1,a6,a7
10007b42:	0805c333          	zext.h	t1,a1
10007b46:	02f807b3          	mul	a5,a6,a5
10007b4a:	400c                	lw	a1,0(s0)
10007b4c:	030686b3          	mul	a3,a3,a6
10007b50:	95b6                	add	a1,a1,a3
10007b52:	ef11                	bnez	a4,10007b6e <_ff_pull_n+0x5c>
10007b54:	ca26                	sw	s1,20(sp)
10007b56:	c64e                	sw	s3,12(sp)
10007b58:	0807c7b3          	zext.h	a5,a5
10007b5c:	89be                	mv	s3,a5
10007b5e:	00c8ec63          	bltu	a7,a2,10007b76 <_ff_pull_n+0x64>
10007b62:	03060633          	mul	a2,a2,a6
10007b66:	595000ef          	jal	100088fa <memcpy>
10007b6a:	44d2                	lw	s1,20(sp)
10007b6c:	49b2                	lw	s3,12(sp)
10007b6e:	40f2                	lw	ra,28(sp)
10007b70:	4462                	lw	s0,24(sp)
10007b72:	6105                	addi	sp,sp,32
10007b74:	8082                	ret
10007b76:	c84a                	sw	s2,16(sp)
10007b78:	891a                	mv	s2,t1
10007b7a:	861a                	mv	a2,t1
10007b7c:	84aa                	mv	s1,a0
10007b7e:	57d000ef          	jal	100088fa <memcpy>
10007b82:	864e                	mv	a2,s3
10007b84:	400c                	lw	a1,0(s0)
10007b86:	01248533          	add	a0,s1,s2
10007b8a:	571000ef          	jal	100088fa <memcpy>
10007b8e:	44d2                	lw	s1,20(sp)
10007b90:	4942                	lw	s2,16(sp)
10007b92:	49b2                	lw	s3,12(sp)
10007b94:	bfe9                	j	10007b6e <_ff_pull_n+0x5c>

10007b96 <_tu_fifo_peek_n>:
10007b96:	1141                	addi	sp,sp,-16
10007b98:	c606                	sw	ra,12(sp)
10007b9a:	c422                	sw	s0,8(sp)
10007b9c:	88b6                	mv	a7,a3
10007b9e:	86ba                	mv	a3,a4
10007ba0:	873e                	mv	a4,a5
10007ba2:	00455803          	lhu	a6,4(a0)
10007ba6:	02d8e663          	bltu	a7,a3,10007bd2 <_tu_fifo_peek_n+0x3c>
10007baa:	40d88433          	sub	s0,a7,a3
10007bae:	08044433          	zext.h	s0,s0
10007bb2:	c431                	beqz	s0,10007bfe <_tu_fifo_peek_n+0x68>
10007bb4:	00887b63          	bgeu	a6,s0,10007bca <_tu_fifo_peek_n+0x34>
10007bb8:	0308e663          	bltu	a7,a6,10007be4 <_tu_fifo_peek_n+0x4e>
10007bbc:	410888b3          	sub	a7,a7,a6
10007bc0:	0808c6b3          	zext.h	a3,a7
10007bc4:	00d51523          	sh	a3,10(a0)
10007bc8:	8442                	mv	s0,a6
10007bca:	02c46563          	bltu	s0,a2,10007bf4 <_tu_fifo_peek_n+0x5e>
10007bce:	8432                	mv	s0,a2
10007bd0:	a015                	j	10007bf4 <_tu_fifo_peek_n+0x5e>
10007bd2:	40d88433          	sub	s0,a7,a3
10007bd6:	08044433          	zext.h	s0,s0
10007bda:	20882433          	sh1add	s0,a6,s0
10007bde:	08044433          	zext.h	s0,s0
10007be2:	bfc1                	j	10007bb2 <_tu_fifo_peek_n+0x1c>
10007be4:	98c2                	add	a7,a7,a6
10007be6:	0808c6b3          	zext.h	a3,a7
10007bea:	bfe9                	j	10007bc4 <_tu_fifo_peek_n+0x2e>
10007bec:	410686b3          	sub	a3,a3,a6
10007bf0:	0806c6b3          	zext.h	a3,a3
10007bf4:	ff06fce3          	bgeu	a3,a6,10007bec <_tu_fifo_peek_n+0x56>
10007bf8:	8622                	mv	a2,s0
10007bfa:	f19ff0ef          	jal	10007b12 <_ff_pull_n>
10007bfe:	8522                	mv	a0,s0
10007c00:	40b2                	lw	ra,12(sp)
10007c02:	4422                	lw	s0,8(sp)
10007c04:	0141                	addi	sp,sp,16
10007c06:	8082                	ret

10007c08 <_tu_fifo_read_n>:
10007c08:	1101                	addi	sp,sp,-32
10007c0a:	ce06                	sw	ra,28(sp)
10007c0c:	cc22                	sw	s0,24(sp)
10007c0e:	ca26                	sw	s1,20(sp)
10007c10:	c84a                	sw	s2,16(sp)
10007c12:	c64e                	sw	s3,12(sp)
10007c14:	842a                	mv	s0,a0
10007c16:	84ae                	mv	s1,a1
10007c18:	8932                	mv	s2,a2
10007c1a:	89b6                	mv	s3,a3
10007c1c:	4908                	lw	a0,16(a0)
10007c1e:	c511                	beqz	a0,10007c2a <_tu_fifo_read_n+0x22>
10007c20:	55fd                	li	a1,-1
10007c22:	0fff8097          	auipc	ra,0xfff8
10007c26:	51c080e7          	jalr	1308(ra) # 2000013e <mutex_enter_timeout_ms>
10007c2a:	00845683          	lhu	a3,8(s0)
10007c2e:	00a45703          	lhu	a4,10(s0)
10007c32:	87ce                	mv	a5,s3
10007c34:	864a                	mv	a2,s2
10007c36:	85a6                	mv	a1,s1
10007c38:	8522                	mv	a0,s0
10007c3a:	f5dff0ef          	jal	10007b96 <_tu_fifo_peek_n>
10007c3e:	862a                	mv	a2,a0
10007c40:	84aa                	mv	s1,a0
10007c42:	00a45583          	lhu	a1,10(s0)
10007c46:	00445503          	lhu	a0,4(s0)
10007c4a:	e31ff0ef          	jal	10007a7a <advance_index>
10007c4e:	00a41523          	sh	a0,10(s0)
10007c52:	4808                	lw	a0,16(s0)
10007c54:	c509                	beqz	a0,10007c5e <_tu_fifo_read_n+0x56>
10007c56:	0fff8097          	auipc	ra,0xfff8
10007c5a:	532080e7          	jalr	1330(ra) # 20000188 <mutex_exit>
10007c5e:	8526                	mv	a0,s1
10007c60:	40f2                	lw	ra,28(sp)
10007c62:	4462                	lw	s0,24(sp)
10007c64:	44d2                	lw	s1,20(sp)
10007c66:	4942                	lw	s2,16(sp)
10007c68:	49b2                	lw	s3,12(sp)
10007c6a:	6105                	addi	sp,sp,32
10007c6c:	8082                	ret

10007c6e <_ff_push_n>:
10007c6e:	1101                	addi	sp,sp,-32
10007c70:	ce06                	sw	ra,28(sp)
10007c72:	cc22                	sw	s0,24(sp)
10007c74:	ca26                	sw	s1,20(sp)
10007c76:	842a                	mv	s0,a0
10007c78:	832e                	mv	t1,a1
10007c7a:	84ae                	mv	s1,a1
10007c7c:	00455783          	lhu	a5,4(a0)
10007c80:	40d788b3          	sub	a7,a5,a3
10007c84:	0808c8b3          	zext.h	a7,a7
10007c88:	40f687b3          	sub	a5,a3,a5
10007c8c:	97b2                	add	a5,a5,a2
10007c8e:	0807c7b3          	zext.h	a5,a5
10007c92:	00655803          	lhu	a6,6(a0)
10007c96:	65a1                	lui	a1,0x8
10007c98:	15fd                	addi	a1,a1,-1 # 7fff <HeapSize+0x77ff>
10007c9a:	00b87833          	and	a6,a6,a1
10007c9e:	031805b3          	mul	a1,a6,a7
10007ca2:	0805c533          	zext.h	a0,a1
10007ca6:	85aa                	mv	a1,a0
10007ca8:	02f807b3          	mul	a5,a6,a5
10007cac:	4008                	lw	a0,0(s0)
10007cae:	030686b3          	mul	a3,a3,a6
10007cb2:	9536                	add	a0,a0,a3
10007cb4:	ef09                	bnez	a4,10007cce <_ff_push_n+0x60>
10007cb6:	c64e                	sw	s3,12(sp)
10007cb8:	0807c7b3          	zext.h	a5,a5
10007cbc:	89be                	mv	s3,a5
10007cbe:	00c8ed63          	bltu	a7,a2,10007cd8 <_ff_push_n+0x6a>
10007cc2:	03060633          	mul	a2,a2,a6
10007cc6:	859a                	mv	a1,t1
10007cc8:	433000ef          	jal	100088fa <memcpy>
10007ccc:	49b2                	lw	s3,12(sp)
10007cce:	40f2                	lw	ra,28(sp)
10007cd0:	4462                	lw	s0,24(sp)
10007cd2:	44d2                	lw	s1,20(sp)
10007cd4:	6105                	addi	sp,sp,32
10007cd6:	8082                	ret
10007cd8:	c84a                	sw	s2,16(sp)
10007cda:	892e                	mv	s2,a1
10007cdc:	862e                	mv	a2,a1
10007cde:	859a                	mv	a1,t1
10007ce0:	41b000ef          	jal	100088fa <memcpy>
10007ce4:	864e                	mv	a2,s3
10007ce6:	012485b3          	add	a1,s1,s2
10007cea:	4008                	lw	a0,0(s0)
10007cec:	40f000ef          	jal	100088fa <memcpy>
10007cf0:	4942                	lw	s2,16(sp)
10007cf2:	49b2                	lw	s3,12(sp)
10007cf4:	bfe9                	j	10007cce <_ff_push_n+0x60>

10007cf6 <_tu_fifo_write_n>:
10007cf6:	1101                	addi	sp,sp,-32
10007cf8:	ce06                	sw	ra,28(sp)
10007cfa:	ca26                	sw	s1,20(sp)
10007cfc:	c84a                	sw	s2,16(sp)
10007cfe:	84b2                	mv	s1,a2
10007d00:	12060563          	beqz	a2,10007e2a <_tu_fifo_write_n+0x134>
10007d04:	cc22                	sw	s0,24(sp)
10007d06:	c64e                	sw	s3,12(sp)
10007d08:	c452                	sw	s4,8(sp)
10007d0a:	c256                	sw	s5,4(sp)
10007d0c:	842a                	mv	s0,a0
10007d0e:	8aae                	mv	s5,a1
10007d10:	8a36                	mv	s4,a3
10007d12:	4548                	lw	a0,12(a0)
10007d14:	c511                	beqz	a0,10007d20 <_tu_fifo_write_n+0x2a>
10007d16:	55fd                	li	a1,-1
10007d18:	0fff8097          	auipc	ra,0xfff8
10007d1c:	426080e7          	jalr	1062(ra) # 2000013e <mutex_enter_timeout_ms>
10007d20:	00845983          	lhu	s3,8(s0)
10007d24:	0809c9b3          	zext.h	s3,s3
10007d28:	00a45783          	lhu	a5,10(s0)
10007d2c:	0807c5b3          	zext.h	a1,a5
10007d30:	4058                	lw	a4,4(s0)
10007d32:	04074163          	bltz	a4,10007d74 <_tu_fifo_write_n+0x7e>
10007d36:	00445903          	lhu	s2,4(s0)
10007d3a:	02b9e463          	bltu	s3,a1,10007d62 <_tu_fifo_write_n+0x6c>
10007d3e:	40b987b3          	sub	a5,s3,a1
10007d42:	0807c7b3          	zext.h	a5,a5
10007d46:	0f27f063          	bgeu	a5,s2,10007e26 <_tu_fifo_write_n+0x130>
10007d4a:	40f90933          	sub	s2,s2,a5
10007d4e:	08094933          	zext.h	s2,s2
10007d52:	0b24d933          	minu	s2,s1,s2
10007d56:	0a090863          	beqz	s2,10007e06 <_tu_fifo_write_n+0x110>
10007d5a:	00445783          	lhu	a5,4(s0)
10007d5e:	86ce                	mv	a3,s3
10007d60:	a059                	j	10007de6 <_tu_fifo_write_n+0xf0>
10007d62:	40b987b3          	sub	a5,s3,a1
10007d66:	0807c7b3          	zext.h	a5,a5
10007d6a:	20f927b3          	sh1add	a5,s2,a5
10007d6e:	0807c7b3          	zext.h	a5,a5
10007d72:	bfd1                	j	10007d46 <_tu_fifo_write_n+0x50>
10007d74:	00445903          	lhu	s2,4(s0)
10007d78:	0324e263          	bltu	s1,s2,10007d9c <_tu_fifo_write_n+0xa6>
10007d7c:	040a1e63          	bnez	s4,10007dd8 <_tu_fifo_write_n+0xe2>
10007d80:	412484b3          	sub	s1,s1,s2
10007d84:	00645703          	lhu	a4,6(s0)
10007d88:	66a1                	lui	a3,0x8
10007d8a:	16fd                	addi	a3,a3,-1 # 7fff <HeapSize+0x77ff>
10007d8c:	8f75                	and	a4,a4,a3
10007d8e:	02e484b3          	mul	s1,s1,a4
10007d92:	009a87b3          	add	a5,s5,s1
10007d96:	8abe                	mv	s5,a5
10007d98:	89ae                	mv	s3,a1
10007d9a:	bf75                	j	10007d56 <_tu_fifo_write_n+0x60>
10007d9c:	02b9e563          	bltu	s3,a1,10007dc6 <_tu_fifo_write_n+0xd0>
10007da0:	40b98733          	sub	a4,s3,a1
10007da4:	08074733          	zext.h	a4,a4
10007da8:	9726                	add	a4,a4,s1
10007daa:	00191693          	slli	a3,s2,0x1
10007dae:	02d74763          	blt	a4,a3,10007ddc <_tu_fifo_write_n+0xe6>
10007db2:	40990633          	sub	a2,s2,s1
10007db6:	08064633          	zext.h	a2,a2
10007dba:	854a                	mv	a0,s2
10007dbc:	cbfff0ef          	jal	10007a7a <advance_index>
10007dc0:	89aa                	mv	s3,a0
10007dc2:	8926                	mv	s2,s1
10007dc4:	bf49                	j	10007d56 <_tu_fifo_write_n+0x60>
10007dc6:	40b98733          	sub	a4,s3,a1
10007dca:	08074733          	zext.h	a4,a4
10007dce:	20e92733          	sh1add	a4,s2,a4
10007dd2:	08074733          	zext.h	a4,a4
10007dd6:	bfc9                	j	10007da8 <_tu_fifo_write_n+0xb2>
10007dd8:	89ae                	mv	s3,a1
10007dda:	bfb5                	j	10007d56 <_tu_fifo_write_n+0x60>
10007ddc:	8926                	mv	s2,s1
10007dde:	bfa5                	j	10007d56 <_tu_fifo_write_n+0x60>
10007de0:	8e9d                	sub	a3,a3,a5
10007de2:	0806c6b3          	zext.h	a3,a3
10007de6:	fef6fde3          	bgeu	a3,a5,10007de0 <_tu_fifo_write_n+0xea>
10007dea:	8752                	mv	a4,s4
10007dec:	864a                	mv	a2,s2
10007dee:	85d6                	mv	a1,s5
10007df0:	8522                	mv	a0,s0
10007df2:	e7dff0ef          	jal	10007c6e <_ff_push_n>
10007df6:	864a                	mv	a2,s2
10007df8:	85ce                	mv	a1,s3
10007dfa:	00445503          	lhu	a0,4(s0)
10007dfe:	c7dff0ef          	jal	10007a7a <advance_index>
10007e02:	00a41423          	sh	a0,8(s0)
10007e06:	4448                	lw	a0,12(s0)
10007e08:	c11d                	beqz	a0,10007e2e <_tu_fifo_write_n+0x138>
10007e0a:	0fff8097          	auipc	ra,0xfff8
10007e0e:	37e080e7          	jalr	894(ra) # 20000188 <mutex_exit>
10007e12:	4462                	lw	s0,24(sp)
10007e14:	49b2                	lw	s3,12(sp)
10007e16:	4a22                	lw	s4,8(sp)
10007e18:	4a92                	lw	s5,4(sp)
10007e1a:	854a                	mv	a0,s2
10007e1c:	40f2                	lw	ra,28(sp)
10007e1e:	44d2                	lw	s1,20(sp)
10007e20:	4942                	lw	s2,16(sp)
10007e22:	6105                	addi	sp,sp,32
10007e24:	8082                	ret
10007e26:	4901                	li	s2,0
10007e28:	bff9                	j	10007e06 <_tu_fifo_write_n+0x110>
10007e2a:	8932                	mv	s2,a2
10007e2c:	b7fd                	j	10007e1a <_tu_fifo_write_n+0x124>
10007e2e:	4462                	lw	s0,24(sp)
10007e30:	49b2                	lw	s3,12(sp)
10007e32:	4a22                	lw	s4,8(sp)
10007e34:	4a92                	lw	s5,4(sp)
10007e36:	b7d5                	j	10007e1a <_tu_fifo_write_n+0x124>

10007e38 <tu_fifo_config>:
10007e38:	1101                	addi	sp,sp,-32
10007e3a:	ce06                	sw	ra,28(sp)
10007e3c:	c64e                	sw	s3,12(sp)
10007e3e:	89b6                	mv	s3,a3
10007e40:	66a1                	lui	a3,0x8
10007e42:	08c6e863          	bltu	a3,a2,10007ed2 <tu_fifo_config+0x9a>
10007e46:	cc22                	sw	s0,24(sp)
10007e48:	ca26                	sw	s1,20(sp)
10007e4a:	c84a                	sw	s2,16(sp)
10007e4c:	c452                	sw	s4,8(sp)
10007e4e:	842a                	mv	s0,a0
10007e50:	892e                	mv	s2,a1
10007e52:	84b2                	mv	s1,a2
10007e54:	8a3a                	mv	s4,a4
10007e56:	4548                	lw	a0,12(a0)
10007e58:	c511                	beqz	a0,10007e64 <tu_fifo_config+0x2c>
10007e5a:	55fd                	li	a1,-1
10007e5c:	0fff8097          	auipc	ra,0xfff8
10007e60:	2e2080e7          	jalr	738(ra) # 2000013e <mutex_enter_timeout_ms>
10007e64:	4808                	lw	a0,16(s0)
10007e66:	c511                	beqz	a0,10007e72 <tu_fifo_config+0x3a>
10007e68:	55fd                	li	a1,-1
10007e6a:	0fff8097          	auipc	ra,0xfff8
10007e6e:	2d4080e7          	jalr	724(ra) # 2000013e <mutex_enter_timeout_ms>
10007e72:	01242023          	sw	s2,0(s0)
10007e76:	00941223          	sh	s1,4(s0)
10007e7a:	6621                	lui	a2,0x8
10007e7c:	167d                	addi	a2,a2,-1 # 7fff <HeapSize+0x77ff>
10007e7e:	00c9f6b3          	and	a3,s3,a2
10007e82:	00645783          	lhu	a5,6(s0)
10007e86:	7761                	lui	a4,0xffff8
10007e88:	8ff9                	and	a5,a5,a4
10007e8a:	8fd5                	or	a5,a5,a3
10007e8c:	00f41323          	sh	a5,6(s0)
10007e90:	00fa1793          	slli	a5,s4,0xf
10007e94:	00645703          	lhu	a4,6(s0)
10007e98:	8f71                	and	a4,a4,a2
10007e9a:	8f5d                	or	a4,a4,a5
10007e9c:	00e41323          	sh	a4,6(s0)
10007ea0:	00041523          	sh	zero,10(s0)
10007ea4:	00041423          	sh	zero,8(s0)
10007ea8:	4448                	lw	a0,12(s0)
10007eaa:	c509                	beqz	a0,10007eb4 <tu_fifo_config+0x7c>
10007eac:	0fff8097          	auipc	ra,0xfff8
10007eb0:	2dc080e7          	jalr	732(ra) # 20000188 <mutex_exit>
10007eb4:	4808                	lw	a0,16(s0)
10007eb6:	c105                	beqz	a0,10007ed6 <tu_fifo_config+0x9e>
10007eb8:	0fff8097          	auipc	ra,0xfff8
10007ebc:	2d0080e7          	jalr	720(ra) # 20000188 <mutex_exit>
10007ec0:	4505                	li	a0,1
10007ec2:	4462                	lw	s0,24(sp)
10007ec4:	44d2                	lw	s1,20(sp)
10007ec6:	4942                	lw	s2,16(sp)
10007ec8:	4a22                	lw	s4,8(sp)
10007eca:	40f2                	lw	ra,28(sp)
10007ecc:	49b2                	lw	s3,12(sp)
10007ece:	6105                	addi	sp,sp,32
10007ed0:	8082                	ret
10007ed2:	4501                	li	a0,0
10007ed4:	bfdd                	j	10007eca <tu_fifo_config+0x92>
10007ed6:	4505                	li	a0,1
10007ed8:	4462                	lw	s0,24(sp)
10007eda:	44d2                	lw	s1,20(sp)
10007edc:	4942                	lw	s2,16(sp)
10007ede:	4a22                	lw	s4,8(sp)
10007ee0:	b7ed                	j	10007eca <tu_fifo_config+0x92>

10007ee2 <tu_fifo_count>:
10007ee2:	00455603          	lhu	a2,4(a0)
10007ee6:	00855703          	lhu	a4,8(a0)
10007eea:	080747b3          	zext.h	a5,a4
10007eee:	00a55683          	lhu	a3,10(a0)
10007ef2:	0806c5b3          	zext.h	a1,a3
10007ef6:	00d76863          	bltu	a4,a3,10007f06 <tu_fifo_count+0x24>
10007efa:	8f8d                	sub	a5,a5,a1
10007efc:	0807c533          	zext.h	a0,a5
10007f00:	0aa65533          	minu	a0,a2,a0
10007f04:	8082                	ret
10007f06:	8f8d                	sub	a5,a5,a1
10007f08:	0807c7b3          	zext.h	a5,a5
10007f0c:	20f627b3          	sh1add	a5,a2,a5
10007f10:	0807c533          	zext.h	a0,a5
10007f14:	b7f5                	j	10007f00 <tu_fifo_count+0x1e>

10007f16 <tu_fifo_empty>:
10007f16:	00855783          	lhu	a5,8(a0)
10007f1a:	00a55703          	lhu	a4,10(a0)
10007f1e:	40e78533          	sub	a0,a5,a4
10007f22:	00153513          	seqz	a0,a0
10007f26:	8082                	ret

10007f28 <tu_fifo_full>:
10007f28:	00455703          	lhu	a4,4(a0)
10007f2c:	00855683          	lhu	a3,8(a0)
10007f30:	0806c7b3          	zext.h	a5,a3
10007f34:	00a55603          	lhu	a2,10(a0)
10007f38:	080645b3          	zext.h	a1,a2
10007f3c:	00c6ea63          	bltu	a3,a2,10007f50 <tu_fifo_full+0x28>
10007f40:	8f8d                	sub	a5,a5,a1
10007f42:	0807c7b3          	zext.h	a5,a5
10007f46:	00e7b533          	sltu	a0,a5,a4
10007f4a:	00154513          	xori	a0,a0,1
10007f4e:	8082                	ret
10007f50:	8f8d                	sub	a5,a5,a1
10007f52:	0807c7b3          	zext.h	a5,a5
10007f56:	20f727b3          	sh1add	a5,a4,a5
10007f5a:	0807c7b3          	zext.h	a5,a5
10007f5e:	b7e5                	j	10007f46 <tu_fifo_full+0x1e>

10007f60 <tu_fifo_remaining>:
10007f60:	00455703          	lhu	a4,4(a0)
10007f64:	00855683          	lhu	a3,8(a0)
10007f68:	0806c7b3          	zext.h	a5,a3
10007f6c:	00a55603          	lhu	a2,10(a0)
10007f70:	080645b3          	zext.h	a1,a2
10007f74:	00c6ec63          	bltu	a3,a2,10007f8c <tu_fifo_remaining+0x2c>
10007f78:	8f8d                	sub	a5,a5,a1
10007f7a:	0807c7b3          	zext.h	a5,a5
10007f7e:	00e7ff63          	bgeu	a5,a4,10007f9c <tu_fifo_remaining+0x3c>
10007f82:	40f70533          	sub	a0,a4,a5
10007f86:	08054533          	zext.h	a0,a0
10007f8a:	8082                	ret
10007f8c:	8f8d                	sub	a5,a5,a1
10007f8e:	0807c7b3          	zext.h	a5,a5
10007f92:	20f727b3          	sh1add	a5,a4,a5
10007f96:	0807c7b3          	zext.h	a5,a5
10007f9a:	b7d5                	j	10007f7e <tu_fifo_remaining+0x1e>
10007f9c:	4501                	li	a0,0
10007f9e:	8082                	ret

10007fa0 <tu_fifo_read>:
10007fa0:	1141                	addi	sp,sp,-16
10007fa2:	c606                	sw	ra,12(sp)
10007fa4:	c422                	sw	s0,8(sp)
10007fa6:	c226                	sw	s1,4(sp)
10007fa8:	842a                	mv	s0,a0
10007faa:	84ae                	mv	s1,a1
10007fac:	4908                	lw	a0,16(a0)
10007fae:	c511                	beqz	a0,10007fba <tu_fifo_read+0x1a>
10007fb0:	55fd                	li	a1,-1
10007fb2:	0fff8097          	auipc	ra,0xfff8
10007fb6:	18c080e7          	jalr	396(ra) # 2000013e <mutex_enter_timeout_ms>
10007fba:	00845603          	lhu	a2,8(s0)
10007fbe:	00a45683          	lhu	a3,10(s0)
10007fc2:	85a6                	mv	a1,s1
10007fc4:	8522                	mv	a0,s0
10007fc6:	ad7ff0ef          	jal	10007a9c <_tu_fifo_peek>
10007fca:	862a                	mv	a2,a0
10007fcc:	84aa                	mv	s1,a0
10007fce:	00a45583          	lhu	a1,10(s0)
10007fd2:	00445503          	lhu	a0,4(s0)
10007fd6:	aa5ff0ef          	jal	10007a7a <advance_index>
10007fda:	00a41523          	sh	a0,10(s0)
10007fde:	4808                	lw	a0,16(s0)
10007fe0:	c509                	beqz	a0,10007fea <tu_fifo_read+0x4a>
10007fe2:	0fff8097          	auipc	ra,0xfff8
10007fe6:	1a6080e7          	jalr	422(ra) # 20000188 <mutex_exit>
10007fea:	8526                	mv	a0,s1
10007fec:	40b2                	lw	ra,12(sp)
10007fee:	4422                	lw	s0,8(sp)
10007ff0:	4492                	lw	s1,4(sp)
10007ff2:	0141                	addi	sp,sp,16
10007ff4:	8082                	ret

10007ff6 <tu_fifo_read_n>:
10007ff6:	1141                	addi	sp,sp,-16
10007ff8:	c606                	sw	ra,12(sp)
10007ffa:	4681                	li	a3,0
10007ffc:	c0dff0ef          	jal	10007c08 <_tu_fifo_read_n>
10008000:	40b2                	lw	ra,12(sp)
10008002:	0141                	addi	sp,sp,16
10008004:	8082                	ret

10008006 <tu_fifo_write>:
10008006:	1101                	addi	sp,sp,-32
10008008:	ce06                	sw	ra,28(sp)
1000800a:	cc22                	sw	s0,24(sp)
1000800c:	ca26                	sw	s1,20(sp)
1000800e:	c84a                	sw	s2,16(sp)
10008010:	c64e                	sw	s3,12(sp)
10008012:	842a                	mv	s0,a0
10008014:	89ae                	mv	s3,a1
10008016:	4548                	lw	a0,12(a0)
10008018:	c511                	beqz	a0,10008024 <tu_fifo_write+0x1e>
1000801a:	55fd                	li	a1,-1
1000801c:	0fff8097          	auipc	ra,0xfff8
10008020:	122080e7          	jalr	290(ra) # 2000013e <mutex_enter_timeout_ms>
10008024:	00845783          	lhu	a5,8(s0)
10008028:	0807c7b3          	zext.h	a5,a5
1000802c:	893e                	mv	s2,a5
1000802e:	8522                	mv	a0,s0
10008030:	ef9ff0ef          	jal	10007f28 <tu_fifo_full>
10008034:	c511                	beqz	a0,10008040 <tu_fifo_write+0x3a>
10008036:	405c                	lw	a5,4(s0)
10008038:	01f7d493          	srli	s1,a5,0x1f
1000803c:	0407d063          	bgez	a5,1000807c <tu_fifo_write+0x76>
10008040:	00445703          	lhu	a4,4(s0)
10008044:	87ca                	mv	a5,s2
10008046:	a021                	j	1000804e <tu_fifo_write+0x48>
10008048:	8f99                	sub	a5,a5,a4
1000804a:	0807c7b3          	zext.h	a5,a5
1000804e:	fee7fde3          	bgeu	a5,a4,10008048 <tu_fifo_write+0x42>
10008052:	4008                	lw	a0,0(s0)
10008054:	00645603          	lhu	a2,6(s0)
10008058:	6721                	lui	a4,0x8
1000805a:	177d                	addi	a4,a4,-1 # 7fff <HeapSize+0x77ff>
1000805c:	8e79                	and	a2,a2,a4
1000805e:	02c787b3          	mul	a5,a5,a2
10008062:	85ce                	mv	a1,s3
10008064:	953e                	add	a0,a0,a5
10008066:	095000ef          	jal	100088fa <memcpy>
1000806a:	4605                	li	a2,1
1000806c:	85ca                	mv	a1,s2
1000806e:	00445503          	lhu	a0,4(s0)
10008072:	a09ff0ef          	jal	10007a7a <advance_index>
10008076:	00a41423          	sh	a0,8(s0)
1000807a:	4485                	li	s1,1
1000807c:	4448                	lw	a0,12(s0)
1000807e:	c509                	beqz	a0,10008088 <tu_fifo_write+0x82>
10008080:	0fff8097          	auipc	ra,0xfff8
10008084:	108080e7          	jalr	264(ra) # 20000188 <mutex_exit>
10008088:	8526                	mv	a0,s1
1000808a:	40f2                	lw	ra,28(sp)
1000808c:	4462                	lw	s0,24(sp)
1000808e:	44d2                	lw	s1,20(sp)
10008090:	4942                	lw	s2,16(sp)
10008092:	49b2                	lw	s3,12(sp)
10008094:	6105                	addi	sp,sp,32
10008096:	8082                	ret

10008098 <tu_fifo_write_n>:
10008098:	1141                	addi	sp,sp,-16
1000809a:	c606                	sw	ra,12(sp)
1000809c:	4681                	li	a3,0
1000809e:	c59ff0ef          	jal	10007cf6 <_tu_fifo_write_n>
100080a2:	40b2                	lw	ra,12(sp)
100080a4:	0141                	addi	sp,sp,16
100080a6:	8082                	ret

100080a8 <tu_fifo_clear>:
100080a8:	1141                	addi	sp,sp,-16
100080aa:	c606                	sw	ra,12(sp)
100080ac:	c422                	sw	s0,8(sp)
100080ae:	842a                	mv	s0,a0
100080b0:	4548                	lw	a0,12(a0)
100080b2:	c511                	beqz	a0,100080be <tu_fifo_clear+0x16>
100080b4:	55fd                	li	a1,-1
100080b6:	0fff8097          	auipc	ra,0xfff8
100080ba:	088080e7          	jalr	136(ra) # 2000013e <mutex_enter_timeout_ms>
100080be:	4808                	lw	a0,16(s0)
100080c0:	c511                	beqz	a0,100080cc <tu_fifo_clear+0x24>
100080c2:	55fd                	li	a1,-1
100080c4:	0fff8097          	auipc	ra,0xfff8
100080c8:	07a080e7          	jalr	122(ra) # 2000013e <mutex_enter_timeout_ms>
100080cc:	00041523          	sh	zero,10(s0)
100080d0:	00041423          	sh	zero,8(s0)
100080d4:	4448                	lw	a0,12(s0)
100080d6:	c509                	beqz	a0,100080e0 <tu_fifo_clear+0x38>
100080d8:	0fff8097          	auipc	ra,0xfff8
100080dc:	0b0080e7          	jalr	176(ra) # 20000188 <mutex_exit>
100080e0:	4808                	lw	a0,16(s0)
100080e2:	c509                	beqz	a0,100080ec <tu_fifo_clear+0x44>
100080e4:	0fff8097          	auipc	ra,0xfff8
100080e8:	0a4080e7          	jalr	164(ra) # 20000188 <mutex_exit>
100080ec:	4505                	li	a0,1
100080ee:	40b2                	lw	ra,12(sp)
100080f0:	4422                	lw	s0,8(sp)
100080f2:	0141                	addi	sp,sp,16
100080f4:	8082                	ret

100080f6 <tu_fifo_set_overwritable>:
100080f6:	1141                	addi	sp,sp,-16
100080f8:	c606                	sw	ra,12(sp)
100080fa:	c422                	sw	s0,8(sp)
100080fc:	c226                	sw	s1,4(sp)
100080fe:	842a                	mv	s0,a0
10008100:	84ae                	mv	s1,a1
10008102:	4548                	lw	a0,12(a0)
10008104:	c511                	beqz	a0,10008110 <tu_fifo_set_overwritable+0x1a>
10008106:	55fd                	li	a1,-1
10008108:	0fff8097          	auipc	ra,0xfff8
1000810c:	036080e7          	jalr	54(ra) # 2000013e <mutex_enter_timeout_ms>
10008110:	4808                	lw	a0,16(s0)
10008112:	c511                	beqz	a0,1000811e <tu_fifo_set_overwritable+0x28>
10008114:	55fd                	li	a1,-1
10008116:	0fff8097          	auipc	ra,0xfff8
1000811a:	028080e7          	jalr	40(ra) # 2000013e <mutex_enter_timeout_ms>
1000811e:	00f49593          	slli	a1,s1,0xf
10008122:	00645783          	lhu	a5,6(s0)
10008126:	6721                	lui	a4,0x8
10008128:	177d                	addi	a4,a4,-1 # 7fff <HeapSize+0x77ff>
1000812a:	8ff9                	and	a5,a5,a4
1000812c:	8fcd                	or	a5,a5,a1
1000812e:	00f41323          	sh	a5,6(s0)
10008132:	4448                	lw	a0,12(s0)
10008134:	c509                	beqz	a0,1000813e <tu_fifo_set_overwritable+0x48>
10008136:	0fff8097          	auipc	ra,0xfff8
1000813a:	052080e7          	jalr	82(ra) # 20000188 <mutex_exit>
1000813e:	4808                	lw	a0,16(s0)
10008140:	c509                	beqz	a0,1000814a <tu_fifo_set_overwritable+0x54>
10008142:	0fff8097          	auipc	ra,0xfff8
10008146:	046080e7          	jalr	70(ra) # 20000188 <mutex_exit>
1000814a:	4505                	li	a0,1
1000814c:	40b2                	lw	ra,12(sp)
1000814e:	4422                	lw	s0,8(sp)
10008150:	4492                	lw	s1,4(sp)
10008152:	0141                	addi	sp,sp,16
10008154:	8082                	ret

10008156 <core1_trampoline>:
10008156:	4502                	lw	a0,0(sp)
10008158:	4592                	lw	a1,4(sp)
1000815a:	4622                	lw	a2,8(sp)
1000815c:	41b2                	lw	gp,12(sp)
1000815e:	0141                	addi	sp,sp,16
10008160:	8602                	jr	a2

10008162 <core1_wrapper>:
10008162:	1141                	addi	sp,sp,-16
10008164:	c606                	sw	ra,12(sp)
10008166:	c422                	sw	s0,8(sp)
10008168:	842a                	mv	s0,a0
1000816a:	afbfa0ef          	jal	10002c64 <runtime_run_per_core_initializers>
1000816e:	9402                	jalr	s0
10008170:	40b2                	lw	ra,12(sp)
10008172:	4422                	lw	s0,8(sp)
10008174:	0141                	addi	sp,sp,16
10008176:	8082                	ret

10008178 <multicore_fifo_push_blocking>:
10008178:	d00007b7          	lui	a5,0xd0000
1000817c:	4bbc                	lw	a5,80(a5)
1000817e:	8b89                	andi	a5,a5,2
10008180:	dfe5                	beqz	a5,10008178 <multicore_fifo_push_blocking>
10008182:	d00007b7          	lui	a5,0xd0000
10008186:	cbe8                	sw	a0,84(a5)
10008188:	00102033          	sgtz	zero,ra
1000818c:	8082                	ret

1000818e <multicore_fifo_pop_blocking>:
1000818e:	a019                	j	10008194 <multicore_fifo_pop_blocking+0x6>
10008190:	00002033          	sltz	zero,zero
10008194:	d00007b7          	lui	a5,0xd0000
10008198:	4bbc                	lw	a5,80(a5)
1000819a:	8b85                	andi	a5,a5,1
1000819c:	dbf5                	beqz	a5,10008190 <multicore_fifo_pop_blocking+0x2>
1000819e:	d00007b7          	lui	a5,0xd0000
100081a2:	4fa8                	lw	a0,88(a5)
100081a4:	8082                	ret

100081a6 <multicore_launch_core1_raw>:
100081a6:	7139                	addi	sp,sp,-64
100081a8:	de06                	sw	ra,60(sp)
100081aa:	dc22                	sw	s0,56(sp)
100081ac:	da26                	sw	s1,52(sp)
100081ae:	d84a                	sw	s2,48(sp)
100081b0:	d64e                	sw	s3,44(sp)
100081b2:	842a                	mv	s0,a0
100081b4:	84ae                	mv	s1,a1
100081b6:	8932                	mv	s2,a2
100081b8:	4565                	li	a0,25
100081ba:	b8af90ef          	jal	10001544 <irq_is_enabled>
100081be:	89aa                	mv	s3,a0
100081c0:	4581                	li	a1,0
100081c2:	4565                	li	a0,25
100081c4:	ba4f90ef          	jal	10001568 <irq_set_enabled>
100081c8:	c402                	sw	zero,8(sp)
100081ca:	c602                	sw	zero,12(sp)
100081cc:	4785                	li	a5,1
100081ce:	c83e                	sw	a5,16(sp)
100081d0:	ca4a                	sw	s2,20(sp)
100081d2:	cc26                	sw	s1,24(sp)
100081d4:	ce22                	sw	s0,28(sp)
100081d6:	4481                	li	s1,0
100081d8:	a005                	j	100081f8 <multicore_launch_core1_raw+0x52>
100081da:	d00007b7          	lui	a5,0xd0000
100081de:	4fbc                	lw	a5,88(a5)
100081e0:	d00007b7          	lui	a5,0xd0000
100081e4:	4bbc                	lw	a5,80(a5)
100081e6:	8b85                	andi	a5,a5,1
100081e8:	fbed                	bnez	a5,100081da <multicore_launch_core1_raw+0x34>
100081ea:	00102033          	sgtz	zero,ra
100081ee:	a811                	j	10008202 <multicore_launch_core1_raw+0x5c>
100081f0:	0485                	addi	s1,s1,1
100081f2:	4795                	li	a5,5
100081f4:	0297e063          	bltu	a5,s1,10008214 <multicore_launch_core1_raw+0x6e>
100081f8:	003c                	addi	a5,sp,8
100081fa:	20f4c7b3          	sh2add	a5,s1,a5
100081fe:	4380                	lw	s0,0(a5)
10008200:	d065                	beqz	s0,100081e0 <multicore_launch_core1_raw+0x3a>
10008202:	8522                	mv	a0,s0
10008204:	f75ff0ef          	jal	10008178 <multicore_fifo_push_blocking>
10008208:	f87ff0ef          	jal	1000818e <multicore_fifo_pop_blocking>
1000820c:	fea402e3          	beq	s0,a0,100081f0 <multicore_launch_core1_raw+0x4a>
10008210:	4481                	li	s1,0
10008212:	b7c5                	j	100081f2 <multicore_launch_core1_raw+0x4c>
10008214:	85ce                	mv	a1,s3
10008216:	4565                	li	a0,25
10008218:	b50f90ef          	jal	10001568 <irq_set_enabled>
1000821c:	50f2                	lw	ra,60(sp)
1000821e:	5462                	lw	s0,56(sp)
10008220:	54d2                	lw	s1,52(sp)
10008222:	5942                	lw	s2,48(sp)
10008224:	59b2                	lw	s3,44(sp)
10008226:	6121                	addi	sp,sp,64
10008228:	8082                	ret

1000822a <multicore_launch_core1_with_stack>:
1000822a:	1141                	addi	sp,sp,-16
1000822c:	c606                	sw	ra,12(sp)
1000822e:	00367793          	andi	a5,a2,3
10008232:	ef9d                	bnez	a5,10008270 <multicore_launch_core1_with_stack+0x46>
10008234:	872e                	mv	a4,a1
10008236:	9a71                	andi	a2,a2,-4
10008238:	00c587b3          	add	a5,a1,a2
1000823c:	ff078593          	addi	a1,a5,-16 # cffffff0 <__StackTop+0xaff7dff0>
10008240:	30502673          	csrr	a2,mtvec
10008244:	868e                	mv	a3,gp
10008246:	fed7ae23          	sw	a3,-4(a5)
1000824a:	fea7a823          	sw	a0,-16(a5)
1000824e:	fee7aa23          	sw	a4,-12(a5)
10008252:	10008737          	lui	a4,0x10008
10008256:	16270713          	addi	a4,a4,354 # 10008162 <core1_wrapper>
1000825a:	fee7ac23          	sw	a4,-8(a5)
1000825e:	10008537          	lui	a0,0x10008
10008262:	15650513          	addi	a0,a0,342 # 10008156 <core1_trampoline>
10008266:	f41ff0ef          	jal	100081a6 <multicore_launch_core1_raw>
1000826a:	40b2                	lw	ra,12(sp)
1000826c:	0141                	addi	sp,sp,16
1000826e:	8082                	ret
10008270:	1000a6b7          	lui	a3,0x1000a
10008274:	98468693          	addi	a3,a3,-1660 # 10009984 <__EH_FRAME_BEGIN__+0xcc4>
10008278:	1000a637          	lui	a2,0x1000a
1000827c:	0a060613          	addi	a2,a2,160 # 1000a0a0 <__func__.2>
10008280:	08e00593          	li	a1,142
10008284:	1000a537          	lui	a0,0x1000a
10008288:	93450513          	addi	a0,a0,-1740 # 10009934 <__EH_FRAME_BEGIN__+0xc74>
1000828c:	83cfc0ef          	jal	100042c8 <__assert_func>

10008290 <multicore_launch_core1>:
10008290:	1141                	addi	sp,sp,-16
10008292:	c606                	sw	ra,12(sp)
10008294:	20081737          	lui	a4,0x20081
10008298:	80070713          	addi	a4,a4,-2048 # 20080800 <__StackOneBottom>
1000829c:	200807b7          	lui	a5,0x20080
100082a0:	00078793          	mv	a5,a5
100082a4:	00f76a63          	bltu	a4,a5,100082b8 <multicore_launch_core1+0x28>
100082a8:	85ba                	mv	a1,a4
100082aa:	28b01613          	bseti	a2,zero,0xb
100082ae:	f7dff0ef          	jal	1000822a <multicore_launch_core1_with_stack>
100082b2:	40b2                	lw	ra,12(sp)
100082b4:	0141                	addi	sp,sp,16
100082b6:	8082                	ret
100082b8:	55fd                	li	a1,-1
100082ba:	bfc5                	j	100082aa <multicore_launch_core1+0x1a>

100082bc <atexit>:
100082bc:	85aa                	mv	a1,a0
100082be:	4681                	li	a3,0
100082c0:	4601                	li	a2,0
100082c2:	4501                	li	a0,0
100082c4:	7f80006f          	j	10008abc <__register_exitproc>

100082c8 <memcmp>:
100082c8:	468d                	li	a3,3
100082ca:	04c6f063          	bgeu	a3,a2,1000830a <memcmp+0x42>
100082ce:	00a5e7b3          	or	a5,a1,a0
100082d2:	8b8d                	andi	a5,a5,3
100082d4:	c395                	beqz	a5,100082f8 <memcmp+0x30>
100082d6:	167d                	addi	a2,a2,-1
100082d8:	0605                	addi	a2,a2,1
100082da:	962a                	add	a2,a2,a0
100082dc:	a019                	j	100082e2 <memcmp+0x1a>
100082de:	02a60763          	beq	a2,a0,1000830c <memcmp+0x44>
100082e2:	00054783          	lbu	a5,0(a0)
100082e6:	0005c703          	lbu	a4,0(a1)
100082ea:	0505                	addi	a0,a0,1
100082ec:	0585                	addi	a1,a1,1
100082ee:	fee788e3          	beq	a5,a4,100082de <memcmp+0x16>
100082f2:	40e78533          	sub	a0,a5,a4
100082f6:	8082                	ret
100082f8:	4118                	lw	a4,0(a0)
100082fa:	419c                	lw	a5,0(a1)
100082fc:	fcf71de3          	bne	a4,a5,100082d6 <memcmp+0xe>
10008300:	1671                	addi	a2,a2,-4
10008302:	0511                	addi	a0,a0,4
10008304:	0591                	addi	a1,a1,4
10008306:	fec6e9e3          	bltu	a3,a2,100082f8 <memcmp+0x30>
1000830a:	f671                	bnez	a2,100082d6 <memcmp+0xe>
1000830c:	4501                	li	a0,0
1000830e:	8082                	ret

10008310 <critical_factorization>:
10008310:	4805                	li	a6,1
10008312:	0cb87163          	bgeu	a6,a1,100083d4 <critical_factorization+0xc4>
10008316:	88c2                	mv	a7,a6
10008318:	87c2                	mv	a5,a6
1000831a:	4301                	li	t1,0
1000831c:	5e7d                	li	t3,-1
1000831e:	a809                	j	10008330 <critical_factorization+0x20>
10008320:	41c78833          	sub	a6,a5,t3
10008324:	833e                	mv	t1,a5
10008326:	4885                	li	a7,1
10008328:	011307b3          	add	a5,t1,a7
1000832c:	02b7f763          	bgeu	a5,a1,1000835a <critical_factorization+0x4a>
10008330:	01c506b3          	add	a3,a0,t3
10008334:	96c6                	add	a3,a3,a7
10008336:	00f50733          	add	a4,a0,a5
1000833a:	0006c683          	lbu	a3,0(a3)
1000833e:	00074703          	lbu	a4,0(a4)
10008342:	fcd76fe3          	bltu	a4,a3,10008320 <critical_factorization+0x10>
10008346:	06d70863          	beq	a4,a3,100083b6 <critical_factorization+0xa6>
1000834a:	4805                	li	a6,1
1000834c:	88c2                	mv	a7,a6
1000834e:	8e1a                	mv	t3,t1
10008350:	9342                	add	t1,t1,a6
10008352:	011307b3          	add	a5,t1,a7
10008356:	fcb7ede3          	bltu	a5,a1,10008330 <critical_factorization+0x20>
1000835a:	01062023          	sw	a6,0(a2)
1000835e:	4805                	li	a6,1
10008360:	88c2                	mv	a7,a6
10008362:	87c2                	mv	a5,a6
10008364:	4301                	li	t1,0
10008366:	5efd                	li	t4,-1
10008368:	a809                	j	1000837a <critical_factorization+0x6a>
1000836a:	41d78833          	sub	a6,a5,t4
1000836e:	833e                	mv	t1,a5
10008370:	4885                	li	a7,1
10008372:	011307b3          	add	a5,t1,a7
10008376:	02b7f763          	bgeu	a5,a1,100083a4 <critical_factorization+0x94>
1000837a:	01d506b3          	add	a3,a0,t4
1000837e:	96c6                	add	a3,a3,a7
10008380:	00f50733          	add	a4,a0,a5
10008384:	0006c683          	lbu	a3,0(a3)
10008388:	00074703          	lbu	a4,0(a4)
1000838c:	fce6efe3          	bltu	a3,a4,1000836a <critical_factorization+0x5a>
10008390:	02d70763          	beq	a4,a3,100083be <critical_factorization+0xae>
10008394:	4805                	li	a6,1
10008396:	88c2                	mv	a7,a6
10008398:	8e9a                	mv	t4,t1
1000839a:	9342                	add	t1,t1,a6
1000839c:	011307b3          	add	a5,t1,a7
100083a0:	fcb7ede3          	bltu	a5,a1,1000837a <critical_factorization+0x6a>
100083a4:	0e85                	addi	t4,t4,1
100083a6:	001e0513          	addi	a0,t3,1
100083aa:	02aee463          	bltu	t4,a0,100083d2 <critical_factorization+0xc2>
100083ae:	01062023          	sw	a6,0(a2)
100083b2:	8576                	mv	a0,t4
100083b4:	8082                	ret
100083b6:	01088863          	beq	a7,a6,100083c6 <critical_factorization+0xb6>
100083ba:	0885                	addi	a7,a7,1
100083bc:	b7b5                	j	10008328 <critical_factorization+0x18>
100083be:	01088763          	beq	a7,a6,100083cc <critical_factorization+0xbc>
100083c2:	0885                	addi	a7,a7,1
100083c4:	b77d                	j	10008372 <critical_factorization+0x62>
100083c6:	9346                	add	t1,t1,a7
100083c8:	4885                	li	a7,1
100083ca:	bfb9                	j	10008328 <critical_factorization+0x18>
100083cc:	9346                	add	t1,t1,a7
100083ce:	4885                	li	a7,1
100083d0:	b74d                	j	10008372 <critical_factorization+0x62>
100083d2:	8082                	ret
100083d4:	4e81                	li	t4,0
100083d6:	01062023          	sw	a6,0(a2)
100083da:	8576                	mv	a0,t4
100083dc:	8082                	ret

100083de <two_way_long_needle>:
100083de:	ba010113          	addi	sp,sp,-1120
100083e2:	44912a23          	sw	s1,1108(sp)
100083e6:	45612023          	sw	s6,1088(sp)
100083ea:	43912a23          	sw	s9,1076(sp)
100083ee:	8b32                	mv	s6,a2
100083f0:	84aa                	mv	s1,a0
100083f2:	8cae                	mv	s9,a1
100083f4:	8532                	mv	a0,a2
100083f6:	85b6                	mv	a1,a3
100083f8:	0870                	addi	a2,sp,28
100083fa:	43712e23          	sw	s7,1084(sp)
100083fe:	43a12823          	sw	s10,1072(sp)
10008402:	43b12623          	sw	s11,1068(sp)
10008406:	44112e23          	sw	ra,1116(sp)
1000840a:	44812c23          	sw	s0,1112(sp)
1000840e:	45212823          	sw	s2,1104(sp)
10008412:	45312623          	sw	s3,1100(sp)
10008416:	45412423          	sw	s4,1096(sp)
1000841a:	45512223          	sw	s5,1092(sp)
1000841e:	43812c23          	sw	s8,1080(sp)
10008422:	8bb6                	mv	s7,a3
10008424:	02010d13          	addi	s10,sp,32
10008428:	ee9ff0ef          	jal	10008310 <critical_factorization>
1000842c:	8daa                	mv	s11,a0
1000842e:	87ea                	mv	a5,s10
10008430:	0177a023          	sw	s7,0(a5) # 20080000 <core1_stack>
10008434:	42010713          	addi	a4,sp,1056
10008438:	0791                	addi	a5,a5,4
1000843a:	fee79be3          	bne	a5,a4,10008430 <two_way_long_needle+0x52>
1000843e:	020b8263          	beqz	s7,10008462 <two_way_long_needle+0x84>
10008442:	fffb8613          	addi	a2,s7,-1
10008446:	965a                	add	a2,a2,s6
10008448:	017b05b3          	add	a1,s6,s7
1000844c:	875a                	mv	a4,s6
1000844e:	00074783          	lbu	a5,0(a4)
10008452:	40e606b3          	sub	a3,a2,a4
10008456:	0705                	addi	a4,a4,1
10008458:	078a                	slli	a5,a5,0x2
1000845a:	97ea                	add	a5,a5,s10
1000845c:	c394                	sw	a3,0(a5)
1000845e:	feb718e3          	bne	a4,a1,1000844e <two_way_long_needle+0x70>
10008462:	4972                	lw	s2,28(sp)
10008464:	866e                	mv	a2,s11
10008466:	855a                	mv	a0,s6
10008468:	012b05b3          	add	a1,s6,s2
1000846c:	e5dff0ef          	jal	100082c8 <memcmp>
10008470:	10051363          	bnez	a0,10008576 <two_way_long_needle+0x198>
10008474:	6985                	lui	s3,0x1
10008476:	80098993          	addi	s3,s3,-2048 # 800 <HeapSize>
1000847a:	013be7b3          	or	a5,s7,s3
1000847e:	4a05                	li	s4,1
10008480:	c63e                	sw	a5,12(sp)
10008482:	41ba0a33          	sub	s4,s4,s11
10008486:	4981                	li	s3,0
10008488:	4401                	li	s0,0
1000848a:	417c86b3          	sub	a3,s9,s7
1000848e:	fffb8c13          	addi	s8,s7,-1
10008492:	412b8ab3          	sub	s5,s7,s2
10008496:	0286e563          	bltu	a3,s0,100084c0 <two_way_long_needle+0xe2>
1000849a:	008485b3          	add	a1,s1,s0
1000849e:	018587b3          	add	a5,a1,s8
100084a2:	0007c783          	lbu	a5,0(a5)
100084a6:	078a                	slli	a5,a5,0x2
100084a8:	97ea                	add	a5,a5,s10
100084aa:	439c                	lw	a5,0(a5)
100084ac:	c3ad                	beqz	a5,1000850e <two_way_long_needle+0x130>
100084ae:	00098563          	beqz	s3,100084b8 <two_way_long_needle+0xda>
100084b2:	0127f363          	bgeu	a5,s2,100084b8 <two_way_long_needle+0xda>
100084b6:	87d6                	mv	a5,s5
100084b8:	943e                	add	s0,s0,a5
100084ba:	4981                	li	s3,0
100084bc:	fc86ffe3          	bgeu	a3,s0,1000849a <two_way_long_needle+0xbc>
100084c0:	45b2                	lw	a1,12(sp)
100084c2:	01948533          	add	a0,s1,s9
100084c6:	2f59                	jal	10008c5c <strnlen>
100084c8:	9caa                	add	s9,s9,a0
100084ca:	417c86b3          	sub	a3,s9,s7
100084ce:	fc86f6e3          	bgeu	a3,s0,1000849a <two_way_long_needle+0xbc>
100084d2:	4501                	li	a0,0
100084d4:	45c12083          	lw	ra,1116(sp)
100084d8:	45812403          	lw	s0,1112(sp)
100084dc:	45412483          	lw	s1,1108(sp)
100084e0:	45012903          	lw	s2,1104(sp)
100084e4:	44c12983          	lw	s3,1100(sp)
100084e8:	44812a03          	lw	s4,1096(sp)
100084ec:	44412a83          	lw	s5,1092(sp)
100084f0:	44012b03          	lw	s6,1088(sp)
100084f4:	43c12b83          	lw	s7,1084(sp)
100084f8:	43812c03          	lw	s8,1080(sp)
100084fc:	43412c83          	lw	s9,1076(sp)
10008500:	43012d03          	lw	s10,1072(sp)
10008504:	42c12d83          	lw	s11,1068(sp)
10008508:	46010113          	addi	sp,sp,1120
1000850c:	8082                	ret
1000850e:	87ce                	mv	a5,s3
10008510:	01b9f363          	bgeu	s3,s11,10008516 <two_way_long_needle+0x138>
10008514:	87ee                	mv	a5,s11
10008516:	0187e663          	bltu	a5,s8,10008522 <two_way_long_needle+0x144>
1000851a:	a01d                	j	10008540 <two_way_long_needle+0x162>
1000851c:	0785                	addi	a5,a5,1
1000851e:	03878163          	beq	a5,s8,10008540 <two_way_long_needle+0x162>
10008522:	00f40533          	add	a0,s0,a5
10008526:	9526                	add	a0,a0,s1
10008528:	00fb0733          	add	a4,s6,a5
1000852c:	00054503          	lbu	a0,0(a0)
10008530:	00074703          	lbu	a4,0(a4)
10008534:	fea704e3          	beq	a4,a0,1000851c <two_way_long_needle+0x13e>
10008538:	0187f463          	bgeu	a5,s8,10008540 <two_way_long_needle+0x162>
1000853c:	9452                	add	s0,s0,s4
1000853e:	bfad                	j	100084b8 <two_way_long_needle+0xda>
10008540:	11b9f163          	bgeu	s3,s11,10008642 <two_way_long_needle+0x264>
10008544:	fffd8793          	addi	a5,s11,-1
10008548:	a021                	j	10008550 <two_way_long_needle+0x172>
1000854a:	00f98f63          	beq	s3,a5,10008568 <two_way_long_needle+0x18a>
1000854e:	17fd                	addi	a5,a5,-1
10008550:	00f40533          	add	a0,s0,a5
10008554:	9526                	add	a0,a0,s1
10008556:	00fb0733          	add	a4,s6,a5
1000855a:	00054503          	lbu	a0,0(a0)
1000855e:	00074703          	lbu	a4,0(a4)
10008562:	fea704e3          	beq	a4,a0,1000854a <two_way_long_needle+0x16c>
10008566:	0785                	addi	a5,a5,1
10008568:	00198613          	addi	a2,s3,1
1000856c:	0cc7e963          	bltu	a5,a2,1000863e <two_way_long_needle+0x260>
10008570:	944a                	add	s0,s0,s2
10008572:	89d6                	mv	s3,s5
10008574:	b70d                	j	10008496 <two_way_long_needle+0xb8>
10008576:	41bb89b3          	sub	s3,s7,s11
1000857a:	0bb9ed63          	bltu	s3,s11,10008634 <two_way_long_needle+0x256>
1000857e:	6405                	lui	s0,0x1
10008580:	4905                	li	s2,1
10008582:	80040413          	addi	s0,s0,-2048 # 800 <HeapSize>
10008586:	fffb8a93          	addi	s5,s7,-1
1000858a:	99ca                	add	s3,s3,s2
1000858c:	008be433          	or	s0,s7,s0
10008590:	01548c33          	add	s8,s1,s5
10008594:	41b90933          	sub	s2,s2,s11
10008598:	4a01                	li	s4,0
1000859a:	417c86b3          	sub	a3,s9,s7
1000859e:	0146ed63          	bltu	a3,s4,100085b8 <two_way_long_needle+0x1da>
100085a2:	014c07b3          	add	a5,s8,s4
100085a6:	0007c783          	lbu	a5,0(a5)
100085aa:	078a                	slli	a5,a5,0x2
100085ac:	97ea                	add	a5,a5,s10
100085ae:	439c                	lw	a5,0(a5)
100085b0:	c78d                	beqz	a5,100085da <two_way_long_needle+0x1fc>
100085b2:	9a3e                	add	s4,s4,a5
100085b4:	ff46f7e3          	bgeu	a3,s4,100085a2 <two_way_long_needle+0x1c4>
100085b8:	01948533          	add	a0,s1,s9
100085bc:	85a2                	mv	a1,s0
100085be:	2d79                	jal	10008c5c <strnlen>
100085c0:	9caa                	add	s9,s9,a0
100085c2:	417c86b3          	sub	a3,s9,s7
100085c6:	f146e6e3          	bltu	a3,s4,100084d2 <two_way_long_needle+0xf4>
100085ca:	014c07b3          	add	a5,s8,s4
100085ce:	0007c783          	lbu	a5,0(a5)
100085d2:	078a                	slli	a5,a5,0x2
100085d4:	97ea                	add	a5,a5,s10
100085d6:	439c                	lw	a5,0(a5)
100085d8:	ffe9                	bnez	a5,100085b2 <two_way_long_needle+0x1d4>
100085da:	87ee                	mv	a5,s11
100085dc:	015de663          	bltu	s11,s5,100085e8 <two_way_long_needle+0x20a>
100085e0:	a025                	j	10008608 <two_way_long_needle+0x22a>
100085e2:	0785                	addi	a5,a5,1
100085e4:	02fa8263          	beq	s5,a5,10008608 <two_way_long_needle+0x22a>
100085e8:	00fa0633          	add	a2,s4,a5
100085ec:	9626                	add	a2,a2,s1
100085ee:	00fb0733          	add	a4,s6,a5
100085f2:	00064603          	lbu	a2,0(a2)
100085f6:	00074703          	lbu	a4,0(a4)
100085fa:	fec704e3          	beq	a4,a2,100085e2 <two_way_long_needle+0x204>
100085fe:	0157f563          	bgeu	a5,s5,10008608 <two_way_long_needle+0x22a>
10008602:	9a4a                	add	s4,s4,s2
10008604:	9a3e                	add	s4,s4,a5
10008606:	b77d                	j	100085b4 <two_way_long_needle+0x1d6>
10008608:	fffd8793          	addi	a5,s11,-1
1000860c:	55fd                	li	a1,-1
1000860e:	00b79563          	bne	a5,a1,10008618 <two_way_long_needle+0x23a>
10008612:	a01d                	j	10008638 <two_way_long_needle+0x25a>
10008614:	02b78263          	beq	a5,a1,10008638 <two_way_long_needle+0x25a>
10008618:	00fa0733          	add	a4,s4,a5
1000861c:	00fb0633          	add	a2,s6,a5
10008620:	9726                	add	a4,a4,s1
10008622:	00074703          	lbu	a4,0(a4)
10008626:	00064603          	lbu	a2,0(a2)
1000862a:	17fd                	addi	a5,a5,-1
1000862c:	fee604e3          	beq	a2,a4,10008614 <two_way_long_needle+0x236>
10008630:	9a4e                	add	s4,s4,s3
10008632:	b7b5                	j	1000859e <two_way_long_needle+0x1c0>
10008634:	89ee                	mv	s3,s11
10008636:	b7a1                	j	1000857e <two_way_long_needle+0x1a0>
10008638:	01448533          	add	a0,s1,s4
1000863c:	bd61                	j	100084d4 <two_way_long_needle+0xf6>
1000863e:	852e                	mv	a0,a1
10008640:	bd51                	j	100084d4 <two_way_long_needle+0xf6>
10008642:	87ee                	mv	a5,s11
10008644:	b715                	j	10008568 <two_way_long_needle+0x18a>

10008646 <strstr>:
10008646:	711d                	addi	sp,sp,-96
10008648:	cca2                	sw	s0,88(sp)
1000864a:	ce86                	sw	ra,92(sp)
1000864c:	0005c783          	lbu	a5,0(a1)
10008650:	842a                	mv	s0,a0
10008652:	c3e9                	beqz	a5,10008714 <strstr+0xce>
10008654:	0015c703          	lbu	a4,1(a1)
10008658:	10070c63          	beqz	a4,10008770 <strstr+0x12a>
1000865c:	0025c603          	lbu	a2,2(a1)
10008660:	ce5d                	beqz	a2,1000871e <strstr+0xd8>
10008662:	0035c503          	lbu	a0,3(a1)
10008666:	14050063          	beqz	a0,100087a6 <strstr+0x160>
1000866a:	0045c683          	lbu	a3,4(a1)
1000866e:	10068663          	beqz	a3,1000877a <strstr+0x134>
10008672:	852e                	mv	a0,a1
10008674:	caa6                	sw	s1,84(sp)
10008676:	c8ca                	sw	s2,80(sp)
10008678:	84ae                	mv	s1,a1
1000867a:	26a5                	jal	100089e2 <strlen>
1000867c:	892a                	mv	s2,a0
1000867e:	20056593          	ori	a1,a0,512
10008682:	8522                	mv	a0,s0
10008684:	2be1                	jal	10008c5c <strnlen>
10008686:	15256d63          	bltu	a0,s2,100087e0 <strstr+0x19a>
1000868a:	0fe00793          	li	a5,254
1000868e:	1727e163          	bltu	a5,s2,100087f0 <strstr+0x1aa>
10008692:	c6ce                	sw	s3,76(sp)
10008694:	04000613          	li	a2,64
10008698:	412509b3          	sub	s3,a0,s2
1000869c:	00190593          	addi	a1,s2,1
100086a0:	850a                	mv	a0,sp
100086a2:	c4d2                	sw	s4,72(sp)
100086a4:	227d                	jal	10008852 <memset>
100086a6:	012485b3          	add	a1,s1,s2
100086aa:	99a2                	add	s3,s3,s0
100086ac:	8726                	mv	a4,s1
100086ae:	862e                	mv	a2,a1
100086b0:	00090e63          	beqz	s2,100086cc <strstr+0x86>
100086b4:	00074783          	lbu	a5,0(a4)
100086b8:	40e606b3          	sub	a3,a2,a4
100086bc:	0705                	addi	a4,a4,1
100086be:	03f7f793          	andi	a5,a5,63
100086c2:	978a                	add	a5,a5,sp
100086c4:	00d78023          	sb	a3,0(a5)
100086c8:	fee596e3          	bne	a1,a4,100086b4 <strstr+0x6e>
100086cc:	147d                	addi	s0,s0,-1
100086ce:	012407b3          	add	a5,s0,s2
100086d2:	0007c783          	lbu	a5,0(a5)
100086d6:	03f7f793          	andi	a5,a5,63
100086da:	978a                	add	a5,a5,sp
100086dc:	0007c783          	lbu	a5,0(a5)
100086e0:	943e                	add	s0,s0,a5
100086e2:	0089f663          	bgeu	s3,s0,100086ee <strstr+0xa8>
100086e6:	a09d                	j	1000874c <strstr+0x106>
100086e8:	9452                	add	s0,s0,s4
100086ea:	0689e163          	bltu	s3,s0,1000874c <strstr+0x106>
100086ee:	012407b3          	add	a5,s0,s2
100086f2:	0007c783          	lbu	a5,0(a5)
100086f6:	864a                	mv	a2,s2
100086f8:	85a6                	mv	a1,s1
100086fa:	03f7f793          	andi	a5,a5,63
100086fe:	978a                	add	a5,a5,sp
10008700:	8522                	mv	a0,s0
10008702:	0007ca03          	lbu	s4,0(a5)
10008706:	bc3ff0ef          	jal	100082c8 <memcmp>
1000870a:	fd79                	bnez	a0,100086e8 <strstr+0xa2>
1000870c:	44d6                	lw	s1,84(sp)
1000870e:	4946                	lw	s2,80(sp)
10008710:	49b6                	lw	s3,76(sp)
10008712:	4a26                	lw	s4,72(sp)
10008714:	40f6                	lw	ra,92(sp)
10008716:	8522                	mv	a0,s0
10008718:	4466                	lw	s0,88(sp)
1000871a:	6125                	addi	sp,sp,96
1000871c:	8082                	ret
1000871e:	00054683          	lbu	a3,0(a0)
10008722:	07c2                	slli	a5,a5,0x10
10008724:	8fd9                	or	a5,a5,a4
10008726:	4701                	li	a4,0
10008728:	ce81                	beqz	a3,10008740 <strstr+0xfa>
1000872a:	0742                	slli	a4,a4,0x10
1000872c:	8622                	mv	a2,s0
1000872e:	8f55                	or	a4,a4,a3
10008730:	0405                	addi	s0,s0,1
10008732:	00044683          	lbu	a3,0(s0)
10008736:	08e78e63          	beq	a5,a4,100087d2 <strstr+0x18c>
1000873a:	fae5                	bnez	a3,1000872a <strstr+0xe4>
1000873c:	08e78b63          	beq	a5,a4,100087d2 <strstr+0x18c>
10008740:	4401                	li	s0,0
10008742:	40f6                	lw	ra,92(sp)
10008744:	8522                	mv	a0,s0
10008746:	4466                	lw	s0,88(sp)
10008748:	6125                	addi	sp,sp,96
1000874a:	8082                	ret
1000874c:	01298533          	add	a0,s3,s2
10008750:	00054783          	lbu	a5,0(a0)
10008754:	cb81                	beqz	a5,10008764 <strstr+0x11e>
10008756:	6585                	lui	a1,0x1
10008758:	80058593          	addi	a1,a1,-2048 # 800 <HeapSize>
1000875c:	2301                	jal	10008c5c <strnlen>
1000875e:	99aa                	add	s3,s3,a0
10008760:	f689f6e3          	bgeu	s3,s0,100086cc <strstr+0x86>
10008764:	44d6                	lw	s1,84(sp)
10008766:	4946                	lw	s2,80(sp)
10008768:	49b6                	lw	s3,76(sp)
1000876a:	4a26                	lw	s4,72(sp)
1000876c:	4401                	li	s0,0
1000876e:	b75d                	j	10008714 <strstr+0xce>
10008770:	4466                	lw	s0,88(sp)
10008772:	40f6                	lw	ra,92(sp)
10008774:	85be                	mv	a1,a5
10008776:	6125                	addi	sp,sp,96
10008778:	aedd                	j	10008b6e <strchr>
1000877a:	00044683          	lbu	a3,0(s0)
1000877e:	d2e9                	beqz	a3,10008740 <strstr+0xfa>
10008780:	0742                	slli	a4,a4,0x10
10008782:	07e2                	slli	a5,a5,0x18
10008784:	8fd9                	or	a5,a5,a4
10008786:	8fc9                	or	a5,a5,a0
10008788:	0622                	slli	a2,a2,0x8
1000878a:	8fd1                	or	a5,a5,a2
1000878c:	4701                	li	a4,0
1000878e:	8622                	mv	a2,s0
10008790:	0722                	slli	a4,a4,0x8
10008792:	0405                	addi	s0,s0,1
10008794:	8f55                	or	a4,a4,a3
10008796:	00044683          	lbu	a3,0(s0)
1000879a:	ce9d                	beqz	a3,100087d8 <strstr+0x192>
1000879c:	fee799e3          	bne	a5,a4,1000878e <strstr+0x148>
100087a0:	ffd60413          	addi	s0,a2,-3
100087a4:	bf85                	j	10008714 <strstr+0xce>
100087a6:	00044683          	lbu	a3,0(s0)
100087aa:	dad9                	beqz	a3,10008740 <strstr+0xfa>
100087ac:	0742                	slli	a4,a4,0x10
100087ae:	07e2                	slli	a5,a5,0x18
100087b0:	8fd9                	or	a5,a5,a4
100087b2:	0622                	slli	a2,a2,0x8
100087b4:	8fd1                	or	a5,a5,a2
100087b6:	4701                	li	a4,0
100087b8:	a011                	j	100087bc <strstr+0x176>
100087ba:	c69d                	beqz	a3,100087e8 <strstr+0x1a2>
100087bc:	8f55                	or	a4,a4,a3
100087be:	8622                	mv	a2,s0
100087c0:	0722                	slli	a4,a4,0x8
100087c2:	0405                	addi	s0,s0,1
100087c4:	00044683          	lbu	a3,0(s0)
100087c8:	fee799e3          	bne	a5,a4,100087ba <strstr+0x174>
100087cc:	ffe60413          	addi	s0,a2,-2
100087d0:	b791                	j	10008714 <strstr+0xce>
100087d2:	fff60413          	addi	s0,a2,-1
100087d6:	bf3d                	j	10008714 <strstr+0xce>
100087d8:	fce784e3          	beq	a5,a4,100087a0 <strstr+0x15a>
100087dc:	4401                	li	s0,0
100087de:	b795                	j	10008742 <strstr+0xfc>
100087e0:	44d6                	lw	s1,84(sp)
100087e2:	4946                	lw	s2,80(sp)
100087e4:	4401                	li	s0,0
100087e6:	bfb1                	j	10008742 <strstr+0xfc>
100087e8:	fee782e3          	beq	a5,a4,100087cc <strstr+0x186>
100087ec:	4401                	li	s0,0
100087ee:	bf91                	j	10008742 <strstr+0xfc>
100087f0:	85aa                	mv	a1,a0
100087f2:	8522                	mv	a0,s0
100087f4:	4466                	lw	s0,88(sp)
100087f6:	40f6                	lw	ra,92(sp)
100087f8:	86ca                	mv	a3,s2
100087fa:	8626                	mv	a2,s1
100087fc:	4946                	lw	s2,80(sp)
100087fe:	44d6                	lw	s1,84(sp)
10008800:	6125                	addi	sp,sp,96
10008802:	bddff06f          	j	100083de <two_way_long_needle>

10008806 <__errno>:
10008806:	0fffb517          	auipc	a0,0xfffb
1000880a:	71e52503          	lw	a0,1822(a0) # 20003f24 <_impure_ptr>
1000880e:	8082                	ret

10008810 <__libc_fini_array>:
10008810:	00000797          	auipc	a5,0x0
10008814:	4b078793          	addi	a5,a5,1200 # 10008cc0 <__EH_FRAME_BEGIN__>
10008818:	00000717          	auipc	a4,0x0
1000881c:	4a870713          	addi	a4,a4,1192 # 10008cc0 <__EH_FRAME_BEGIN__>
10008820:	1141                	addi	sp,sp,-16
10008822:	8f99                	sub	a5,a5,a4
10008824:	c226                	sw	s1,4(sp)
10008826:	c606                	sw	ra,12(sp)
10008828:	4027d493          	srai	s1,a5,0x2
1000882c:	cc89                	beqz	s1,10008846 <__libc_fini_array+0x36>
1000882e:	c422                	sw	s0,8(sp)
10008830:	00000417          	auipc	s0,0x0
10008834:	48c40413          	addi	s0,s0,1164 # 10008cbc <__frame_dummy_init_array_entry>
10008838:	943e                	add	s0,s0,a5
1000883a:	401c                	lw	a5,0(s0)
1000883c:	14fd                	addi	s1,s1,-1
1000883e:	1471                	addi	s0,s0,-4
10008840:	9782                	jalr	a5
10008842:	fce5                	bnez	s1,1000883a <__libc_fini_array+0x2a>
10008844:	4422                	lw	s0,8(sp)
10008846:	40b2                	lw	ra,12(sp)
10008848:	4492                	lw	s1,4(sp)
1000884a:	0141                	addi	sp,sp,16
1000884c:	8082                	ret

1000884e <__retarget_lock_acquire_recursive>:
1000884e:	8082                	ret

10008850 <__retarget_lock_release_recursive>:
10008850:	8082                	ret

10008852 <memset>:
10008852:	433d                	li	t1,15
10008854:	872a                	mv	a4,a0
10008856:	02c37363          	bgeu	t1,a2,1000887c <memset+0x2a>
1000885a:	00f77793          	andi	a5,a4,15
1000885e:	efbd                	bnez	a5,100088dc <memset+0x8a>
10008860:	e5ad                	bnez	a1,100088ca <memset+0x78>
10008862:	ff067693          	andi	a3,a2,-16
10008866:	8a3d                	andi	a2,a2,15
10008868:	96ba                	add	a3,a3,a4
1000886a:	c30c                	sw	a1,0(a4)
1000886c:	c34c                	sw	a1,4(a4)
1000886e:	c70c                	sw	a1,8(a4)
10008870:	c74c                	sw	a1,12(a4)
10008872:	0741                	addi	a4,a4,16
10008874:	fed76be3          	bltu	a4,a3,1000886a <memset+0x18>
10008878:	e211                	bnez	a2,1000887c <memset+0x2a>
1000887a:	8082                	ret
1000887c:	40c306b3          	sub	a3,t1,a2
10008880:	068a                	slli	a3,a3,0x2
10008882:	00000297          	auipc	t0,0x0
10008886:	9696                	add	a3,a3,t0
10008888:	00a68067          	jr	10(a3)
1000888c:	00b70723          	sb	a1,14(a4)
10008890:	00b706a3          	sb	a1,13(a4)
10008894:	00b70623          	sb	a1,12(a4)
10008898:	00b705a3          	sb	a1,11(a4)
1000889c:	00b70523          	sb	a1,10(a4)
100088a0:	00b704a3          	sb	a1,9(a4)
100088a4:	00b70423          	sb	a1,8(a4)
100088a8:	00b703a3          	sb	a1,7(a4)
100088ac:	00b70323          	sb	a1,6(a4)
100088b0:	00b702a3          	sb	a1,5(a4)
100088b4:	00b70223          	sb	a1,4(a4)
100088b8:	00b701a3          	sb	a1,3(a4)
100088bc:	00b70123          	sb	a1,2(a4)
100088c0:	00b700a3          	sb	a1,1(a4)
100088c4:	00b70023          	sb	a1,0(a4)
100088c8:	8082                	ret
100088ca:	0ff5f593          	zext.b	a1,a1
100088ce:	00859693          	slli	a3,a1,0x8
100088d2:	8dd5                	or	a1,a1,a3
100088d4:	01059693          	slli	a3,a1,0x10
100088d8:	8dd5                	or	a1,a1,a3
100088da:	b761                	j	10008862 <memset+0x10>
100088dc:	00279693          	slli	a3,a5,0x2
100088e0:	00000297          	auipc	t0,0x0
100088e4:	9696                	add	a3,a3,t0
100088e6:	8286                	mv	t0,ra
100088e8:	fa8680e7          	jalr	-88(a3)
100088ec:	8096                	mv	ra,t0
100088ee:	17c1                	addi	a5,a5,-16
100088f0:	8f1d                	sub	a4,a4,a5
100088f2:	963e                	add	a2,a2,a5
100088f4:	f8c374e3          	bgeu	t1,a2,1000887c <memset+0x2a>
100088f8:	b7a5                	j	10008860 <memset+0xe>

100088fa <memcpy>:
100088fa:	00a5c7b3          	xor	a5,a1,a0
100088fe:	8b8d                	andi	a5,a5,3
10008900:	00c508b3          	add	a7,a0,a2
10008904:	e7b1                	bnez	a5,10008950 <memcpy+0x56>
10008906:	00463613          	sltiu	a2,a2,4
1000890a:	e239                	bnez	a2,10008950 <memcpy+0x56>
1000890c:	00357793          	andi	a5,a0,3
10008910:	872a                	mv	a4,a0
10008912:	e7cd                	bnez	a5,100089bc <memcpy+0xc2>
10008914:	ffc8f613          	andi	a2,a7,-4
10008918:	40e606b3          	sub	a3,a2,a4
1000891c:	02000793          	li	a5,32
10008920:	04d7c463          	blt	a5,a3,10008968 <memcpy+0x6e>
10008924:	86ae                	mv	a3,a1
10008926:	87ba                	mv	a5,a4
10008928:	02c77163          	bgeu	a4,a2,1000894a <memcpy+0x50>
1000892c:	0006a803          	lw	a6,0(a3)
10008930:	0791                	addi	a5,a5,4
10008932:	0691                	addi	a3,a3,4
10008934:	ff07ae23          	sw	a6,-4(a5)
10008938:	fec7eae3          	bltu	a5,a2,1000892c <memcpy+0x32>
1000893c:	167d                	addi	a2,a2,-1
1000893e:	8e19                	sub	a2,a2,a4
10008940:	9a71                	andi	a2,a2,-4
10008942:	0591                	addi	a1,a1,4
10008944:	0711                	addi	a4,a4,4
10008946:	95b2                	add	a1,a1,a2
10008948:	9732                	add	a4,a4,a2
1000894a:	01176663          	bltu	a4,a7,10008956 <memcpy+0x5c>
1000894e:	8082                	ret
10008950:	872a                	mv	a4,a0
10008952:	ff157ee3          	bgeu	a0,a7,1000894e <memcpy+0x54>
10008956:	0005c783          	lbu	a5,0(a1)
1000895a:	0705                	addi	a4,a4,1
1000895c:	0585                	addi	a1,a1,1
1000895e:	fef70fa3          	sb	a5,-1(a4)
10008962:	fee89ae3          	bne	a7,a4,10008956 <memcpy+0x5c>
10008966:	8082                	ret
10008968:	4194                	lw	a3,0(a1)
1000896a:	0045a283          	lw	t0,4(a1)
1000896e:	0085af83          	lw	t6,8(a1)
10008972:	00c5af03          	lw	t5,12(a1)
10008976:	0105ae83          	lw	t4,16(a1)
1000897a:	0145ae03          	lw	t3,20(a1)
1000897e:	0185a303          	lw	t1,24(a1)
10008982:	01c5a803          	lw	a6,28(a1)
10008986:	c314                	sw	a3,0(a4)
10008988:	5194                	lw	a3,32(a1)
1000898a:	02470713          	addi	a4,a4,36
1000898e:	fe572023          	sw	t0,-32(a4)
10008992:	fed72e23          	sw	a3,-4(a4)
10008996:	fff72223          	sw	t6,-28(a4)
1000899a:	40e606b3          	sub	a3,a2,a4
1000899e:	ffe72423          	sw	t5,-24(a4)
100089a2:	ffd72623          	sw	t4,-20(a4)
100089a6:	ffc72823          	sw	t3,-16(a4)
100089aa:	fe672a23          	sw	t1,-12(a4)
100089ae:	ff072c23          	sw	a6,-8(a4)
100089b2:	02458593          	addi	a1,a1,36
100089b6:	fad7c9e3          	blt	a5,a3,10008968 <memcpy+0x6e>
100089ba:	b7ad                	j	10008924 <memcpy+0x2a>
100089bc:	0005c683          	lbu	a3,0(a1)
100089c0:	0705                	addi	a4,a4,1
100089c2:	00377793          	andi	a5,a4,3
100089c6:	fed70fa3          	sb	a3,-1(a4)
100089ca:	0585                	addi	a1,a1,1
100089cc:	d7a1                	beqz	a5,10008914 <memcpy+0x1a>
100089ce:	0005c683          	lbu	a3,0(a1)
100089d2:	0705                	addi	a4,a4,1
100089d4:	00377793          	andi	a5,a4,3
100089d8:	fed70fa3          	sb	a3,-1(a4)
100089dc:	0585                	addi	a1,a1,1
100089de:	fff9                	bnez	a5,100089bc <memcpy+0xc2>
100089e0:	bf15                	j	10008914 <memcpy+0x1a>

100089e2 <strlen>:
100089e2:	00357793          	andi	a5,a0,3
100089e6:	872a                	mv	a4,a0
100089e8:	ef9d                	bnez	a5,10008a26 <strlen+0x44>
100089ea:	7f7f86b7          	lui	a3,0x7f7f8
100089ee:	f7f68693          	addi	a3,a3,-129 # 7f7f7f7f <__StackTop+0x5f775f7f>
100089f2:	55fd                	li	a1,-1
100089f4:	4310                	lw	a2,0(a4)
100089f6:	0711                	addi	a4,a4,4
100089f8:	00d677b3          	and	a5,a2,a3
100089fc:	97b6                	add	a5,a5,a3
100089fe:	8fd1                	or	a5,a5,a2
10008a00:	8fd5                	or	a5,a5,a3
10008a02:	feb789e3          	beq	a5,a1,100089f4 <strlen+0x12>
10008a06:	ffc74683          	lbu	a3,-4(a4)
10008a0a:	40a707b3          	sub	a5,a4,a0
10008a0e:	ca8d                	beqz	a3,10008a40 <strlen+0x5e>
10008a10:	ffd74683          	lbu	a3,-3(a4)
10008a14:	c29d                	beqz	a3,10008a3a <strlen+0x58>
10008a16:	ffe74503          	lbu	a0,-2(a4)
10008a1a:	00a03533          	snez	a0,a0
10008a1e:	953e                	add	a0,a0,a5
10008a20:	1579                	addi	a0,a0,-2
10008a22:	8082                	ret
10008a24:	d2f9                	beqz	a3,100089ea <strlen+0x8>
10008a26:	00074783          	lbu	a5,0(a4)
10008a2a:	0705                	addi	a4,a4,1
10008a2c:	00377693          	andi	a3,a4,3
10008a30:	fbf5                	bnez	a5,10008a24 <strlen+0x42>
10008a32:	8f09                	sub	a4,a4,a0
10008a34:	fff70513          	addi	a0,a4,-1
10008a38:	8082                	ret
10008a3a:	ffd78513          	addi	a0,a5,-3
10008a3e:	8082                	ret
10008a40:	ffc78513          	addi	a0,a5,-4
10008a44:	8082                	ret

10008a46 <strcpy>:
10008a46:	00b567b3          	or	a5,a0,a1
10008a4a:	8b8d                	andi	a5,a5,3
10008a4c:	efb9                	bnez	a5,10008aaa <strcpy+0x64>
10008a4e:	4198                	lw	a4,0(a1)
10008a50:	7f7f86b7          	lui	a3,0x7f7f8
10008a54:	f7f68693          	addi	a3,a3,-129 # 7f7f7f7f <__StackTop+0x5f775f7f>
10008a58:	00d77833          	and	a6,a4,a3
10008a5c:	9836                	add	a6,a6,a3
10008a5e:	00e86833          	or	a6,a6,a4
10008a62:	00d86833          	or	a6,a6,a3
10008a66:	57fd                	li	a5,-1
10008a68:	862a                	mv	a2,a0
10008a6a:	00f81d63          	bne	a6,a5,10008a84 <strcpy+0x3e>
10008a6e:	0591                	addi	a1,a1,4
10008a70:	c218                	sw	a4,0(a2)
10008a72:	4198                	lw	a4,0(a1)
10008a74:	0611                	addi	a2,a2,4
10008a76:	00d777b3          	and	a5,a4,a3
10008a7a:	97b6                	add	a5,a5,a3
10008a7c:	8fd9                	or	a5,a5,a4
10008a7e:	8fd5                	or	a5,a5,a3
10008a80:	ff0787e3          	beq	a5,a6,10008a6e <strcpy+0x28>
10008a84:	0005c783          	lbu	a5,0(a1)
10008a88:	0015c703          	lbu	a4,1(a1)
10008a8c:	0025c683          	lbu	a3,2(a1)
10008a90:	00f60023          	sb	a5,0(a2)
10008a94:	c799                	beqz	a5,10008aa2 <strcpy+0x5c>
10008a96:	00e600a3          	sb	a4,1(a2)
10008a9a:	c701                	beqz	a4,10008aa2 <strcpy+0x5c>
10008a9c:	00d60123          	sb	a3,2(a2)
10008aa0:	e291                	bnez	a3,10008aa4 <strcpy+0x5e>
10008aa2:	8082                	ret
10008aa4:	000601a3          	sb	zero,3(a2)
10008aa8:	8082                	ret
10008aaa:	87aa                	mv	a5,a0
10008aac:	0005c703          	lbu	a4,0(a1)
10008ab0:	0785                	addi	a5,a5,1
10008ab2:	0585                	addi	a1,a1,1
10008ab4:	fee78fa3          	sb	a4,-1(a5)
10008ab8:	fb75                	bnez	a4,10008aac <strcpy+0x66>
10008aba:	8082                	ret

10008abc <__register_exitproc>:
10008abc:	7179                	addi	sp,sp,-48
10008abe:	d422                	sw	s0,40(sp)
10008ac0:	0fffb417          	auipc	s0,0xfffb
10008ac4:	46840413          	addi	s0,s0,1128 # 20003f28 <__atexit_recursive_mutex>
10008ac8:	d226                	sw	s1,36(sp)
10008aca:	84aa                	mv	s1,a0
10008acc:	4008                	lw	a0,0(s0)
10008ace:	d04a                	sw	s2,32(sp)
10008ad0:	ce4e                	sw	s3,28(sp)
10008ad2:	c62e                	sw	a1,12(sp)
10008ad4:	d606                	sw	ra,44(sp)
10008ad6:	8932                	mv	s2,a2
10008ad8:	89b6                	mv	s3,a3
10008ada:	d75ff0ef          	jal	1000884e <__retarget_lock_acquire_recursive>
10008ade:	8971a783          	lw	a5,-1897(gp) # 20004f54 <__atexit>
10008ae2:	45b2                	lw	a1,12(sp)
10008ae4:	c3a5                	beqz	a5,10008b44 <__register_exitproc+0x88>
10008ae6:	43d8                	lw	a4,4(a5)
10008ae8:	46fd                	li	a3,31
10008aea:	4008                	lw	a0,0(s0)
10008aec:	06e6c363          	blt	a3,a4,10008b52 <__register_exitproc+0x96>
10008af0:	00271693          	slli	a3,a4,0x2
10008af4:	ec99                	bnez	s1,10008b12 <__register_exitproc+0x56>
10008af6:	0705                	addi	a4,a4,1
10008af8:	c3d8                	sw	a4,4(a5)
10008afa:	97b6                	add	a5,a5,a3
10008afc:	c78c                	sw	a1,8(a5)
10008afe:	d53ff0ef          	jal	10008850 <__retarget_lock_release_recursive>
10008b02:	4501                	li	a0,0
10008b04:	50b2                	lw	ra,44(sp)
10008b06:	5422                	lw	s0,40(sp)
10008b08:	5492                	lw	s1,36(sp)
10008b0a:	5902                	lw	s2,32(sp)
10008b0c:	49f2                	lw	s3,28(sp)
10008b0e:	6145                	addi	sp,sp,48
10008b10:	8082                	ret
10008b12:	00d788b3          	add	a7,a5,a3
10008b16:	0928a423          	sw	s2,136(a7)
10008b1a:	1887a803          	lw	a6,392(a5)
10008b1e:	4605                	li	a2,1
10008b20:	00e61633          	sll	a2,a2,a4
10008b24:	00c86833          	or	a6,a6,a2
10008b28:	1907a423          	sw	a6,392(a5)
10008b2c:	1138a423          	sw	s3,264(a7)
10008b30:	4809                	li	a6,2
10008b32:	fd0492e3          	bne	s1,a6,10008af6 <__register_exitproc+0x3a>
10008b36:	18c7a803          	lw	a6,396(a5)
10008b3a:	00c86633          	or	a2,a6,a2
10008b3e:	18c7a623          	sw	a2,396(a5)
10008b42:	bf55                	j	10008af6 <__register_exitproc+0x3a>
10008b44:	0fffb797          	auipc	a5,0xfffb
10008b48:	57c78793          	addi	a5,a5,1404 # 200040c0 <__atexit0>
10008b4c:	88f1aba3          	sw	a5,-1897(gp) # 20004f54 <__atexit>
10008b50:	bf59                	j	10008ae6 <__register_exitproc+0x2a>
10008b52:	cffff0ef          	jal	10008850 <__retarget_lock_release_recursive>
10008b56:	557d                	li	a0,-1
10008b58:	b775                	j	10008b04 <__register_exitproc+0x48>

10008b5a <register_fini>:
10008b5a:	00000793          	li	a5,0
10008b5e:	c799                	beqz	a5,10008b6c <register_fini+0x12>
10008b60:	00000517          	auipc	a0,0x0
10008b64:	cb050513          	addi	a0,a0,-848 # 10008810 <__libc_fini_array>
10008b68:	f54ff06f          	j	100082bc <atexit>
10008b6c:	8082                	ret

10008b6e <strchr>:
10008b6e:	0ff5f693          	zext.b	a3,a1
10008b72:	00357793          	andi	a5,a0,3
10008b76:	cac9                	beqz	a3,10008c08 <strchr+0x9a>
10008b78:	cb91                	beqz	a5,10008b8c <strchr+0x1e>
10008b7a:	00054783          	lbu	a5,0(a0)
10008b7e:	c3d9                	beqz	a5,10008c04 <strchr+0x96>
10008b80:	08d78363          	beq	a5,a3,10008c06 <strchr+0x98>
10008b84:	0505                	addi	a0,a0,1
10008b86:	00357793          	andi	a5,a0,3
10008b8a:	fbe5                	bnez	a5,10008b7a <strchr+0xc>
10008b8c:	0ff5f593          	zext.b	a1,a1
10008b90:	00859893          	slli	a7,a1,0x8
10008b94:	4118                	lw	a4,0(a0)
10008b96:	98ae                	add	a7,a7,a1
10008b98:	01089793          	slli	a5,a7,0x10
10008b9c:	98be                	add	a7,a7,a5
10008b9e:	feff0837          	lui	a6,0xfeff0
10008ba2:	00e8c7b3          	xor	a5,a7,a4
10008ba6:	eff80813          	addi	a6,a6,-257 # fefefeff <__StackTop+0xdef6deff>
10008baa:	010785b3          	add	a1,a5,a6
10008bae:	fff7c613          	not	a2,a5
10008bb2:	010707b3          	add	a5,a4,a6
10008bb6:	fff74713          	not	a4,a4
10008bba:	8e6d                	and	a2,a2,a1
10008bbc:	8ff9                	and	a5,a5,a4
10008bbe:	80808337          	lui	t1,0x80808
10008bc2:	8fd1                	or	a5,a5,a2
10008bc4:	08030313          	addi	t1,t1,128 # 80808080 <__StackTop+0x60786080>
10008bc8:	0067f7b3          	and	a5,a5,t1
10008bcc:	eb8d                	bnez	a5,10008bfe <strchr+0x90>
10008bce:	4158                	lw	a4,4(a0)
10008bd0:	0511                	addi	a0,a0,4
10008bd2:	011747b3          	xor	a5,a4,a7
10008bd6:	fff7c593          	not	a1,a5
10008bda:	01078633          	add	a2,a5,a6
10008bde:	010707b3          	add	a5,a4,a6
10008be2:	fff74713          	not	a4,a4
10008be6:	8e6d                	and	a2,a2,a1
10008be8:	8ff9                	and	a5,a5,a4
10008bea:	8fd1                	or	a5,a5,a2
10008bec:	0067f7b3          	and	a5,a5,t1
10008bf0:	dff9                	beqz	a5,10008bce <strchr+0x60>
10008bf2:	00054783          	lbu	a5,0(a0)
10008bf6:	c799                	beqz	a5,10008c04 <strchr+0x96>
10008bf8:	06f68163          	beq	a3,a5,10008c5a <strchr+0xec>
10008bfc:	0505                	addi	a0,a0,1
10008bfe:	00054783          	lbu	a5,0(a0)
10008c02:	fbfd                	bnez	a5,10008bf8 <strchr+0x8a>
10008c04:	4501                	li	a0,0
10008c06:	8082                	ret
10008c08:	cb81                	beqz	a5,10008c18 <strchr+0xaa>
10008c0a:	00054783          	lbu	a5,0(a0)
10008c0e:	dfe5                	beqz	a5,10008c06 <strchr+0x98>
10008c10:	0505                	addi	a0,a0,1
10008c12:	00357793          	andi	a5,a0,3
10008c16:	fbf5                	bnez	a5,10008c0a <strchr+0x9c>
10008c18:	4118                	lw	a4,0(a0)
10008c1a:	feff0637          	lui	a2,0xfeff0
10008c1e:	eff60613          	addi	a2,a2,-257 # fefefeff <__StackTop+0xdef6deff>
10008c22:	00c707b3          	add	a5,a4,a2
10008c26:	808086b7          	lui	a3,0x80808
10008c2a:	fff74713          	not	a4,a4
10008c2e:	8ff9                	and	a5,a5,a4
10008c30:	08068693          	addi	a3,a3,128 # 80808080 <__StackTop+0x60786080>
10008c34:	8ff5                	and	a5,a5,a3
10008c36:	eb91                	bnez	a5,10008c4a <strchr+0xdc>
10008c38:	4158                	lw	a4,4(a0)
10008c3a:	0511                	addi	a0,a0,4
10008c3c:	00c707b3          	add	a5,a4,a2
10008c40:	fff74713          	not	a4,a4
10008c44:	8ff9                	and	a5,a5,a4
10008c46:	8ff5                	and	a5,a5,a3
10008c48:	dbe5                	beqz	a5,10008c38 <strchr+0xca>
10008c4a:	00054783          	lbu	a5,0(a0)
10008c4e:	dfc5                	beqz	a5,10008c06 <strchr+0x98>
10008c50:	00154783          	lbu	a5,1(a0)
10008c54:	0505                	addi	a0,a0,1
10008c56:	ffed                	bnez	a5,10008c50 <strchr+0xe2>
10008c58:	8082                	ret
10008c5a:	8082                	ret

10008c5c <strnlen>:
10008c5c:	00b506b3          	add	a3,a0,a1
10008c60:	87aa                	mv	a5,a0
10008c62:	e589                	bnez	a1,10008c6c <strnlen+0x10>
10008c64:	a811                	j	10008c78 <strnlen+0x1c>
10008c66:	0785                	addi	a5,a5,1
10008c68:	00d78563          	beq	a5,a3,10008c72 <strnlen+0x16>
10008c6c:	0007c703          	lbu	a4,0(a5)
10008c70:	fb7d                	bnez	a4,10008c66 <strnlen+0xa>
10008c72:	40a78533          	sub	a0,a5,a0
10008c76:	8082                	ret
10008c78:	4501                	li	a0,0
10008c7a:	8082                	ret

10008c7c <__pre_init_runtime_init_bootrom_reset>:
10008c7c:	2ce0 1000                                   .,..

10008c80 <__pre_init_runtime_init_early_resets>:
10008c80:	2c78 1000                                   x,..

10008c84 <__pre_init_runtime_init_usb_power_down>:
10008c84:	2ca6 1000                                   .,..

10008c88 <__pre_init_runtime_init_clocks>:
10008c88:	2d54 1000                                   T-..

10008c8c <__pre_init_runtime_init_post_clock_resets>:
10008c8c:	2cc0 1000                                   .,..

10008c90 <__pre_init_runtime_init_boot_locks_reset>:
10008c90:	2bf6 1000                                   .+..

10008c94 <__pre_init_runtime_init_spin_locks_reset>:
10008c94:	2d10 1000                                   .-..

10008c98 <__pre_init_runtime_init_bootrom_locking_enable>:
10008c98:	2bc4 1000                                   .+..

10008c9c <__pre_init_runtime_init_mutex>:
10008c9c:	1b4e 1000                                   N...

10008ca0 <__pre_init_runtime_init_default_alarm_pool>:
10008ca0:	2572 1000                                   r%..

10008ca4 <__pre_init_first_per_core_initializer>:
10008ca4:	2c4e 1000                                   N,..

10008ca8 <__pre_init_runtime_init_per_core_bootrom_reset>:
10008ca8:	2cf8 1000                                   .,..

10008cac <__pre_init_runtime_init_per_core_h3_irq_registers>:
10008cac:	429e 1000                                   .B..

10008cb0 <__pre_init_runtime_init_per_core_irq_priorities>:
10008cb0:	1944 1000                                   D...

10008cb4 <__init_array_start>:
10008cb4:	8b5a                	mv	s6,s6
10008cb6:	1000                	addi	s0,sp,32
10008cb8:	4d12                	lw	s10,4(sp)
10008cba:	1000                	addi	s0,sp,32

10008cbc <__frame_dummy_init_array_entry>:
10008cbc:	00da 1000                                   ....

Disassembly of section .data:

20000000 <mutex_try_enter>:
20000000:	872a                	mv	a4,a0
20000002:	411c                	lw	a5,0(a0)
20000004:	300476f3          	csrrci	a3,mstatus,8
20000008:	00379613          	slli	a2,a5,0x3
2000000c:	28c01633          	bset	a2,zero,a2
20000010:	9bf1                	andi	a5,a5,-4
20000012:	44c7a52f          	amoor.w.aq	a0,a2,(a5)
20000016:	8d71                	and	a0,a0,a2
20000018:	fd6d                	bnez	a0,20000012 <mutex_try_enter+0x12>
2000001a:	0330000f          	fence	rw,rw
2000001e:	00470783          	lb	a5,4(a4)
20000022:	0007cf63          	bltz	a5,20000040 <mutex_try_enter+0x40>
20000026:	c58d                	beqz	a1,20000050 <mutex_try_enter+0x50>
20000028:	c19c                	sw	a5,0(a1)
2000002a:	4501                	li	a0,0
2000002c:	431c                	lw	a5,0(a4)
2000002e:	0330000f          	fence	rw,rw
20000032:	00078023          	sb	zero,0(a5)
20000036:	0086f793          	andi	a5,a3,8
2000003a:	3007a073          	csrs	mstatus,a5
2000003e:	8082                	ret
20000040:	d00007b7          	lui	a5,0xd0000
20000044:	00078783          	lb	a5,0(a5) # d0000000 <__StackTop+0xaff7e000>
20000048:	00f70223          	sb	a5,4(a4)
2000004c:	4505                	li	a0,1
2000004e:	bff9                	j	2000002c <mutex_try_enter+0x2c>
20000050:	4501                	li	a0,0
20000052:	bfe9                	j	2000002c <mutex_try_enter+0x2c>

20000054 <mutex_enter_block_until>:
20000054:	1101                	addi	sp,sp,-32
20000056:	ce06                	sw	ra,28(sp)
20000058:	cc22                	sw	s0,24(sp)
2000005a:	ca26                	sw	s1,20(sp)
2000005c:	c84a                	sw	s2,16(sp)
2000005e:	c64e                	sw	s3,12(sp)
20000060:	411c                	lw	a5,0(a0)
20000062:	cfa1                	beqz	a5,200000ba <mutex_enter_block_until+0x66>
20000064:	842a                	mv	s0,a0
20000066:	84ae                	mv	s1,a1
20000068:	8932                	mv	s2,a2
2000006a:	d00007b7          	lui	a5,0xd0000
2000006e:	00078783          	lb	a5,0(a5) # d0000000 <__StackTop+0xaff7e000>
20000072:	89be                	mv	s3,a5
20000074:	401c                	lw	a5,0(s0)
20000076:	30047773          	csrrci	a4,mstatus,8
2000007a:	00379693          	slli	a3,a5,0x3
2000007e:	28d016b3          	bset	a3,zero,a3
20000082:	9bf1                	andi	a5,a5,-4
20000084:	44d7a62f          	amoor.w.aq	a2,a3,(a5)
20000088:	8e75                	and	a2,a2,a3
2000008a:	fe6d                	bnez	a2,20000084 <mutex_enter_block_until+0x30>
2000008c:	0330000f          	fence	rw,rw
20000090:	00440783          	lb	a5,4(s0)
20000094:	0407c563          	bltz	a5,200000de <mutex_enter_block_until+0x8a>
20000098:	401c                	lw	a5,0(s0)
2000009a:	0330000f          	fence	rw,rw
2000009e:	00078023          	sb	zero,0(a5)
200000a2:	8b21                	andi	a4,a4,8
200000a4:	30072073          	csrs	mstatus,a4
200000a8:	8526                	mv	a0,s1
200000aa:	85ca                	mv	a1,s2
200000ac:	f0002097          	auipc	ra,0xf0002
200000b0:	358080e7          	jalr	856(ra) # 10002404 <best_effort_wfe_or_timeout>
200000b4:	d161                	beqz	a0,20000074 <mutex_enter_block_until+0x20>
200000b6:	4501                	li	a0,0
200000b8:	a835                	j	200000f4 <mutex_enter_block_until+0xa0>
200000ba:	100096b7          	lui	a3,0x10009
200000be:	31c68693          	addi	a3,a3,796 # 1000931c <__EH_FRAME_BEGIN__+0x65c>
200000c2:	1000a637          	lui	a2,0x1000a
200000c6:	b8460613          	addi	a2,a2,-1148 # 10009b84 <__func__.3>
200000ca:	0a600593          	li	a1,166
200000ce:	10009537          	lui	a0,0x10009
200000d2:	2d450513          	addi	a0,a0,724 # 100092d4 <__EH_FRAME_BEGIN__+0x614>
200000d6:	f0004097          	auipc	ra,0xf0004
200000da:	1f2080e7          	jalr	498(ra) # 100042c8 <__assert_func>
200000de:	01340223          	sb	s3,4(s0)
200000e2:	401c                	lw	a5,0(s0)
200000e4:	0330000f          	fence	rw,rw
200000e8:	00078023          	sb	zero,0(a5)
200000ec:	8b21                	andi	a4,a4,8
200000ee:	30072073          	csrs	mstatus,a4
200000f2:	4505                	li	a0,1
200000f4:	40f2                	lw	ra,28(sp)
200000f6:	4462                	lw	s0,24(sp)
200000f8:	44d2                	lw	s1,20(sp)
200000fa:	4942                	lw	s2,16(sp)
200000fc:	49b2                	lw	s3,12(sp)
200000fe:	6105                	addi	sp,sp,32
20000100:	8082                	ret

20000102 <mutex_try_enter_block_until>:
20000102:	1101                	addi	sp,sp,-32
20000104:	ce06                	sw	ra,28(sp)
20000106:	cc22                	sw	s0,24(sp)
20000108:	ca26                	sw	s1,20(sp)
2000010a:	c84a                	sw	s2,16(sp)
2000010c:	892a                	mv	s2,a0
2000010e:	84ae                	mv	s1,a1
20000110:	8432                	mv	s0,a2
20000112:	006c                	addi	a1,sp,12
20000114:	35f5                	jal	20000000 <mutex_try_enter>
20000116:	e909                	bnez	a0,20000128 <mutex_try_enter_block_until+0x26>
20000118:	00c10703          	lb	a4,12(sp)
2000011c:	d00007b7          	lui	a5,0xd0000
20000120:	00078783          	lb	a5,0(a5) # d0000000 <__StackTop+0xaff7e000>
20000124:	00f71863          	bne	a4,a5,20000134 <mutex_try_enter_block_until+0x32>
20000128:	40f2                	lw	ra,28(sp)
2000012a:	4462                	lw	s0,24(sp)
2000012c:	44d2                	lw	s1,20(sp)
2000012e:	4942                	lw	s2,16(sp)
20000130:	6105                	addi	sp,sp,32
20000132:	8082                	ret
20000134:	85a6                	mv	a1,s1
20000136:	8622                	mv	a2,s0
20000138:	854a                	mv	a0,s2
2000013a:	3f29                	jal	20000054 <mutex_enter_block_until>
2000013c:	b7f5                	j	20000128 <mutex_try_enter_block_until+0x26>

2000013e <mutex_enter_timeout_ms>:
2000013e:	1141                	addi	sp,sp,-16
20000140:	c606                	sw	ra,12(sp)
20000142:	c422                	sw	s0,8(sp)
20000144:	c226                	sw	s1,4(sp)
20000146:	84aa                	mv	s1,a0
20000148:	842e                	mv	s0,a1
2000014a:	f0002097          	auipc	ra,0xf0002
2000014e:	4fa080e7          	jalr	1274(ra) # 10002644 <time_us_64>
20000152:	3e800713          	li	a4,1000
20000156:	02e407b3          	mul	a5,s0,a4
2000015a:	02e43433          	mulhu	s0,s0,a4
2000015e:	97aa                	add	a5,a5,a0
20000160:	00a7b633          	sltu	a2,a5,a0
20000164:	00858733          	add	a4,a1,s0
20000168:	85be                	mv	a1,a5
2000016a:	963a                	add	a2,a2,a4
2000016c:	00064963          	bltz	a2,2000017e <mutex_enter_timeout_ms+0x40>
20000170:	8526                	mv	a0,s1
20000172:	35cd                	jal	20000054 <mutex_enter_block_until>
20000174:	40b2                	lw	ra,12(sp)
20000176:	4422                	lw	s0,8(sp)
20000178:	4492                	lw	s1,4(sp)
2000017a:	0141                	addi	sp,sp,16
2000017c:	8082                	ret
2000017e:	55fd                	li	a1,-1
20000180:	80000637          	lui	a2,0x80000
20000184:	962e                	add	a2,a2,a1
20000186:	b7ed                	j	20000170 <mutex_enter_timeout_ms+0x32>

20000188 <mutex_exit>:
20000188:	411c                	lw	a5,0(a0)
2000018a:	30047773          	csrrci	a4,mstatus,8
2000018e:	00379693          	slli	a3,a5,0x3
20000192:	28d016b3          	bset	a3,zero,a3
20000196:	9bf1                	andi	a5,a5,-4
20000198:	44d7a62f          	amoor.w.aq	a2,a3,(a5)
2000019c:	8e75                	and	a2,a2,a3
2000019e:	fe6d                	bnez	a2,20000198 <mutex_exit+0x10>
200001a0:	0330000f          	fence	rw,rw
200001a4:	00450783          	lb	a5,4(a0)
200001a8:	0207c063          	bltz	a5,200001c8 <mutex_exit+0x40>
200001ac:	57fd                	li	a5,-1
200001ae:	00f50223          	sb	a5,4(a0)
200001b2:	411c                	lw	a5,0(a0)
200001b4:	0330000f          	fence	rw,rw
200001b8:	00078023          	sb	zero,0(a5)
200001bc:	8b21                	andi	a4,a4,8
200001be:	30072073          	csrs	mstatus,a4
200001c2:	00102033          	sgtz	zero,ra
200001c6:	8082                	ret
200001c8:	1141                	addi	sp,sp,-16
200001ca:	c606                	sw	ra,12(sp)
200001cc:	100096b7          	lui	a3,0x10009
200001d0:	33068693          	addi	a3,a3,816 # 10009330 <__EH_FRAME_BEGIN__+0x670>
200001d4:	1000a637          	lui	a2,0x1000a
200001d8:	b7860613          	addi	a2,a2,-1160 # 10009b78 <__func__.1>
200001dc:	0d500593          	li	a1,213
200001e0:	10009537          	lui	a0,0x10009
200001e4:	2d450513          	addi	a0,a0,724 # 100092d4 <__EH_FRAME_BEGIN__+0x614>
200001e8:	f0004097          	auipc	ra,0xf0004
200001ec:	0e0080e7          	jalr	224(ra) # 100042c8 <__assert_func>

200001f0 <reset_non_control_endpoints>:
200001f0:	1141                	addi	sp,sp,-16
200001f2:	c606                	sw	ra,12(sp)
200001f4:	4781                	li	a5,0
200001f6:	a821                	j	2000020e <reset_non_control_endpoints+0x1e>
200001f8:	50100737          	lui	a4,0x50100
200001fc:	20e7e733          	sh3add	a4,a5,a4
20000200:	00072423          	sw	zero,8(a4) # 50100008 <__StackTop+0x3007e008>
20000204:	00072623          	sw	zero,12(a4)
20000208:	0785                	addi	a5,a5,1
2000020a:	0ff7f793          	zext.b	a5,a5
2000020e:	4739                	li	a4,14
20000210:	fef774e3          	bgeu	a4,a5,200001f8 <reset_non_control_endpoints+0x8>
20000214:	3c000613          	li	a2,960
20000218:	4581                	li	a1,0
2000021a:	20005537          	lui	a0,0x20005
2000021e:	9b450513          	addi	a0,a0,-1612 # 200049b4 <hw_endpoints+0x40>
20000222:	f0008097          	auipc	ra,0xf0008
20000226:	630080e7          	jalr	1584(ra) # 10008852 <memset>
2000022a:	501007b7          	lui	a5,0x50100
2000022e:	18078793          	addi	a5,a5,384 # 50100180 <__StackTop+0x3007e180>
20000232:	86f1a1a3          	sw	a5,-1949(gp) # 20004f20 <next_buffer_ptr>
20000236:	40b2                	lw	ra,12(sp)
20000238:	0141                	addi	sp,sp,16
2000023a:	8082                	ret

2000023c <hw_handle_buff_status>:
2000023c:	7179                	addi	sp,sp,-48
2000023e:	d606                	sw	ra,44(sp)
20000240:	d422                	sw	s0,40(sp)
20000242:	d226                	sw	s1,36(sp)
20000244:	d04a                	sw	s2,32(sp)
20000246:	ce4e                	sw	s3,28(sp)
20000248:	cc52                	sw	s4,24(sp)
2000024a:	ca56                	sw	s5,20(sp)
2000024c:	501107b7          	lui	a5,0x50110
20000250:	0587a983          	lw	s3,88(a5) # 50110058 <__StackTop+0x3008e058>
20000254:	4401                	li	s0,0
20000256:	4905                	li	s2,1
20000258:	a039                	j	20000266 <hw_handle_buff_status+0x2a>
2000025a:	4129f9b3          	andn	s3,s3,s2
2000025e:	0906                	slli	s2,s2,0x1
20000260:	0405                	addi	s0,s0,1
20000262:	0ff47413          	zext.b	s0,s0
20000266:	02043793          	sltiu	a5,s0,32
2000026a:	06098763          	beqz	s3,200002d8 <hw_handle_buff_status+0x9c>
2000026e:	c7ad                	beqz	a5,200002d8 <hw_handle_buff_status+0x9c>
20000270:	0129f7b3          	and	a5,s3,s2
20000274:	d7ed                	beqz	a5,2000025e <hw_handle_buff_status+0x22>
20000276:	501137b7          	lui	a5,0x50113
2000027a:	0527ac23          	sw	s2,88(a5) # 50113058 <__StackTop+0x30091058>
2000027e:	00145a13          	srli	s4,s0,0x1
20000282:	4785                	li	a5,1
20000284:	4087fab3          	andn	s5,a5,s0
20000288:	0fe47493          	andi	s1,s0,254
2000028c:	94d6                	add	s1,s1,s5
2000028e:	0496                	slli	s1,s1,0x5
20000290:	200057b7          	lui	a5,0x20005
20000294:	97478793          	addi	a5,a5,-1676 # 20004974 <hw_endpoints>
20000298:	94be                	add	s1,s1,a5
2000029a:	8526                	mv	a0,s1
2000029c:	2b35                	jal	200007d8 <hw_endpoint_xfer_continue>
2000029e:	dd55                	beqz	a0,2000025a <hw_handle_buff_status+0x1e>
200002a0:	200057b7          	lui	a5,0x20005
200002a4:	215a2a33          	sh1add	s4,s4,s5
200002a8:	0a16                	slli	s4,s4,0x5
200002aa:	97478793          	addi	a5,a5,-1676 # 20004974 <hw_endpoints>
200002ae:	97d2                	add	a5,a5,s4
200002b0:	0027c703          	lbu	a4,2(a5)
200002b4:	0167d783          	lhu	a5,22(a5)
200002b8:	00010223          	sb	zero,4(sp)
200002bc:	469d                	li	a3,7
200002be:	00d102a3          	sb	a3,5(sp)
200002c2:	00e10423          	sb	a4,8(sp)
200002c6:	c63e                	sw	a5,12(sp)
200002c8:	000104a3          	sb	zero,9(sp)
200002cc:	4585                	li	a1,1
200002ce:	0048                	addi	a0,sp,4
200002d0:	2ba1                	jal	20000828 <dcd_event_handler>
200002d2:	8526                	mv	a0,s1
200002d4:	2911                	jal	200006e8 <hw_endpoint_reset_transfer>
200002d6:	b751                	j	2000025a <hw_handle_buff_status+0x1e>
200002d8:	50b2                	lw	ra,44(sp)
200002da:	5422                	lw	s0,40(sp)
200002dc:	5492                	lw	s1,36(sp)
200002de:	5902                	lw	s2,32(sp)
200002e0:	49f2                	lw	s3,28(sp)
200002e2:	4a62                	lw	s4,24(sp)
200002e4:	4ad2                	lw	s5,20(sp)
200002e6:	6145                	addi	sp,sp,48
200002e8:	8082                	ret

200002ea <dcd_rp2040_irq>:
200002ea:	7179                	addi	sp,sp,-48
200002ec:	d606                	sw	ra,44(sp)
200002ee:	d422                	sw	s0,40(sp)
200002f0:	d226                	sw	s1,36(sp)
200002f2:	501107b7          	lui	a5,0x50110
200002f6:	0987a483          	lw	s1,152(a5) # 50110098 <__StackTop+0x3008e098>
200002fa:	00020437          	lui	s0,0x20
200002fe:	8c65                	and	s0,s0,s1
20000300:	c845                	beqz	s0,200003b0 <dcd_rp2040_irq+0xc6>
20000302:	d04a                	sw	s2,32(sp)
20000304:	400b07b7          	lui	a5,0x400b0
20000308:	5798                	lw	a4,40(a5)
2000030a:	86e1a3a3          	sw	a4,-1945(gp) # 20004f24 <e15_last_sof>
2000030e:	4401                	li	s0,0
20000310:	4601                	li	a2,0
20000312:	a829                	j	2000032c <dcd_rp2040_irq+0x42>
20000314:	200057b7          	lui	a5,0x20005
20000318:	97478793          	addi	a5,a5,-1676 # 20004974 <hw_endpoints>
2000031c:	97ba                	add	a5,a5,a4
2000031e:	02078e23          	sb	zero,60(a5)
20000322:	290d                	jal	20000754 <hw_endpoint_start_next_buffer>
20000324:	864a                	mv	a2,s2
20000326:	0405                	addi	s0,s0,1 # 20001 <HeapSize+0x1f801>
20000328:	0ff47413          	zext.b	s0,s0
2000032c:	47bd                	li	a5,15
2000032e:	0487e663          	bltu	a5,s0,2000037a <dcd_rp2040_irq+0x90>
20000332:	00641713          	slli	a4,s0,0x6
20000336:	02070513          	addi	a0,a4,32
2000033a:	200057b7          	lui	a5,0x20005
2000033e:	97478793          	addi	a5,a5,-1676 # 20004974 <hw_endpoints>
20000342:	953e                	add	a0,a0,a5
20000344:	97ba                	add	a5,a5,a4
20000346:	03b7c703          	lbu	a4,59(a5)
2000034a:	4789                	li	a5,2
2000034c:	fcf71de3          	bne	a4,a5,20000326 <dcd_rp2040_irq+0x3c>
20000350:	200057b7          	lui	a5,0x20005
20000354:	00641713          	slli	a4,s0,0x6
20000358:	97478793          	addi	a5,a5,-1676 # 20004974 <hw_endpoints>
2000035c:	97ba                	add	a5,a5,a4
2000035e:	03a7c903          	lbu	s2,58(a5)
20000362:	fc0902e3          	beqz	s2,20000326 <dcd_rp2040_irq+0x3c>
20000366:	200057b7          	lui	a5,0x20005
2000036a:	97478793          	addi	a5,a5,-1676 # 20004974 <hw_endpoints>
2000036e:	97ba                	add	a5,a5,a4
20000370:	03c7c783          	lbu	a5,60(a5)
20000374:	f3c5                	bnez	a5,20000314 <dcd_rp2040_irq+0x2a>
20000376:	864a                	mv	a2,s2
20000378:	b77d                	j	20000326 <dcd_rp2040_irq+0x3c>
2000037a:	ea11                	bnez	a2,2000038e <dcd_rp2040_irq+0xa4>
2000037c:	85f1c783          	lbu	a5,-1953(gp) # 20004f1c <_sof_enable>
20000380:	e799                	bnez	a5,2000038e <dcd_rp2040_irq+0xa4>
20000382:	501137b7          	lui	a5,0x50113
20000386:	00020737          	lui	a4,0x20
2000038a:	08e7a823          	sw	a4,144(a5) # 50113090 <__StackTop+0x30091090>
2000038e:	501107b7          	lui	a5,0x50110
20000392:	47bc                	lw	a5,72(a5)
20000394:	7ff7f793          	andi	a5,a5,2047
20000398:	00010223          	sb	zero,4(sp)
2000039c:	470d                	li	a4,3
2000039e:	00e102a3          	sb	a4,5(sp)
200003a2:	c43e                	sw	a5,8(sp)
200003a4:	4585                	li	a1,1
200003a6:	0048                	addi	a0,sp,4
200003a8:	2141                	jal	20000828 <dcd_event_handler>
200003aa:	00020437          	lui	s0,0x20
200003ae:	5902                	lw	s2,32(sp)
200003b0:	0104f793          	andi	a5,s1,16
200003b4:	ef81                	bnez	a5,200003cc <dcd_rp2040_irq+0xe2>
200003b6:	00f49793          	slli	a5,s1,0xf
200003ba:	0a07dc63          	bgez	a5,20000472 <dcd_rp2040_irq+0x188>
200003be:	d04a                	sw	s2,32(sp)
200003c0:	ce4e                	sw	s3,28(sp)
200003c2:	ca56                	sw	s5,20(sp)
200003c4:	29041413          	bseti	s0,s0,0x10
200003c8:	4901                	li	s2,0
200003ca:	a899                	j	20000420 <dcd_rp2040_irq+0x136>
200003cc:	01046413          	ori	s0,s0,16
200003d0:	35b5                	jal	2000023c <hw_handle_buff_status>
200003d2:	b7d5                	j	200003b6 <dcd_rp2040_irq+0xcc>
200003d4:	4a09                	li	s4,2
200003d6:	501127b7          	lui	a5,0x50112
200003da:	0747a023          	sw	s4,96(a5) # 50112060 <__StackTop+0x30090060>
200003de:	501107b7          	lui	a5,0x50110
200003e2:	53fc                	lw	a5,100(a5)
200003e4:	00fa77b3          	and	a5,s4,a5
200003e8:	fefa1be3          	bne	s4,a5,200003de <dcd_rp2040_irq+0xf4>
200003ec:	660d                	lui	a2,0x3
200003ee:	4581                	li	a1,0
200003f0:	854e                	mv	a0,s3
200003f2:	2629                	jal	200006fc <_hw_endpoint_buffer_control_update32>
200003f4:	854e                	mv	a0,s3
200003f6:	2ccd                	jal	200006e8 <hw_endpoint_reset_transfer>
200003f8:	501137b7          	lui	a5,0x50113
200003fc:	0747a223          	sw	s4,100(a5) # 50113064 <__StackTop+0x30091064>
20000400:	0747a023          	sw	s4,96(a5)
20000404:	4a62                	lw	s4,24(sp)
20000406:	200057b7          	lui	a5,0x20005
2000040a:	005a9713          	slli	a4,s5,0x5
2000040e:	97478793          	addi	a5,a5,-1676 # 20004974 <hw_endpoints>
20000412:	97ba                	add	a5,a5,a4
20000414:	4705                	li	a4,1
20000416:	00e781a3          	sb	a4,3(a5)
2000041a:	993a                	add	s2,s2,a4
2000041c:	0ff97913          	zext.b	s2,s2
20000420:	4785                	li	a5,1
20000422:	0327e263          	bltu	a5,s2,20000446 <dcd_rp2040_irq+0x15c>
20000426:	8aca                	mv	s5,s2
20000428:	00591993          	slli	s3,s2,0x5
2000042c:	200057b7          	lui	a5,0x20005
20000430:	97478793          	addi	a5,a5,-1676 # 20004974 <hw_endpoints>
20000434:	99be                	add	s3,s3,a5
20000436:	01a9c783          	lbu	a5,26(s3)
2000043a:	d7f1                	beqz	a5,20000406 <dcd_rp2040_irq+0x11c>
2000043c:	cc52                	sw	s4,24(sp)
2000043e:	f8090be3          	beqz	s2,200003d4 <dcd_rp2040_irq+0xea>
20000442:	4a05                	li	s4,1
20000444:	bf49                	j	200003d6 <dcd_rp2040_irq+0xec>
20000446:	00010223          	sb	zero,4(sp)
2000044a:	4799                	li	a5,6
2000044c:	00f102a3          	sb	a5,5(sp)
20000450:	501007b7          	lui	a5,0x50100
20000454:	4398                	lw	a4,0(a5)
20000456:	c43a                	sw	a4,8(sp)
20000458:	43dc                	lw	a5,4(a5)
2000045a:	c63e                	sw	a5,12(sp)
2000045c:	4585                	li	a1,1
2000045e:	0048                	addi	a0,sp,4
20000460:	26e1                	jal	20000828 <dcd_event_handler>
20000462:	501137b7          	lui	a5,0x50113
20000466:	00020737          	lui	a4,0x20
2000046a:	cbb8                	sw	a4,80(a5)
2000046c:	5902                	lw	s2,32(sp)
2000046e:	49f2                	lw	s3,28(sp)
20000470:	4ad2                	lw	s5,20(sp)
20000472:	01349793          	slli	a5,s1,0x13
20000476:	0207c163          	bltz	a5,20000498 <dcd_rp2040_irq+0x1ae>
2000047a:	01149793          	slli	a5,s1,0x11
2000047e:	0407c363          	bltz	a5,200004c4 <dcd_rp2040_irq+0x1da>
20000482:	01049793          	slli	a5,s1,0x10
20000486:	0407cf63          	bltz	a5,200004e4 <dcd_rp2040_irq+0x1fa>
2000048a:	06941d63          	bne	s0,s1,20000504 <dcd_rp2040_irq+0x21a>
2000048e:	50b2                	lw	ra,44(sp)
20000490:	5422                	lw	s0,40(sp)
20000492:	5492                	lw	s1,36(sp)
20000494:	6145                	addi	sp,sp,48
20000496:	8082                	ret
20000498:	28c41413          	bseti	s0,s0,0xc
2000049c:	501107b7          	lui	a5,0x50110
200004a0:	0007a023          	sw	zero,0(a5) # 50110000 <__StackTop+0x3008e000>
200004a4:	33b1                	jal	200001f0 <reset_non_control_endpoints>
200004a6:	00010223          	sb	zero,4(sp)
200004aa:	4785                	li	a5,1
200004ac:	00f102a3          	sb	a5,5(sp)
200004b0:	c402                	sw	zero,8(sp)
200004b2:	85be                	mv	a1,a5
200004b4:	0048                	addi	a0,sp,4
200004b6:	2e8d                	jal	20000828 <dcd_event_handler>
200004b8:	501137b7          	lui	a5,0x50113
200004bc:	00080737          	lui	a4,0x80
200004c0:	cbb8                	sw	a4,80(a5)
200004c2:	bf65                	j	2000047a <dcd_rp2040_irq+0x190>
200004c4:	28e41413          	bseti	s0,s0,0xe
200004c8:	00010223          	sb	zero,4(sp)
200004cc:	4791                	li	a5,4
200004ce:	00f102a3          	sb	a5,5(sp)
200004d2:	4585                	li	a1,1
200004d4:	00f10533          	add	a0,sp,a5
200004d8:	2e81                	jal	20000828 <dcd_event_handler>
200004da:	501137b7          	lui	a5,0x50113
200004de:	4741                	li	a4,16
200004e0:	cbb8                	sw	a4,80(a5)
200004e2:	b745                	j	20000482 <dcd_rp2040_irq+0x198>
200004e4:	28f41413          	bseti	s0,s0,0xf
200004e8:	00010223          	sb	zero,4(sp)
200004ec:	4795                	li	a5,5
200004ee:	00f102a3          	sb	a5,5(sp)
200004f2:	4585                	li	a1,1
200004f4:	0048                	addi	a0,sp,4
200004f6:	2e0d                	jal	20000828 <dcd_event_handler>
200004f8:	501137b7          	lui	a5,0x50113
200004fc:	28b01713          	bseti	a4,zero,0xb
20000500:	cbb8                	sw	a4,80(a5)
20000502:	b761                	j	2000048a <dcd_rp2040_irq+0x1a0>
20000504:	d04a                	sw	s2,32(sp)
20000506:	ce4e                	sw	s3,28(sp)
20000508:	cc52                	sw	s4,24(sp)
2000050a:	ca56                	sw	s5,20(sp)
2000050c:	009445b3          	xor	a1,s0,s1
20000510:	10009537          	lui	a0,0x10009
20000514:	7b850513          	addi	a0,a0,1976 # 100097b8 <__EH_FRAME_BEGIN__+0xaf8>
20000518:	f0001097          	auipc	ra,0xf0001
2000051c:	cec080e7          	jalr	-788(ra) # 10001204 <panic>

20000520 <prepare_ep_buffer>:
20000520:	1101                	addi	sp,sp,-32
20000522:	ce06                	sw	ra,28(sp)
20000524:	cc22                	sw	s0,24(sp)
20000526:	ca26                	sw	s1,20(sp)
20000528:	c84a                	sw	s2,16(sp)
2000052a:	c64e                	sw	s3,12(sp)
2000052c:	842a                	mv	s0,a0
2000052e:	89ae                	mv	s3,a1
20000530:	01455783          	lhu	a5,20(a0)
20000534:	01855903          	lhu	s2,24(a0)
20000538:	0b27d933          	minu	s2,a5,s2
2000053c:	412787b3          	sub	a5,a5,s2
20000540:	00f51a23          	sh	a5,20(a0)
20000544:	40096713          	ori	a4,s2,1024
20000548:	00354783          	lbu	a5,3(a0)
2000054c:	cb95                	beqz	a5,20000580 <prepare_ep_buffer+0x60>
2000054e:	6489                	lui	s1,0x2
20000550:	8cd9                	or	s1,s1,a4
20000552:	0017c793          	xori	a5,a5,1
20000556:	00f401a3          	sb	a5,3(s0) # 20003 <HeapSize+0x1f803>
2000055a:	00144783          	lbu	a5,1(s0)
2000055e:	c39d                	beqz	a5,20000584 <prepare_ep_buffer+0x64>
20000560:	01445783          	lhu	a5,20(s0)
20000564:	e399                	bnez	a5,2000056a <prepare_ep_buffer+0x4a>
20000566:	28e49493          	bseti	s1,s1,0xe
2000056a:	00098363          	beqz	s3,20000570 <prepare_ep_buffer+0x50>
2000056e:	04c2                	slli	s1,s1,0x10
20000570:	8526                	mv	a0,s1
20000572:	40f2                	lw	ra,28(sp)
20000574:	4462                	lw	s0,24(sp)
20000576:	44d2                	lw	s1,20(sp)
20000578:	4942                	lw	s2,16(sp)
2000057a:	49b2                	lw	s3,12(sp)
2000057c:	6105                	addi	sp,sp,32
2000057e:	8082                	ret
20000580:	4481                	li	s1,0
20000582:	b7f9                	j	20000550 <prepare_ep_buffer+0x30>
20000584:	445c                	lw	a5,12(s0)
20000586:	00699513          	slli	a0,s3,0x6
2000058a:	864a                	mv	a2,s2
2000058c:	480c                	lw	a1,16(s0)
2000058e:	953e                	add	a0,a0,a5
20000590:	f0005097          	auipc	ra,0xf0005
20000594:	c72080e7          	jalr	-910(ra) # 10005202 <unaligned_memcpy>
20000598:	481c                	lw	a5,16(s0)
2000059a:	97ca                	add	a5,a5,s2
2000059c:	c81c                	sw	a5,16(s0)
2000059e:	28f49493          	bseti	s1,s1,0xf
200005a2:	bf7d                	j	20000560 <prepare_ep_buffer+0x40>

200005a4 <e15_is_bulkin_ep>:
200005a4:	501107b7          	lui	a5,0x50110
200005a8:	43bc                	lw	a5,64(a5)
200005aa:	8b89                	andi	a5,a5,2
200005ac:	e385                	bnez	a5,200005cc <e15_is_bulkin_ep+0x28>
200005ae:	00254783          	lbu	a5,2(a0)
200005b2:	839d                	srli	a5,a5,0x7
200005b4:	e399                	bnez	a5,200005ba <e15_is_bulkin_ep+0x16>
200005b6:	4501                	li	a0,0
200005b8:	8082                	ret
200005ba:	01b54703          	lbu	a4,27(a0)
200005be:	4789                	li	a5,2
200005c0:	00f70463          	beq	a4,a5,200005c8 <e15_is_bulkin_ep+0x24>
200005c4:	4501                	li	a0,0
200005c6:	8082                	ret
200005c8:	4505                	li	a0,1
200005ca:	8082                	ret
200005cc:	4501                	li	a0,0
200005ce:	8082                	ret

200005d0 <e15_is_critical_frame_period>:
200005d0:	1141                	addi	sp,sp,-16
200005d2:	c606                	sw	ra,12(sp)
200005d4:	3fc1                	jal	200005a4 <e15_is_bulkin_ep>
200005d6:	cd09                	beqz	a0,200005f0 <e15_is_critical_frame_period+0x20>
200005d8:	400b07b7          	lui	a5,0x400b0
200005dc:	579c                	lw	a5,40(a5)
200005de:	8671a703          	lw	a4,-1945(gp) # 20004f24 <e15_last_sof>
200005e2:	8f99                	sub	a5,a5,a4
200005e4:	ce078793          	addi	a5,a5,-800 # 400afce0 <__StackTop+0x2002dce0>
200005e8:	0c600713          	li	a4,198
200005ec:	00f76563          	bltu	a4,a5,200005f6 <e15_is_critical_frame_period+0x26>
200005f0:	40b2                	lw	ra,12(sp)
200005f2:	0141                	addi	sp,sp,16
200005f4:	8082                	ret
200005f6:	4501                	li	a0,0
200005f8:	bfe5                	j	200005f0 <e15_is_critical_frame_period+0x20>

200005fa <sync_ep_buffer>:
200005fa:	1141                	addi	sp,sp,-16
200005fc:	c606                	sw	ra,12(sp)
200005fe:	c422                	sw	s0,8(sp)
20000600:	c226                	sw	s1,4(sp)
20000602:	842a                	mv	s0,a0
20000604:	451c                	lw	a5,8(a0)
20000606:	439c                	lw	a5,0(a5)
20000608:	c191                	beqz	a1,2000060c <sync_ep_buffer+0x12>
2000060a:	83c1                	srli	a5,a5,0x10
2000060c:	3ff7f493          	andi	s1,a5,1023
20000610:	00144703          	lbu	a4,1(s0)
20000614:	eb21                	bnez	a4,20000664 <sync_ep_buffer+0x6a>
20000616:	01079713          	slli	a4,a5,0x10
2000061a:	02074363          	bltz	a4,20000640 <sync_ep_buffer+0x46>
2000061e:	01645783          	lhu	a5,22(s0)
20000622:	97a6                	add	a5,a5,s1
20000624:	00f41b23          	sh	a5,22(s0)
20000628:	01845783          	lhu	a5,24(s0)
2000062c:	00f4f463          	bgeu	s1,a5,20000634 <sync_ep_buffer+0x3a>
20000630:	00041a23          	sh	zero,20(s0)
20000634:	8526                	mv	a0,s1
20000636:	40b2                	lw	ra,12(sp)
20000638:	4422                	lw	s0,8(sp)
2000063a:	4492                	lw	s1,4(sp)
2000063c:	0141                	addi	sp,sp,16
2000063e:	8082                	ret
20000640:	100096b7          	lui	a3,0x10009
20000644:	7d868693          	addi	a3,a3,2008 # 100097d8 <__EH_FRAME_BEGIN__+0xb18>
20000648:	1000a637          	lui	a2,0x1000a
2000064c:	ea460613          	addi	a2,a2,-348 # 10009ea4 <__func__.0>
20000650:	0e800593          	li	a1,232
20000654:	10009537          	lui	a0,0x10009
20000658:	7f850513          	addi	a0,a0,2040 # 100097f8 <__EH_FRAME_BEGIN__+0xb38>
2000065c:	f0004097          	auipc	ra,0xf0004
20000660:	c6c080e7          	jalr	-916(ra) # 100042c8 <__assert_func>
20000664:	01079713          	slli	a4,a5,0x10
20000668:	02075463          	bgez	a4,20000690 <sync_ep_buffer+0x96>
2000066c:	445c                	lw	a5,12(s0)
2000066e:	059a                	slli	a1,a1,0x6
20000670:	8626                	mv	a2,s1
20000672:	95be                	add	a1,a1,a5
20000674:	4808                	lw	a0,16(s0)
20000676:	f0005097          	auipc	ra,0xf0005
2000067a:	b8c080e7          	jalr	-1140(ra) # 10005202 <unaligned_memcpy>
2000067e:	01645783          	lhu	a5,22(s0)
20000682:	97a6                	add	a5,a5,s1
20000684:	00f41b23          	sh	a5,22(s0)
20000688:	481c                	lw	a5,16(s0)
2000068a:	97a6                	add	a5,a5,s1
2000068c:	c81c                	sw	a5,16(s0)
2000068e:	bf69                	j	20000628 <sync_ep_buffer+0x2e>
20000690:	1000a6b7          	lui	a3,0x1000a
20000694:	85468693          	addi	a3,a3,-1964 # 10009854 <__EH_FRAME_BEGIN__+0xb94>
20000698:	1000a637          	lui	a2,0x1000a
2000069c:	ea460613          	addi	a2,a2,-348 # 10009ea4 <__func__.0>
200006a0:	0ee00593          	li	a1,238
200006a4:	10009537          	lui	a0,0x10009
200006a8:	7f850513          	addi	a0,a0,2040 # 100097f8 <__EH_FRAME_BEGIN__+0xb38>
200006ac:	f0004097          	auipc	ra,0xf0004
200006b0:	c1c080e7          	jalr	-996(ra) # 100042c8 <__assert_func>

200006b4 <_hw_endpoint_xfer_sync>:
200006b4:	1141                	addi	sp,sp,-16
200006b6:	c606                	sw	ra,12(sp)
200006b8:	c422                	sw	s0,8(sp)
200006ba:	842a                	mv	s0,a0
200006bc:	451c                	lw	a5,8(a0)
200006be:	439c                	lw	a5,0(a5)
200006c0:	4581                	li	a1,0
200006c2:	3f25                	jal	200005fa <sync_ep_buffer>
200006c4:	405c                	lw	a5,4(s0)
200006c6:	439c                	lw	a5,0(a5)
200006c8:	00179713          	slli	a4,a5,0x1
200006cc:	00075663          	bgez	a4,200006d8 <_hw_endpoint_xfer_sync+0x24>
200006d0:	01845783          	lhu	a5,24(s0)
200006d4:	00a78663          	beq	a5,a0,200006e0 <_hw_endpoint_xfer_sync+0x2c>
200006d8:	40b2                	lw	ra,12(sp)
200006da:	4422                	lw	s0,8(sp)
200006dc:	0141                	addi	sp,sp,16
200006de:	8082                	ret
200006e0:	4585                	li	a1,1
200006e2:	8522                	mv	a0,s0
200006e4:	3f19                	jal	200005fa <sync_ep_buffer>
200006e6:	bfcd                	j	200006d8 <_hw_endpoint_xfer_sync+0x24>

200006e8 <hw_endpoint_reset_transfer>:
200006e8:	00050d23          	sb	zero,26(a0)
200006ec:	00051a23          	sh	zero,20(a0)
200006f0:	00051b23          	sh	zero,22(a0)
200006f4:	00052823          	sw	zero,16(a0)
200006f8:	8082                	ret
	...

200006fc <_hw_endpoint_buffer_control_update32>:
200006fc:	c581                	beqz	a1,20000704 <_hw_endpoint_buffer_control_update32+0x8>
200006fe:	451c                	lw	a5,8(a0)
20000700:	439c                	lw	a5,0(a5)
20000702:	8dfd                	and	a1,a1,a5
20000704:	ca05                	beqz	a2,20000734 <_hw_endpoint_buffer_control_update32+0x38>
20000706:	8dd1                	or	a1,a1,a2
20000708:	40067613          	andi	a2,a2,1024
2000070c:	c605                	beqz	a2,20000734 <_hw_endpoint_buffer_control_update32+0x38>
2000070e:	4518                	lw	a4,8(a0)
20000710:	431c                	lw	a5,0(a4)
20000712:	4007f793          	andi	a5,a5,1024
20000716:	e395                	bnez	a5,2000073a <_hw_endpoint_buffer_control_update32+0x3e>
20000718:	bff5f793          	andi	a5,a1,-1025
2000071c:	c31c                	sw	a5,0(a4)
2000071e:	501107b7          	lui	a5,0x50110
20000722:	43bc                	lw	a5,64(a5)
20000724:	8b89                	andi	a5,a5,2
20000726:	e799                	bnez	a5,20000734 <_hw_endpoint_buffer_control_update32+0x38>
20000728:	47b1                	li	a5,12
2000072a:	0001                	nop
2000072c:	ffe78793          	addi	a5,a5,-2 # 5010fffe <__StackTop+0x3008dffe>
20000730:	fe07dee3          	bgez	a5,2000072c <_hw_endpoint_buffer_control_update32+0x30>
20000734:	451c                	lw	a5,8(a0)
20000736:	c38c                	sw	a1,0(a5)
20000738:	8082                	ret
2000073a:	1141                	addi	sp,sp,-16
2000073c:	c606                	sw	ra,12(sp)
2000073e:	00254583          	lbu	a1,2(a0)
20000742:	1000a537          	lui	a0,0x1000a
20000746:	87450513          	addi	a0,a0,-1932 # 10009874 <__EH_FRAME_BEGIN__+0xbb4>
2000074a:	f0001097          	auipc	ra,0xf0001
2000074e:	aba080e7          	jalr	-1350(ra) # 10001204 <panic>
20000752:	0001                	nop

20000754 <hw_endpoint_start_next_buffer>:
20000754:	1141                	addi	sp,sp,-16
20000756:	c606                	sw	ra,12(sp)
20000758:	c422                	sw	s0,8(sp)
2000075a:	c226                	sw	s1,4(sp)
2000075c:	c04a                	sw	s2,0(sp)
2000075e:	842a                	mv	s0,a0
20000760:	415c                	lw	a5,4(a0)
20000762:	4384                	lw	s1,0(a5)
20000764:	4581                	li	a1,0
20000766:	3b6d                	jal	20000520 <prepare_ep_buffer>
20000768:	28c51913          	bseti	s2,a0,0xc
2000076c:	501107b7          	lui	a5,0x50110
20000770:	43bc                	lw	a5,64(a5)
20000772:	8b89                	andi	a5,a5,2
20000774:	cf85                	beqz	a5,200007ac <hw_endpoint_start_next_buffer+0x58>
20000776:	00244783          	lbu	a5,2(s0)
2000077a:	07f7f793          	andi	a5,a5,127
2000077e:	ef8d                	bnez	a5,200007b8 <hw_endpoint_start_next_buffer+0x64>
20000780:	01445703          	lhu	a4,20(s0)
20000784:	c311                	beqz	a4,20000788 <hw_endpoint_start_next_buffer+0x34>
20000786:	cf8d                	beqz	a5,200007c0 <hw_endpoint_start_next_buffer+0x6c>
20000788:	49c49493          	bclri	s1,s1,0x1c
2000078c:	49e49493          	bclri	s1,s1,0x1e
20000790:	29d49493          	bseti	s1,s1,0x1d
20000794:	405c                	lw	a5,4(s0)
20000796:	c384                	sw	s1,0(a5)
20000798:	864a                	mv	a2,s2
2000079a:	4581                	li	a1,0
2000079c:	8522                	mv	a0,s0
2000079e:	3fb9                	jal	200006fc <_hw_endpoint_buffer_control_update32>
200007a0:	40b2                	lw	ra,12(sp)
200007a2:	4422                	lw	s0,8(sp)
200007a4:	4492                	lw	s1,4(sp)
200007a6:	4902                	lw	s2,0(sp)
200007a8:	0141                	addi	sp,sp,16
200007aa:	8082                	ret
200007ac:	00244783          	lbu	a5,2(s0)
200007b0:	839d                	srli	a5,a5,0x7
200007b2:	e789                	bnez	a5,200007bc <hw_endpoint_start_next_buffer+0x68>
200007b4:	4785                	li	a5,1
200007b6:	b7e9                	j	20000780 <hw_endpoint_start_next_buffer+0x2c>
200007b8:	4785                	li	a5,1
200007ba:	b7d9                	j	20000780 <hw_endpoint_start_next_buffer+0x2c>
200007bc:	4781                	li	a5,0
200007be:	b7c9                	j	20000780 <hw_endpoint_start_next_buffer+0x2c>
200007c0:	4585                	li	a1,1
200007c2:	8522                	mv	a0,s0
200007c4:	3bb1                	jal	20000520 <prepare_ep_buffer>
200007c6:	00a96933          	or	s2,s2,a0
200007ca:	49d49493          	bclri	s1,s1,0x1d
200007ce:	29c49493          	bseti	s1,s1,0x1c
200007d2:	29e49493          	bseti	s1,s1,0x1e
200007d6:	bf7d                	j	20000794 <hw_endpoint_start_next_buffer+0x40>

200007d8 <hw_endpoint_xfer_continue>:
200007d8:	1141                	addi	sp,sp,-16
200007da:	c606                	sw	ra,12(sp)
200007dc:	c422                	sw	s0,8(sp)
200007de:	c226                	sw	s1,4(sp)
200007e0:	842a                	mv	s0,a0
200007e2:	01a54483          	lbu	s1,26(a0)
200007e6:	c899                	beqz	s1,200007fc <hw_endpoint_xfer_continue+0x24>
200007e8:	35f1                	jal	200006b4 <_hw_endpoint_xfer_sync>
200007ea:	01445783          	lhu	a5,20(s0)
200007ee:	e38d                	bnez	a5,20000810 <hw_endpoint_xfer_continue+0x38>
200007f0:	8526                	mv	a0,s1
200007f2:	40b2                	lw	ra,12(sp)
200007f4:	4422                	lw	s0,8(sp)
200007f6:	4492                	lw	s1,4(sp)
200007f8:	0141                	addi	sp,sp,16
200007fa:	8082                	ret
200007fc:	00254583          	lbu	a1,2(a0)
20000800:	1000a537          	lui	a0,0x1000a
20000804:	89450513          	addi	a0,a0,-1900 # 10009894 <__EH_FRAME_BEGIN__+0xbd4>
20000808:	f0001097          	auipc	ra,0xf0001
2000080c:	9fc080e7          	jalr	-1540(ra) # 10001204 <panic>
20000810:	8522                	mv	a0,s0
20000812:	3b7d                	jal	200005d0 <e15_is_critical_frame_period>
20000814:	84aa                	mv	s1,a0
20000816:	c511                	beqz	a0,20000822 <hw_endpoint_xfer_continue+0x4a>
20000818:	4785                	li	a5,1
2000081a:	00f40e23          	sb	a5,28(s0)
2000081e:	4481                	li	s1,0
20000820:	bfc1                	j	200007f0 <hw_endpoint_xfer_continue+0x18>
20000822:	8522                	mv	a0,s0
20000824:	3f05                	jal	20000754 <hw_endpoint_start_next_buffer>
20000826:	b7e9                	j	200007f0 <hw_endpoint_xfer_continue+0x18>

20000828 <dcd_event_handler>:
20000828:	1101                	addi	sp,sp,-32
2000082a:	ce06                	sw	ra,28(sp)
2000082c:	ca26                	sw	s1,20(sp)
2000082e:	c84a                	sw	s2,16(sp)
20000830:	84aa                	mv	s1,a0
20000832:	892e                	mv	s2,a1
20000834:	00154783          	lbu	a5,1(a0)
20000838:	4711                	li	a4,4
2000083a:	0ce78263          	beq	a5,a4,200008fe <dcd_event_handler+0xd6>
2000083e:	02f77163          	bgeu	a4,a5,20000860 <dcd_event_handler+0x38>
20000842:	4715                	li	a4,5
20000844:	0ce78f63          	beq	a5,a4,20000922 <dcd_event_handler+0xfa>
20000848:	cc22                	sw	s0,24(sp)
2000084a:	4719                	li	a4,6
2000084c:	04e79863          	bne	a5,a4,2000089c <dcd_event_handler+0x74>
20000850:	8831c783          	lbu	a5,-1917(gp) # 20004f40 <_usbd_queued_setup>
20000854:	0785                	addi	a5,a5,1 # 50110001 <__StackTop+0x3008e001>
20000856:	0ff7f793          	zext.b	a5,a5
2000085a:	88f181a3          	sb	a5,-1917(gp) # 20004f40 <_usbd_queued_setup>
2000085e:	a83d                	j	2000089c <dcd_event_handler+0x74>
20000860:	cc22                	sw	s0,24(sp)
20000862:	4709                	li	a4,2
20000864:	00e78763          	beq	a5,a4,20000872 <dcd_event_handler+0x4a>
20000868:	470d                	li	a4,3
2000086a:	02e79963          	bne	a5,a4,2000089c <dcd_event_handler+0x74>
2000086e:	4401                	li	s0,0
20000870:	a8d5                	j	20000964 <dcd_event_handler+0x13c>
20000872:	200047b7          	lui	a5,0x20004
20000876:	54478793          	addi	a5,a5,1348 # 20004544 <_usbd_dev>
2000087a:	0007c703          	lbu	a4,0(a5)
2000087e:	9b79                	andi	a4,a4,-2
20000880:	00e78023          	sb	a4,0(a5)
20000884:	0007c703          	lbu	a4,0(a5)
20000888:	9b75                	andi	a4,a4,-3
2000088a:	00e78023          	sb	a4,0(a5)
2000088e:	000780a3          	sb	zero,1(a5)
20000892:	0007c703          	lbu	a4,0(a5)
20000896:	9b6d                	andi	a4,a4,-5
20000898:	00e78023          	sb	a4,0(a5)
2000089c:	8771a403          	lw	s0,-1929(gp) # 20004f34 <_usbd_q>
200008a0:	485c                	lw	a5,20(s0)
200008a2:	30047773          	csrrci	a4,mstatus,8
200008a6:	00379693          	slli	a3,a5,0x3
200008aa:	28d016b3          	bset	a3,zero,a3
200008ae:	9bf1                	andi	a5,a5,-4
200008b0:	44d7a62f          	amoor.w.aq	a2,a3,(a5)
200008b4:	8e75                	and	a2,a2,a3
200008b6:	fe6d                	bnez	a2,200008b0 <dcd_event_handler+0x88>
200008b8:	0330000f          	fence	rw,rw
200008bc:	cc18                	sw	a4,24(s0)
200008be:	85a6                	mv	a1,s1
200008c0:	8522                	mv	a0,s0
200008c2:	f0007097          	auipc	ra,0xf0007
200008c6:	744080e7          	jalr	1860(ra) # 10008006 <tu_fifo_write>
200008ca:	4858                	lw	a4,20(s0)
200008cc:	4c1c                	lw	a5,24(s0)
200008ce:	0330000f          	fence	rw,rw
200008d2:	00070023          	sb	zero,0(a4) # 80000 <HeapSize+0x7f800>
200008d6:	8ba1                	andi	a5,a5,8
200008d8:	3007a073          	csrs	mstatus,a5
200008dc:	1e050963          	beqz	a0,20000ace <dcd_event_handler+0x2a6>
200008e0:	864a                	mv	a2,s2
200008e2:	0014c583          	lbu	a1,1(s1) # 2001 <HeapSize+0x1801>
200008e6:	0004c503          	lbu	a0,0(s1)
200008ea:	f0005097          	auipc	ra,0xf0005
200008ee:	d44080e7          	jalr	-700(ra) # 1000562e <tud_event_hook_cb>
200008f2:	4462                	lw	s0,24(sp)
200008f4:	40f2                	lw	ra,28(sp)
200008f6:	44d2                	lw	s1,20(sp)
200008f8:	4942                	lw	s2,16(sp)
200008fa:	6105                	addi	sp,sp,32
200008fc:	8082                	ret
200008fe:	200047b7          	lui	a5,0x20004
20000902:	5447a783          	lw	a5,1348(a5) # 20004544 <_usbd_dev>
20000906:	8b85                	andi	a5,a5,1
20000908:	d7f5                	beqz	a5,200008f4 <dcd_event_handler+0xcc>
2000090a:	cc22                	sw	s0,24(sp)
2000090c:	200047b7          	lui	a5,0x20004
20000910:	54478793          	addi	a5,a5,1348 # 20004544 <_usbd_dev>
20000914:	0007c703          	lbu	a4,0(a5)
20000918:	00476713          	ori	a4,a4,4
2000091c:	00e78023          	sb	a4,0(a5)
20000920:	bfb5                	j	2000089c <dcd_event_handler+0x74>
20000922:	200047b7          	lui	a5,0x20004
20000926:	5447a783          	lw	a5,1348(a5) # 20004544 <_usbd_dev>
2000092a:	8b85                	andi	a5,a5,1
2000092c:	d7e1                	beqz	a5,200008f4 <dcd_event_handler+0xcc>
2000092e:	cc22                	sw	s0,24(sp)
20000930:	200047b7          	lui	a5,0x20004
20000934:	54478793          	addi	a5,a5,1348 # 20004544 <_usbd_dev>
20000938:	0007c703          	lbu	a4,0(a5)
2000093c:	9b6d                	andi	a4,a4,-5
2000093e:	00e78023          	sb	a4,0(a5)
20000942:	bfa9                	j	2000089c <dcd_event_handler+0x74>
20000944:	8f99                	sub	a5,a5,a4
20000946:	0796                	slli	a5,a5,0x5
20000948:	1000a737          	lui	a4,0x1000a
2000094c:	f6c70713          	addi	a4,a4,-148 # 10009f6c <_usbd_driver>
20000950:	97ba                	add	a5,a5,a4
20000952:	4fdc                	lw	a5,28(a5)
20000954:	c789                	beqz	a5,2000095e <dcd_event_handler+0x136>
20000956:	40cc                	lw	a1,4(s1)
20000958:	0004c503          	lbu	a0,0(s1)
2000095c:	9782                	jalr	a5
2000095e:	0405                	addi	s0,s0,1
20000960:	0ff47413          	zext.b	s0,s0
20000964:	87b1c703          	lbu	a4,-1925(gp) # 20004f38 <_app_driver_count>
20000968:	87a2                	mv	a5,s0
2000096a:	00170693          	addi	a3,a4,1
2000096e:	0086cb63          	blt	a3,s0,20000984 <dcd_event_handler+0x15c>
20000972:	fce479e3          	bgeu	s0,a4,20000944 <dcd_event_handler+0x11c>
20000976:	87f1a783          	lw	a5,-1921(gp) # 20004f3c <_app_driver>
2000097a:	00541713          	slli	a4,s0,0x5
2000097e:	97ba                	add	a5,a5,a4
20000980:	fbe9                	bnez	a5,20000952 <dcd_event_handler+0x12a>
20000982:	bff1                	j	2000095e <dcd_event_handler+0x136>
20000984:	200047b7          	lui	a5,0x20004
20000988:	5447a783          	lw	a5,1348(a5) # 20004544 <_usbd_dev>
2000098c:	4827d793          	bexti	a5,a5,0x2
20000990:	eb99                	bnez	a5,200009a6 <dcd_event_handler+0x17e>
20000992:	200047b7          	lui	a5,0x20004
20000996:	54478793          	addi	a5,a5,1348 # 20004544 <_usbd_dev>
2000099a:	0037c783          	lbu	a5,3(a5)
2000099e:	8b85                	andi	a5,a5,1
200009a0:	e3cd                	bnez	a5,20000a42 <dcd_event_handler+0x21a>
200009a2:	4462                	lw	s0,24(sp)
200009a4:	bf81                	j	200008f4 <dcd_event_handler+0xcc>
200009a6:	200047b7          	lui	a5,0x20004
200009aa:	54478793          	addi	a5,a5,1348 # 20004544 <_usbd_dev>
200009ae:	0007c703          	lbu	a4,0(a5)
200009b2:	9b6d                	andi	a4,a4,-5
200009b4:	00e78023          	sb	a4,0(a5)
200009b8:	c202                	sw	zero,4(sp)
200009ba:	c402                	sw	zero,8(sp)
200009bc:	c602                	sw	zero,12(sp)
200009be:	0004c783          	lbu	a5,0(s1)
200009c2:	00f10223          	sb	a5,4(sp)
200009c6:	4795                	li	a5,5
200009c8:	00f102a3          	sb	a5,5(sp)
200009cc:	8771a403          	lw	s0,-1929(gp) # 20004f34 <_usbd_q>
200009d0:	485c                	lw	a5,20(s0)
200009d2:	30047773          	csrrci	a4,mstatus,8
200009d6:	00379693          	slli	a3,a5,0x3
200009da:	28d016b3          	bset	a3,zero,a3
200009de:	9bf1                	andi	a5,a5,-4
200009e0:	44d7a62f          	amoor.w.aq	a2,a3,(a5)
200009e4:	8e75                	and	a2,a2,a3
200009e6:	fe6d                	bnez	a2,200009e0 <dcd_event_handler+0x1b8>
200009e8:	0330000f          	fence	rw,rw
200009ec:	cc18                	sw	a4,24(s0)
200009ee:	004c                	addi	a1,sp,4
200009f0:	8522                	mv	a0,s0
200009f2:	f0007097          	auipc	ra,0xf0007
200009f6:	614080e7          	jalr	1556(ra) # 10008006 <tu_fifo_write>
200009fa:	4858                	lw	a4,20(s0)
200009fc:	4c1c                	lw	a5,24(s0)
200009fe:	0330000f          	fence	rw,rw
20000a02:	00070023          	sb	zero,0(a4)
20000a06:	8ba1                	andi	a5,a5,8
20000a08:	3007a073          	csrs	mstatus,a5
20000a0c:	c919                	beqz	a0,20000a22 <dcd_event_handler+0x1fa>
20000a0e:	864a                	mv	a2,s2
20000a10:	00514583          	lbu	a1,5(sp)
20000a14:	00414503          	lbu	a0,4(sp)
20000a18:	f0005097          	auipc	ra,0xf0005
20000a1c:	c16080e7          	jalr	-1002(ra) # 1000562e <tud_event_hook_cb>
20000a20:	bf8d                	j	20000992 <dcd_event_handler+0x16a>
20000a22:	16500613          	li	a2,357
20000a26:	1000a5b7          	lui	a1,0x1000a
20000a2a:	ee858593          	addi	a1,a1,-280 # 10009ee8 <__func__.6>
20000a2e:	1000a537          	lui	a0,0x1000a
20000a32:	8f450513          	addi	a0,a0,-1804 # 100098f4 <__EH_FRAME_BEGIN__+0xc34>
20000a36:	f0004097          	auipc	ra,0xf0004
20000a3a:	bf0080e7          	jalr	-1040(ra) # 10004626 <__wrap_printf>
20000a3e:	9002                	ebreak
20000a40:	bf89                	j	20000992 <dcd_event_handler+0x16a>
20000a42:	0004c783          	lbu	a5,0(s1)
20000a46:	00f10223          	sb	a5,4(sp)
20000a4a:	478d                	li	a5,3
20000a4c:	00f102a3          	sb	a5,5(sp)
20000a50:	40dc                	lw	a5,4(s1)
20000a52:	c43e                	sw	a5,8(sp)
20000a54:	8771a403          	lw	s0,-1929(gp) # 20004f34 <_usbd_q>
20000a58:	485c                	lw	a5,20(s0)
20000a5a:	30047773          	csrrci	a4,mstatus,8
20000a5e:	00379693          	slli	a3,a5,0x3
20000a62:	28d016b3          	bset	a3,zero,a3
20000a66:	9bf1                	andi	a5,a5,-4
20000a68:	44d7a62f          	amoor.w.aq	a2,a3,(a5)
20000a6c:	8e75                	and	a2,a2,a3
20000a6e:	fe6d                	bnez	a2,20000a68 <dcd_event_handler+0x240>
20000a70:	0330000f          	fence	rw,rw
20000a74:	cc18                	sw	a4,24(s0)
20000a76:	004c                	addi	a1,sp,4
20000a78:	8522                	mv	a0,s0
20000a7a:	f0007097          	auipc	ra,0xf0007
20000a7e:	58c080e7          	jalr	1420(ra) # 10008006 <tu_fifo_write>
20000a82:	4858                	lw	a4,20(s0)
20000a84:	4c1c                	lw	a5,24(s0)
20000a86:	0330000f          	fence	rw,rw
20000a8a:	00070023          	sb	zero,0(a4)
20000a8e:	8ba1                	andi	a5,a5,8
20000a90:	3007a073          	csrs	mstatus,a5
20000a94:	cd01                	beqz	a0,20000aac <dcd_event_handler+0x284>
20000a96:	864a                	mv	a2,s2
20000a98:	00514583          	lbu	a1,5(sp)
20000a9c:	00414503          	lbu	a0,4(sp)
20000aa0:	f0005097          	auipc	ra,0xf0005
20000aa4:	b8e080e7          	jalr	-1138(ra) # 1000562e <tud_event_hook_cb>
20000aa8:	4462                	lw	s0,24(sp)
20000aaa:	b5a9                	j	200008f4 <dcd_event_handler+0xcc>
20000aac:	16500613          	li	a2,357
20000ab0:	1000a5b7          	lui	a1,0x1000a
20000ab4:	ee858593          	addi	a1,a1,-280 # 10009ee8 <__func__.6>
20000ab8:	1000a537          	lui	a0,0x1000a
20000abc:	8f450513          	addi	a0,a0,-1804 # 100098f4 <__EH_FRAME_BEGIN__+0xc34>
20000ac0:	f0004097          	auipc	ra,0xf0004
20000ac4:	b66080e7          	jalr	-1178(ra) # 10004626 <__wrap_printf>
20000ac8:	9002                	ebreak
20000aca:	4462                	lw	s0,24(sp)
20000acc:	b525                	j	200008f4 <dcd_event_handler+0xcc>
20000ace:	16500613          	li	a2,357
20000ad2:	1000a5b7          	lui	a1,0x1000a
20000ad6:	ee858593          	addi	a1,a1,-280 # 10009ee8 <__func__.6>
20000ada:	1000a537          	lui	a0,0x1000a
20000ade:	8f450513          	addi	a0,a0,-1804 # 100098f4 <__EH_FRAME_BEGIN__+0xc34>
20000ae2:	f0004097          	auipc	ra,0xf0004
20000ae6:	b44080e7          	jalr	-1212(ra) # 10004626 <__wrap_printf>
20000aea:	9002                	ebreak
20000aec:	4462                	lw	s0,24(sp)
20000aee:	b519                	j	200008f4 <dcd_event_handler+0xcc>

20000af0 <log>:
20000af0:	1101                	addi	sp,sp,-32
20000af2:	cc22                	sw	s0,24(sp)
20000af4:	ca26                	sw	s1,20(sp)
20000af6:	c84a                	sw	s2,16(sp)
20000af8:	c64e                	sw	s3,12(sp)
20000afa:	842a                	mv	s0,a0
20000afc:	84ae                	mv	s1,a1
20000afe:	ce06                	sw	ra,28(sp)
20000b00:	2851                	jal	20000b94 <__ieee754_log>
20000b02:	89aa                	mv	s3,a0
20000b04:	892e                	mv	s2,a1
20000b06:	8622                	mv	a2,s0
20000b08:	86a6                	mv	a3,s1
20000b0a:	8522                	mv	a0,s0
20000b0c:	85a6                	mv	a1,s1
20000b0e:	4d7020ef          	jal	200037e4 <__unorddf2>
20000b12:	ed1d                	bnez	a0,20000b50 <log+0x60>
20000b14:	4601                	li	a2,0
20000b16:	4681                	li	a3,0
20000b18:	8522                	mv	a0,s0
20000b1a:	85a6                	mv	a1,s1
20000b1c:	445010ef          	jal	20002760 <__gedf2>
20000b20:	02a04863          	bgtz	a0,20000b50 <log+0x60>
20000b24:	8522                	mv	a0,s0
20000b26:	85a6                	mv	a1,s1
20000b28:	4601                	li	a2,0
20000b2a:	4681                	li	a3,0
20000b2c:	3c3010ef          	jal	200026ee <__eqdf2>
20000b30:	e90d                	bnez	a0,20000b62 <log+0x72>
20000b32:	f0008097          	auipc	ra,0xf0008
20000b36:	cd4080e7          	jalr	-812(ra) # 10008806 <__errno>
20000b3a:	f0009797          	auipc	a5,0xf0009
20000b3e:	73e78793          	addi	a5,a5,1854 # 1000a278 <_ctype_+0x1b4>
20000b42:	0007a983          	lw	s3,0(a5)
20000b46:	0047a903          	lw	s2,4(a5)
20000b4a:	02200713          	li	a4,34
20000b4e:	c118                	sw	a4,0(a0)
20000b50:	40f2                	lw	ra,28(sp)
20000b52:	4462                	lw	s0,24(sp)
20000b54:	44d2                	lw	s1,20(sp)
20000b56:	854e                	mv	a0,s3
20000b58:	85ca                	mv	a1,s2
20000b5a:	49b2                	lw	s3,12(sp)
20000b5c:	4942                	lw	s2,16(sp)
20000b5e:	6105                	addi	sp,sp,32
20000b60:	8082                	ret
20000b62:	f0008097          	auipc	ra,0xf0008
20000b66:	ca4080e7          	jalr	-860(ra) # 10008806 <__errno>
20000b6a:	4462                	lw	s0,24(sp)
20000b6c:	40f2                	lw	ra,28(sp)
20000b6e:	44d2                	lw	s1,20(sp)
20000b70:	4942                	lw	s2,16(sp)
20000b72:	49b2                	lw	s3,12(sp)
20000b74:	02100793          	li	a5,33
20000b78:	c11c                	sw	a5,0(a0)
20000b7a:	00003517          	auipc	a0,0x3
20000b7e:	eba50513          	addi	a0,a0,-326 # 20003a34 <__clzsi2+0x70>
20000b82:	6105                	addi	sp,sp,32
20000b84:	a009                	j	20000b86 <nan>

20000b86 <nan>:
20000b86:	f0009797          	auipc	a5,0xf0009
20000b8a:	6fa78793          	addi	a5,a5,1786 # 1000a280 <_ctype_+0x1bc>
20000b8e:	4388                	lw	a0,0(a5)
20000b90:	43cc                	lw	a1,4(a5)
20000b92:	8082                	ret

20000b94 <__ieee754_log>:
20000b94:	7139                	addi	sp,sp,-64
20000b96:	de06                	sw	ra,60(sp)
20000b98:	00100837          	lui	a6,0x100
20000b9c:	87ae                	mv	a5,a1
20000b9e:	872a                	mv	a4,a0
20000ba0:	1305d463          	bge	a1,a6,20000cc8 <__ieee754_log+0x134>
20000ba4:	00159693          	slli	a3,a1,0x1
20000ba8:	8285                	srli	a3,a3,0x1
20000baa:	8ec9                	or	a3,a3,a0
20000bac:	2c068f63          	beqz	a3,20000e8a <__ieee754_log+0x2f6>
20000bb0:	3605cd63          	bltz	a1,20000f2a <__ieee754_log+0x396>
20000bb4:	f0009797          	auipc	a5,0xf0009
20000bb8:	6dc78793          	addi	a5,a5,1756 # 1000a290 <_ctype_+0x1cc>
20000bbc:	4390                	lw	a2,0(a5)
20000bbe:	43d4                	lw	a3,4(a5)
20000bc0:	557010ef          	jal	20002916 <__muldf3>
20000bc4:	86ae                	mv	a3,a1
20000bc6:	7ff00637          	lui	a2,0x7ff00
20000bca:	87ae                	mv	a5,a1
20000bcc:	872a                	mv	a4,a0
20000bce:	fca00313          	li	t1,-54
20000bd2:	10c6d163          	bge	a3,a2,20000cd4 <__ieee754_log+0x140>
20000bd6:	001007b7          	lui	a5,0x100
20000bda:	fff78893          	addi	a7,a5,-1 # fffff <HeapSize+0xff7ff>
20000bde:	00096837          	lui	a6,0x96
20000be2:	dc22                	sw	s0,56(sp)
20000be4:	f6480813          	addi	a6,a6,-156 # 95f64 <HeapSize+0x95764>
20000be8:	0116f433          	and	s0,a3,a7
20000bec:	9822                	add	a6,a6,s0
20000bee:	00f87833          	and	a6,a6,a5
20000bf2:	3ff007b7          	lui	a5,0x3ff00
20000bf6:	00f847b3          	xor	a5,a6,a5
20000bfa:	853a                	mv	a0,a4
20000bfc:	f0009717          	auipc	a4,0xf0009
20000c00:	65470713          	addi	a4,a4,1620 # 1000a250 <_ctype_+0x18c>
20000c04:	4310                	lw	a2,0(a4)
20000c06:	0087e5b3          	or	a1,a5,s0
20000c0a:	4146d793          	srai	a5,a3,0x14
20000c0e:	4354                	lw	a3,4(a4)
20000c10:	c0178793          	addi	a5,a5,-1023 # 3feffc01 <__StackTop+0x1fe7dc01>
20000c14:	979a                	add	a5,a5,t1
20000c16:	41485813          	srai	a6,a6,0x14
20000c1a:	d05a                	sw	s6,32(sp)
20000c1c:	ce5e                	sw	s7,28(sp)
20000c1e:	c86a                	sw	s10,16(sp)
20000c20:	00f80d33          	add	s10,a6,a5
20000c24:	296020ef          	jal	20002eba <__subdf3>
20000c28:	00100737          	lui	a4,0x100
20000c2c:	fff70893          	addi	a7,a4,-1 # fffff <HeapSize+0xff7ff>
20000c30:	00240793          	addi	a5,s0,2
20000c34:	0117f7b3          	and	a5,a5,a7
20000c38:	4709                	li	a4,2
20000c3a:	8b2a                	mv	s6,a0
20000c3c:	8bae                	mv	s7,a1
20000c3e:	0af74863          	blt	a4,a5,20000cee <__ieee754_log+0x15a>
20000c42:	4601                	li	a2,0
20000c44:	4681                	li	a3,0
20000c46:	2a9010ef          	jal	200026ee <__eqdf2>
20000c4a:	26050163          	beqz	a0,20000eac <__ieee754_log+0x318>
20000c4e:	f0009797          	auipc	a5,0xf0009
20000c52:	65a78793          	addi	a5,a5,1626 # 1000a2a8 <_ctype_+0x1e4>
20000c56:	4390                	lw	a2,0(a5)
20000c58:	43d4                	lw	a3,4(a5)
20000c5a:	855a                	mv	a0,s6
20000c5c:	85de                	mv	a1,s7
20000c5e:	da26                	sw	s1,52(sp)
20000c60:	d84a                	sw	s2,48(sp)
20000c62:	d64e                	sw	s3,44(sp)
20000c64:	4b3010ef          	jal	20002916 <__muldf3>
20000c68:	f0009797          	auipc	a5,0xf0009
20000c6c:	5b878793          	addi	a5,a5,1464 # 1000a220 <_ctype_+0x15c>
20000c70:	862a                	mv	a2,a0
20000c72:	86ae                	mv	a3,a1
20000c74:	4388                	lw	a0,0(a5)
20000c76:	43cc                	lw	a1,4(a5)
20000c78:	845a                	mv	s0,s6
20000c7a:	84de                	mv	s1,s7
20000c7c:	23e020ef          	jal	20002eba <__subdf3>
20000c80:	892a                	mv	s2,a0
20000c82:	89ae                	mv	s3,a1
20000c84:	865a                	mv	a2,s6
20000c86:	86de                	mv	a3,s7
20000c88:	855a                	mv	a0,s6
20000c8a:	85de                	mv	a1,s7
20000c8c:	48b010ef          	jal	20002916 <__muldf3>
20000c90:	862a                	mv	a2,a0
20000c92:	86ae                	mv	a3,a1
20000c94:	854a                	mv	a0,s2
20000c96:	85ce                	mv	a1,s3
20000c98:	47f010ef          	jal	20002916 <__muldf3>
20000c9c:	2e0d1c63          	bnez	s10,20000f94 <__ieee754_log+0x400>
20000ca0:	862a                	mv	a2,a0
20000ca2:	86ae                	mv	a3,a1
20000ca4:	8522                	mv	a0,s0
20000ca6:	85a6                	mv	a1,s1
20000ca8:	212020ef          	jal	20002eba <__subdf3>
20000cac:	5462                	lw	s0,56(sp)
20000cae:	50f2                	lw	ra,60(sp)
20000cb0:	872a                	mv	a4,a0
20000cb2:	87ae                	mv	a5,a1
20000cb4:	54d2                	lw	s1,52(sp)
20000cb6:	5942                	lw	s2,48(sp)
20000cb8:	59b2                	lw	s3,44(sp)
20000cba:	5b02                	lw	s6,32(sp)
20000cbc:	4bf2                	lw	s7,28(sp)
20000cbe:	4d42                	lw	s10,16(sp)
20000cc0:	853a                	mv	a0,a4
20000cc2:	85be                	mv	a1,a5
20000cc4:	6121                	addi	sp,sp,64
20000cc6:	8082                	ret
20000cc8:	86ae                	mv	a3,a1
20000cca:	7ff00637          	lui	a2,0x7ff00
20000cce:	4301                	li	t1,0
20000cd0:	f0c6c3e3          	blt	a3,a2,20000bd6 <__ieee754_log+0x42>
20000cd4:	863a                	mv	a2,a4
20000cd6:	853a                	mv	a0,a4
20000cd8:	86be                	mv	a3,a5
20000cda:	85be                	mv	a1,a5
20000cdc:	281000ef          	jal	2000175c <__adddf3>
20000ce0:	872a                	mv	a4,a0
20000ce2:	87ae                	mv	a5,a1
20000ce4:	50f2                	lw	ra,60(sp)
20000ce6:	853a                	mv	a0,a4
20000ce8:	85be                	mv	a1,a5
20000cea:	6121                	addi	sp,sp,64
20000cec:	8082                	ret
20000cee:	f0009797          	auipc	a5,0xf0009
20000cf2:	54278793          	addi	a5,a5,1346 # 1000a230 <_ctype_+0x16c>
20000cf6:	4390                	lw	a2,0(a5)
20000cf8:	43d4                	lw	a3,4(a5)
20000cfa:	d84a                	sw	s2,48(sp)
20000cfc:	d64e                	sw	s3,44(sp)
20000cfe:	d452                	sw	s4,40(sp)
20000d00:	d256                	sw	s5,36(sp)
20000d02:	cc62                	sw	s8,24(sp)
20000d04:	ca66                	sw	s9,20(sp)
20000d06:	257000ef          	jal	2000175c <__adddf3>
20000d0a:	862a                	mv	a2,a0
20000d0c:	86ae                	mv	a3,a1
20000d0e:	855a                	mv	a0,s6
20000d10:	85de                	mv	a1,s7
20000d12:	34a010ef          	jal	2000205c <__divdf3>
20000d16:	8a2a                	mv	s4,a0
20000d18:	856a                	mv	a0,s10
20000d1a:	8aae                	mv	s5,a1
20000d1c:	3bd020ef          	jal	200038d8 <__floatsidf>
20000d20:	c42a                	sw	a0,8(sp)
20000d22:	c62e                	sw	a1,12(sp)
20000d24:	8652                	mv	a2,s4
20000d26:	86d6                	mv	a3,s5
20000d28:	8552                	mv	a0,s4
20000d2a:	85d6                	mv	a1,s5
20000d2c:	3eb010ef          	jal	20002916 <__muldf3>
20000d30:	fff9f837          	lui	a6,0xfff9f
20000d34:	b8680813          	addi	a6,a6,-1146 # fff9eb86 <__StackTop+0xdff1cb86>
20000d38:	9822                	add	a6,a6,s0
20000d3a:	862a                	mv	a2,a0
20000d3c:	86ae                	mv	a3,a1
20000d3e:	c042                	sw	a6,0(sp)
20000d40:	8c2a                	mv	s8,a0
20000d42:	8cae                	mv	s9,a1
20000d44:	3d3010ef          	jal	20002916 <__muldf3>
20000d48:	f0009797          	auipc	a5,0xf0009
20000d4c:	56878793          	addi	a5,a5,1384 # 1000a2b0 <_ctype_+0x1ec>
20000d50:	4390                	lw	a2,0(a5)
20000d52:	43d4                	lw	a3,4(a5)
20000d54:	892a                	mv	s2,a0
20000d56:	89ae                	mv	s3,a1
20000d58:	3bf010ef          	jal	20002916 <__muldf3>
20000d5c:	f0009797          	auipc	a5,0xf0009
20000d60:	55c78793          	addi	a5,a5,1372 # 1000a2b8 <_ctype_+0x1f4>
20000d64:	4390                	lw	a2,0(a5)
20000d66:	43d4                	lw	a3,4(a5)
20000d68:	1f5000ef          	jal	2000175c <__adddf3>
20000d6c:	864a                	mv	a2,s2
20000d6e:	86ce                	mv	a3,s3
20000d70:	3a7010ef          	jal	20002916 <__muldf3>
20000d74:	f0009797          	auipc	a5,0xf0009
20000d78:	54c78793          	addi	a5,a5,1356 # 1000a2c0 <_ctype_+0x1fc>
20000d7c:	4390                	lw	a2,0(a5)
20000d7e:	43d4                	lw	a3,4(a5)
20000d80:	1dd000ef          	jal	2000175c <__adddf3>
20000d84:	864a                	mv	a2,s2
20000d86:	86ce                	mv	a3,s3
20000d88:	38f010ef          	jal	20002916 <__muldf3>
20000d8c:	f0009797          	auipc	a5,0xf0009
20000d90:	53c78793          	addi	a5,a5,1340 # 1000a2c8 <_ctype_+0x204>
20000d94:	4390                	lw	a2,0(a5)
20000d96:	43d4                	lw	a3,4(a5)
20000d98:	1c5000ef          	jal	2000175c <__adddf3>
20000d9c:	8662                	mv	a2,s8
20000d9e:	86e6                	mv	a3,s9
20000da0:	377010ef          	jal	20002916 <__muldf3>
20000da4:	f0009797          	auipc	a5,0xf0009
20000da8:	52c78793          	addi	a5,a5,1324 # 1000a2d0 <_ctype_+0x20c>
20000dac:	4390                	lw	a2,0(a5)
20000dae:	43d4                	lw	a3,4(a5)
20000db0:	8c2a                	mv	s8,a0
20000db2:	8cae                	mv	s9,a1
20000db4:	854a                	mv	a0,s2
20000db6:	85ce                	mv	a1,s3
20000db8:	35f010ef          	jal	20002916 <__muldf3>
20000dbc:	f0009797          	auipc	a5,0xf0009
20000dc0:	51c78793          	addi	a5,a5,1308 # 1000a2d8 <_ctype_+0x214>
20000dc4:	4390                	lw	a2,0(a5)
20000dc6:	43d4                	lw	a3,4(a5)
20000dc8:	195000ef          	jal	2000175c <__adddf3>
20000dcc:	864a                	mv	a2,s2
20000dce:	86ce                	mv	a3,s3
20000dd0:	347010ef          	jal	20002916 <__muldf3>
20000dd4:	f0009797          	auipc	a5,0xf0009
20000dd8:	50c78793          	addi	a5,a5,1292 # 1000a2e0 <_ctype_+0x21c>
20000ddc:	4390                	lw	a2,0(a5)
20000dde:	43d4                	lw	a3,4(a5)
20000de0:	17d000ef          	jal	2000175c <__adddf3>
20000de4:	864a                	mv	a2,s2
20000de6:	86ce                	mv	a3,s3
20000de8:	32f010ef          	jal	20002916 <__muldf3>
20000dec:	86ae                	mv	a3,a1
20000dee:	862a                	mv	a2,a0
20000df0:	85e6                	mv	a1,s9
20000df2:	8562                	mv	a0,s8
20000df4:	169000ef          	jal	2000175c <__adddf3>
20000df8:	4802                	lw	a6,0(sp)
20000dfa:	0006c6b7          	lui	a3,0x6c
20000dfe:	85168693          	addi	a3,a3,-1967 # 6b851 <HeapSize+0x6b051>
20000e02:	8e81                	sub	a3,a3,s0
20000e04:	0106e6b3          	or	a3,a3,a6
20000e08:	0ed05963          	blez	a3,20000efa <__ieee754_log+0x366>
20000e0c:	f0009697          	auipc	a3,0xf0009
20000e10:	41468693          	addi	a3,a3,1044 # 1000a220 <_ctype_+0x15c>
20000e14:	4290                	lw	a2,0(a3)
20000e16:	42d4                	lw	a3,4(a3)
20000e18:	c02a                	sw	a0,0(sp)
20000e1a:	c22e                	sw	a1,4(sp)
20000e1c:	855a                	mv	a0,s6
20000e1e:	85de                	mv	a1,s7
20000e20:	2f7010ef          	jal	20002916 <__muldf3>
20000e24:	865a                	mv	a2,s6
20000e26:	86de                	mv	a3,s7
20000e28:	2ef010ef          	jal	20002916 <__muldf3>
20000e2c:	4702                	lw	a4,0(sp)
20000e2e:	4792                	lw	a5,4(sp)
20000e30:	862a                	mv	a2,a0
20000e32:	86ae                	mv	a3,a1
20000e34:	892a                	mv	s2,a0
20000e36:	89ae                	mv	s3,a1
20000e38:	8c2a                	mv	s8,a0
20000e3a:	8cae                	mv	s9,a1
20000e3c:	853a                	mv	a0,a4
20000e3e:	85be                	mv	a1,a5
20000e40:	11d000ef          	jal	2000175c <__adddf3>
20000e44:	8652                	mv	a2,s4
20000e46:	86d6                	mv	a3,s5
20000e48:	2cf010ef          	jal	20002916 <__muldf3>
20000e4c:	0e0d1463          	bnez	s10,20000f34 <__ieee754_log+0x3a0>
20000e50:	862a                	mv	a2,a0
20000e52:	86ae                	mv	a3,a1
20000e54:	854a                	mv	a0,s2
20000e56:	85ce                	mv	a1,s3
20000e58:	062020ef          	jal	20002eba <__subdf3>
20000e5c:	862a                	mv	a2,a0
20000e5e:	86ae                	mv	a3,a1
20000e60:	855a                	mv	a0,s6
20000e62:	85de                	mv	a1,s7
20000e64:	056020ef          	jal	20002eba <__subdf3>
20000e68:	5462                	lw	s0,56(sp)
20000e6a:	872a                	mv	a4,a0
20000e6c:	87ae                	mv	a5,a1
20000e6e:	50f2                	lw	ra,60(sp)
20000e70:	5942                	lw	s2,48(sp)
20000e72:	59b2                	lw	s3,44(sp)
20000e74:	5a22                	lw	s4,40(sp)
20000e76:	5a92                	lw	s5,36(sp)
20000e78:	5b02                	lw	s6,32(sp)
20000e7a:	4bf2                	lw	s7,28(sp)
20000e7c:	4c62                	lw	s8,24(sp)
20000e7e:	4cd2                	lw	s9,20(sp)
20000e80:	4d42                	lw	s10,16(sp)
20000e82:	853a                	mv	a0,a4
20000e84:	85be                	mv	a1,a5
20000e86:	6121                	addi	sp,sp,64
20000e88:	8082                	ret
20000e8a:	f0009797          	auipc	a5,0xf0009
20000e8e:	3fe78793          	addi	a5,a5,1022 # 1000a288 <_ctype_+0x1c4>
20000e92:	4388                	lw	a0,0(a5)
20000e94:	43cc                	lw	a1,4(a5)
20000e96:	4601                	li	a2,0
20000e98:	4681                	li	a3,0
20000e9a:	1c2010ef          	jal	2000205c <__divdf3>
20000e9e:	50f2                	lw	ra,60(sp)
20000ea0:	872a                	mv	a4,a0
20000ea2:	87ae                	mv	a5,a1
20000ea4:	853a                	mv	a0,a4
20000ea6:	85be                	mv	a1,a5
20000ea8:	6121                	addi	sp,sp,64
20000eaa:	8082                	ret
20000eac:	4701                	li	a4,0
20000eae:	4781                	li	a5,0
20000eb0:	120d0c63          	beqz	s10,20000fe8 <__ieee754_log+0x454>
20000eb4:	856a                	mv	a0,s10
20000eb6:	da26                	sw	s1,52(sp)
20000eb8:	d84a                	sw	s2,48(sp)
20000eba:	d64e                	sw	s3,44(sp)
20000ebc:	21d020ef          	jal	200038d8 <__floatsidf>
20000ec0:	f0009797          	auipc	a5,0xf0009
20000ec4:	3d878793          	addi	a5,a5,984 # 1000a298 <_ctype_+0x1d4>
20000ec8:	4390                	lw	a2,0(a5)
20000eca:	43d4                	lw	a3,4(a5)
20000ecc:	892a                	mv	s2,a0
20000ece:	89ae                	mv	s3,a1
20000ed0:	247010ef          	jal	20002916 <__muldf3>
20000ed4:	f0009797          	auipc	a5,0xf0009
20000ed8:	3cc78793          	addi	a5,a5,972 # 1000a2a0 <_ctype_+0x1dc>
20000edc:	4390                	lw	a2,0(a5)
20000ede:	43d4                	lw	a3,4(a5)
20000ee0:	842a                	mv	s0,a0
20000ee2:	84ae                	mv	s1,a1
20000ee4:	854a                	mv	a0,s2
20000ee6:	85ce                	mv	a1,s3
20000ee8:	22f010ef          	jal	20002916 <__muldf3>
20000eec:	862a                	mv	a2,a0
20000eee:	86ae                	mv	a3,a1
20000ef0:	8522                	mv	a0,s0
20000ef2:	85a6                	mv	a1,s1
20000ef4:	069000ef          	jal	2000175c <__adddf3>
20000ef8:	bb55                	j	20000cac <__ieee754_log+0x118>
20000efa:	862a                	mv	a2,a0
20000efc:	86ae                	mv	a3,a1
20000efe:	855a                	mv	a0,s6
20000f00:	85de                	mv	a1,s7
20000f02:	da26                	sw	s1,52(sp)
20000f04:	7b7010ef          	jal	20002eba <__subdf3>
20000f08:	8652                	mv	a2,s4
20000f0a:	86d6                	mv	a3,s5
20000f0c:	20b010ef          	jal	20002916 <__muldf3>
20000f10:	0e0d1163          	bnez	s10,20000ff2 <__ieee754_log+0x45e>
20000f14:	862a                	mv	a2,a0
20000f16:	86ae                	mv	a3,a1
20000f18:	855a                	mv	a0,s6
20000f1a:	85de                	mv	a1,s7
20000f1c:	79f010ef          	jal	20002eba <__subdf3>
20000f20:	872a                	mv	a4,a0
20000f22:	5462                	lw	s0,56(sp)
20000f24:	54d2                	lw	s1,52(sp)
20000f26:	87ae                	mv	a5,a1
20000f28:	b799                	j	20000e6e <__ieee754_log+0x2da>
20000f2a:	862a                	mv	a2,a0
20000f2c:	86ae                	mv	a3,a1
20000f2e:	78d010ef          	jal	20002eba <__subdf3>
20000f32:	b795                	j	20000e96 <__ieee754_log+0x302>
20000f34:	4422                	lw	s0,8(sp)
20000f36:	da26                	sw	s1,52(sp)
20000f38:	f0009697          	auipc	a3,0xf0009
20000f3c:	36068693          	addi	a3,a3,864 # 1000a298 <_ctype_+0x1d4>
20000f40:	44b2                	lw	s1,12(sp)
20000f42:	4290                	lw	a2,0(a3)
20000f44:	42d4                	lw	a3,4(a3)
20000f46:	c02a                	sw	a0,0(sp)
20000f48:	c22e                	sw	a1,4(sp)
20000f4a:	8522                	mv	a0,s0
20000f4c:	85a6                	mv	a1,s1
20000f4e:	1c9010ef          	jal	20002916 <__muldf3>
20000f52:	f0009697          	auipc	a3,0xf0009
20000f56:	34e68693          	addi	a3,a3,846 # 1000a2a0 <_ctype_+0x1dc>
20000f5a:	4290                	lw	a2,0(a3)
20000f5c:	42d4                	lw	a3,4(a3)
20000f5e:	892a                	mv	s2,a0
20000f60:	89ae                	mv	s3,a1
20000f62:	8522                	mv	a0,s0
20000f64:	85a6                	mv	a1,s1
20000f66:	1b1010ef          	jal	20002916 <__muldf3>
20000f6a:	4702                	lw	a4,0(sp)
20000f6c:	4792                	lw	a5,4(sp)
20000f6e:	863a                	mv	a2,a4
20000f70:	86be                	mv	a3,a5
20000f72:	7ea000ef          	jal	2000175c <__adddf3>
20000f76:	862a                	mv	a2,a0
20000f78:	86ae                	mv	a3,a1
20000f7a:	8562                	mv	a0,s8
20000f7c:	85e6                	mv	a1,s9
20000f7e:	73d010ef          	jal	20002eba <__subdf3>
20000f82:	865a                	mv	a2,s6
20000f84:	86de                	mv	a3,s7
20000f86:	735010ef          	jal	20002eba <__subdf3>
20000f8a:	862a                	mv	a2,a0
20000f8c:	86ae                	mv	a3,a1
20000f8e:	854a                	mv	a0,s2
20000f90:	85ce                	mv	a1,s3
20000f92:	b769                	j	20000f1c <__ieee754_log+0x388>
20000f94:	c02a                	sw	a0,0(sp)
20000f96:	856a                	mv	a0,s10
20000f98:	c22e                	sw	a1,4(sp)
20000f9a:	13f020ef          	jal	200038d8 <__floatsidf>
20000f9e:	f0009697          	auipc	a3,0xf0009
20000fa2:	2fa68693          	addi	a3,a3,762 # 1000a298 <_ctype_+0x1d4>
20000fa6:	4290                	lw	a2,0(a3)
20000fa8:	42d4                	lw	a3,4(a3)
20000faa:	892a                	mv	s2,a0
20000fac:	89ae                	mv	s3,a1
20000fae:	169010ef          	jal	20002916 <__muldf3>
20000fb2:	f0009697          	auipc	a3,0xf0009
20000fb6:	2ee68693          	addi	a3,a3,750 # 1000a2a0 <_ctype_+0x1dc>
20000fba:	4290                	lw	a2,0(a3)
20000fbc:	42d4                	lw	a3,4(a3)
20000fbe:	842a                	mv	s0,a0
20000fc0:	84ae                	mv	s1,a1
20000fc2:	854a                	mv	a0,s2
20000fc4:	85ce                	mv	a1,s3
20000fc6:	151010ef          	jal	20002916 <__muldf3>
20000fca:	4702                	lw	a4,0(sp)
20000fcc:	4792                	lw	a5,4(sp)
20000fce:	862a                	mv	a2,a0
20000fd0:	86ae                	mv	a3,a1
20000fd2:	853a                	mv	a0,a4
20000fd4:	85be                	mv	a1,a5
20000fd6:	6e5010ef          	jal	20002eba <__subdf3>
20000fda:	865a                	mv	a2,s6
20000fdc:	86de                	mv	a3,s7
20000fde:	6dd010ef          	jal	20002eba <__subdf3>
20000fe2:	862a                	mv	a2,a0
20000fe4:	86ae                	mv	a3,a1
20000fe6:	b97d                	j	20000ca4 <__ieee754_log+0x110>
20000fe8:	5462                	lw	s0,56(sp)
20000fea:	5b02                	lw	s6,32(sp)
20000fec:	4bf2                	lw	s7,28(sp)
20000fee:	4d42                	lw	s10,16(sp)
20000ff0:	b9d5                	j	20000ce4 <__ieee754_log+0x150>
20000ff2:	4422                	lw	s0,8(sp)
20000ff4:	44b2                	lw	s1,12(sp)
20000ff6:	f0009697          	auipc	a3,0xf0009
20000ffa:	2a268693          	addi	a3,a3,674 # 1000a298 <_ctype_+0x1d4>
20000ffe:	4290                	lw	a2,0(a3)
20001000:	42d4                	lw	a3,4(a3)
20001002:	c02a                	sw	a0,0(sp)
20001004:	c22e                	sw	a1,4(sp)
20001006:	8522                	mv	a0,s0
20001008:	85a6                	mv	a1,s1
2000100a:	10d010ef          	jal	20002916 <__muldf3>
2000100e:	f0009697          	auipc	a3,0xf0009
20001012:	29268693          	addi	a3,a3,658 # 1000a2a0 <_ctype_+0x1dc>
20001016:	4290                	lw	a2,0(a3)
20001018:	42d4                	lw	a3,4(a3)
2000101a:	892a                	mv	s2,a0
2000101c:	89ae                	mv	s3,a1
2000101e:	8522                	mv	a0,s0
20001020:	85a6                	mv	a1,s1
20001022:	0f5010ef          	jal	20002916 <__muldf3>
20001026:	4702                	lw	a4,0(sp)
20001028:	4792                	lw	a5,4(sp)
2000102a:	862a                	mv	a2,a0
2000102c:	86ae                	mv	a3,a1
2000102e:	853a                	mv	a0,a4
20001030:	85be                	mv	a1,a5
20001032:	b7b1                	j	20000f7e <__ieee754_log+0x3ea>

20001034 <__udivdi3>:
20001034:	8832                	mv	a6,a2
20001036:	87aa                	mv	a5,a0
20001038:	88ae                	mv	a7,a1
2000103a:	e6d5                	bnez	a3,200010e6 <__udivdi3+0xb2>
2000103c:	1cc5f363          	bgeu	a1,a2,20001202 <__udivdi3+0x1ce>
20001040:	6741                	lui	a4,0x10
20001042:	2ce66463          	bltu	a2,a4,2000130a <__udivdi3+0x2d6>
20001046:	01000737          	lui	a4,0x1000
2000104a:	4361                	li	t1,24
2000104c:	00e67363          	bgeu	a2,a4,20001052 <__udivdi3+0x1e>
20001050:	4341                	li	t1,16
20001052:	006656b3          	srl	a3,a2,t1
20001056:	00003717          	auipc	a4,0x3
2000105a:	a2270713          	addi	a4,a4,-1502 # 20003a78 <__clz_tab>
2000105e:	9736                	add	a4,a4,a3
20001060:	00074703          	lbu	a4,0(a4)
20001064:	02000693          	li	a3,32
20001068:	971a                	add	a4,a4,t1
2000106a:	00d70d63          	beq	a4,a3,20001084 <__udivdi3+0x50>
2000106e:	8e99                	sub	a3,a3,a4
20001070:	00d598b3          	sll	a7,a1,a3
20001074:	00e55733          	srl	a4,a0,a4
20001078:	00d61833          	sll	a6,a2,a3
2000107c:	00d517b3          	sll	a5,a0,a3
20001080:	011768b3          	or	a7,a4,a7
20001084:	01085613          	srli	a2,a6,0x10
20001088:	02c8d533          	divu	a0,a7,a2
2000108c:	01081693          	slli	a3,a6,0x10
20001090:	82c1                	srli	a3,a3,0x10
20001092:	0107d713          	srli	a4,a5,0x10
20001096:	02c8f8b3          	remu	a7,a7,a2
2000109a:	02a685b3          	mul	a1,a3,a0
2000109e:	08c2                	slli	a7,a7,0x10
200010a0:	01176733          	or	a4,a4,a7
200010a4:	00b77a63          	bgeu	a4,a1,200010b8 <__udivdi3+0x84>
200010a8:	00e808b3          	add	a7,a6,a4
200010ac:	8746                	mv	a4,a7
200010ae:	00b8f463          	bgeu	a7,a1,200010b6 <__udivdi3+0x82>
200010b2:	2d08f163          	bgeu	a7,a6,20001374 <__udivdi3+0x340>
200010b6:	157d                	addi	a0,a0,-1
200010b8:	8f0d                	sub	a4,a4,a1
200010ba:	02c755b3          	divu	a1,a4,a2
200010be:	07c2                	slli	a5,a5,0x10
200010c0:	83c1                	srli	a5,a5,0x10
200010c2:	02c77733          	remu	a4,a4,a2
200010c6:	02b686b3          	mul	a3,a3,a1
200010ca:	0742                	slli	a4,a4,0x10
200010cc:	8fd9                	or	a5,a5,a4
200010ce:	00d7f863          	bgeu	a5,a3,200010de <__udivdi3+0xaa>
200010d2:	97c2                	add	a5,a5,a6
200010d4:	00d7f463          	bgeu	a5,a3,200010dc <__udivdi3+0xa8>
200010d8:	2907fc63          	bgeu	a5,a6,20001370 <__udivdi3+0x33c>
200010dc:	15fd                	addi	a1,a1,-1
200010de:	0542                	slli	a0,a0,0x10
200010e0:	8d4d                	or	a0,a0,a1
200010e2:	4581                	li	a1,0
200010e4:	8082                	ret
200010e6:	00d5f563          	bgeu	a1,a3,200010f0 <__udivdi3+0xbc>
200010ea:	4581                	li	a1,0
200010ec:	4501                	li	a0,0
200010ee:	8082                	ret
200010f0:	67c1                	lui	a5,0x10
200010f2:	22f6e563          	bltu	a3,a5,2000131c <__udivdi3+0x2e8>
200010f6:	01000737          	lui	a4,0x1000
200010fa:	47e1                	li	a5,24
200010fc:	00e6f363          	bgeu	a3,a4,20001102 <__udivdi3+0xce>
20001100:	47c1                	li	a5,16
20001102:	00f6d833          	srl	a6,a3,a5
20001106:	00003717          	auipc	a4,0x3
2000110a:	97270713          	addi	a4,a4,-1678 # 20003a78 <__clz_tab>
2000110e:	9742                	add	a4,a4,a6
20001110:	00074703          	lbu	a4,0(a4)
20001114:	02000813          	li	a6,32
20001118:	973e                	add	a4,a4,a5
2000111a:	21070763          	beq	a4,a6,20001328 <__udivdi3+0x2f4>
2000111e:	40e80833          	sub	a6,a6,a4
20001122:	00e658b3          	srl	a7,a2,a4
20001126:	010696b3          	sll	a3,a3,a6
2000112a:	00d8e8b3          	or	a7,a7,a3
2000112e:	00e5d333          	srl	t1,a1,a4
20001132:	0108de93          	srli	t4,a7,0x10
20001136:	03d357b3          	divu	a5,t1,t4
2000113a:	01089e13          	slli	t3,a7,0x10
2000113e:	010595b3          	sll	a1,a1,a6
20001142:	010e5e13          	srli	t3,t3,0x10
20001146:	00e55733          	srl	a4,a0,a4
2000114a:	8f4d                	or	a4,a4,a1
2000114c:	01075693          	srli	a3,a4,0x10
20001150:	01061633          	sll	a2,a2,a6
20001154:	03d37333          	remu	t1,t1,t4
20001158:	02fe05b3          	mul	a1,t3,a5
2000115c:	0342                	slli	t1,t1,0x10
2000115e:	0066e6b3          	or	a3,a3,t1
20001162:	00b6fa63          	bgeu	a3,a1,20001176 <__udivdi3+0x142>
20001166:	00d88333          	add	t1,a7,a3
2000116a:	869a                	mv	a3,t1
2000116c:	00b37463          	bgeu	t1,a1,20001174 <__udivdi3+0x140>
20001170:	23137563          	bgeu	t1,a7,2000139a <__udivdi3+0x366>
20001174:	17fd                	addi	a5,a5,-1 # ffff <HeapSize+0xf7ff>
20001176:	8e8d                	sub	a3,a3,a1
20001178:	03d6d333          	divu	t1,a3,t4
2000117c:	0742                	slli	a4,a4,0x10
2000117e:	8341                	srli	a4,a4,0x10
20001180:	03d6f6b3          	remu	a3,a3,t4
20001184:	026e05b3          	mul	a1,t3,t1
20001188:	06c2                	slli	a3,a3,0x10
2000118a:	8f55                	or	a4,a4,a3
2000118c:	00b77a63          	bgeu	a4,a1,200011a0 <__udivdi3+0x16c>
20001190:	00e886b3          	add	a3,a7,a4
20001194:	8736                	mv	a4,a3
20001196:	00b6f463          	bgeu	a3,a1,2000119e <__udivdi3+0x16a>
2000119a:	1f16f863          	bgeu	a3,a7,2000138a <__udivdi3+0x356>
2000119e:	137d                	addi	t1,t1,-1
200011a0:	07c2                	slli	a5,a5,0x10
200011a2:	0067e6b3          	or	a3,a5,t1
200011a6:	8f0d                	sub	a4,a4,a1
200011a8:	01061793          	slli	a5,a2,0x10
200011ac:	01031593          	slli	a1,t1,0x10
200011b0:	83c1                	srli	a5,a5,0x10
200011b2:	81c1                	srli	a1,a1,0x10
200011b4:	0106d313          	srli	t1,a3,0x10
200011b8:	8241                	srli	a2,a2,0x10
200011ba:	02f30e33          	mul	t3,t1,a5
200011be:	02f588b3          	mul	a7,a1,a5
200011c2:	02c585b3          	mul	a1,a1,a2
200011c6:	0108d793          	srli	a5,a7,0x10
200011ca:	95f2                	add	a1,a1,t3
200011cc:	97ae                	add	a5,a5,a1
200011ce:	02c30333          	mul	t1,t1,a2
200011d2:	01c7f463          	bgeu	a5,t3,200011da <__udivdi3+0x1a6>
200011d6:	6641                	lui	a2,0x10
200011d8:	9332                	add	t1,t1,a2
200011da:	0107d613          	srli	a2,a5,0x10
200011de:	961a                	add	a2,a2,t1
200011e0:	00c76d63          	bltu	a4,a2,200011fa <__udivdi3+0x1c6>
200011e4:	08c2                	slli	a7,a7,0x10
200011e6:	0108d893          	srli	a7,a7,0x10
200011ea:	07c2                	slli	a5,a5,0x10
200011ec:	01051533          	sll	a0,a0,a6
200011f0:	97c6                	add	a5,a5,a7
200011f2:	18f57563          	bgeu	a0,a5,2000137c <__udivdi3+0x348>
200011f6:	18c71363          	bne	a4,a2,2000137c <__udivdi3+0x348>
200011fa:	fff68513          	addi	a0,a3,-1
200011fe:	4581                	li	a1,0
20001200:	8082                	ret
20001202:	10060a63          	beqz	a2,20001316 <__udivdi3+0x2e2>
20001206:	6741                	lui	a4,0x10
20001208:	14e67263          	bgeu	a2,a4,2000134c <__udivdi3+0x318>
2000120c:	10063893          	sltiu	a7,a2,256
20001210:	0018b893          	seqz	a7,a7
20001214:	088e                	slli	a7,a7,0x3
20001216:	011656b3          	srl	a3,a2,a7
2000121a:	00003717          	auipc	a4,0x3
2000121e:	85e70713          	addi	a4,a4,-1954 # 20003a78 <__clz_tab>
20001222:	9736                	add	a4,a4,a3
20001224:	00074703          	lbu	a4,0(a4)
20001228:	02000693          	li	a3,32
2000122c:	9746                	add	a4,a4,a7
2000122e:	10d70763          	beq	a4,a3,2000133c <__udivdi3+0x308>
20001232:	40e687b3          	sub	a5,a3,a4
20001236:	00f61833          	sll	a6,a2,a5
2000123a:	00e5d333          	srl	t1,a1,a4
2000123e:	01085893          	srli	a7,a6,0x10
20001242:	03135e33          	divu	t3,t1,a7
20001246:	01081613          	slli	a2,a6,0x10
2000124a:	00f595b3          	sll	a1,a1,a5
2000124e:	8241                	srli	a2,a2,0x10
20001250:	00e55733          	srl	a4,a0,a4
20001254:	8f4d                	or	a4,a4,a1
20001256:	01075693          	srli	a3,a4,0x10
2000125a:	00f517b3          	sll	a5,a0,a5
2000125e:	03137333          	remu	t1,t1,a7
20001262:	03c605b3          	mul	a1,a2,t3
20001266:	0342                	slli	t1,t1,0x10
20001268:	0066e6b3          	or	a3,a3,t1
2000126c:	00b6fa63          	bgeu	a3,a1,20001280 <__udivdi3+0x24c>
20001270:	00d80533          	add	a0,a6,a3
20001274:	86aa                	mv	a3,a0
20001276:	00b57463          	bgeu	a0,a1,2000127e <__udivdi3+0x24a>
2000127a:	11057463          	bgeu	a0,a6,20001382 <__udivdi3+0x34e>
2000127e:	1e7d                	addi	t3,t3,-1
20001280:	8e8d                	sub	a3,a3,a1
20001282:	0316d533          	divu	a0,a3,a7
20001286:	0742                	slli	a4,a4,0x10
20001288:	8341                	srli	a4,a4,0x10
2000128a:	0316f6b3          	remu	a3,a3,a7
2000128e:	02a60333          	mul	t1,a2,a0
20001292:	06c2                	slli	a3,a3,0x10
20001294:	8f55                	or	a4,a4,a3
20001296:	00677a63          	bgeu	a4,t1,200012aa <__udivdi3+0x276>
2000129a:	00e806b3          	add	a3,a6,a4
2000129e:	8736                	mv	a4,a3
200012a0:	0066f463          	bgeu	a3,t1,200012a8 <__udivdi3+0x274>
200012a4:	0f06f763          	bgeu	a3,a6,20001392 <__udivdi3+0x35e>
200012a8:	157d                	addi	a0,a0,-1
200012aa:	010e1593          	slli	a1,t3,0x10
200012ae:	8dc9                	or	a1,a1,a0
200012b0:	40670733          	sub	a4,a4,t1
200012b4:	03175533          	divu	a0,a4,a7
200012b8:	0107d693          	srli	a3,a5,0x10
200012bc:	03177733          	remu	a4,a4,a7
200012c0:	02c50333          	mul	t1,a0,a2
200012c4:	0742                	slli	a4,a4,0x10
200012c6:	8f55                	or	a4,a4,a3
200012c8:	00677a63          	bgeu	a4,t1,200012dc <__udivdi3+0x2a8>
200012cc:	00e806b3          	add	a3,a6,a4
200012d0:	8736                	mv	a4,a3
200012d2:	0066f463          	bgeu	a3,t1,200012da <__udivdi3+0x2a6>
200012d6:	0906f963          	bgeu	a3,a6,20001368 <__udivdi3+0x334>
200012da:	157d                	addi	a0,a0,-1
200012dc:	40670733          	sub	a4,a4,t1
200012e0:	031756b3          	divu	a3,a4,a7
200012e4:	07c2                	slli	a5,a5,0x10
200012e6:	83c1                	srli	a5,a5,0x10
200012e8:	03177733          	remu	a4,a4,a7
200012ec:	02c68633          	mul	a2,a3,a2
200012f0:	0742                	slli	a4,a4,0x10
200012f2:	8fd9                	or	a5,a5,a4
200012f4:	00c7f863          	bgeu	a5,a2,20001304 <__udivdi3+0x2d0>
200012f8:	97c2                	add	a5,a5,a6
200012fa:	00c7f463          	bgeu	a5,a2,20001302 <__udivdi3+0x2ce>
200012fe:	0707f363          	bgeu	a5,a6,20001364 <__udivdi3+0x330>
20001302:	16fd                	addi	a3,a3,-1
20001304:	0542                	slli	a0,a0,0x10
20001306:	8d55                	or	a0,a0,a3
20001308:	8082                	ret
2000130a:	10063313          	sltiu	t1,a2,256
2000130e:	00133313          	seqz	t1,t1
20001312:	030e                	slli	t1,t1,0x3
20001314:	bb3d                	j	20001052 <__udivdi3+0x1e>
20001316:	4681                	li	a3,0
20001318:	4881                	li	a7,0
2000131a:	b701                	j	2000121a <__udivdi3+0x1e6>
2000131c:	1006b793          	sltiu	a5,a3,256
20001320:	0017b793          	seqz	a5,a5
20001324:	078e                	slli	a5,a5,0x3
20001326:	bbf1                	j	20001102 <__udivdi3+0xce>
20001328:	00c53633          	sltu	a2,a0,a2
2000132c:	00b6b6b3          	sltu	a3,a3,a1
20001330:	00163613          	seqz	a2,a2
20001334:	00c6e533          	or	a0,a3,a2
20001338:	4581                	li	a1,0
2000133a:	8082                	ret
2000133c:	40c58733          	sub	a4,a1,a2
20001340:	01065893          	srli	a7,a2,0x10
20001344:	0642                	slli	a2,a2,0x10
20001346:	8241                	srli	a2,a2,0x10
20001348:	4585                	li	a1,1
2000134a:	b7ad                	j	200012b4 <__udivdi3+0x280>
2000134c:	01000737          	lui	a4,0x1000
20001350:	00e67663          	bgeu	a2,a4,2000135c <__udivdi3+0x328>
20001354:	01065693          	srli	a3,a2,0x10
20001358:	48c1                	li	a7,16
2000135a:	b5c1                	j	2000121a <__udivdi3+0x1e6>
2000135c:	01865693          	srli	a3,a2,0x18
20001360:	48e1                	li	a7,24
20001362:	bd65                	j	2000121a <__udivdi3+0x1e6>
20001364:	16f9                	addi	a3,a3,-2
20001366:	bf79                	j	20001304 <__udivdi3+0x2d0>
20001368:	1579                	addi	a0,a0,-2
2000136a:	01068733          	add	a4,a3,a6
2000136e:	b7bd                	j	200012dc <__udivdi3+0x2a8>
20001370:	15f9                	addi	a1,a1,-2
20001372:	b3b5                	j	200010de <__udivdi3+0xaa>
20001374:	1579                	addi	a0,a0,-2
20001376:	01088733          	add	a4,a7,a6
2000137a:	bb3d                	j	200010b8 <__udivdi3+0x84>
2000137c:	8536                	mv	a0,a3
2000137e:	4581                	li	a1,0
20001380:	8082                	ret
20001382:	1e79                	addi	t3,t3,-2
20001384:	010506b3          	add	a3,a0,a6
20001388:	bde5                	j	20001280 <__udivdi3+0x24c>
2000138a:	1379                	addi	t1,t1,-2
2000138c:	01168733          	add	a4,a3,a7
20001390:	bd01                	j	200011a0 <__udivdi3+0x16c>
20001392:	1579                	addi	a0,a0,-2
20001394:	01068733          	add	a4,a3,a6
20001398:	bf09                	j	200012aa <__udivdi3+0x276>
2000139a:	17f9                	addi	a5,a5,-2
2000139c:	011306b3          	add	a3,t1,a7
200013a0:	bbd9                	j	20001176 <__udivdi3+0x142>

200013a2 <__umoddi3>:
200013a2:	8832                	mv	a6,a2
200013a4:	88aa                	mv	a7,a0
200013a6:	832e                	mv	t1,a1
200013a8:	872e                	mv	a4,a1
200013aa:	e6e1                	bnez	a3,20001472 <__umoddi3+0xd0>
200013ac:	20c5f463          	bgeu	a1,a2,200015b4 <__umoddi3+0x212>
200013b0:	67c1                	lui	a5,0x10
200013b2:	32f66b63          	bltu	a2,a5,200016e8 <__umoddi3+0x346>
200013b6:	010007b7          	lui	a5,0x1000
200013ba:	46e1                	li	a3,24
200013bc:	00f67363          	bgeu	a2,a5,200013c2 <__umoddi3+0x20>
200013c0:	46c1                	li	a3,16
200013c2:	00d65333          	srl	t1,a2,a3
200013c6:	00002797          	auipc	a5,0x2
200013ca:	6b278793          	addi	a5,a5,1714 # 20003a78 <__clz_tab>
200013ce:	979a                	add	a5,a5,t1
200013d0:	0007c783          	lbu	a5,0(a5)
200013d4:	02000313          	li	t1,32
200013d8:	97b6                	add	a5,a5,a3
200013da:	40f306b3          	sub	a3,t1,a5
200013de:	00678b63          	beq	a5,t1,200013f4 <__umoddi3+0x52>
200013e2:	00d59733          	sll	a4,a1,a3
200013e6:	00f557b3          	srl	a5,a0,a5
200013ea:	8f5d                	or	a4,a4,a5
200013ec:	00d61833          	sll	a6,a2,a3
200013f0:	00d518b3          	sll	a7,a0,a3
200013f4:	01085593          	srli	a1,a6,0x10
200013f8:	02b75633          	divu	a2,a4,a1
200013fc:	01081313          	slli	t1,a6,0x10
20001400:	01035313          	srli	t1,t1,0x10
20001404:	0108d793          	srli	a5,a7,0x10
20001408:	02b77733          	remu	a4,a4,a1
2000140c:	02660633          	mul	a2,a2,t1
20001410:	0742                	slli	a4,a4,0x10
20001412:	8fd9                	or	a5,a5,a4
20001414:	00c7ff63          	bgeu	a5,a2,20001432 <__umoddi3+0x90>
20001418:	97c2                	add	a5,a5,a6
2000141a:	0107b533          	sltu	a0,a5,a6
2000141e:	00c7b733          	sltu	a4,a5,a2
20001422:	00153513          	seqz	a0,a0
20001426:	8f69                	and	a4,a4,a0
20001428:	40e00733          	neg	a4,a4
2000142c:	01077733          	and	a4,a4,a6
20001430:	97ba                	add	a5,a5,a4
20001432:	8f91                	sub	a5,a5,a2
20001434:	02b7d733          	divu	a4,a5,a1
20001438:	01089513          	slli	a0,a7,0x10
2000143c:	8141                	srli	a0,a0,0x10
2000143e:	02b7f7b3          	remu	a5,a5,a1
20001442:	02670733          	mul	a4,a4,t1
20001446:	07c2                	slli	a5,a5,0x10
20001448:	8d5d                	or	a0,a0,a5
2000144a:	00e57f63          	bgeu	a0,a4,20001468 <__umoddi3+0xc6>
2000144e:	9542                	add	a0,a0,a6
20001450:	01053633          	sltu	a2,a0,a6
20001454:	00e537b3          	sltu	a5,a0,a4
20001458:	00163613          	seqz	a2,a2
2000145c:	8ff1                	and	a5,a5,a2
2000145e:	40f007b3          	neg	a5,a5
20001462:	0107f7b3          	and	a5,a5,a6
20001466:	953e                	add	a0,a0,a5
20001468:	8d19                	sub	a0,a0,a4
2000146a:	00d55533          	srl	a0,a0,a3
2000146e:	4581                	li	a1,0
20001470:	8082                	ret
20001472:	8e2a                	mv	t3,a0
20001474:	00d5f363          	bgeu	a1,a3,2000147a <__umoddi3+0xd8>
20001478:	8082                	ret
2000147a:	67c1                	lui	a5,0x10
2000147c:	26f6ef63          	bltu	a3,a5,200016fa <__umoddi3+0x358>
20001480:	01000737          	lui	a4,0x1000
20001484:	47e1                	li	a5,24
20001486:	00e6f363          	bgeu	a3,a4,2000148c <__umoddi3+0xea>
2000148a:	47c1                	li	a5,16
2000148c:	00f6d833          	srl	a6,a3,a5
20001490:	00002717          	auipc	a4,0x2
20001494:	5e870713          	addi	a4,a4,1512 # 20003a78 <__clz_tab>
20001498:	9742                	add	a4,a4,a6
2000149a:	00074883          	lbu	a7,0(a4)
2000149e:	02000813          	li	a6,32
200014a2:	98be                	add	a7,a7,a5
200014a4:	27088163          	beq	a7,a6,20001706 <__umoddi3+0x364>
200014a8:	41180833          	sub	a6,a6,a7
200014ac:	010696b3          	sll	a3,a3,a6
200014b0:	01165333          	srl	t1,a2,a7
200014b4:	00d36333          	or	t1,t1,a3
200014b8:	0115deb3          	srl	t4,a1,a7
200014bc:	01035f93          	srli	t6,t1,0x10
200014c0:	03fed7b3          	divu	a5,t4,t6
200014c4:	01031f13          	slli	t5,t1,0x10
200014c8:	010595b3          	sll	a1,a1,a6
200014cc:	010f5f13          	srli	t5,t5,0x10
200014d0:	011556b3          	srl	a3,a0,a7
200014d4:	8ecd                	or	a3,a3,a1
200014d6:	0106d713          	srli	a4,a3,0x10
200014da:	01061633          	sll	a2,a2,a6
200014de:	01051e33          	sll	t3,a0,a6
200014e2:	03fefeb3          	remu	t4,t4,t6
200014e6:	02ff05b3          	mul	a1,t5,a5
200014ea:	0ec2                	slli	t4,t4,0x10
200014ec:	01d76733          	or	a4,a4,t4
200014f0:	00b77a63          	bgeu	a4,a1,20001504 <__umoddi3+0x162>
200014f4:	00e30533          	add	a0,t1,a4
200014f8:	872a                	mv	a4,a0
200014fa:	00b57463          	bgeu	a0,a1,20001502 <__umoddi3+0x160>
200014fe:	24657b63          	bgeu	a0,t1,20001754 <__umoddi3+0x3b2>
20001502:	17fd                	addi	a5,a5,-1 # ffff <HeapSize+0xf7ff>
20001504:	8f0d                	sub	a4,a4,a1
20001506:	03f75533          	divu	a0,a4,t6
2000150a:	06c2                	slli	a3,a3,0x10
2000150c:	82c1                	srli	a3,a3,0x10
2000150e:	03f77733          	remu	a4,a4,t6
20001512:	02af05b3          	mul	a1,t5,a0
20001516:	0742                	slli	a4,a4,0x10
20001518:	8f55                	or	a4,a4,a3
2000151a:	00b77a63          	bgeu	a4,a1,2000152e <__umoddi3+0x18c>
2000151e:	00e306b3          	add	a3,t1,a4
20001522:	8736                	mv	a4,a3
20001524:	00b6f463          	bgeu	a3,a1,2000152c <__umoddi3+0x18a>
20001528:	2266f263          	bgeu	a3,t1,2000174c <__umoddi3+0x3aa>
2000152c:	157d                	addi	a0,a0,-1
2000152e:	07c2                	slli	a5,a5,0x10
20001530:	8fc9                	or	a5,a5,a0
20001532:	8f0d                	sub	a4,a4,a1
20001534:	01061693          	slli	a3,a2,0x10
20001538:	01051593          	slli	a1,a0,0x10
2000153c:	81c1                	srli	a1,a1,0x10
2000153e:	82c1                	srli	a3,a3,0x10
20001540:	83c1                	srli	a5,a5,0x10
20001542:	01065e93          	srli	t4,a2,0x10
20001546:	02d78f33          	mul	t5,a5,a3
2000154a:	02d586b3          	mul	a3,a1,a3
2000154e:	03d585b3          	mul	a1,a1,t4
20001552:	0106d513          	srli	a0,a3,0x10
20001556:	95fa                	add	a1,a1,t5
20001558:	952e                	add	a0,a0,a1
2000155a:	03d787b3          	mul	a5,a5,t4
2000155e:	01e57463          	bgeu	a0,t5,20001566 <__umoddi3+0x1c4>
20001562:	65c1                	lui	a1,0x10
20001564:	97ae                	add	a5,a5,a1
20001566:	01055593          	srli	a1,a0,0x10
2000156a:	06c2                	slli	a3,a3,0x10
2000156c:	82c1                	srli	a3,a3,0x10
2000156e:	0542                	slli	a0,a0,0x10
20001570:	97ae                	add	a5,a5,a1
20001572:	9536                	add	a0,a0,a3
20001574:	00f76863          	bltu	a4,a5,20001584 <__umoddi3+0x1e2>
20001578:	40f705b3          	sub	a1,a4,a5
2000157c:	00f71d63          	bne	a4,a5,20001596 <__umoddi3+0x1f4>
20001580:	00ae7b63          	bgeu	t3,a0,20001596 <__umoddi3+0x1f4>
20001584:	40c50633          	sub	a2,a0,a2
20001588:	00c53533          	sltu	a0,a0,a2
2000158c:	951a                	add	a0,a0,t1
2000158e:	8f89                	sub	a5,a5,a0
20001590:	40f705b3          	sub	a1,a4,a5
20001594:	8532                	mv	a0,a2
20001596:	40ae0533          	sub	a0,t3,a0
2000159a:	00ae3e33          	sltu	t3,t3,a0
2000159e:	41c585b3          	sub	a1,a1,t3
200015a2:	011598b3          	sll	a7,a1,a7
200015a6:	01055533          	srl	a0,a0,a6
200015aa:	0105d5b3          	srl	a1,a1,a6
200015ae:	00a8e533          	or	a0,a7,a0
200015b2:	8082                	ret
200015b4:	14060063          	beqz	a2,200016f4 <__umoddi3+0x352>
200015b8:	67c1                	lui	a5,0x10
200015ba:	16f67463          	bgeu	a2,a5,20001722 <__umoddi3+0x380>
200015be:	10063713          	sltiu	a4,a2,256
200015c2:	00173713          	seqz	a4,a4
200015c6:	070e                	slli	a4,a4,0x3
200015c8:	00e656b3          	srl	a3,a2,a4
200015cc:	00002797          	auipc	a5,0x2
200015d0:	4ac78793          	addi	a5,a5,1196 # 20003a78 <__clz_tab>
200015d4:	97b6                	add	a5,a5,a3
200015d6:	0007c783          	lbu	a5,0(a5)
200015da:	02000313          	li	t1,32
200015de:	97ba                	add	a5,a5,a4
200015e0:	40f306b3          	sub	a3,t1,a5
200015e4:	12678863          	beq	a5,t1,20001714 <__umoddi3+0x372>
200015e8:	00d61833          	sll	a6,a2,a3
200015ec:	00f5de33          	srl	t3,a1,a5
200015f0:	01085313          	srli	t1,a6,0x10
200015f4:	026e5eb3          	divu	t4,t3,t1
200015f8:	01081613          	slli	a2,a6,0x10
200015fc:	00d595b3          	sll	a1,a1,a3
20001600:	00f55733          	srl	a4,a0,a5
20001604:	8241                	srli	a2,a2,0x10
20001606:	8f4d                	or	a4,a4,a1
20001608:	01075793          	srli	a5,a4,0x10
2000160c:	00d518b3          	sll	a7,a0,a3
20001610:	026e7e33          	remu	t3,t3,t1
20001614:	02ce85b3          	mul	a1,t4,a2
20001618:	0e42                	slli	t3,t3,0x10
2000161a:	01c7e7b3          	or	a5,a5,t3
2000161e:	02b7f063          	bgeu	a5,a1,2000163e <__umoddi3+0x29c>
20001622:	97c2                	add	a5,a5,a6
20001624:	0107be33          	sltu	t3,a5,a6
20001628:	00b7b533          	sltu	a0,a5,a1
2000162c:	001e3e13          	seqz	t3,t3
20001630:	01c57533          	and	a0,a0,t3
20001634:	40a00533          	neg	a0,a0
20001638:	01057533          	and	a0,a0,a6
2000163c:	97aa                	add	a5,a5,a0
2000163e:	8f8d                	sub	a5,a5,a1
20001640:	0267d5b3          	divu	a1,a5,t1
20001644:	0742                	slli	a4,a4,0x10
20001646:	8341                	srli	a4,a4,0x10
20001648:	0267f7b3          	remu	a5,a5,t1
2000164c:	02c585b3          	mul	a1,a1,a2
20001650:	07c2                	slli	a5,a5,0x10
20001652:	8f5d                	or	a4,a4,a5
20001654:	00b77f63          	bgeu	a4,a1,20001672 <__umoddi3+0x2d0>
20001658:	9742                	add	a4,a4,a6
2000165a:	01073533          	sltu	a0,a4,a6
2000165e:	00b737b3          	sltu	a5,a4,a1
20001662:	00153513          	seqz	a0,a0
20001666:	8fe9                	and	a5,a5,a0
20001668:	40f007b3          	neg	a5,a5
2000166c:	0107f7b3          	and	a5,a5,a6
20001670:	973e                	add	a4,a4,a5
20001672:	8f0d                	sub	a4,a4,a1
20001674:	026755b3          	divu	a1,a4,t1
20001678:	0108d793          	srli	a5,a7,0x10
2000167c:	02677733          	remu	a4,a4,t1
20001680:	02c585b3          	mul	a1,a1,a2
20001684:	0742                	slli	a4,a4,0x10
20001686:	8fd9                	or	a5,a5,a4
20001688:	00b7ff63          	bgeu	a5,a1,200016a6 <__umoddi3+0x304>
2000168c:	97c2                	add	a5,a5,a6
2000168e:	0107b533          	sltu	a0,a5,a6
20001692:	00b7b733          	sltu	a4,a5,a1
20001696:	00153513          	seqz	a0,a0
2000169a:	8f69                	and	a4,a4,a0
2000169c:	40e00733          	neg	a4,a4
200016a0:	01077733          	and	a4,a4,a6
200016a4:	97ba                	add	a5,a5,a4
200016a6:	8f8d                	sub	a5,a5,a1
200016a8:	0267d733          	divu	a4,a5,t1
200016ac:	08c2                	slli	a7,a7,0x10
200016ae:	0108d893          	srli	a7,a7,0x10
200016b2:	0267f533          	remu	a0,a5,t1
200016b6:	02c707b3          	mul	a5,a4,a2
200016ba:	0542                	slli	a0,a0,0x10
200016bc:	00a8e533          	or	a0,a7,a0
200016c0:	00f57f63          	bgeu	a0,a5,200016de <__umoddi3+0x33c>
200016c4:	9542                	add	a0,a0,a6
200016c6:	01053633          	sltu	a2,a0,a6
200016ca:	00f53733          	sltu	a4,a0,a5
200016ce:	00163613          	seqz	a2,a2
200016d2:	8f71                	and	a4,a4,a2
200016d4:	40e00733          	neg	a4,a4
200016d8:	01077733          	and	a4,a4,a6
200016dc:	953a                	add	a0,a0,a4
200016de:	8d1d                	sub	a0,a0,a5
200016e0:	00d55533          	srl	a0,a0,a3
200016e4:	4581                	li	a1,0
200016e6:	8082                	ret
200016e8:	10063693          	sltiu	a3,a2,256
200016ec:	0016b693          	seqz	a3,a3
200016f0:	068e                	slli	a3,a3,0x3
200016f2:	b9c1                	j	200013c2 <__umoddi3+0x20>
200016f4:	4681                	li	a3,0
200016f6:	4701                	li	a4,0
200016f8:	bdd1                	j	200015cc <__umoddi3+0x22a>
200016fa:	1006b793          	sltiu	a5,a3,256
200016fe:	0017b793          	seqz	a5,a5
20001702:	078e                	slli	a5,a5,0x3
20001704:	b361                	j	2000148c <__umoddi3+0xea>
20001706:	02b6ea63          	bltu	a3,a1,2000173a <__umoddi3+0x398>
2000170a:	02c57863          	bgeu	a0,a2,2000173a <__umoddi3+0x398>
2000170e:	8572                	mv	a0,t3
20001710:	859a                	mv	a1,t1
20001712:	8082                	ret
20001714:	40c58733          	sub	a4,a1,a2
20001718:	01065313          	srli	t1,a2,0x10
2000171c:	0642                	slli	a2,a2,0x10
2000171e:	8241                	srli	a2,a2,0x10
20001720:	bf91                	j	20001674 <__umoddi3+0x2d2>
20001722:	010007b7          	lui	a5,0x1000
20001726:	00f67663          	bgeu	a2,a5,20001732 <__umoddi3+0x390>
2000172a:	01065693          	srli	a3,a2,0x10
2000172e:	4741                	li	a4,16
20001730:	bd71                	j	200015cc <__umoddi3+0x22a>
20001732:	01865693          	srli	a3,a2,0x18
20001736:	4761                	li	a4,24
20001738:	bd51                	j	200015cc <__umoddi3+0x22a>
2000173a:	40c50e33          	sub	t3,a0,a2
2000173e:	01c53333          	sltu	t1,a0,t3
20001742:	40d586b3          	sub	a3,a1,a3
20001746:	40668333          	sub	t1,a3,t1
2000174a:	b7d1                	j	2000170e <__umoddi3+0x36c>
2000174c:	1579                	addi	a0,a0,-2
2000174e:	00668733          	add	a4,a3,t1
20001752:	bbf1                	j	2000152e <__umoddi3+0x18c>
20001754:	17f9                	addi	a5,a5,-2 # fffffe <HeapSize+0xfff7fe>
20001756:	00650733          	add	a4,a0,t1
2000175a:	b36d                	j	20001504 <__umoddi3+0x162>

2000175c <__adddf3>:
2000175c:	00100337          	lui	t1,0x100
20001760:	137d                	addi	t1,t1,-1 # fffff <HeapSize+0xff7ff>
20001762:	00b377b3          	and	a5,t1,a1
20001766:	00d37e33          	and	t3,t1,a3
2000176a:	0145d813          	srli	a6,a1,0x14
2000176e:	0146d893          	srli	a7,a3,0x14
20001772:	078e                	slli	a5,a5,0x3
20001774:	1101                	addi	sp,sp,-32
20001776:	01d55713          	srli	a4,a0,0x1d
2000177a:	8f5d                	or	a4,a4,a5
2000177c:	0e0e                	slli	t3,t3,0x3
2000177e:	01d65793          	srli	a5,a2,0x1d
20001782:	7ff87813          	andi	a6,a6,2047
20001786:	7ff8f893          	andi	a7,a7,2047
2000178a:	ce06                	sw	ra,28(sp)
2000178c:	81fd                	srli	a1,a1,0x1f
2000178e:	82fd                	srli	a3,a3,0x1f
20001790:	01c7e7b3          	or	a5,a5,t3
20001794:	41180eb3          	sub	t4,a6,a7
20001798:	00351f13          	slli	t5,a0,0x3
2000179c:	00361f93          	slli	t6,a2,0x3
200017a0:	14d58d63          	beq	a1,a3,200018fa <__adddf3+0x19e>
200017a4:	832a                	mv	t1,a0
200017a6:	0dd05763          	blez	t4,20001874 <__adddf3+0x118>
200017aa:	1e088763          	beqz	a7,20001998 <__adddf3+0x23c>
200017ae:	7ff00693          	li	a3,2047
200017b2:	40d80463          	beq	a6,a3,20001bba <__adddf3+0x45e>
200017b6:	03800693          	li	a3,56
200017ba:	1fd6cf63          	blt	a3,t4,200019b8 <__adddf3+0x25c>
200017be:	008006b7          	lui	a3,0x800
200017c2:	8fd5                	or	a5,a5,a3
200017c4:	46fd                	li	a3,31
200017c6:	4fd6c863          	blt	a3,t4,20001cb6 <__adddf3+0x55a>
200017ca:	02000693          	li	a3,32
200017ce:	41d686b3          	sub	a3,a3,t4
200017d2:	00d79633          	sll	a2,a5,a3
200017d6:	00df96b3          	sll	a3,t6,a3
200017da:	01dfdfb3          	srl	t6,t6,t4
200017de:	00d036b3          	snez	a3,a3
200017e2:	01f66633          	or	a2,a2,t6
200017e6:	01d7deb3          	srl	t4,a5,t4
200017ea:	8e55                	or	a2,a2,a3
200017ec:	41d70733          	sub	a4,a4,t4
200017f0:	40cf0633          	sub	a2,t5,a2
200017f4:	00cf37b3          	sltu	a5,t5,a2
200017f8:	8f1d                	sub	a4,a4,a5
200017fa:	00871793          	slli	a5,a4,0x8
200017fe:	3607d263          	bgez	a5,20001b62 <__adddf3+0x406>
20001802:	0726                	slli	a4,a4,0x9
20001804:	8325                	srli	a4,a4,0x9
20001806:	1c071763          	bnez	a4,200019d4 <__adddf3+0x278>
2000180a:	8532                	mv	a0,a2
2000180c:	c63a                	sw	a4,12(sp)
2000180e:	c442                	sw	a6,8(sp)
20001810:	c22e                	sw	a1,4(sp)
20001812:	c032                	sw	a2,0(sp)
20001814:	1b0020ef          	jal	200039c4 <__clzsi2>
20001818:	01850693          	addi	a3,a0,24
2000181c:	48fd                	li	a7,31
2000181e:	4602                	lw	a2,0(sp)
20001820:	4592                	lw	a1,4(sp)
20001822:	4822                	lw	a6,8(sp)
20001824:	4701                	li	a4,0
20001826:	1cd8d463          	bge	a7,a3,200019ee <__adddf3+0x292>
2000182a:	ff850793          	addi	a5,a0,-8
2000182e:	00f617b3          	sll	a5,a2,a5
20001832:	4b06c863          	blt	a3,a6,20001ce2 <__adddf3+0x586>
20001836:	41068633          	sub	a2,a3,a6
2000183a:	00160693          	addi	a3,a2,1 # 10001 <HeapSize+0xf801>
2000183e:	7ad8da63          	bge	a7,a3,20001ff2 <__adddf3+0x896>
20001842:	1605                	addi	a2,a2,-31
20001844:	02000513          	li	a0,32
20001848:	00c7d633          	srl	a2,a5,a2
2000184c:	00a68b63          	beq	a3,a0,20001862 <__adddf3+0x106>
20001850:	04000513          	li	a0,64
20001854:	40d506b3          	sub	a3,a0,a3
20001858:	00d797b3          	sll	a5,a5,a3
2000185c:	00f037b3          	snez	a5,a5
20001860:	8e5d                	or	a2,a2,a5
20001862:	26060763          	beqz	a2,20001ad0 <__adddf3+0x374>
20001866:	00767793          	andi	a5,a2,7
2000186a:	1c079863          	bnez	a5,20001a3a <__adddf3+0x2de>
2000186e:	8f32                	mv	t5,a2
20001870:	4701                	li	a4,0
20001872:	a409                	j	20001a74 <__adddf3+0x318>
20001874:	1e0e8063          	beqz	t4,20001a54 <__adddf3+0x2f8>
20001878:	41088333          	sub	t1,a7,a6
2000187c:	38081e63          	bnez	a6,20001c18 <__adddf3+0x4bc>
20001880:	01e765b3          	or	a1,a4,t5
20001884:	50058563          	beqz	a1,20001d8e <__adddf3+0x632>
20001888:	fff30593          	addi	a1,t1,-1
2000188c:	62058c63          	beqz	a1,20001ec4 <__adddf3+0x768>
20001890:	7ff00513          	li	a0,2047
20001894:	5aa30863          	beq	t1,a0,20001e44 <__adddf3+0x6e8>
20001898:	03800613          	li	a2,56
2000189c:	72b65563          	bge	a2,a1,20001fc6 <__adddf3+0x86a>
200018a0:	ffff8613          	addi	a2,t6,-1
200018a4:	00cfbfb3          	sltu	t6,t6,a2
200018a8:	41f78733          	sub	a4,a5,t6
200018ac:	00871593          	slli	a1,a4,0x8
200018b0:	008007b7          	lui	a5,0x800
200018b4:	7805c563          	bltz	a1,2000203e <__adddf3+0x8e2>
200018b8:	85b6                	mv	a1,a3
200018ba:	881a                	mv	a6,t1
200018bc:	00460793          	addi	a5,a2,4
200018c0:	00c7b633          	sltu	a2,a5,a2
200018c4:	9732                	add	a4,a4,a2
200018c6:	863e                	mv	a2,a5
200018c8:	00871793          	slli	a5,a4,0x8
200018cc:	2a07d363          	bgez	a5,20001b72 <__adddf3+0x416>
200018d0:	00180693          	addi	a3,a6,1
200018d4:	7ff00793          	li	a5,2047
200018d8:	0015fe13          	andi	t3,a1,1
200018dc:	24f69b63          	bne	a3,a5,20001b32 <__adddf3+0x3d6>
200018e0:	01469713          	slli	a4,a3,0x14
200018e4:	40f2                	lw	ra,28(sp)
200018e6:	4781                	li	a5,0
200018e8:	8fd9                	or	a5,a5,a4
200018ea:	01fe1713          	slli	a4,t3,0x1f
200018ee:	00e7e6b3          	or	a3,a5,a4
200018f2:	4501                	li	a0,0
200018f4:	85b6                	mv	a1,a3
200018f6:	6105                	addi	sp,sp,32
200018f8:	8082                	ret
200018fa:	8e2e                	mv	t3,a1
200018fc:	1fd05a63          	blez	t4,20001af0 <__adddf3+0x394>
20001900:	1a089363          	bnez	a7,20001aa6 <__adddf3+0x34a>
20001904:	01f7e6b3          	or	a3,a5,t6
20001908:	52068b63          	beqz	a3,20001e3e <__adddf3+0x6e2>
2000190c:	fff80e93          	addi	t4,a6,-1
20001910:	480e8f63          	beqz	t4,20001dae <__adddf3+0x652>
20001914:	7ff00693          	li	a3,2047
20001918:	50d80b63          	beq	a6,a3,20001e2e <__adddf3+0x6d2>
2000191c:	03800693          	li	a3,56
20001920:	19d6cf63          	blt	a3,t4,20001abe <__adddf3+0x362>
20001924:	46fd                	li	a3,31
20001926:	53d6cf63          	blt	a3,t4,20001e64 <__adddf3+0x708>
2000192a:	02000613          	li	a2,32
2000192e:	41d60633          	sub	a2,a2,t4
20001932:	00c796b3          	sll	a3,a5,a2
20001936:	00cf9633          	sll	a2,t6,a2
2000193a:	01dfdfb3          	srl	t6,t6,t4
2000193e:	00c03633          	snez	a2,a2
20001942:	01f6e6b3          	or	a3,a3,t6
20001946:	01d7deb3          	srl	t4,a5,t4
2000194a:	8ed1                	or	a3,a3,a2
2000194c:	9776                	add	a4,a4,t4
2000194e:	01e687b3          	add	a5,a3,t5
20001952:	00d7b6b3          	sltu	a3,a5,a3
20001956:	9736                	add	a4,a4,a3
20001958:	863e                	mv	a2,a5
2000195a:	00871793          	slli	a5,a4,0x8
2000195e:	2007d263          	bgez	a5,20001b62 <__adddf3+0x406>
20001962:	0805                	addi	a6,a6,1
20001964:	7ff00793          	li	a5,2047
20001968:	4ef80763          	beq	a6,a5,20001e56 <__adddf3+0x6fa>
2000196c:	ff8007b7          	lui	a5,0xff800
20001970:	00165693          	srli	a3,a2,0x1
20001974:	17fd                	addi	a5,a5,-1 # ff7fffff <__StackTop+0xdf77dfff>
20001976:	8a05                	andi	a2,a2,1
20001978:	8ed1                	or	a3,a3,a2
2000197a:	8ff9                	and	a5,a5,a4
2000197c:	01f79613          	slli	a2,a5,0x1f
20001980:	0076f513          	andi	a0,a3,7
20001984:	0017d713          	srli	a4,a5,0x1
20001988:	8e55                	or	a2,a2,a3
2000198a:	dd1d                	beqz	a0,200018c8 <__adddf3+0x16c>
2000198c:	00f67793          	andi	a5,a2,15
20001990:	4691                	li	a3,4
20001992:	f2d78be3          	beq	a5,a3,200018c8 <__adddf3+0x16c>
20001996:	b71d                	j	200018bc <__adddf3+0x160>
20001998:	01f7e6b3          	or	a3,a5,t6
2000199c:	30068863          	beqz	a3,20001cac <__adddf3+0x550>
200019a0:	fff80e93          	addi	t4,a6,-1
200019a4:	440e8963          	beqz	t4,20001df6 <__adddf3+0x69a>
200019a8:	7ff00693          	li	a3,2047
200019ac:	20d80763          	beq	a6,a3,20001bba <__adddf3+0x45e>
200019b0:	03800693          	li	a3,56
200019b4:	e1d6d8e3          	bge	a3,t4,200017c4 <__adddf3+0x68>
200019b8:	ffff0613          	addi	a2,t5,-1
200019bc:	00cf37b3          	sltu	a5,t5,a2
200019c0:	8f1d                	sub	a4,a4,a5
200019c2:	00871693          	slli	a3,a4,0x8
200019c6:	008007b7          	lui	a5,0x800
200019ca:	ee06d9e3          	bgez	a3,200018bc <__adddf3+0x160>
200019ce:	fff78713          	addi	a4,a5,-1 # 7fffff <HeapSize+0x7ff7ff>
200019d2:	567d                	li	a2,-1
200019d4:	853a                	mv	a0,a4
200019d6:	c632                	sw	a2,12(sp)
200019d8:	c442                	sw	a6,8(sp)
200019da:	c22e                	sw	a1,4(sp)
200019dc:	c03a                	sw	a4,0(sp)
200019de:	7e7010ef          	jal	200039c4 <__clzsi2>
200019e2:	4702                	lw	a4,0(sp)
200019e4:	4592                	lw	a1,4(sp)
200019e6:	4822                	lw	a6,8(sp)
200019e8:	4632                	lw	a2,12(sp)
200019ea:	ff850693          	addi	a3,a0,-8
200019ee:	02000513          	li	a0,32
200019f2:	40d507b3          	sub	a5,a0,a3
200019f6:	00f657b3          	srl	a5,a2,a5
200019fa:	00d71733          	sll	a4,a4,a3
200019fe:	8fd9                	or	a5,a5,a4
20001a00:	00d61633          	sll	a2,a2,a3
20001a04:	2906c963          	blt	a3,a6,20001c96 <__adddf3+0x53a>
20001a08:	410686b3          	sub	a3,a3,a6
20001a0c:	0685                	addi	a3,a3,1 # 800001 <HeapSize+0x7ff801>
20001a0e:	8d15                	sub	a0,a0,a3
20001a10:	00a61733          	sll	a4,a2,a0
20001a14:	00e03833          	snez	a6,a4
20001a18:	00d65733          	srl	a4,a2,a3
20001a1c:	00a79533          	sll	a0,a5,a0
20001a20:	00e86733          	or	a4,a6,a4
20001a24:	00e56633          	or	a2,a0,a4
20001a28:	00d7d733          	srl	a4,a5,a3
20001a2c:	00e667b3          	or	a5,a2,a4
20001a30:	c3c5                	beqz	a5,20001ad0 <__adddf3+0x374>
20001a32:	00767793          	andi	a5,a2,7
20001a36:	60078e63          	beqz	a5,20002052 <__adddf3+0x8f6>
20001a3a:	00f67793          	andi	a5,a2,15
20001a3e:	4691                	li	a3,4
20001a40:	28d79f63          	bne	a5,a3,20001cde <__adddf3+0x582>
20001a44:	00871793          	slli	a5,a4,0x8
20001a48:	5e07d063          	bgez	a5,20002028 <__adddf3+0x8cc>
20001a4c:	0015fe13          	andi	t3,a1,1
20001a50:	4685                	li	a3,1
20001a52:	a0cd                	j	20001b34 <__adddf3+0x3d8>
20001a54:	00180513          	addi	a0,a6,1
20001a58:	7fe57513          	andi	a0,a0,2046
20001a5c:	20051863          	bnez	a0,20001c6c <__adddf3+0x510>
20001a60:	01e768b3          	or	a7,a4,t5
20001a64:	01f7e533          	or	a0,a5,t6
20001a68:	32081a63          	bnez	a6,20001d9c <__adddf3+0x640>
20001a6c:	48088363          	beqz	a7,20001ef2 <__adddf3+0x796>
20001a70:	48051763          	bnez	a0,20001efe <__adddf3+0x7a2>
20001a74:	003f5793          	srli	a5,t5,0x3
20001a78:	01d71513          	slli	a0,a4,0x1d
20001a7c:	8d5d                	or	a0,a0,a5
20001a7e:	4801                	li	a6,0
20001a80:	00375793          	srli	a5,a4,0x3
20001a84:	7ff87693          	andi	a3,a6,2047
20001a88:	07b2                	slli	a5,a5,0xc
20001a8a:	01469713          	slli	a4,a3,0x14
20001a8e:	40f2                	lw	ra,28(sp)
20001a90:	0015fe13          	andi	t3,a1,1
20001a94:	83b1                	srli	a5,a5,0xc
20001a96:	8fd9                	or	a5,a5,a4
20001a98:	01fe1713          	slli	a4,t3,0x1f
20001a9c:	00e7e6b3          	or	a3,a5,a4
20001aa0:	85b6                	mv	a1,a3
20001aa2:	6105                	addi	sp,sp,32
20001aa4:	8082                	ret
20001aa6:	7ff00693          	li	a3,2047
20001aaa:	38d80263          	beq	a6,a3,20001e2e <__adddf3+0x6d2>
20001aae:	03800693          	li	a3,56
20001ab2:	01d6c663          	blt	a3,t4,20001abe <__adddf3+0x362>
20001ab6:	008006b7          	lui	a3,0x800
20001aba:	8fd5                	or	a5,a5,a3
20001abc:	b5a5                	j	20001924 <__adddf3+0x1c8>
20001abe:	00871793          	slli	a5,a4,0x8
20001ac2:	001f0613          	addi	a2,t5,1
20001ac6:	de07dbe3          	bgez	a5,200018bc <__adddf3+0x160>
20001aca:	00800737          	lui	a4,0x800
20001ace:	bd51                	j	20001962 <__adddf3+0x206>
20001ad0:	0015fe13          	andi	t3,a1,1
20001ad4:	4681                	li	a3,0
20001ad6:	4781                	li	a5,0
20001ad8:	4501                	li	a0,0
20001ada:	01469713          	slli	a4,a3,0x14
20001ade:	40f2                	lw	ra,28(sp)
20001ae0:	8fd9                	or	a5,a5,a4
20001ae2:	01fe1713          	slli	a4,t3,0x1f
20001ae6:	00e7e6b3          	or	a3,a5,a4
20001aea:	85b6                	mv	a1,a3
20001aec:	6105                	addi	sp,sp,32
20001aee:	8082                	ret
20001af0:	0c0e8f63          	beqz	t4,20001bce <__adddf3+0x472>
20001af4:	410886b3          	sub	a3,a7,a6
20001af8:	1e081f63          	bnez	a6,20001cf6 <__adddf3+0x59a>
20001afc:	01e76533          	or	a0,a4,t5
20001b00:	48050d63          	beqz	a0,20001f9a <__adddf3+0x83e>
20001b04:	fff68513          	addi	a0,a3,-1 # 7fffff <HeapSize+0x7ff7ff>
20001b08:	2a050363          	beqz	a0,20001dae <__adddf3+0x652>
20001b0c:	7ff00813          	li	a6,2047
20001b10:	37068e63          	beq	a3,a6,20001e8c <__adddf3+0x730>
20001b14:	03800613          	li	a2,56
20001b18:	52a65163          	bge	a2,a0,2000203a <__adddf3+0x8de>
20001b1c:	8836                	mv	a6,a3
20001b1e:	00879693          	slli	a3,a5,0x8
20001b22:	001f8613          	addi	a2,t6,1
20001b26:	00800737          	lui	a4,0x800
20001b2a:	e206cce3          	bltz	a3,20001962 <__adddf3+0x206>
20001b2e:	873e                	mv	a4,a5
20001b30:	b371                	j	200018bc <__adddf3+0x160>
20001b32:	8efd                	and	a3,a3,a5
20001b34:	ff8007b7          	lui	a5,0xff800
20001b38:	17fd                	addi	a5,a5,-1 # ff7fffff <__StackTop+0xdf77dfff>
20001b3a:	8ff9                	and	a5,a5,a4
20001b3c:	00979713          	slli	a4,a5,0x9
20001b40:	40f2                	lw	ra,28(sp)
20001b42:	01d79513          	slli	a0,a5,0x1d
20001b46:	00c75793          	srli	a5,a4,0xc
20001b4a:	01469713          	slli	a4,a3,0x14
20001b4e:	8fd9                	or	a5,a5,a4
20001b50:	01fe1713          	slli	a4,t3,0x1f
20001b54:	820d                	srli	a2,a2,0x3
20001b56:	00e7e6b3          	or	a3,a5,a4
20001b5a:	8d51                	or	a0,a0,a2
20001b5c:	85b6                	mv	a1,a3
20001b5e:	6105                	addi	sp,sp,32
20001b60:	8082                	ret
20001b62:	00767793          	andi	a5,a2,7
20001b66:	c791                	beqz	a5,20001b72 <__adddf3+0x416>
20001b68:	00f67793          	andi	a5,a2,15
20001b6c:	4691                	li	a3,4
20001b6e:	d4d797e3          	bne	a5,a3,200018bc <__adddf3+0x160>
20001b72:	00365513          	srli	a0,a2,0x3
20001b76:	01d71793          	slli	a5,a4,0x1d
20001b7a:	7ff00693          	li	a3,2047
20001b7e:	8d5d                	or	a0,a0,a5
20001b80:	00375793          	srli	a5,a4,0x3
20001b84:	f0d810e3          	bne	a6,a3,20001a84 <__adddf3+0x328>
20001b88:	8d5d                	or	a0,a0,a5
20001b8a:	c115                	beqz	a0,20001bae <__adddf3+0x452>
20001b8c:	7ff00693          	li	a3,2047
20001b90:	01469713          	slli	a4,a3,0x14
20001b94:	40f2                	lw	ra,28(sp)
20001b96:	4e01                	li	t3,0
20001b98:	000807b7          	lui	a5,0x80
20001b9c:	8fd9                	or	a5,a5,a4
20001b9e:	01fe1713          	slli	a4,t3,0x1f
20001ba2:	00e7e6b3          	or	a3,a5,a4
20001ba6:	4501                	li	a0,0
20001ba8:	85b6                	mv	a1,a3
20001baa:	6105                	addi	sp,sp,32
20001bac:	8082                	ret
20001bae:	0015fe13          	andi	t3,a1,1
20001bb2:	7ff00693          	li	a3,2047
20001bb6:	4781                	li	a5,0
20001bb8:	b70d                	j	20001ada <__adddf3+0x37e>
20001bba:	030e                	slli	t1,t1,0x3
20001bbc:	00335313          	srli	t1,t1,0x3
20001bc0:	01d71513          	slli	a0,a4,0x1d
20001bc4:	00656533          	or	a0,a0,t1
20001bc8:	00375793          	srli	a5,a4,0x3
20001bcc:	bf75                	j	20001b88 <__adddf3+0x42c>
20001bce:	00180693          	addi	a3,a6,1
20001bd2:	7fe6f893          	andi	a7,a3,2046
20001bd6:	16089263          	bnez	a7,20001d3a <__adddf3+0x5de>
20001bda:	01e766b3          	or	a3,a4,t5
20001bde:	24081363          	bnez	a6,20001e24 <__adddf3+0x6c8>
20001be2:	01f7e633          	or	a2,a5,t6
20001be6:	3c068b63          	beqz	a3,20001fbc <__adddf3+0x860>
20001bea:	e80605e3          	beqz	a2,20001a74 <__adddf3+0x318>
20001bee:	9ffa                	add	t6,t6,t5
20001bf0:	97ba                	add	a5,a5,a4
20001bf2:	01efbf33          	sltu	t5,t6,t5
20001bf6:	97fa                	add	a5,a5,t5
20001bf8:	00879713          	slli	a4,a5,0x8
20001bfc:	40074763          	bltz	a4,2000200a <__adddf3+0x8ae>
20001c00:	00ffe733          	or	a4,t6,a5
20001c04:	ec0706e3          	beqz	a4,20001ad0 <__adddf3+0x374>
20001c08:	01d79513          	slli	a0,a5,0x1d
20001c0c:	003fdf93          	srli	t6,t6,0x3
20001c10:	00afe533          	or	a0,t6,a0
20001c14:	838d                	srli	a5,a5,0x3
20001c16:	b5bd                	j	20001a84 <__adddf3+0x328>
20001c18:	7ff00593          	li	a1,2047
20001c1c:	22b88463          	beq	a7,a1,20001e44 <__adddf3+0x6e8>
20001c20:	03800613          	li	a2,56
20001c24:	0e664c63          	blt	a2,t1,20001d1c <__adddf3+0x5c0>
20001c28:	00800637          	lui	a2,0x800
20001c2c:	8f51                	or	a4,a4,a2
20001c2e:	467d                	li	a2,31
20001c30:	26664663          	blt	a2,t1,20001e9c <__adddf3+0x740>
20001c34:	02000593          	li	a1,32
20001c38:	406585b3          	sub	a1,a1,t1
20001c3c:	00b71633          	sll	a2,a4,a1
20001c40:	00bf15b3          	sll	a1,t5,a1
20001c44:	006f5f33          	srl	t5,t5,t1
20001c48:	00b035b3          	snez	a1,a1
20001c4c:	01e66633          	or	a2,a2,t5
20001c50:	00675333          	srl	t1,a4,t1
20001c54:	8e4d                	or	a2,a2,a1
20001c56:	406787b3          	sub	a5,a5,t1
20001c5a:	40cf8633          	sub	a2,t6,a2
20001c5e:	00cfbfb3          	sltu	t6,t6,a2
20001c62:	41f78733          	sub	a4,a5,t6
20001c66:	8846                	mv	a6,a7
20001c68:	85b6                	mv	a1,a3
20001c6a:	be41                	j	200017fa <__adddf3+0x9e>
20001c6c:	41ff0633          	sub	a2,t5,t6
20001c70:	00cf3533          	sltu	a0,t5,a2
20001c74:	40f708b3          	sub	a7,a4,a5
20001c78:	40a888b3          	sub	a7,a7,a0
20001c7c:	00889513          	slli	a0,a7,0x8
20001c80:	0e054d63          	bltz	a0,20001d7a <__adddf3+0x61e>
20001c84:	01166533          	or	a0,a2,a7
20001c88:	8746                	mv	a4,a7
20001c8a:	b6051ee3          	bnez	a0,20001806 <__adddf3+0xaa>
20001c8e:	4e01                	li	t3,0
20001c90:	4681                	li	a3,0
20001c92:	4781                	li	a5,0
20001c94:	b599                	j	20001ada <__adddf3+0x37e>
20001c96:	ff800737          	lui	a4,0xff800
20001c9a:	177d                	addi	a4,a4,-1 # ff7fffff <__StackTop+0xdf77dfff>
20001c9c:	8f7d                	and	a4,a4,a5
20001c9e:	00767793          	andi	a5,a2,7
20001ca2:	40d80833          	sub	a6,a6,a3
20001ca6:	ec0791e3          	bnez	a5,20001b68 <__adddf3+0x40c>
20001caa:	b5e1                	j	20001b72 <__adddf3+0x416>
20001cac:	00351313          	slli	t1,a0,0x3
20001cb0:	00335513          	srli	a0,t1,0x3
20001cb4:	b5c9                	j	20001b76 <__adddf3+0x41a>
20001cb6:	fe0e8693          	addi	a3,t4,-32
20001cba:	02000613          	li	a2,32
20001cbe:	00d7d6b3          	srl	a3,a5,a3
20001cc2:	00ce8a63          	beq	t4,a2,20001cd6 <__adddf3+0x57a>
20001cc6:	04000613          	li	a2,64
20001cca:	41d60633          	sub	a2,a2,t4
20001cce:	00c797b3          	sll	a5,a5,a2
20001cd2:	00ffefb3          	or	t6,t6,a5
20001cd6:	01f03633          	snez	a2,t6
20001cda:	8e55                	or	a2,a2,a3
20001cdc:	be11                	j	200017f0 <__adddf3+0x94>
20001cde:	4801                	li	a6,0
20001ce0:	bef1                	j	200018bc <__adddf3+0x160>
20001ce2:	ff800737          	lui	a4,0xff800
20001ce6:	177d                	addi	a4,a4,-1 # ff7fffff <__StackTop+0xdf77dfff>
20001ce8:	8ff9                	and	a5,a5,a4
20001cea:	01d79513          	slli	a0,a5,0x1d
20001cee:	40d80833          	sub	a6,a6,a3
20001cf2:	838d                	srli	a5,a5,0x3
20001cf4:	bb41                	j	20001a84 <__adddf3+0x328>
20001cf6:	7ff00513          	li	a0,2047
20001cfa:	18a88963          	beq	a7,a0,20001e8c <__adddf3+0x730>
20001cfe:	03800613          	li	a2,56
20001d02:	22d65e63          	bge	a2,a3,20001f3e <__adddf3+0x7e2>
20001d06:	00879693          	slli	a3,a5,0x8
20001d0a:	001f8613          	addi	a2,t6,1
20001d0e:	8846                	mv	a6,a7
20001d10:	00800737          	lui	a4,0x800
20001d14:	c406c7e3          	bltz	a3,20001962 <__adddf3+0x206>
20001d18:	873e                	mv	a4,a5
20001d1a:	b64d                	j	200018bc <__adddf3+0x160>
20001d1c:	ffff8613          	addi	a2,t6,-1
20001d20:	00cfbfb3          	sltu	t6,t6,a2
20001d24:	41f78733          	sub	a4,a5,t6
20001d28:	00871593          	slli	a1,a4,0x8
20001d2c:	008007b7          	lui	a5,0x800
20001d30:	2405c663          	bltz	a1,20001f7c <__adddf3+0x820>
20001d34:	85b6                	mv	a1,a3
20001d36:	8846                	mv	a6,a7
20001d38:	b651                	j	200018bc <__adddf3+0x160>
20001d3a:	7ff00613          	li	a2,2047
20001d3e:	bac681e3          	beq	a3,a2,200018e0 <__adddf3+0x184>
20001d42:	9ffa                	add	t6,t6,t5
20001d44:	97ba                	add	a5,a5,a4
20001d46:	01efbf33          	sltu	t5,t6,t5
20001d4a:	001fd713          	srli	a4,t6,0x1
20001d4e:	97fa                	add	a5,a5,t5
20001d50:	01f79613          	slli	a2,a5,0x1f
20001d54:	00777513          	andi	a0,a4,7
20001d58:	8e59                	or	a2,a2,a4
20001d5a:	0017d713          	srli	a4,a5,0x1
20001d5e:	2e050363          	beqz	a0,20002044 <__adddf3+0x8e8>
20001d62:	8836                	mv	a6,a3
20001d64:	4891                	li	a7,4
20001d66:	00f67693          	andi	a3,a2,15
20001d6a:	b51699e3          	bne	a3,a7,200018bc <__adddf3+0x160>
20001d6e:	00365513          	srli	a0,a2,0x3
20001d72:	0776                	slli	a4,a4,0x1d
20001d74:	8d59                	or	a0,a0,a4
20001d76:	8391                	srli	a5,a5,0x4
20001d78:	b331                	j	20001a84 <__adddf3+0x328>
20001d7a:	41ef8f33          	sub	t5,t6,t5
20001d7e:	01efbfb3          	sltu	t6,t6,t5
20001d82:	8f99                	sub	a5,a5,a4
20001d84:	867a                	mv	a2,t5
20001d86:	41f78733          	sub	a4,a5,t6
20001d8a:	85b6                	mv	a1,a3
20001d8c:	bcad                	j	20001806 <__adddf3+0xaa>
20001d8e:	060e                	slli	a2,a2,0x3
20001d90:	00365513          	srli	a0,a2,0x3
20001d94:	85b6                	mv	a1,a3
20001d96:	881a                	mv	a6,t1
20001d98:	873e                	mv	a4,a5
20001d9a:	bbf1                	j	20001b76 <__adddf3+0x41a>
20001d9c:	20089563          	bnez	a7,20001fa6 <__adddf3+0x84a>
20001da0:	e155                	bnez	a0,20001e44 <__adddf3+0x6e8>
20001da2:	4e01                	li	t3,0
20001da4:	7ff00693          	li	a3,2047
20001da8:	000807b7          	lui	a5,0x80
20001dac:	b33d                	j	20001ada <__adddf3+0x37e>
20001dae:	9ffa                	add	t6,t6,t5
20001db0:	01efbf33          	sltu	t5,t6,t5
20001db4:	97ba                	add	a5,a5,a4
20001db6:	97fa                	add	a5,a5,t5
20001db8:	00879693          	slli	a3,a5,0x8
20001dbc:	1c06d663          	bgez	a3,20001f88 <__adddf3+0x82c>
20001dc0:	ff8006b7          	lui	a3,0xff800
20001dc4:	16fd                	addi	a3,a3,-1 # ff7fffff <__StackTop+0xdf77dfff>
20001dc6:	001fd713          	srli	a4,t6,0x1
20001dca:	8ff5                	and	a5,a5,a3
20001dcc:	01f79693          	slli	a3,a5,0x1f
20001dd0:	00777613          	andi	a2,a4,7
20001dd4:	8ed9                	or	a3,a3,a4
20001dd6:	0017d713          	srli	a4,a5,0x1
20001dda:	24060963          	beqz	a2,2000202c <__adddf3+0x8d0>
20001dde:	00f6f613          	andi	a2,a3,15
20001de2:	4511                	li	a0,4
20001de4:	24a60463          	beq	a2,a0,2000202c <__adddf3+0x8d0>
20001de8:	00a68633          	add	a2,a3,a0
20001dec:	00d636b3          	sltu	a3,a2,a3
20001df0:	9736                	add	a4,a4,a3
20001df2:	4809                	li	a6,2
20001df4:	bbbd                	j	20001b72 <__adddf3+0x416>
20001df6:	41ff0fb3          	sub	t6,t5,t6
20001dfa:	40f707b3          	sub	a5,a4,a5
20001dfe:	01ff3f33          	sltu	t5,t5,t6
20001e02:	41e78733          	sub	a4,a5,t5
20001e06:	00871793          	slli	a5,a4,0x8
20001e0a:	867e                	mv	a2,t6
20001e0c:	0407ca63          	bltz	a5,20001e60 <__adddf3+0x704>
20001e10:	003fdf93          	srli	t6,t6,0x3
20001e14:	01d71513          	slli	a0,a4,0x1d
20001e18:	01f56533          	or	a0,a0,t6
20001e1c:	00375793          	srli	a5,a4,0x3
20001e20:	4805                	li	a6,1
20001e22:	b18d                	j	20001a84 <__adddf3+0x328>
20001e24:	c6a5                	beqz	a3,20001e8c <__adddf3+0x730>
20001e26:	01f7efb3          	or	t6,a5,t6
20001e2a:	d60f91e3          	bnez	t6,20001b8c <__adddf3+0x430>
20001e2e:	050e                	slli	a0,a0,0x3
20001e30:	01d71793          	slli	a5,a4,0x1d
20001e34:	810d                	srli	a0,a0,0x3
20001e36:	8d5d                	or	a0,a0,a5
20001e38:	00375793          	srli	a5,a4,0x3
20001e3c:	b3b1                	j	20001b88 <__adddf3+0x42c>
20001e3e:	050e                	slli	a0,a0,0x3
20001e40:	810d                	srli	a0,a0,0x3
20001e42:	bb15                	j	20001b76 <__adddf3+0x41a>
20001e44:	060e                	slli	a2,a2,0x3
20001e46:	01d79513          	slli	a0,a5,0x1d
20001e4a:	00365713          	srli	a4,a2,0x3
20001e4e:	85b6                	mv	a1,a3
20001e50:	8d59                	or	a0,a0,a4
20001e52:	838d                	srli	a5,a5,0x3
20001e54:	bb15                	j	20001b88 <__adddf3+0x42c>
20001e56:	86c2                	mv	a3,a6
20001e58:	4781                	li	a5,0
20001e5a:	4501                	li	a0,0
20001e5c:	b9bd                	j	20001ada <__adddf3+0x37e>
20001e5e:	85b6                	mv	a1,a3
20001e60:	4805                	li	a6,1
20001e62:	b245                	j	20001802 <__adddf3+0xa6>
20001e64:	fe0e8613          	addi	a2,t4,-32
20001e68:	02000693          	li	a3,32
20001e6c:	00c7d633          	srl	a2,a5,a2
20001e70:	00de8a63          	beq	t4,a3,20001e84 <__adddf3+0x728>
20001e74:	04000693          	li	a3,64
20001e78:	41d686b3          	sub	a3,a3,t4
20001e7c:	00d797b3          	sll	a5,a5,a3
20001e80:	00ffefb3          	or	t6,t6,a5
20001e84:	01f036b3          	snez	a3,t6
20001e88:	8ed1                	or	a3,a3,a2
20001e8a:	b4d1                	j	2000194e <__adddf3+0x1f2>
20001e8c:	00361713          	slli	a4,a2,0x3
20001e90:	01d79513          	slli	a0,a5,0x1d
20001e94:	830d                	srli	a4,a4,0x3
20001e96:	8d59                	or	a0,a0,a4
20001e98:	838d                	srli	a5,a5,0x3
20001e9a:	b1fd                	j	20001b88 <__adddf3+0x42c>
20001e9c:	fe030593          	addi	a1,t1,-32
20001ea0:	02000613          	li	a2,32
20001ea4:	00b755b3          	srl	a1,a4,a1
20001ea8:	00c30a63          	beq	t1,a2,20001ebc <__adddf3+0x760>
20001eac:	04000613          	li	a2,64
20001eb0:	40660633          	sub	a2,a2,t1
20001eb4:	00c71733          	sll	a4,a4,a2
20001eb8:	00ef6f33          	or	t5,t5,a4
20001ebc:	01e03633          	snez	a2,t5
20001ec0:	8e4d                	or	a2,a2,a1
20001ec2:	bb61                	j	20001c5a <__adddf3+0x4fe>
20001ec4:	41ef8f33          	sub	t5,t6,t5
20001ec8:	8f99                	sub	a5,a5,a4
20001eca:	01efbfb3          	sltu	t6,t6,t5
20001ece:	41f78733          	sub	a4,a5,t6
20001ed2:	00871793          	slli	a5,a4,0x8
20001ed6:	867a                	mv	a2,t5
20001ed8:	f807c3e3          	bltz	a5,20001e5e <__adddf3+0x702>
20001edc:	003f5f13          	srli	t5,t5,0x3
20001ee0:	01d71513          	slli	a0,a4,0x1d
20001ee4:	85b6                	mv	a1,a3
20001ee6:	00af6533          	or	a0,t5,a0
20001eea:	00375793          	srli	a5,a4,0x3
20001eee:	4805                	li	a6,1
20001ef0:	be51                	j	20001a84 <__adddf3+0x328>
20001ef2:	d8050ee3          	beqz	a0,20001c8e <__adddf3+0x532>
20001ef6:	873e                	mv	a4,a5
20001ef8:	8f7e                	mv	t5,t6
20001efa:	85b6                	mv	a1,a3
20001efc:	bea5                	j	20001a74 <__adddf3+0x318>
20001efe:	41ff0833          	sub	a6,t5,t6
20001f02:	010f3533          	sltu	a0,t5,a6
20001f06:	40f70633          	sub	a2,a4,a5
20001f0a:	8e09                	sub	a2,a2,a0
20001f0c:	00861513          	slli	a0,a2,0x8
20001f10:	0e055663          	bgez	a0,20001ffc <__adddf3+0x8a0>
20001f14:	41ef8f33          	sub	t5,t6,t5
20001f18:	8f99                	sub	a5,a5,a4
20001f1a:	01efbfb3          	sltu	t6,t6,t5
20001f1e:	41f78733          	sub	a4,a5,t6
20001f22:	00ef67b3          	or	a5,t5,a4
20001f26:	867a                	mv	a2,t5
20001f28:	85b6                	mv	a1,a3
20001f2a:	ba0783e3          	beqz	a5,20001ad0 <__adddf3+0x374>
20001f2e:	00871793          	slli	a5,a4,0x8
20001f32:	1207d263          	bgez	a5,20002056 <__adddf3+0x8fa>
20001f36:	0016fe13          	andi	t3,a3,1
20001f3a:	4685                	li	a3,1
20001f3c:	bee5                	j	20001b34 <__adddf3+0x3d8>
20001f3e:	00800637          	lui	a2,0x800
20001f42:	8f51                	or	a4,a4,a2
20001f44:	467d                	li	a2,31
20001f46:	08d64263          	blt	a2,a3,20001fca <__adddf3+0x86e>
20001f4a:	02000513          	li	a0,32
20001f4e:	8d15                	sub	a0,a0,a3
20001f50:	00a71633          	sll	a2,a4,a0
20001f54:	00af1533          	sll	a0,t5,a0
20001f58:	00df5f33          	srl	t5,t5,a3
20001f5c:	00a03533          	snez	a0,a0
20001f60:	00d756b3          	srl	a3,a4,a3
20001f64:	01e66633          	or	a2,a2,t5
20001f68:	00a66733          	or	a4,a2,a0
20001f6c:	97b6                	add	a5,a5,a3
20001f6e:	9fba                	add	t6,t6,a4
20001f70:	00efb733          	sltu	a4,t6,a4
20001f74:	973e                	add	a4,a4,a5
20001f76:	867e                	mv	a2,t6
20001f78:	8846                	mv	a6,a7
20001f7a:	b2c5                	j	2000195a <__adddf3+0x1fe>
20001f7c:	8846                	mv	a6,a7
20001f7e:	85b6                	mv	a1,a3
20001f80:	fff78713          	addi	a4,a5,-1 # 7ffff <HeapSize+0x7f7ff>
20001f84:	567d                	li	a2,-1
20001f86:	b4b9                	j	200019d4 <__adddf3+0x278>
20001f88:	01d79513          	slli	a0,a5,0x1d
20001f8c:	003fdf93          	srli	t6,t6,0x3
20001f90:	01f56533          	or	a0,a0,t6
20001f94:	838d                	srli	a5,a5,0x3
20001f96:	4805                	li	a6,1
20001f98:	b4f5                	j	20001a84 <__adddf3+0x328>
20001f9a:	00361513          	slli	a0,a2,0x3
20001f9e:	810d                	srli	a0,a0,0x3
20001fa0:	8836                	mv	a6,a3
20001fa2:	873e                	mv	a4,a5
20001fa4:	bec9                	j	20001b76 <__adddf3+0x41a>
20001fa6:	be0513e3          	bnez	a0,20001b8c <__adddf3+0x430>
20001faa:	00331793          	slli	a5,t1,0x3
20001fae:	838d                	srli	a5,a5,0x3
20001fb0:	01d71513          	slli	a0,a4,0x1d
20001fb4:	8d5d                	or	a0,a0,a5
20001fb6:	00375793          	srli	a5,a4,0x3
20001fba:	b6f9                	j	20001b88 <__adddf3+0x42c>
20001fbc:	b0060ae3          	beqz	a2,20001ad0 <__adddf3+0x374>
20001fc0:	873e                	mv	a4,a5
20001fc2:	8f7e                	mv	t5,t6
20001fc4:	bc45                	j	20001a74 <__adddf3+0x318>
20001fc6:	832e                	mv	t1,a1
20001fc8:	b19d                	j	20001c2e <__adddf3+0x4d2>
20001fca:	fe068613          	addi	a2,a3,-32
20001fce:	02000513          	li	a0,32
20001fd2:	00c75633          	srl	a2,a4,a2
20001fd6:	00a68a63          	beq	a3,a0,20001fea <__adddf3+0x88e>
20001fda:	04000513          	li	a0,64
20001fde:	40d506b3          	sub	a3,a0,a3
20001fe2:	00d71733          	sll	a4,a4,a3
20001fe6:	00ef6f33          	or	t5,t5,a4
20001fea:	01e03733          	snez	a4,t5
20001fee:	8f51                	or	a4,a4,a2
20001ff0:	bfbd                	j	20001f6e <__adddf3+0x812>
20001ff2:	02000513          	li	a0,32
20001ff6:	8d15                	sub	a0,a0,a3
20001ff8:	4801                	li	a6,0
20001ffa:	b40d                	j	20001a1c <__adddf3+0x2c0>
20001ffc:	00c86533          	or	a0,a6,a2
20002000:	c80507e3          	beqz	a0,20001c8e <__adddf3+0x532>
20002004:	8732                	mv	a4,a2
20002006:	8f42                	mv	t5,a6
20002008:	b4b5                	j	20001a74 <__adddf3+0x318>
2000200a:	ff800737          	lui	a4,0xff800
2000200e:	177d                	addi	a4,a4,-1 # ff7fffff <__StackTop+0xdf77dfff>
20002010:	8ff9                	and	a5,a5,a4
20002012:	01d79513          	slli	a0,a5,0x1d
20002016:	003fdf93          	srli	t6,t6,0x3
2000201a:	838d                	srli	a5,a5,0x3
2000201c:	01f56533          	or	a0,a0,t6
20002020:	0067f7b3          	and	a5,a5,t1
20002024:	4685                	li	a3,1
20002026:	bc55                	j	20001ada <__adddf3+0x37e>
20002028:	4801                	li	a6,0
2000202a:	b6a1                	j	20001b72 <__adddf3+0x416>
2000202c:	828d                	srli	a3,a3,0x3
2000202e:	0776                	slli	a4,a4,0x1d
20002030:	00d76533          	or	a0,a4,a3
20002034:	8391                	srli	a5,a5,0x4
20002036:	4809                	li	a6,2
20002038:	b4b1                	j	20001a84 <__adddf3+0x328>
2000203a:	86aa                	mv	a3,a0
2000203c:	b721                	j	20001f44 <__adddf3+0x7e8>
2000203e:	881a                	mv	a6,t1
20002040:	85b6                	mv	a1,a3
20002042:	b271                	j	200019ce <__adddf3+0x272>
20002044:	00365513          	srli	a0,a2,0x3
20002048:	0776                	slli	a4,a4,0x1d
2000204a:	8d59                	or	a0,a0,a4
2000204c:	8391                	srli	a5,a5,0x4
2000204e:	8836                	mv	a6,a3
20002050:	bc15                	j	20001a84 <__adddf3+0x328>
20002052:	86ae                	mv	a3,a1
20002054:	bde9                	j	20001f2e <__adddf3+0x7d2>
20002056:	85b6                	mv	a1,a3
20002058:	8f32                	mv	t5,a2
2000205a:	bc29                	j	20001a74 <__adddf3+0x318>

2000205c <__divdf3>:
2000205c:	0145d713          	srli	a4,a1,0x14
20002060:	7139                	addi	sp,sp,-64
20002062:	00c59793          	slli	a5,a1,0xc
20002066:	de06                	sw	ra,60(sp)
20002068:	7ff77713          	andi	a4,a4,2047
2000206c:	882a                	mv	a6,a0
2000206e:	83b1                	srli	a5,a5,0xc
20002070:	81fd                	srli	a1,a1,0x1f
20002072:	16070063          	beqz	a4,200021d2 <__divdf3+0x176>
20002076:	8eaa                	mv	t4,a0
20002078:	7ff00513          	li	a0,2047
2000207c:	06a70b63          	beq	a4,a0,200020f2 <__divdf3+0x96>
20002080:	078e                	slli	a5,a5,0x3
20002082:	01d85e13          	srli	t3,a6,0x1d
20002086:	00fe6e33          	or	t3,t3,a5
2000208a:	008007b7          	lui	a5,0x800
2000208e:	00381e93          	slli	t4,a6,0x3
20002092:	00fe6e33          	or	t3,t3,a5
20002096:	c0170893          	addi	a7,a4,-1023
2000209a:	4801                	li	a6,0
2000209c:	4f01                	li	t5,0
2000209e:	0146d713          	srli	a4,a3,0x14
200020a2:	00c69793          	slli	a5,a3,0xc
200020a6:	7ff77713          	andi	a4,a4,2047
200020aa:	83b1                	srli	a5,a5,0xc
200020ac:	82fd                	srli	a3,a3,0x1f
200020ae:	c33d                	beqz	a4,20002114 <__divdf3+0xb8>
200020b0:	7ff00513          	li	a0,2047
200020b4:	16a70963          	beq	a4,a0,20002226 <__divdf3+0x1ca>
200020b8:	078e                	slli	a5,a5,0x3
200020ba:	01d65513          	srli	a0,a2,0x1d
200020be:	c0170713          	addi	a4,a4,-1023
200020c2:	8d5d                	or	a0,a0,a5
200020c4:	008007b7          	lui	a5,0x800
200020c8:	40e888b3          	sub	a7,a7,a4
200020cc:	8fc9                	or	a5,a5,a0
200020ce:	00361713          	slli	a4,a2,0x3
200020d2:	4f81                	li	t6,0
200020d4:	463d                	li	a2,15
200020d6:	00d5c533          	xor	a0,a1,a3
200020da:	1f066763          	bltu	a2,a6,200022c8 <__divdf3+0x26c>
200020de:	00002317          	auipc	t1,0x2
200020e2:	95a30313          	addi	t1,t1,-1702 # 20003a38 <__clzsi2+0x74>
200020e6:	080a                	slli	a6,a6,0x2
200020e8:	981a                	add	a6,a6,t1
200020ea:	00082603          	lw	a2,0(a6)
200020ee:	961a                	add	a2,a2,t1
200020f0:	8602                	jr	a2
200020f2:	0107ee33          	or	t3,a5,a6
200020f6:	1a0e1563          	bnez	t3,200022a0 <__divdf3+0x244>
200020fa:	88ba                	mv	a7,a4
200020fc:	0146d713          	srli	a4,a3,0x14
20002100:	00c69793          	slli	a5,a3,0xc
20002104:	7ff77713          	andi	a4,a4,2047
20002108:	4e81                	li	t4,0
2000210a:	4821                	li	a6,8
2000210c:	4f09                	li	t5,2
2000210e:	83b1                	srli	a5,a5,0xc
20002110:	82fd                	srli	a3,a3,0x1f
20002112:	ff59                	bnez	a4,200020b0 <__divdf3+0x54>
20002114:	00c7e733          	or	a4,a5,a2
20002118:	18070963          	beqz	a4,200022aa <__divdf3+0x24e>
2000211c:	3c078a63          	beqz	a5,200024f0 <__divdf3+0x494>
20002120:	853e                	mv	a0,a5
20002122:	d632                	sw	a2,44(sp)
20002124:	d446                	sw	a7,40(sp)
20002126:	d242                	sw	a6,36(sp)
20002128:	d036                	sw	a3,32(sp)
2000212a:	ce7a                	sw	t5,28(sp)
2000212c:	cc72                	sw	t3,24(sp)
2000212e:	ca76                	sw	t4,20(sp)
20002130:	c82e                	sw	a1,16(sp)
20002132:	c63e                	sw	a5,12(sp)
20002134:	091010ef          	jal	200039c4 <__clzsi2>
20002138:	47b2                	lw	a5,12(sp)
2000213a:	45c2                	lw	a1,16(sp)
2000213c:	4ed2                	lw	t4,20(sp)
2000213e:	4e62                	lw	t3,24(sp)
20002140:	4f72                	lw	t5,28(sp)
20002142:	5682                	lw	a3,32(sp)
20002144:	5812                	lw	a6,36(sp)
20002146:	58a2                	lw	a7,40(sp)
20002148:	5632                	lw	a2,44(sp)
2000214a:	832a                	mv	t1,a0
2000214c:	ff550713          	addi	a4,a0,-11
20002150:	4575                	li	a0,29
20002152:	8d19                	sub	a0,a0,a4
20002154:	ff830713          	addi	a4,t1,-8
20002158:	00e797b3          	sll	a5,a5,a4
2000215c:	00a65533          	srl	a0,a2,a0
20002160:	8fc9                	or	a5,a5,a0
20002162:	00e61733          	sll	a4,a2,a4
20002166:	9346                	add	t1,t1,a7
20002168:	3f330893          	addi	a7,t1,1011
2000216c:	4f81                	li	t6,0
2000216e:	b79d                	j	200020d4 <__divdf3+0x78>
20002170:	44038063          	beqz	t2,200025b0 <__divdf3+0x554>
20002174:	fc900693          	li	a3,-55
20002178:	48d3d463          	bge	t2,a3,20002600 <__divdf3+0x5a4>
2000217c:	4701                	li	a4,0
2000217e:	4781                	li	a5,0
20002180:	4681                	li	a3,0
20002182:	50f2                	lw	ra,60(sp)
20002184:	0752                	slli	a4,a4,0x14
20002186:	8f5d                	or	a4,a4,a5
20002188:	01f51793          	slli	a5,a0,0x1f
2000218c:	00f765b3          	or	a1,a4,a5
20002190:	8536                	mv	a0,a3
20002192:	6121                	addi	sp,sp,64
20002194:	8082                	ret
20002196:	50f2                	lw	ra,60(sp)
20002198:	7ff00713          	li	a4,2047
2000219c:	4781                	li	a5,0
2000219e:	0752                	slli	a4,a4,0x14
200021a0:	8f5d                	or	a4,a4,a5
200021a2:	4681                	li	a3,0
200021a4:	01f51793          	slli	a5,a0,0x1f
200021a8:	00f765b3          	or	a1,a4,a5
200021ac:	8536                	mv	a0,a3
200021ae:	6121                	addi	sp,sp,64
200021b0:	8082                	ret
200021b2:	50f2                	lw	ra,60(sp)
200021b4:	7ff00713          	li	a4,2047
200021b8:	4501                	li	a0,0
200021ba:	000807b7          	lui	a5,0x80
200021be:	0752                	slli	a4,a4,0x14
200021c0:	8f5d                	or	a4,a4,a5
200021c2:	4681                	li	a3,0
200021c4:	01f51793          	slli	a5,a0,0x1f
200021c8:	00f765b3          	or	a1,a4,a5
200021cc:	8536                	mv	a0,a3
200021ce:	6121                	addi	sp,sp,64
200021d0:	8082                	ret
200021d2:	00a7ee33          	or	t3,a5,a0
200021d6:	0e0e0463          	beqz	t3,200022be <__divdf3+0x262>
200021da:	ce36                	sw	a3,28(sp)
200021dc:	cc32                	sw	a2,24(sp)
200021de:	34078a63          	beqz	a5,20002532 <__divdf3+0x4d6>
200021e2:	ca2a                	sw	a0,20(sp)
200021e4:	853e                	mv	a0,a5
200021e6:	c82e                	sw	a1,16(sp)
200021e8:	c63e                	sw	a5,12(sp)
200021ea:	7da010ef          	jal	200039c4 <__clzsi2>
200021ee:	47b2                	lw	a5,12(sp)
200021f0:	45c2                	lw	a1,16(sp)
200021f2:	4852                	lw	a6,20(sp)
200021f4:	4662                	lw	a2,24(sp)
200021f6:	46f2                	lw	a3,28(sp)
200021f8:	832a                	mv	t1,a0
200021fa:	ff550713          	addi	a4,a0,-11
200021fe:	4e75                	li	t3,29
20002200:	ff830e93          	addi	t4,t1,-8
20002204:	40ee0e33          	sub	t3,t3,a4
20002208:	01d797b3          	sll	a5,a5,t4
2000220c:	01c85e33          	srl	t3,a6,t3
20002210:	00fe6e33          	or	t3,t3,a5
20002214:	01d81eb3          	sll	t4,a6,t4
20002218:	c0d00713          	li	a4,-1011
2000221c:	406708b3          	sub	a7,a4,t1
20002220:	4801                	li	a6,0
20002222:	4f01                	li	t5,0
20002224:	bdad                	j	2000209e <__divdf3+0x42>
20002226:	00c7e733          	or	a4,a5,a2
2000222a:	80188893          	addi	a7,a7,-2047
2000222e:	e359                	bnez	a4,200022b4 <__divdf3+0x258>
20002230:	00286813          	ori	a6,a6,2
20002234:	4781                	li	a5,0
20002236:	4f89                	li	t6,2
20002238:	bd71                	j	200020d4 <__divdf3+0x78>
2000223a:	87f2                	mv	a5,t3
2000223c:	8776                	mv	a4,t4
2000223e:	4689                	li	a3,2
20002240:	30df0f63          	beq	t5,a3,2000255e <__divdf3+0x502>
20002244:	468d                	li	a3,3
20002246:	f6df06e3          	beq	t5,a3,200021b2 <__divdf3+0x156>
2000224a:	4685                	li	a3,1
2000224c:	852e                	mv	a0,a1
2000224e:	f2df07e3          	beq	t5,a3,2000217c <__divdf3+0x120>
20002252:	3ff88393          	addi	t2,a7,1023
20002256:	869e                	mv	a3,t2
20002258:	f0705ce3          	blez	t2,20002170 <__divdf3+0x114>
2000225c:	00777613          	andi	a2,a4,7
20002260:	32061c63          	bnez	a2,20002598 <__divdf3+0x53c>
20002264:	00375593          	srli	a1,a4,0x3
20002268:	00779713          	slli	a4,a5,0x7
2000226c:	00075863          	bgez	a4,2000227c <__divdf3+0x220>
20002270:	ff000737          	lui	a4,0xff000
20002274:	177d                	addi	a4,a4,-1 # feffffff <__StackTop+0xdef7dfff>
20002276:	40088693          	addi	a3,a7,1024
2000227a:	8ff9                	and	a5,a5,a4
2000227c:	7fe00713          	li	a4,2046
20002280:	f0d74be3          	blt	a4,a3,20002196 <__divdf3+0x13a>
20002284:	01d79613          	slli	a2,a5,0x1d
20002288:	7ff6f713          	andi	a4,a3,2047
2000228c:	00b666b3          	or	a3,a2,a1
20002290:	00979613          	slli	a2,a5,0x9
20002294:	00c65793          	srli	a5,a2,0xc
20002298:	b5ed                	j	20002182 <__divdf3+0x126>
2000229a:	85b6                	mv	a1,a3
2000229c:	8f7e                	mv	t5,t6
2000229e:	b745                	j	2000223e <__divdf3+0x1e2>
200022a0:	8e3e                	mv	t3,a5
200022a2:	88ba                	mv	a7,a4
200022a4:	4831                	li	a6,12
200022a6:	4f0d                	li	t5,3
200022a8:	bbdd                	j	2000209e <__divdf3+0x42>
200022aa:	00186813          	ori	a6,a6,1
200022ae:	4781                	li	a5,0
200022b0:	4f85                	li	t6,1
200022b2:	b50d                	j	200020d4 <__divdf3+0x78>
200022b4:	00386813          	ori	a6,a6,3
200022b8:	8732                	mv	a4,a2
200022ba:	4f8d                	li	t6,3
200022bc:	bd21                	j	200020d4 <__divdf3+0x78>
200022be:	4e81                	li	t4,0
200022c0:	4811                	li	a6,4
200022c2:	4881                	li	a7,0
200022c4:	4f05                	li	t5,1
200022c6:	bbe1                	j	2000209e <__divdf3+0x42>
200022c8:	dc22                	sw	s0,56(sp)
200022ca:	da26                	sw	s1,52(sp)
200022cc:	01c7e663          	bltu	a5,t3,200022d8 <__divdf3+0x27c>
200022d0:	3afe1c63          	bne	t3,a5,20002688 <__divdf3+0x62c>
200022d4:	3aeeea63          	bltu	t4,a4,20002688 <__divdf3+0x62c>
200022d8:	01fe1613          	slli	a2,t3,0x1f
200022dc:	001ed693          	srli	a3,t4,0x1
200022e0:	8e55                	or	a2,a2,a3
200022e2:	001e5e13          	srli	t3,t3,0x1
200022e6:	01fe9693          	slli	a3,t4,0x1f
200022ea:	07a2                	slli	a5,a5,0x8
200022ec:	0107df13          	srli	t5,a5,0x10
200022f0:	03ee52b3          	divu	t0,t3,t5
200022f4:	01875813          	srli	a6,a4,0x18
200022f8:	00f86833          	or	a6,a6,a5
200022fc:	01081e93          	slli	t4,a6,0x10
20002300:	010ede93          	srli	t4,t4,0x10
20002304:	00871313          	slli	t1,a4,0x8
20002308:	01065793          	srli	a5,a2,0x10
2000230c:	03ee7e33          	remu	t3,t3,t5
20002310:	025e8733          	mul	a4,t4,t0
20002314:	0e42                	slli	t3,t3,0x10
20002316:	01c7e7b3          	or	a5,a5,t3
2000231a:	00e7f863          	bgeu	a5,a4,2000232a <__divdf3+0x2ce>
2000231e:	97c2                	add	a5,a5,a6
20002320:	0107e463          	bltu	a5,a6,20002328 <__divdf3+0x2cc>
20002324:	36e7e963          	bltu	a5,a4,20002696 <__divdf3+0x63a>
20002328:	12fd                	addi	t0,t0,-1 # 100088df <memset+0x8d>
2000232a:	8f99                	sub	a5,a5,a4
2000232c:	03e7d5b3          	divu	a1,a5,t5
20002330:	01061713          	slli	a4,a2,0x10
20002334:	8341                	srli	a4,a4,0x10
20002336:	03e7f7b3          	remu	a5,a5,t5
2000233a:	02be8633          	mul	a2,t4,a1
2000233e:	07c2                	slli	a5,a5,0x10
20002340:	8f5d                	or	a4,a4,a5
20002342:	00c77863          	bgeu	a4,a2,20002352 <__divdf3+0x2f6>
20002346:	9742                	add	a4,a4,a6
20002348:	01076463          	bltu	a4,a6,20002350 <__divdf3+0x2f4>
2000234c:	34c76263          	bltu	a4,a2,20002690 <__divdf3+0x634>
20002350:	15fd                	addi	a1,a1,-1 # ffff <HeapSize+0xf7ff>
20002352:	02c2                	slli	t0,t0,0x10
20002354:	00b2e2b3          	or	t0,t0,a1
20002358:	01029793          	slli	a5,t0,0x10
2000235c:	01031e13          	slli	t3,t1,0x10
20002360:	83c1                	srli	a5,a5,0x10
20002362:	010e5e13          	srli	t3,t3,0x10
20002366:	01035f93          	srli	t6,t1,0x10
2000236a:	8f11                	sub	a4,a4,a2
2000236c:	0102d613          	srli	a2,t0,0x10
20002370:	03c783b3          	mul	t2,a5,t3
20002374:	03c60433          	mul	s0,a2,t3
20002378:	0103d593          	srli	a1,t2,0x10
2000237c:	02ff87b3          	mul	a5,t6,a5
20002380:	97a2                	add	a5,a5,s0
20002382:	95be                	add	a1,a1,a5
20002384:	03f607b3          	mul	a5,a2,t6
20002388:	0085f463          	bgeu	a1,s0,20002390 <__divdf3+0x334>
2000238c:	6641                	lui	a2,0x10
2000238e:	97b2                	add	a5,a5,a2
20002390:	01059613          	slli	a2,a1,0x10
20002394:	03c2                	slli	t2,t2,0x10
20002396:	81c1                	srli	a1,a1,0x10
20002398:	0103d393          	srli	t2,t2,0x10
2000239c:	95be                	add	a1,a1,a5
2000239e:	961e                	add	a2,a2,t2
200023a0:	00b76863          	bltu	a4,a1,200023b0 <__divdf3+0x354>
200023a4:	40b704b3          	sub	s1,a4,a1
200023a8:	2cb71e63          	bne	a4,a1,20002684 <__divdf3+0x628>
200023ac:	2cc6fc63          	bgeu	a3,a2,20002684 <__divdf3+0x628>
200023b0:	006683b3          	add	t2,a3,t1
200023b4:	00d3b7b3          	sltu	a5,t2,a3
200023b8:	d84a                	sw	s2,48(sp)
200023ba:	893e                	mv	s2,a5
200023bc:	97c2                	add	a5,a5,a6
200023be:	973e                	add	a4,a4,a5
200023c0:	869e                	mv	a3,t2
200023c2:	fff28793          	addi	a5,t0,-1
200023c6:	00e86963          	bltu	a6,a4,200023d8 <__divdf3+0x37c>
200023ca:	40b70433          	sub	s0,a4,a1
200023ce:	84a2                	mv	s1,s0
200023d0:	02e81963          	bne	a6,a4,20002402 <__divdf3+0x3a6>
200023d4:	02091763          	bnez	s2,20002402 <__divdf3+0x3a6>
200023d8:	00b76963          	bltu	a4,a1,200023ea <__divdf3+0x38e>
200023dc:	40b70433          	sub	s0,a4,a1
200023e0:	84a2                	mv	s1,s0
200023e2:	02e59063          	bne	a1,a4,20002402 <__divdf3+0x3a6>
200023e6:	00c3fe63          	bgeu	t2,a2,20002402 <__divdf3+0x3a6>
200023ea:	007306b3          	add	a3,t1,t2
200023ee:	0066b7b3          	sltu	a5,a3,t1
200023f2:	97c2                	add	a5,a5,a6
200023f4:	973e                	add	a4,a4,a5
200023f6:	5942                	lw	s2,48(sp)
200023f8:	ffe28793          	addi	a5,t0,-2
200023fc:	40b704b3          	sub	s1,a4,a1
20002400:	a011                	j	20002404 <__divdf3+0x3a8>
20002402:	5942                	lw	s2,48(sp)
20002404:	40c68633          	sub	a2,a3,a2
20002408:	00c6b6b3          	sltu	a3,a3,a2
2000240c:	40d482b3          	sub	t0,s1,a3
20002410:	3ff88393          	addi	t2,a7,1023
20002414:	869e                	mv	a3,t2
20002416:	14580a63          	beq	a6,t0,2000256a <__divdf3+0x50e>
2000241a:	03e2d733          	divu	a4,t0,t5
2000241e:	01065593          	srli	a1,a2,0x10
20002422:	03e2f2b3          	remu	t0,t0,t5
20002426:	02c2                	slli	t0,t0,0x10
20002428:	0055e5b3          	or	a1,a1,t0
2000242c:	02ee82b3          	mul	t0,t4,a4
20002430:	0055f863          	bgeu	a1,t0,20002440 <__divdf3+0x3e4>
20002434:	95c2                	add	a1,a1,a6
20002436:	0105e463          	bltu	a1,a6,2000243e <__divdf3+0x3e2>
2000243a:	2655e463          	bltu	a1,t0,200026a2 <__divdf3+0x646>
2000243e:	177d                	addi	a4,a4,-1
20002440:	405585b3          	sub	a1,a1,t0
20002444:	03e5f2b3          	remu	t0,a1,t5
20002448:	0642                	slli	a2,a2,0x10
2000244a:	8241                	srli	a2,a2,0x10
2000244c:	03e5d5b3          	divu	a1,a1,t5
20002450:	01029f13          	slli	t5,t0,0x10
20002454:	01e66633          	or	a2,a2,t5
20002458:	02be8eb3          	mul	t4,t4,a1
2000245c:	01d67863          	bgeu	a2,t4,2000246c <__divdf3+0x410>
20002460:	9642                	add	a2,a2,a6
20002462:	01066463          	bltu	a2,a6,2000246a <__divdf3+0x40e>
20002466:	23d66b63          	bltu	a2,t4,2000269c <__divdf3+0x640>
2000246a:	15fd                	addi	a1,a1,-1
2000246c:	0742                	slli	a4,a4,0x10
2000246e:	8f4d                	or	a4,a4,a1
20002470:	01071593          	slli	a1,a4,0x10
20002474:	81c1                	srli	a1,a1,0x10
20002476:	01075293          	srli	t0,a4,0x10
2000247a:	03c28f33          	mul	t5,t0,t3
2000247e:	41d60633          	sub	a2,a2,t4
20002482:	02be0e33          	mul	t3,t3,a1
20002486:	02bf8eb3          	mul	t4,t6,a1
2000248a:	010e5593          	srli	a1,t3,0x10
2000248e:	9efa                	add	t4,t4,t5
20002490:	95f6                	add	a1,a1,t4
20002492:	025f8fb3          	mul	t6,t6,t0
20002496:	01e5f463          	bgeu	a1,t5,2000249e <__divdf3+0x442>
2000249a:	6ec1                	lui	t4,0x10
2000249c:	9ff6                	add	t6,t6,t4
2000249e:	0105de93          	srli	t4,a1,0x10
200024a2:	0e42                	slli	t3,t3,0x10
200024a4:	010e5e13          	srli	t3,t3,0x10
200024a8:	05c2                	slli	a1,a1,0x10
200024aa:	9efe                	add	t4,t4,t6
200024ac:	95f2                	add	a1,a1,t3
200024ae:	01d66a63          	bltu	a2,t4,200024c2 <__divdf3+0x466>
200024b2:	00b03f33          	snez	t5,a1
200024b6:	41d60e33          	sub	t3,a2,t4
200024ba:	03d61463          	bne	a2,t4,200024e2 <__divdf3+0x486>
200024be:	020f0263          	beqz	t5,200024e2 <__divdf3+0x486>
200024c2:	9642                	add	a2,a2,a6
200024c4:	01066863          	bltu	a2,a6,200024d4 <__divdf3+0x478>
200024c8:	11d66e63          	bltu	a2,t4,200025e4 <__divdf3+0x588>
200024cc:	01d61463          	bne	a2,t4,200024d4 <__divdf3+0x478>
200024d0:	10b36a63          	bltu	t1,a1,200025e4 <__divdf3+0x588>
200024d4:	40b305b3          	sub	a1,t1,a1
200024d8:	00b03f33          	snez	t5,a1
200024dc:	177d                	addi	a4,a4,-1
200024de:	41d60e33          	sub	t3,a2,t4
200024e2:	080e1c63          	bnez	t3,2000257a <__divdf3+0x51e>
200024e6:	080f1a63          	bnez	t5,2000257a <__divdf3+0x51e>
200024ea:	5462                	lw	s0,56(sp)
200024ec:	54d2                	lw	s1,52(sp)
200024ee:	b3a5                	j	20002256 <__divdf3+0x1fa>
200024f0:	8532                	mv	a0,a2
200024f2:	d646                	sw	a7,44(sp)
200024f4:	d442                	sw	a6,40(sp)
200024f6:	d23e                	sw	a5,36(sp)
200024f8:	d036                	sw	a3,32(sp)
200024fa:	ce7a                	sw	t5,28(sp)
200024fc:	cc72                	sw	t3,24(sp)
200024fe:	ca76                	sw	t4,20(sp)
20002500:	c82e                	sw	a1,16(sp)
20002502:	c632                	sw	a2,12(sp)
20002504:	4c0010ef          	jal	200039c4 <__clzsi2>
20002508:	01550713          	addi	a4,a0,21
2000250c:	4ff1                	li	t6,28
2000250e:	4632                	lw	a2,12(sp)
20002510:	45c2                	lw	a1,16(sp)
20002512:	4ed2                	lw	t4,20(sp)
20002514:	4e62                	lw	t3,24(sp)
20002516:	4f72                	lw	t5,28(sp)
20002518:	5682                	lw	a3,32(sp)
2000251a:	5822                	lw	a6,40(sp)
2000251c:	58b2                	lw	a7,44(sp)
2000251e:	02050313          	addi	t1,a0,32
20002522:	4781                	li	a5,0
20002524:	c2efd6e3          	bge	t6,a4,20002150 <__divdf3+0xf4>
20002528:	1561                	addi	a0,a0,-8
2000252a:	00a617b3          	sll	a5,a2,a0
2000252e:	4701                	li	a4,0
20002530:	b91d                	j	20002166 <__divdf3+0x10a>
20002532:	ca3e                	sw	a5,20(sp)
20002534:	c82e                	sw	a1,16(sp)
20002536:	c62a                	sw	a0,12(sp)
20002538:	48c010ef          	jal	200039c4 <__clzsi2>
2000253c:	01550713          	addi	a4,a0,21
20002540:	48f1                	li	a7,28
20002542:	4832                	lw	a6,12(sp)
20002544:	45c2                	lw	a1,16(sp)
20002546:	4662                	lw	a2,24(sp)
20002548:	46f2                	lw	a3,28(sp)
2000254a:	02050313          	addi	t1,a0,32
2000254e:	4781                	li	a5,0
20002550:	cae8d7e3          	bge	a7,a4,200021fe <__divdf3+0x1a2>
20002554:	1561                	addi	a0,a0,-8
20002556:	00a81e33          	sll	t3,a6,a0
2000255a:	4e81                	li	t4,0
2000255c:	b975                	j	20002218 <__divdf3+0x1bc>
2000255e:	852e                	mv	a0,a1
20002560:	7ff00713          	li	a4,2047
20002564:	4781                	li	a5,0
20002566:	4681                	li	a3,0
20002568:	b929                	j	20002182 <__divdf3+0x126>
2000256a:	4581                	li	a1,0
2000256c:	4705                	li	a4,1
2000256e:	0e705063          	blez	t2,2000264e <__divdf3+0x5f2>
20002572:	5462                	lw	s0,56(sp)
20002574:	54d2                	lw	s1,52(sp)
20002576:	97ba                	add	a5,a5,a4
20002578:	b9c5                	j	20002268 <__divdf3+0x20c>
2000257a:	c0200613          	li	a2,-1022
2000257e:	00176713          	ori	a4,a4,1
20002582:	0ec8c863          	blt	a7,a2,20002672 <__divdf3+0x616>
20002586:	00470593          	addi	a1,a4,4
2000258a:	00e5b733          	sltu	a4,a1,a4
2000258e:	5462                	lw	s0,56(sp)
20002590:	54d2                	lw	s1,52(sp)
20002592:	818d                	srli	a1,a1,0x3
20002594:	97ba                	add	a5,a5,a4
20002596:	b9c9                	j	20002268 <__divdf3+0x20c>
20002598:	00f77613          	andi	a2,a4,15
2000259c:	4591                	li	a1,4
2000259e:	ccb603e3          	beq	a2,a1,20002264 <__divdf3+0x208>
200025a2:	00470593          	addi	a1,a4,4
200025a6:	00e5b733          	sltu	a4,a1,a4
200025aa:	97ba                	add	a5,a5,a4
200025ac:	818d                	srli	a1,a1,0x3
200025ae:	b96d                	j	20002268 <__divdf3+0x20c>
200025b0:	00777693          	andi	a3,a4,7
200025b4:	00175593          	srli	a1,a4,0x1
200025b8:	48fd                	li	a7,31
200025ba:	4605                	li	a2,1
200025bc:	10069f63          	bnez	a3,200026da <__divdf3+0x67e>
200025c0:	011798b3          	sll	a7,a5,a7
200025c4:	8dd5                	or	a1,a1,a3
200025c6:	00b8e733          	or	a4,a7,a1
200025ca:	00777693          	andi	a3,a4,7
200025ce:	00c7d7b3          	srl	a5,a5,a2
200025d2:	e2f5                	bnez	a3,200026b6 <__divdf3+0x65a>
200025d4:	00879693          	slli	a3,a5,0x8
200025d8:	1006d463          	bgez	a3,200026e0 <__divdf3+0x684>
200025dc:	4705                	li	a4,1
200025de:	4781                	li	a5,0
200025e0:	4681                	li	a3,0
200025e2:	b645                	j	20002182 <__divdf3+0x126>
200025e4:	00131e13          	slli	t3,t1,0x1
200025e8:	006e3333          	sltu	t1,t3,t1
200025ec:	9342                	add	t1,t1,a6
200025ee:	41c585b3          	sub	a1,a1,t3
200025f2:	961a                	add	a2,a2,t1
200025f4:	1779                	addi	a4,a4,-2
200025f6:	41d60e33          	sub	t3,a2,t4
200025fa:	00b03f33          	snez	t5,a1
200025fe:	b5d5                	j	200024e2 <__divdf3+0x486>
20002600:	5689                	li	a3,-30
20002602:	0cd3d063          	bge	t2,a3,200026c2 <__divdf3+0x666>
20002606:	5605                	li	a2,-31
20002608:	407606b3          	sub	a3,a2,t2
2000260c:	00d7d6b3          	srl	a3,a5,a3
20002610:	00c38763          	beq	t2,a2,2000261e <__divdf3+0x5c2>
20002614:	43e88893          	addi	a7,a7,1086
20002618:	011797b3          	sll	a5,a5,a7
2000261c:	8f5d                	or	a4,a4,a5
2000261e:	00e03733          	snez	a4,a4
20002622:	8f55                	or	a4,a4,a3
20002624:	00777693          	andi	a3,a4,7
20002628:	4781                	li	a5,0
2000262a:	ce91                	beqz	a3,20002646 <__divdf3+0x5ea>
2000262c:	00f77613          	andi	a2,a4,15
20002630:	4591                	li	a1,4
20002632:	4681                	li	a3,0
20002634:	00b60963          	beq	a2,a1,20002646 <__divdf3+0x5ea>
20002638:	00b70633          	add	a2,a4,a1
2000263c:	00e63733          	sltu	a4,a2,a4
20002640:	01d71693          	slli	a3,a4,0x1d
20002644:	8732                	mv	a4,a2
20002646:	830d                	srli	a4,a4,0x3
20002648:	8ed9                	or	a3,a3,a4
2000264a:	4701                	li	a4,0
2000264c:	be1d                	j	20002182 <__divdf3+0x126>
2000264e:	04039d63          	bnez	t2,200026a8 <__divdf3+0x64c>
20002652:	800006b7          	lui	a3,0x80000
20002656:	16fd                	addi	a3,a3,-1 # 7fffffff <__StackTop+0x5ff7dfff>
20002658:	5462                	lw	s0,56(sp)
2000265a:	54d2                	lw	s1,52(sp)
2000265c:	01f79713          	slli	a4,a5,0x1f
20002660:	8f55                	or	a4,a4,a3
20002662:	8385                	srli	a5,a5,0x1
20002664:	00470693          	addi	a3,a4,4
20002668:	00e6b733          	sltu	a4,a3,a4
2000266c:	97ba                	add	a5,a5,a4
2000266e:	8736                	mv	a4,a3
20002670:	b795                	j	200025d4 <__divdf3+0x578>
20002672:	c0100693          	li	a3,-1023
20002676:	02d89d63          	bne	a7,a3,200026b0 <__divdf3+0x654>
2000267a:	00175693          	srli	a3,a4,0x1
2000267e:	0016e693          	ori	a3,a3,1
20002682:	bfd9                	j	20002658 <__divdf3+0x5fc>
20002684:	8796                	mv	a5,t0
20002686:	bbbd                	j	20002404 <__divdf3+0x3a8>
20002688:	18fd                	addi	a7,a7,-1
2000268a:	8676                	mv	a2,t4
2000268c:	4681                	li	a3,0
2000268e:	b9b1                	j	200022ea <__divdf3+0x28e>
20002690:	15f9                	addi	a1,a1,-2
20002692:	9742                	add	a4,a4,a6
20002694:	b97d                	j	20002352 <__divdf3+0x2f6>
20002696:	12f9                	addi	t0,t0,-2
20002698:	97c2                	add	a5,a5,a6
2000269a:	b941                	j	2000232a <__divdf3+0x2ce>
2000269c:	15f9                	addi	a1,a1,-2
2000269e:	9642                	add	a2,a2,a6
200026a0:	b3f1                	j	2000246c <__divdf3+0x410>
200026a2:	1779                	addi	a4,a4,-2
200026a4:	95c2                	add	a1,a1,a6
200026a6:	bb69                	j	20002440 <__divdf3+0x3e4>
200026a8:	5462                	lw	s0,56(sp)
200026aa:	54d2                	lw	s1,52(sp)
200026ac:	577d                	li	a4,-1
200026ae:	b4d9                	j	20002174 <__divdf3+0x118>
200026b0:	5462                	lw	s0,56(sp)
200026b2:	54d2                	lw	s1,52(sp)
200026b4:	b4c1                	j	20002174 <__divdf3+0x118>
200026b6:	00f77693          	andi	a3,a4,15
200026ba:	4611                	li	a2,4
200026bc:	f0c68ce3          	beq	a3,a2,200025d4 <__divdf3+0x578>
200026c0:	b755                	j	20002664 <__divdf3+0x608>
200026c2:	41e88893          	addi	a7,a7,1054
200026c6:	4605                	li	a2,1
200026c8:	011716b3          	sll	a3,a4,a7
200026cc:	40760633          	sub	a2,a2,t2
200026d0:	00d036b3          	snez	a3,a3
200026d4:	00c755b3          	srl	a1,a4,a2
200026d8:	b5e5                	j	200025c0 <__divdf3+0x564>
200026da:	00c776b3          	and	a3,a4,a2
200026de:	b5cd                	j	200025c0 <__divdf3+0x564>
200026e0:	00979613          	slli	a2,a5,0x9
200026e4:	01d79693          	slli	a3,a5,0x1d
200026e8:	00c65793          	srli	a5,a2,0xc
200026ec:	bfa9                	j	20002646 <__divdf3+0x5ea>

200026ee <__eqdf2>:
200026ee:	0145d713          	srli	a4,a1,0x14
200026f2:	001007b7          	lui	a5,0x100
200026f6:	0146d813          	srli	a6,a3,0x14
200026fa:	17fd                	addi	a5,a5,-1 # fffff <HeapSize+0xff7ff>
200026fc:	7ff00893          	li	a7,2047
20002700:	7ff77713          	andi	a4,a4,2047
20002704:	00b7fe33          	and	t3,a5,a1
20002708:	01187833          	and	a6,a6,a7
2000270c:	8ff5                	and	a5,a5,a3
2000270e:	81fd                	srli	a1,a1,0x1f
20002710:	82fd                	srli	a3,a3,0x1f
20002712:	4305                	li	t1,1
20002714:	03170563          	beq	a4,a7,2000273e <__eqdf2+0x50>
20002718:	03180163          	beq	a6,a7,2000273a <__eqdf2+0x4c>
2000271c:	01071f63          	bne	a4,a6,2000273a <__eqdf2+0x4c>
20002720:	03c79d63          	bne	a5,t3,2000275a <__eqdf2+0x6c>
20002724:	02a61b63          	bne	a2,a0,2000275a <__eqdf2+0x6c>
20002728:	4301                	li	t1,0
2000272a:	00d58863          	beq	a1,a3,2000273a <__eqdf2+0x4c>
2000272e:	4305                	li	t1,1
20002730:	e709                	bnez	a4,2000273a <__eqdf2+0x4c>
20002732:	00ae6e33          	or	t3,t3,a0
20002736:	01c03333          	snez	t1,t3
2000273a:	851a                	mv	a0,t1
2000273c:	8082                	ret
2000273e:	fee81ee3          	bne	a6,a4,2000273a <__eqdf2+0x4c>
20002742:	00fe6e33          	or	t3,t3,a5
20002746:	00ce6e33          	or	t3,t3,a2
2000274a:	00ae6e33          	or	t3,t3,a0
2000274e:	fe0e16e3          	bnez	t3,2000273a <__eqdf2+0x4c>
20002752:	8d95                	sub	a1,a1,a3
20002754:	00b03333          	snez	t1,a1
20002758:	b7cd                	j	2000273a <__eqdf2+0x4c>
2000275a:	4305                	li	t1,1
2000275c:	851a                	mv	a0,t1
2000275e:	8082                	ret

20002760 <__gedf2>:
20002760:	0145d813          	srli	a6,a1,0x14
20002764:	001007b7          	lui	a5,0x100
20002768:	0146d713          	srli	a4,a3,0x14
2000276c:	17fd                	addi	a5,a5,-1 # fffff <HeapSize+0xff7ff>
2000276e:	7ff00893          	li	a7,2047
20002772:	7ff87813          	andi	a6,a6,2047
20002776:	00b7f333          	and	t1,a5,a1
2000277a:	01177733          	and	a4,a4,a7
2000277e:	8ff5                	and	a5,a5,a3
20002780:	81fd                	srli	a1,a1,0x1f
20002782:	82fd                	srli	a3,a3,0x1f
20002784:	05180263          	beq	a6,a7,200027c8 <__gedf2+0x68>
20002788:	03170263          	beq	a4,a7,200027ac <__gedf2+0x4c>
2000278c:	04081f63          	bnez	a6,200027ea <__gedf2+0x8a>
20002790:	00a36833          	or	a6,t1,a0
20002794:	e731                	bnez	a4,200027e0 <__gedf2+0x80>
20002796:	00c7e8b3          	or	a7,a5,a2
2000279a:	06088f63          	beqz	a7,20002818 <__gedf2+0xb8>
2000279e:	08081a63          	bnez	a6,20002832 <__gedf2+0xd2>
200027a2:	00169713          	slli	a4,a3,0x1
200027a6:	177d                	addi	a4,a4,-1
200027a8:	853a                	mv	a0,a4
200027aa:	8082                	ret
200027ac:	8fd1                	or	a5,a5,a2
200027ae:	e3c1                	bnez	a5,2000282e <__gedf2+0xce>
200027b0:	00081663          	bnez	a6,200027bc <__gedf2+0x5c>
200027b4:	00a36333          	or	t1,t1,a0
200027b8:	fe0305e3          	beqz	t1,200027a2 <__gedf2+0x42>
200027bc:	00d59c63          	bne	a1,a3,200027d4 <__gedf2+0x74>
200027c0:	00159713          	slli	a4,a1,0x1
200027c4:	177d                	addi	a4,a4,-1
200027c6:	a819                	j	200027dc <__gedf2+0x7c>
200027c8:	00a368b3          	or	a7,t1,a0
200027cc:	06089163          	bnez	a7,2000282e <__gedf2+0xce>
200027d0:	05070863          	beq	a4,a6,20002820 <__gedf2+0xc0>
200027d4:	40b005b3          	neg	a1,a1
200027d8:	0015e713          	ori	a4,a1,1
200027dc:	853a                	mv	a0,a4
200027de:	8082                	ret
200027e0:	fc0801e3          	beqz	a6,200027a2 <__gedf2+0x42>
200027e4:	fed598e3          	bne	a1,a3,200027d4 <__gedf2+0x74>
200027e8:	bfe1                	j	200027c0 <__gedf2+0x60>
200027ea:	d76d                	beqz	a4,200027d4 <__gedf2+0x74>
200027ec:	fed594e3          	bne	a1,a3,200027d4 <__gedf2+0x74>
200027f0:	ff0742e3          	blt	a4,a6,200027d4 <__gedf2+0x74>
200027f4:	fce846e3          	blt	a6,a4,200027c0 <__gedf2+0x60>
200027f8:	fc67eee3          	bltu	a5,t1,200027d4 <__gedf2+0x74>
200027fc:	40f30733          	sub	a4,t1,a5
20002800:	00173713          	seqz	a4,a4
20002804:	00a67363          	bgeu	a2,a0,2000280a <__gedf2+0xaa>
20002808:	f771                	bnez	a4,200027d4 <__gedf2+0x74>
2000280a:	faf36be3          	bltu	t1,a5,200027c0 <__gedf2+0x60>
2000280e:	00c57363          	bgeu	a0,a2,20002814 <__gedf2+0xb4>
20002812:	f75d                	bnez	a4,200027c0 <__gedf2+0x60>
20002814:	4701                	li	a4,0
20002816:	b7d9                	j	200027dc <__gedf2+0x7c>
20002818:	fa081ee3          	bnez	a6,200027d4 <__gedf2+0x74>
2000281c:	853a                	mv	a0,a4
2000281e:	8082                	ret
20002820:	00c7e733          	or	a4,a5,a2
20002824:	e709                	bnez	a4,2000282e <__gedf2+0xce>
20002826:	4705                	li	a4,1
20002828:	fad596e3          	bne	a1,a3,200027d4 <__gedf2+0x74>
2000282c:	bff9                	j	2000280a <__gedf2+0xaa>
2000282e:	5779                	li	a4,-2
20002830:	b775                	j	200027dc <__gedf2+0x7c>
20002832:	fad591e3          	bne	a1,a3,200027d4 <__gedf2+0x74>
20002836:	b7c9                	j	200027f8 <__gedf2+0x98>

20002838 <__ledf2>:
20002838:	0145d813          	srli	a6,a1,0x14
2000283c:	001007b7          	lui	a5,0x100
20002840:	0146d713          	srli	a4,a3,0x14
20002844:	17fd                	addi	a5,a5,-1 # fffff <HeapSize+0xff7ff>
20002846:	7ff00893          	li	a7,2047
2000284a:	7ff87813          	andi	a6,a6,2047
2000284e:	00b7f333          	and	t1,a5,a1
20002852:	01177733          	and	a4,a4,a7
20002856:	8ff5                	and	a5,a5,a3
20002858:	81fd                	srli	a1,a1,0x1f
2000285a:	82fd                	srli	a3,a3,0x1f
2000285c:	05180563          	beq	a6,a7,200028a6 <__ledf2+0x6e>
20002860:	03170263          	beq	a4,a7,20002884 <__ledf2+0x4c>
20002864:	06081863          	bnez	a6,200028d4 <__ledf2+0x9c>
20002868:	00a36833          	or	a6,t1,a0
2000286c:	e749                	bnez	a4,200028f6 <__ledf2+0xbe>
2000286e:	00c7e8b3          	or	a7,a5,a2
20002872:	08088a63          	beqz	a7,20002906 <__ledf2+0xce>
20002876:	08081d63          	bnez	a6,20002910 <__ledf2+0xd8>
2000287a:	00169713          	slli	a4,a3,0x1
2000287e:	177d                	addi	a4,a4,-1
20002880:	853a                	mv	a0,a4
20002882:	8082                	ret
20002884:	8fd1                	or	a5,a5,a2
20002886:	4709                	li	a4,2
20002888:	ffe5                	bnez	a5,20002880 <__ledf2+0x48>
2000288a:	00081663          	bnez	a6,20002896 <__ledf2+0x5e>
2000288e:	00a36333          	or	t1,t1,a0
20002892:	fe0304e3          	beqz	t1,2000287a <__ledf2+0x42>
20002896:	02d58b63          	beq	a1,a3,200028cc <__ledf2+0x94>
2000289a:	40b005b3          	neg	a1,a1
2000289e:	0015e713          	ori	a4,a1,1
200028a2:	853a                	mv	a0,a4
200028a4:	8082                	ret
200028a6:	00a368b3          	or	a7,t1,a0
200028aa:	04089b63          	bnez	a7,20002900 <__ledf2+0xc8>
200028ae:	ff0716e3          	bne	a4,a6,2000289a <__ledf2+0x62>
200028b2:	00c7e833          	or	a6,a5,a2
200028b6:	4709                	li	a4,2
200028b8:	fc0814e3          	bnez	a6,20002880 <__ledf2+0x48>
200028bc:	4705                	li	a4,1
200028be:	fcd59ee3          	bne	a1,a3,2000289a <__ledf2+0x62>
200028c2:	00f36563          	bltu	t1,a5,200028cc <__ledf2+0x94>
200028c6:	04c57363          	bgeu	a0,a2,2000290c <__ledf2+0xd4>
200028ca:	c329                	beqz	a4,2000290c <__ledf2+0xd4>
200028cc:	00159713          	slli	a4,a1,0x1
200028d0:	177d                	addi	a4,a4,-1
200028d2:	b77d                	j	20002880 <__ledf2+0x48>
200028d4:	d379                	beqz	a4,2000289a <__ledf2+0x62>
200028d6:	fcd592e3          	bne	a1,a3,2000289a <__ledf2+0x62>
200028da:	fd0740e3          	blt	a4,a6,2000289a <__ledf2+0x62>
200028de:	fee847e3          	blt	a6,a4,200028cc <__ledf2+0x94>
200028e2:	fa67ece3          	bltu	a5,t1,2000289a <__ledf2+0x62>
200028e6:	40f30733          	sub	a4,t1,a5
200028ea:	00173713          	seqz	a4,a4
200028ee:	fca67ae3          	bgeu	a2,a0,200028c2 <__ledf2+0x8a>
200028f2:	f745                	bnez	a4,2000289a <__ledf2+0x62>
200028f4:	b7f9                	j	200028c2 <__ledf2+0x8a>
200028f6:	f80802e3          	beqz	a6,2000287a <__ledf2+0x42>
200028fa:	fad590e3          	bne	a1,a3,2000289a <__ledf2+0x62>
200028fe:	b7f9                	j	200028cc <__ledf2+0x94>
20002900:	4709                	li	a4,2
20002902:	853a                	mv	a0,a4
20002904:	8082                	ret
20002906:	f6080de3          	beqz	a6,20002880 <__ledf2+0x48>
2000290a:	bf41                	j	2000289a <__ledf2+0x62>
2000290c:	4701                	li	a4,0
2000290e:	bf8d                	j	20002880 <__ledf2+0x48>
20002910:	f8d595e3          	bne	a1,a3,2000289a <__ledf2+0x62>
20002914:	b7f9                	j	200028e2 <__ledf2+0xaa>

20002916 <__muldf3>:
20002916:	0145d793          	srli	a5,a1,0x14
2000291a:	7139                	addi	sp,sp,-64
2000291c:	00c59713          	slli	a4,a1,0xc
20002920:	de06                	sw	ra,60(sp)
20002922:	7ff7f793          	andi	a5,a5,2047
20002926:	882a                	mv	a6,a0
20002928:	8331                	srli	a4,a4,0xc
2000292a:	81fd                	srli	a1,a1,0x1f
2000292c:	36078463          	beqz	a5,20002c94 <__muldf3+0x37e>
20002930:	7ff00513          	li	a0,2047
20002934:	22a78963          	beq	a5,a0,20002b66 <__muldf3+0x250>
20002938:	070e                	slli	a4,a4,0x3
2000293a:	01d85513          	srli	a0,a6,0x1d
2000293e:	8d59                	or	a0,a0,a4
20002940:	00800737          	lui	a4,0x800
20002944:	8f49                	or	a4,a4,a0
20002946:	c0178313          	addi	t1,a5,-1023
2000294a:	00381893          	slli	a7,a6,0x3
2000294e:	4e01                	li	t3,0
20002950:	4f81                	li	t6,0
20002952:	0146d793          	srli	a5,a3,0x14
20002956:	00c69813          	slli	a6,a3,0xc
2000295a:	7ff7f793          	andi	a5,a5,2047
2000295e:	00c85813          	srli	a6,a6,0xc
20002962:	82fd                	srli	a3,a3,0x1f
20002964:	22078463          	beqz	a5,20002b8c <__muldf3+0x276>
20002968:	7ff00513          	li	a0,2047
2000296c:	30a78063          	beq	a5,a0,20002c6c <__muldf3+0x356>
20002970:	c0178793          	addi	a5,a5,-1023
20002974:	4529                	li	a0,10
20002976:	933e                	add	t1,t1,a5
20002978:	29c54863          	blt	a0,t3,20002c08 <__muldf3+0x2f2>
2000297c:	080e                	slli	a6,a6,0x3
2000297e:	01d65793          	srli	a5,a2,0x1d
20002982:	0107e7b3          	or	a5,a5,a6
20002986:	00800837          	lui	a6,0x800
2000298a:	00d5c533          	xor	a0,a1,a3
2000298e:	0107e833          	or	a6,a5,a6
20002992:	4789                	li	a5,2
20002994:	00361e93          	slli	t4,a2,0x3
20002998:	85aa                	mv	a1,a0
2000299a:	4f01                	li	t5,0
2000299c:	03c7d163          	bge	a5,t3,200029be <__muldf3+0xa8>
200029a0:	4785                	li	a5,1
200029a2:	01c797b3          	sll	a5,a5,t3
200029a6:	5307f613          	andi	a2,a5,1328
200029aa:	24061f63          	bnez	a2,20002c08 <__muldf3+0x2f2>
200029ae:	2407f593          	andi	a1,a5,576
200029b2:	40059463          	bnez	a1,20002dba <__muldf3+0x4a4>
200029b6:	0887f793          	andi	a5,a5,136
200029ba:	24079363          	bnez	a5,20002c00 <__muldf3+0x2ea>
200029be:	01089793          	slli	a5,a7,0x10
200029c2:	010e9f93          	slli	t6,t4,0x10
200029c6:	0108d613          	srli	a2,a7,0x10
200029ca:	83c1                	srli	a5,a5,0x10
200029cc:	010fdf93          	srli	t6,t6,0x10
200029d0:	010ede93          	srli	t4,t4,0x10
200029d4:	03f785b3          	mul	a1,a5,t6
200029d8:	dc22                	sw	s0,56(sp)
200029da:	03f60e33          	mul	t3,a2,t6
200029de:	0105d693          	srli	a3,a1,0x10
200029e2:	02fe88b3          	mul	a7,t4,a5
200029e6:	98f2                	add	a7,a7,t3
200029e8:	96c6                	add	a3,a3,a7
200029ea:	03d602b3          	mul	t0,a2,t4
200029ee:	35c6ee63          	bltu	a3,t3,20002d4a <__muldf3+0x434>
200029f2:	01081393          	slli	t2,a6,0x10
200029f6:	05c2                	slli	a1,a1,0x10
200029f8:	01069e13          	slli	t3,a3,0x10
200029fc:	0103d393          	srli	t2,t2,0x10
20002a00:	01085813          	srli	a6,a6,0x10
20002a04:	81c1                	srli	a1,a1,0x10
20002a06:	00be0433          	add	s0,t3,a1
20002a0a:	82c1                	srli	a3,a3,0x10
20002a0c:	02778f33          	mul	t5,a5,t2
20002a10:	02760e33          	mul	t3,a2,t2
20002a14:	010f5593          	srli	a1,t5,0x10
20002a18:	02f807b3          	mul	a5,a6,a5
20002a1c:	97f2                	add	a5,a5,t3
20002a1e:	95be                	add	a1,a1,a5
20002a20:	030608b3          	mul	a7,a2,a6
20002a24:	01c5f463          	bgeu	a1,t3,20002a2c <__muldf3+0x116>
20002a28:	67c1                	lui	a5,0x10
20002a2a:	98be                	add	a7,a7,a5
20002a2c:	01071613          	slli	a2,a4,0x10
20002a30:	8241                	srli	a2,a2,0x10
20002a32:	8341                	srli	a4,a4,0x10
20002a34:	01059793          	slli	a5,a1,0x10
20002a38:	81c1                	srli	a1,a1,0x10
20002a3a:	95c6                	add	a1,a1,a7
20002a3c:	02ce8e33          	mul	t3,t4,a2
20002a40:	0f42                	slli	t5,t5,0x10
20002a42:	010f5f13          	srli	t5,t5,0x10
20002a46:	97fa                	add	a5,a5,t5
20002a48:	96be                	add	a3,a3,a5
20002a4a:	03f608b3          	mul	a7,a2,t6
20002a4e:	03f70fb3          	mul	t6,a4,t6
20002a52:	0108df13          	srli	t5,a7,0x10
20002a56:	9e7e                	add	t3,t3,t6
20002a58:	9f72                	add	t5,t5,t3
20002a5a:	02ee8eb3          	mul	t4,t4,a4
20002a5e:	01ff7463          	bgeu	t5,t6,20002a66 <__muldf3+0x150>
20002a62:	6fc1                	lui	t6,0x10
20002a64:	9efe                	add	t4,t4,t6
20002a66:	08c2                	slli	a7,a7,0x10
20002a68:	010f1f93          	slli	t6,t5,0x10
20002a6c:	0108d893          	srli	a7,a7,0x10
20002a70:	010f5f13          	srli	t5,t5,0x10
20002a74:	011f8e33          	add	t3,t6,a7
20002a78:	9f76                	add	t5,t5,t4
20002a7a:	027708b3          	mul	a7,a4,t2
20002a7e:	02760eb3          	mul	t4,a2,t2
20002a82:	02c80633          	mul	a2,a6,a2
20002a86:	010edf93          	srli	t6,t4,0x10
20002a8a:	9646                	add	a2,a2,a7
20002a8c:	9fb2                	add	t6,t6,a2
20002a8e:	02e80833          	mul	a6,a6,a4
20002a92:	011ff463          	bgeu	t6,a7,20002a9a <__muldf3+0x184>
20002a96:	6741                	lui	a4,0x10
20002a98:	983a                	add	a6,a6,a4
20002a9a:	010e9893          	slli	a7,t4,0x10
20002a9e:	0108d893          	srli	a7,a7,0x10
20002aa2:	010f9713          	slli	a4,t6,0x10
20002aa6:	9696                	add	a3,a3,t0
20002aa8:	9746                	add	a4,a4,a7
20002aaa:	95ba                	add	a1,a1,a4
20002aac:	00f6b7b3          	sltu	a5,a3,a5
20002ab0:	01c68eb3          	add	t4,a3,t3
20002ab4:	97ae                	add	a5,a5,a1
20002ab6:	01e78633          	add	a2,a5,t5
20002aba:	00deb6b3          	sltu	a3,t4,a3
20002abe:	96b2                	add	a3,a3,a2
20002ac0:	00e5b733          	sltu	a4,a1,a4
20002ac4:	00b7b5b3          	sltu	a1,a5,a1
20002ac8:	8f4d                	or	a4,a4,a1
20002aca:	00f637b3          	sltu	a5,a2,a5
20002ace:	010fd593          	srli	a1,t6,0x10
20002ad2:	00c6b633          	sltu	a2,a3,a2
20002ad6:	8fd1                	or	a5,a5,a2
20002ad8:	972e                	add	a4,a4,a1
20002ada:	009e9893          	slli	a7,t4,0x9
20002ade:	97ba                	add	a5,a5,a4
20002ae0:	0088e8b3          	or	a7,a7,s0
20002ae4:	97c2                	add	a5,a5,a6
20002ae6:	011038b3          	snez	a7,a7
20002aea:	017ed613          	srli	a2,t4,0x17
20002aee:	07a6                	slli	a5,a5,0x9
20002af0:	0176d713          	srli	a4,a3,0x17
20002af4:	00c8e8b3          	or	a7,a7,a2
20002af8:	06a6                	slli	a3,a3,0x9
20002afa:	00d8e8b3          	or	a7,a7,a3
20002afe:	00779693          	slli	a3,a5,0x7
20002b02:	8f5d                	or	a4,a4,a5
20002b04:	1206c963          	bltz	a3,20002c36 <__muldf3+0x320>
20002b08:	3ff30793          	addi	a5,t1,1023
20002b0c:	24f05963          	blez	a5,20002d5e <__muldf3+0x448>
20002b10:	0078f693          	andi	a3,a7,7
20002b14:	38068763          	beqz	a3,20002ea2 <__muldf3+0x58c>
20002b18:	00f8f693          	andi	a3,a7,15
20002b1c:	4611                	li	a2,4
20002b1e:	5462                	lw	s0,56(sp)
20002b20:	02c68263          	beq	a3,a2,20002b44 <__muldf3+0x22e>
20002b24:	00488693          	addi	a3,a7,4
20002b28:	0116b8b3          	sltu	a7,a3,a7
20002b2c:	9746                	add	a4,a4,a7
20002b2e:	88b6                	mv	a7,a3
20002b30:	00771693          	slli	a3,a4,0x7
20002b34:	0006d863          	bgez	a3,20002b44 <__muldf3+0x22e>
20002b38:	ff0006b7          	lui	a3,0xff000
20002b3c:	16fd                	addi	a3,a3,-1 # feffffff <__StackTop+0xdef7dfff>
20002b3e:	40030793          	addi	a5,t1,1024
20002b42:	8f75                	and	a4,a4,a3
20002b44:	7fe00693          	li	a3,2046
20002b48:	28f6c563          	blt	a3,a5,20002dd2 <__muldf3+0x4bc>
20002b4c:	01d71613          	slli	a2,a4,0x1d
20002b50:	0038d893          	srli	a7,a7,0x3
20002b54:	00971693          	slli	a3,a4,0x9
20002b58:	7ff7f793          	andi	a5,a5,2047
20002b5c:	01166633          	or	a2,a2,a7
20002b60:	00c6d713          	srli	a4,a3,0xc
20002b64:	a87d                	j	20002c22 <__muldf3+0x30c>
20002b66:	010768b3          	or	a7,a4,a6
20002b6a:	1c089b63          	bnez	a7,20002d40 <__muldf3+0x42a>
20002b6e:	833e                	mv	t1,a5
20002b70:	0146d793          	srli	a5,a3,0x14
20002b74:	00c69813          	slli	a6,a3,0xc
20002b78:	7ff7f793          	andi	a5,a5,2047
20002b7c:	4701                	li	a4,0
20002b7e:	4e21                	li	t3,8
20002b80:	4f89                	li	t6,2
20002b82:	00c85813          	srli	a6,a6,0xc
20002b86:	82fd                	srli	a3,a3,0x1f
20002b88:	de0790e3          	bnez	a5,20002968 <__muldf3+0x52>
20002b8c:	00c86eb3          	or	t4,a6,a2
20002b90:	160e8063          	beqz	t4,20002cf0 <__muldf3+0x3da>
20002b94:	26080a63          	beqz	a6,20002e08 <__muldf3+0x4f2>
20002b98:	8542                	mv	a0,a6
20002b9a:	d632                	sw	a2,44(sp)
20002b9c:	d472                	sw	t3,40(sp)
20002b9e:	d21a                	sw	t1,36(sp)
20002ba0:	d03a                	sw	a4,32(sp)
20002ba2:	ce46                	sw	a7,28(sp)
20002ba4:	cc7e                	sw	t6,24(sp)
20002ba6:	ca36                	sw	a3,20(sp)
20002ba8:	c82e                	sw	a1,16(sp)
20002baa:	c642                	sw	a6,12(sp)
20002bac:	619000ef          	jal	200039c4 <__clzsi2>
20002bb0:	4832                	lw	a6,12(sp)
20002bb2:	45c2                	lw	a1,16(sp)
20002bb4:	46d2                	lw	a3,20(sp)
20002bb6:	4fe2                	lw	t6,24(sp)
20002bb8:	48f2                	lw	a7,28(sp)
20002bba:	5702                	lw	a4,32(sp)
20002bbc:	5312                	lw	t1,36(sp)
20002bbe:	5e22                	lw	t3,40(sp)
20002bc0:	5632                	lw	a2,44(sp)
20002bc2:	87aa                	mv	a5,a0
20002bc4:	ff550e93          	addi	t4,a0,-11
20002bc8:	4575                	li	a0,29
20002bca:	41d50533          	sub	a0,a0,t4
20002bce:	ff878e93          	addi	t4,a5,-8 # fff8 <HeapSize+0xf7f8>
20002bd2:	01d81833          	sll	a6,a6,t4
20002bd6:	00a65533          	srl	a0,a2,a0
20002bda:	01056833          	or	a6,a0,a6
20002bde:	01d61eb3          	sll	t4,a2,t4
20002be2:	40f307b3          	sub	a5,t1,a5
20002be6:	4629                	li	a2,10
20002be8:	c0d78313          	addi	t1,a5,-1011
20002bec:	01c64e63          	blt	a2,t3,20002c08 <__muldf3+0x2f2>
20002bf0:	4789                	li	a5,2
20002bf2:	00d5c533          	xor	a0,a1,a3
20002bf6:	ddc7d4e3          	bge	a5,t3,200029be <__muldf3+0xa8>
20002bfa:	85aa                	mv	a1,a0
20002bfc:	4f01                	li	t5,0
20002bfe:	b34d                	j	200029a0 <__muldf3+0x8a>
20002c00:	85b6                	mv	a1,a3
20002c02:	8742                	mv	a4,a6
20002c04:	88f6                	mv	a7,t4
20002c06:	8ffa                	mv	t6,t5
20002c08:	4789                	li	a5,2
20002c0a:	1aff8e63          	beq	t6,a5,20002dc6 <__muldf3+0x4b0>
20002c0e:	478d                	li	a5,3
20002c10:	14ff8063          	beq	t6,a5,20002d50 <__muldf3+0x43a>
20002c14:	4785                	li	a5,1
20002c16:	852e                	mv	a0,a1
20002c18:	02ff9b63          	bne	t6,a5,20002c4e <__muldf3+0x338>
20002c1c:	4781                	li	a5,0
20002c1e:	4701                	li	a4,0
20002c20:	4601                	li	a2,0
20002c22:	50f2                	lw	ra,60(sp)
20002c24:	07d2                	slli	a5,a5,0x14
20002c26:	01f51593          	slli	a1,a0,0x1f
20002c2a:	8fd9                	or	a5,a5,a4
20002c2c:	8fcd                	or	a5,a5,a1
20002c2e:	8532                	mv	a0,a2
20002c30:	85be                	mv	a1,a5
20002c32:	6121                	addi	sp,sp,64
20002c34:	8082                	ret
20002c36:	0018d793          	srli	a5,a7,0x1
20002c3a:	5462                	lw	s0,56(sp)
20002c3c:	0018f893          	andi	a7,a7,1
20002c40:	0117e7b3          	or	a5,a5,a7
20002c44:	01f71893          	slli	a7,a4,0x1f
20002c48:	0117e8b3          	or	a7,a5,a7
20002c4c:	8305                	srli	a4,a4,0x1
20002c4e:	40030793          	addi	a5,t1,1024
20002c52:	0305                	addi	t1,t1,1
20002c54:	10f05663          	blez	a5,20002d60 <__muldf3+0x44a>
20002c58:	0078f693          	andi	a3,a7,7
20002c5c:	ec068ae3          	beqz	a3,20002b30 <__muldf3+0x21a>
20002c60:	00f8f693          	andi	a3,a7,15
20002c64:	4611                	li	a2,4
20002c66:	eac69fe3          	bne	a3,a2,20002b24 <__muldf3+0x20e>
20002c6a:	b5d9                	j	20002b30 <__muldf3+0x21a>
20002c6c:	00c86eb3          	or	t4,a6,a2
20002c70:	7ff30313          	addi	t1,t1,2047
20002c74:	0a0e9563          	bnez	t4,20002d1e <__muldf3+0x408>
20002c78:	002e6793          	ori	a5,t3,2
20002c7c:	4629                	li	a2,10
20002c7e:	f8f645e3          	blt	a2,a5,20002c08 <__muldf3+0x2f2>
20002c82:	8db5                	xor	a1,a1,a3
20002c84:	852e                	mv	a0,a1
20002c86:	4f09                	li	t5,2
20002c88:	080e0063          	beqz	t3,20002d08 <__muldf3+0x3f2>
20002c8c:	8e3e                	mv	t3,a5
20002c8e:	4801                	li	a6,0
20002c90:	4f09                	li	t5,2
20002c92:	b339                	j	200029a0 <__muldf3+0x8a>
20002c94:	00a768b3          	or	a7,a4,a0
20002c98:	04088763          	beqz	a7,20002ce6 <__muldf3+0x3d0>
20002c9c:	ce36                	sw	a3,28(sp)
20002c9e:	cc32                	sw	a2,24(sp)
20002ca0:	12070e63          	beqz	a4,20002ddc <__muldf3+0x4c6>
20002ca4:	ca2a                	sw	a0,20(sp)
20002ca6:	853a                	mv	a0,a4
20002ca8:	c82e                	sw	a1,16(sp)
20002caa:	c63a                	sw	a4,12(sp)
20002cac:	519000ef          	jal	200039c4 <__clzsi2>
20002cb0:	4732                	lw	a4,12(sp)
20002cb2:	45c2                	lw	a1,16(sp)
20002cb4:	4852                	lw	a6,20(sp)
20002cb6:	4662                	lw	a2,24(sp)
20002cb8:	46f2                	lw	a3,28(sp)
20002cba:	8e2a                	mv	t3,a0
20002cbc:	ff550893          	addi	a7,a0,-11
20002cc0:	47f5                	li	a5,29
20002cc2:	411787b3          	sub	a5,a5,a7
20002cc6:	ff8e0893          	addi	a7,t3,-8
20002cca:	01171733          	sll	a4,a4,a7
20002cce:	00f857b3          	srl	a5,a6,a5
20002cd2:	8f5d                	or	a4,a4,a5
20002cd4:	011818b3          	sll	a7,a6,a7
20002cd8:	c0d00793          	li	a5,-1011
20002cdc:	41c78333          	sub	t1,a5,t3
20002ce0:	4f81                	li	t6,0
20002ce2:	4e01                	li	t3,0
20002ce4:	b1bd                	j	20002952 <__muldf3+0x3c>
20002ce6:	4701                	li	a4,0
20002ce8:	4e11                	li	t3,4
20002cea:	4301                	li	t1,0
20002cec:	4f85                	li	t6,1
20002cee:	b195                	j	20002952 <__muldf3+0x3c>
20002cf0:	001e6e13          	ori	t3,t3,1
20002cf4:	47a9                	li	a5,10
20002cf6:	f1c7c9e3          	blt	a5,t3,20002c08 <__muldf3+0x2f2>
20002cfa:	8db5                	xor	a1,a1,a3
20002cfc:	4789                	li	a5,2
20002cfe:	852e                	mv	a0,a1
20002d00:	4801                	li	a6,0
20002d02:	4f05                	li	t5,1
20002d04:	c9c7cee3          	blt	a5,t3,200029a0 <__muldf3+0x8a>
20002d08:	4789                	li	a5,2
20002d0a:	0aff0e63          	beq	t5,a5,20002dc6 <__muldf3+0x4b0>
20002d0e:	4f85                	li	t6,1
20002d10:	4785                	li	a5,1
20002d12:	4701                	li	a4,0
20002d14:	4881                	li	a7,0
20002d16:	852e                	mv	a0,a1
20002d18:	f2ff9be3          	bne	t6,a5,20002c4e <__muldf3+0x338>
20002d1c:	b701                	j	20002c1c <__muldf3+0x306>
20002d1e:	003e6e13          	ori	t3,t3,3
20002d22:	4529                	li	a0,10
20002d24:	17c54a63          	blt	a0,t3,20002e98 <__muldf3+0x582>
20002d28:	4785                	li	a5,1
20002d2a:	01c797b3          	sll	a5,a5,t3
20002d2e:	0887f793          	andi	a5,a5,136
20002d32:	00d5c533          	xor	a0,a1,a3
20002d36:	8eb2                	mv	t4,a2
20002d38:	4f0d                	li	t5,3
20002d3a:	c80782e3          	beqz	a5,200029be <__muldf3+0xa8>
20002d3e:	b5c9                	j	20002c00 <__muldf3+0x2ea>
20002d40:	88c2                	mv	a7,a6
20002d42:	833e                	mv	t1,a5
20002d44:	4e31                	li	t3,12
20002d46:	4f8d                	li	t6,3
20002d48:	b129                	j	20002952 <__muldf3+0x3c>
20002d4a:	68c1                	lui	a7,0x10
20002d4c:	92c6                	add	t0,t0,a7
20002d4e:	b155                	j	200029f2 <__muldf3+0xdc>
20002d50:	4501                	li	a0,0
20002d52:	7ff00793          	li	a5,2047
20002d56:	00080737          	lui	a4,0x80
20002d5a:	4601                	li	a2,0
20002d5c:	b5d9                	j	20002c22 <__muldf3+0x30c>
20002d5e:	5462                	lw	s0,56(sp)
20002d60:	c7ed                	beqz	a5,20002e4a <__muldf3+0x534>
20002d62:	fc900693          	li	a3,-55
20002d66:	ead7cbe3          	blt	a5,a3,20002c1c <__muldf3+0x306>
20002d6a:	5689                	li	a3,-30
20002d6c:	12d7dd63          	bge	a5,a3,20002ea6 <__muldf3+0x590>
20002d70:	5605                	li	a2,-31
20002d72:	40f606b3          	sub	a3,a2,a5
20002d76:	00d756b3          	srl	a3,a4,a3
20002d7a:	00c78863          	beq	a5,a2,20002d8a <__muldf3+0x474>
20002d7e:	43e30313          	addi	t1,t1,1086
20002d82:	00671333          	sll	t1,a4,t1
20002d86:	0068e8b3          	or	a7,a7,t1
20002d8a:	01103633          	snez	a2,a7
20002d8e:	8e55                	or	a2,a2,a3
20002d90:	00767793          	andi	a5,a2,7
20002d94:	4701                	li	a4,0
20002d96:	cf91                	beqz	a5,20002db2 <__muldf3+0x49c>
20002d98:	00f67693          	andi	a3,a2,15
20002d9c:	4591                	li	a1,4
20002d9e:	4781                	li	a5,0
20002da0:	00b68963          	beq	a3,a1,20002db2 <__muldf3+0x49c>
20002da4:	00b606b3          	add	a3,a2,a1
20002da8:	00c6b633          	sltu	a2,a3,a2
20002dac:	01d61793          	slli	a5,a2,0x1d
20002db0:	8636                	mv	a2,a3
20002db2:	820d                	srli	a2,a2,0x3
20002db4:	8e5d                	or	a2,a2,a5
20002db6:	4781                	li	a5,0
20002db8:	b5ad                	j	20002c22 <__muldf3+0x30c>
20002dba:	4501                	li	a0,0
20002dbc:	7ff00793          	li	a5,2047
20002dc0:	00080737          	lui	a4,0x80
20002dc4:	bdb9                	j	20002c22 <__muldf3+0x30c>
20002dc6:	852e                	mv	a0,a1
20002dc8:	7ff00793          	li	a5,2047
20002dcc:	4701                	li	a4,0
20002dce:	4601                	li	a2,0
20002dd0:	bd89                	j	20002c22 <__muldf3+0x30c>
20002dd2:	7ff00793          	li	a5,2047
20002dd6:	4701                	li	a4,0
20002dd8:	4601                	li	a2,0
20002dda:	b5a1                	j	20002c22 <__muldf3+0x30c>
20002ddc:	ca3a                	sw	a4,20(sp)
20002dde:	c82e                	sw	a1,16(sp)
20002de0:	c62a                	sw	a0,12(sp)
20002de2:	3e3000ef          	jal	200039c4 <__clzsi2>
20002de6:	01550893          	addi	a7,a0,21
20002dea:	47f1                	li	a5,28
20002dec:	4832                	lw	a6,12(sp)
20002dee:	45c2                	lw	a1,16(sp)
20002df0:	4662                	lw	a2,24(sp)
20002df2:	46f2                	lw	a3,28(sp)
20002df4:	02050e13          	addi	t3,a0,32
20002df8:	4701                	li	a4,0
20002dfa:	ed17d3e3          	bge	a5,a7,20002cc0 <__muldf3+0x3aa>
20002dfe:	1561                	addi	a0,a0,-8
20002e00:	00a81733          	sll	a4,a6,a0
20002e04:	4881                	li	a7,0
20002e06:	bdc9                	j	20002cd8 <__muldf3+0x3c2>
20002e08:	8532                	mv	a0,a2
20002e0a:	d672                	sw	t3,44(sp)
20002e0c:	d41a                	sw	t1,40(sp)
20002e0e:	d242                	sw	a6,36(sp)
20002e10:	d03a                	sw	a4,32(sp)
20002e12:	ce46                	sw	a7,28(sp)
20002e14:	cc7e                	sw	t6,24(sp)
20002e16:	ca36                	sw	a3,20(sp)
20002e18:	c82e                	sw	a1,16(sp)
20002e1a:	c632                	sw	a2,12(sp)
20002e1c:	3a9000ef          	jal	200039c4 <__clzsi2>
20002e20:	01550e93          	addi	t4,a0,21
20002e24:	4f71                	li	t5,28
20002e26:	4632                	lw	a2,12(sp)
20002e28:	45c2                	lw	a1,16(sp)
20002e2a:	46d2                	lw	a3,20(sp)
20002e2c:	4fe2                	lw	t6,24(sp)
20002e2e:	48f2                	lw	a7,28(sp)
20002e30:	5702                	lw	a4,32(sp)
20002e32:	5322                	lw	t1,40(sp)
20002e34:	5e32                	lw	t3,44(sp)
20002e36:	02050793          	addi	a5,a0,32
20002e3a:	4801                	li	a6,0
20002e3c:	d9df56e3          	bge	t5,t4,20002bc8 <__muldf3+0x2b2>
20002e40:	1561                	addi	a0,a0,-8
20002e42:	00a61833          	sll	a6,a2,a0
20002e46:	4e81                	li	t4,0
20002e48:	bb69                	j	20002be2 <__muldf3+0x2cc>
20002e4a:	4685                	li	a3,1
20002e4c:	41e30313          	addi	t1,t1,1054
20002e50:	00689633          	sll	a2,a7,t1
20002e54:	00c03633          	snez	a2,a2
20002e58:	00671333          	sll	t1,a4,t1
20002e5c:	00d8d8b3          	srl	a7,a7,a3
20002e60:	00666633          	or	a2,a2,t1
20002e64:	01166633          	or	a2,a2,a7
20002e68:	00767793          	andi	a5,a2,7
20002e6c:	00d756b3          	srl	a3,a4,a3
20002e70:	cf81                	beqz	a5,20002e88 <__muldf3+0x572>
20002e72:	00f67793          	andi	a5,a2,15
20002e76:	4711                	li	a4,4
20002e78:	00e78863          	beq	a5,a4,20002e88 <__muldf3+0x572>
20002e7c:	00e607b3          	add	a5,a2,a4
20002e80:	00c7b633          	sltu	a2,a5,a2
20002e84:	96b2                	add	a3,a3,a2
20002e86:	863e                	mv	a2,a5
20002e88:	00869793          	slli	a5,a3,0x8
20002e8c:	0207d063          	bgez	a5,20002eac <__muldf3+0x596>
20002e90:	4785                	li	a5,1
20002e92:	4701                	li	a4,0
20002e94:	4601                	li	a2,0
20002e96:	b371                	j	20002c22 <__muldf3+0x30c>
20002e98:	4501                	li	a0,0
20002e9a:	00080737          	lui	a4,0x80
20002e9e:	4601                	li	a2,0
20002ea0:	b349                	j	20002c22 <__muldf3+0x30c>
20002ea2:	5462                	lw	s0,56(sp)
20002ea4:	b145                	j	20002b44 <__muldf3+0x22e>
20002ea6:	4685                	li	a3,1
20002ea8:	8e9d                	sub	a3,a3,a5
20002eaa:	b74d                	j	20002e4c <__muldf3+0x536>
20002eac:	00969593          	slli	a1,a3,0x9
20002eb0:	01d69793          	slli	a5,a3,0x1d
20002eb4:	00c5d713          	srli	a4,a1,0xc
20002eb8:	bded                	j	20002db2 <__muldf3+0x49c>

20002eba <__subdf3>:
20002eba:	001007b7          	lui	a5,0x100
20002ebe:	17fd                	addi	a5,a5,-1 # fffff <HeapSize+0xff7ff>
20002ec0:	00b7f333          	and	t1,a5,a1
20002ec4:	8ff5                	and	a5,a5,a3
20002ec6:	00379813          	slli	a6,a5,0x3
20002eca:	0146d893          	srli	a7,a3,0x14
20002ece:	030e                	slli	t1,t1,0x3
20002ed0:	1101                	addi	sp,sp,-32
20002ed2:	01d55713          	srli	a4,a0,0x1d
20002ed6:	01d65793          	srli	a5,a2,0x1d
20002eda:	00676733          	or	a4,a4,t1
20002ede:	0107e7b3          	or	a5,a5,a6
20002ee2:	7ff00313          	li	t1,2047
20002ee6:	0145d813          	srli	a6,a1,0x14
20002eea:	ce06                	sw	ra,28(sp)
20002eec:	81fd                	srli	a1,a1,0x1f
20002eee:	7ff8f893          	andi	a7,a7,2047
20002ef2:	82fd                	srli	a3,a3,0x1f
20002ef4:	00687833          	and	a6,a6,t1
20002ef8:	8fae                	mv	t6,a1
20002efa:	00351e93          	slli	t4,a0,0x3
20002efe:	00361e13          	slli	t3,a2,0x3
20002f02:	14688c63          	beq	a7,t1,2000305a <__subdf3+0x1a0>
20002f06:	0016c693          	xori	a3,a3,1
20002f0a:	41180f33          	sub	t5,a6,a7
20002f0e:	0ad58763          	beq	a1,a3,20002fbc <__subdf3+0x102>
20002f12:	5fe05663          	blez	t5,200034fe <__subdf3+0x644>
20002f16:	18088d63          	beqz	a7,200030b0 <__subdf3+0x1f6>
20002f1a:	42680b63          	beq	a6,t1,20003350 <__subdf3+0x496>
20002f1e:	03800693          	li	a3,56
20002f22:	1be6c863          	blt	a3,t5,200030d2 <__subdf3+0x218>
20002f26:	008006b7          	lui	a3,0x800
20002f2a:	8fd5                	or	a5,a5,a3
20002f2c:	46fd                	li	a3,31
20002f2e:	4fe6cf63          	blt	a3,t5,2000342c <__subdf3+0x572>
20002f32:	02000693          	li	a3,32
20002f36:	41e686b3          	sub	a3,a3,t5
20002f3a:	00d79333          	sll	t1,a5,a3
20002f3e:	00de16b3          	sll	a3,t3,a3
20002f42:	01ee5e33          	srl	t3,t3,t5
20002f46:	00d036b3          	snez	a3,a3
20002f4a:	01c36333          	or	t1,t1,t3
20002f4e:	01e7df33          	srl	t5,a5,t5
20002f52:	00d36333          	or	t1,t1,a3
20002f56:	41e70733          	sub	a4,a4,t5
20002f5a:	406e8333          	sub	t1,t4,t1
20002f5e:	006eb7b3          	sltu	a5,t4,t1
20002f62:	8f1d                	sub	a4,a4,a5
20002f64:	00871793          	slli	a5,a4,0x8
20002f68:	3607c563          	bltz	a5,200032d2 <__subdf3+0x418>
20002f6c:	00737793          	andi	a5,t1,7
20002f70:	2e078863          	beqz	a5,20003260 <__subdf3+0x3a6>
20002f74:	00f37793          	andi	a5,t1,15
20002f78:	4691                	li	a3,4
20002f7a:	2ed78363          	beq	a5,a3,20003260 <__subdf3+0x3a6>
20002f7e:	00430793          	addi	a5,t1,4
20002f82:	0067b333          	sltu	t1,a5,t1
20002f86:	971a                	add	a4,a4,t1
20002f88:	833e                	mv	t1,a5
20002f8a:	00871793          	slli	a5,a4,0x8
20002f8e:	2c07d963          	bgez	a5,20003260 <__subdf3+0x3a6>
20002f92:	00180693          	addi	a3,a6,1 # 800001 <HeapSize+0x7ff801>
20002f96:	7ff00793          	li	a5,2047
20002f9a:	0015ff93          	andi	t6,a1,1
20002f9e:	2ef69e63          	bne	a3,a5,2000329a <__subdf3+0x3e0>
20002fa2:	4781                	li	a5,0
20002fa4:	4881                	li	a7,0
20002fa6:	40f2                	lw	ra,28(sp)
20002fa8:	01469713          	slli	a4,a3,0x14
20002fac:	8fd9                	or	a5,a5,a4
20002fae:	01ff9693          	slli	a3,t6,0x1f
20002fb2:	8546                	mv	a0,a7
20002fb4:	00d7e5b3          	or	a1,a5,a3
20002fb8:	6105                	addi	sp,sp,32
20002fba:	8082                	ret
20002fbc:	63e05a63          	blez	t5,200035f0 <__subdf3+0x736>
20002fc0:	22089463          	bnez	a7,200031e8 <__subdf3+0x32e>
20002fc4:	01c7e6b3          	or	a3,a5,t3
20002fc8:	58068b63          	beqz	a3,2000355e <__subdf3+0x6a4>
20002fcc:	fff80f13          	addi	t5,a6,-1
20002fd0:	240f0563          	beqz	t5,2000321a <__subdf3+0x360>
20002fd4:	60680463          	beq	a6,t1,200035dc <__subdf3+0x722>
20002fd8:	03800693          	li	a3,56
20002fdc:	23e6c063          	blt	a3,t5,200031fc <__subdf3+0x342>
20002fe0:	46fd                	li	a3,31
20002fe2:	59e6c663          	blt	a3,t5,2000356e <__subdf3+0x6b4>
20002fe6:	02000613          	li	a2,32
20002fea:	41e60633          	sub	a2,a2,t5
20002fee:	00c796b3          	sll	a3,a5,a2
20002ff2:	00ce1633          	sll	a2,t3,a2
20002ff6:	01ee5e33          	srl	t3,t3,t5
20002ffa:	00c03633          	snez	a2,a2
20002ffe:	01c6e6b3          	or	a3,a3,t3
20003002:	01e7df33          	srl	t5,a5,t5
20003006:	8ed1                	or	a3,a3,a2
20003008:	977a                	add	a4,a4,t5
2000300a:	01d687b3          	add	a5,a3,t4
2000300e:	00d7b6b3          	sltu	a3,a5,a3
20003012:	9736                	add	a4,a4,a3
20003014:	833e                	mv	t1,a5
20003016:	00871793          	slli	a5,a4,0x8
2000301a:	f407d9e3          	bgez	a5,20002f6c <__subdf3+0xb2>
2000301e:	0805                	addi	a6,a6,1
20003020:	7ff00793          	li	a5,2047
20003024:	54f80163          	beq	a6,a5,20003566 <__subdf3+0x6ac>
20003028:	ff8007b7          	lui	a5,0xff800
2000302c:	00135693          	srli	a3,t1,0x1
20003030:	17fd                	addi	a5,a5,-1 # ff7fffff <__StackTop+0xdf77dfff>
20003032:	00137313          	andi	t1,t1,1
20003036:	0066e6b3          	or	a3,a3,t1
2000303a:	8ff9                	and	a5,a5,a4
2000303c:	01f79313          	slli	t1,a5,0x1f
20003040:	0076f613          	andi	a2,a3,7
20003044:	0017d713          	srli	a4,a5,0x1
20003048:	00d36333          	or	t1,t1,a3
2000304c:	de1d                	beqz	a2,20002f8a <__subdf3+0xd0>
2000304e:	00f37793          	andi	a5,t1,15
20003052:	4691                	li	a3,4
20003054:	f2d795e3          	bne	a5,a3,20002f7e <__subdf3+0xc4>
20003058:	bf0d                	j	20002f8a <__subdf3+0xd0>
2000305a:	01c7e333          	or	t1,a5,t3
2000305e:	80180f13          	addi	t5,a6,-2047
20003062:	10030663          	beqz	t1,2000316e <__subdf3+0x2b4>
20003066:	10d58863          	beq	a1,a3,20003176 <__subdf3+0x2bc>
2000306a:	140f0563          	beqz	t5,200031b4 <__subdf3+0x2fa>
2000306e:	38080063          	beqz	a6,200033ee <__subdf3+0x534>
20003072:	00361713          	slli	a4,a2,0x3
20003076:	00375513          	srli	a0,a4,0x3
2000307a:	01d79713          	slli	a4,a5,0x1d
2000307e:	85b6                	mv	a1,a3
20003080:	00e568b3          	or	a7,a0,a4
20003084:	838d                	srli	a5,a5,0x3
20003086:	00f8e8b3          	or	a7,a7,a5
2000308a:	2a088d63          	beqz	a7,20003344 <__subdf3+0x48a>
2000308e:	40f2                	lw	ra,28(sp)
20003090:	7ff00693          	li	a3,2047
20003094:	01469713          	slli	a4,a3,0x14
20003098:	4f81                	li	t6,0
2000309a:	000807b7          	lui	a5,0x80
2000309e:	4881                	li	a7,0
200030a0:	8fd9                	or	a5,a5,a4
200030a2:	01ff9693          	slli	a3,t6,0x1f
200030a6:	8546                	mv	a0,a7
200030a8:	00d7e5b3          	or	a1,a5,a3
200030ac:	6105                	addi	sp,sp,32
200030ae:	8082                	ret
200030b0:	00351613          	slli	a2,a0,0x3
200030b4:	01c7e6b3          	or	a3,a5,t3
200030b8:	820d                	srli	a2,a2,0x3
200030ba:	1a068563          	beqz	a3,20003264 <__subdf3+0x3aa>
200030be:	fff80f13          	addi	t5,a6,-1
200030c2:	460f0763          	beqz	t5,20003530 <__subdf3+0x676>
200030c6:	28680563          	beq	a6,t1,20003350 <__subdf3+0x496>
200030ca:	03800693          	li	a3,56
200030ce:	e5e6dfe3          	bge	a3,t5,20002f2c <__subdf3+0x72>
200030d2:	fffe8313          	addi	t1,t4,-1 # ffff <HeapSize+0xf7ff>
200030d6:	006eb7b3          	sltu	a5,t4,t1
200030da:	8f1d                	sub	a4,a4,a5
200030dc:	00871693          	slli	a3,a4,0x8
200030e0:	008007b7          	lui	a5,0x800
200030e4:	e806dde3          	bgez	a3,20002f7e <__subdf3+0xc4>
200030e8:	fff78713          	addi	a4,a5,-1 # 7fffff <HeapSize+0x7ff7ff>
200030ec:	537d                	li	t1,-1
200030ee:	853a                	mv	a0,a4
200030f0:	c62e                	sw	a1,12(sp)
200030f2:	c41a                	sw	t1,8(sp)
200030f4:	c242                	sw	a6,4(sp)
200030f6:	c03a                	sw	a4,0(sp)
200030f8:	0cd000ef          	jal	200039c4 <__clzsi2>
200030fc:	4702                	lw	a4,0(sp)
200030fe:	4812                	lw	a6,4(sp)
20003100:	4322                	lw	t1,8(sp)
20003102:	45b2                	lw	a1,12(sp)
20003104:	ff850693          	addi	a3,a0,-8
20003108:	02000613          	li	a2,32
2000310c:	40d607b3          	sub	a5,a2,a3
20003110:	00f357b3          	srl	a5,t1,a5
20003114:	00d71733          	sll	a4,a4,a3
20003118:	8fd9                	or	a5,a5,a4
2000311a:	00d31333          	sll	t1,t1,a3
2000311e:	2b06cb63          	blt	a3,a6,200033d4 <__subdf3+0x51a>
20003122:	410686b3          	sub	a3,a3,a6
20003126:	0685                	addi	a3,a3,1 # 800001 <HeapSize+0x7ff801>
20003128:	8e15                	sub	a2,a2,a3
2000312a:	00c31733          	sll	a4,t1,a2
2000312e:	00e03533          	snez	a0,a4
20003132:	00d35733          	srl	a4,t1,a3
20003136:	00c79633          	sll	a2,a5,a2
2000313a:	8f49                	or	a4,a4,a0
2000313c:	00e66333          	or	t1,a2,a4
20003140:	00d7d733          	srl	a4,a5,a3
20003144:	00e367b3          	or	a5,t1,a4
20003148:	c3f9                	beqz	a5,2000320e <__subdf3+0x354>
2000314a:	00737793          	andi	a5,t1,7
2000314e:	66078e63          	beqz	a5,200037ca <__subdf3+0x910>
20003152:	00f37793          	andi	a5,t1,15
20003156:	4691                	li	a3,4
20003158:	4801                	li	a6,0
2000315a:	e2d792e3          	bne	a5,a3,20002f7e <__subdf3+0xc4>
2000315e:	00871793          	slli	a5,a4,0x8
20003162:	0e07df63          	bgez	a5,20003260 <__subdf3+0x3a6>
20003166:	0015ff93          	andi	t6,a1,1
2000316a:	4685                	li	a3,1
2000316c:	aa05                	j	2000329c <__subdf3+0x3e2>
2000316e:	0016c693          	xori	a3,a3,1
20003172:	eed59ce3          	bne	a1,a3,2000306a <__subdf3+0x1b0>
20003176:	1e0f0663          	beqz	t5,20003362 <__subdf3+0x4a8>
2000317a:	2e081863          	bnez	a6,2000346a <__subdf3+0x5b0>
2000317e:	86c6                	mv	a3,a7
20003180:	01d76533          	or	a0,a4,t4
20003184:	58050963          	beqz	a0,20003716 <__subdf3+0x85c>
20003188:	fff68513          	addi	a0,a3,-1
2000318c:	c559                	beqz	a0,2000321a <__subdf3+0x360>
2000318e:	7ff00813          	li	a6,2047
20003192:	2d068c63          	beq	a3,a6,2000346a <__subdf3+0x5b0>
20003196:	03800613          	li	a2,56
2000319a:	62a65363          	bge	a2,a0,200037c0 <__subdf3+0x906>
2000319e:	8836                	mv	a6,a3
200031a0:	00879693          	slli	a3,a5,0x8
200031a4:	001e0313          	addi	t1,t3,1
200031a8:	00800737          	lui	a4,0x800
200031ac:	e606c9e3          	bltz	a3,2000301e <__subdf3+0x164>
200031b0:	873e                	mv	a4,a5
200031b2:	b3f1                	j	20002f7e <__subdf3+0xc4>
200031b4:	00180893          	addi	a7,a6,1
200031b8:	7fe8f893          	andi	a7,a7,2046
200031bc:	1e089863          	bnez	a7,200033ac <__subdf3+0x4f2>
200031c0:	01c7e8b3          	or	a7,a5,t3
200031c4:	01d76333          	or	t1,a4,t4
200031c8:	30081d63          	bnez	a6,200034e2 <__subdf3+0x628>
200031cc:	4a030963          	beqz	t1,2000367e <__subdf3+0x7c4>
200031d0:	4a089d63          	bnez	a7,2000368a <__subdf3+0x7d0>
200031d4:	003ed793          	srli	a5,t4,0x3
200031d8:	01d71613          	slli	a2,a4,0x1d
200031dc:	00f668b3          	or	a7,a2,a5
200031e0:	4801                	li	a6,0
200031e2:	00375793          	srli	a5,a4,0x3
200031e6:	a849                	j	20003278 <__subdf3+0x3be>
200031e8:	16680463          	beq	a6,t1,20003350 <__subdf3+0x496>
200031ec:	03800693          	li	a3,56
200031f0:	01e6c663          	blt	a3,t5,200031fc <__subdf3+0x342>
200031f4:	008006b7          	lui	a3,0x800
200031f8:	8fd5                	or	a5,a5,a3
200031fa:	b3dd                	j	20002fe0 <__subdf3+0x126>
200031fc:	00871793          	slli	a5,a4,0x8
20003200:	001e8313          	addi	t1,t4,1
20003204:	d607dde3          	bgez	a5,20002f7e <__subdf3+0xc4>
20003208:	00800737          	lui	a4,0x800
2000320c:	bd09                	j	2000301e <__subdf3+0x164>
2000320e:	0015ff93          	andi	t6,a1,1
20003212:	4681                	li	a3,0
20003214:	4781                	li	a5,0
20003216:	4881                	li	a7,0
20003218:	b379                	j	20002fa6 <__subdf3+0xec>
2000321a:	9e76                	add	t3,t3,t4
2000321c:	01de3eb3          	sltu	t4,t3,t4
20003220:	97ba                	add	a5,a5,a4
20003222:	97f6                	add	a5,a5,t4
20003224:	00879693          	slli	a3,a5,0x8
20003228:	4e06dc63          	bgez	a3,20003720 <__subdf3+0x866>
2000322c:	ff8006b7          	lui	a3,0xff800
20003230:	16fd                	addi	a3,a3,-1 # ff7fffff <__StackTop+0xdf77dfff>
20003232:	001e5713          	srli	a4,t3,0x1
20003236:	8ff5                	and	a5,a5,a3
20003238:	01f79693          	slli	a3,a5,0x1f
2000323c:	00777613          	andi	a2,a4,7
20003240:	8ed9                	or	a3,a3,a4
20003242:	0017d713          	srli	a4,a5,0x1
20003246:	54060f63          	beqz	a2,200037a4 <__subdf3+0x8ea>
2000324a:	00f6f613          	andi	a2,a3,15
2000324e:	4511                	li	a0,4
20003250:	54a60a63          	beq	a2,a0,200037a4 <__subdf3+0x8ea>
20003254:	00a68333          	add	t1,a3,a0
20003258:	00d336b3          	sltu	a3,t1,a3
2000325c:	9736                	add	a4,a4,a3
2000325e:	4809                	li	a6,2
20003260:	00335613          	srli	a2,t1,0x3
20003264:	01d71793          	slli	a5,a4,0x1d
20003268:	7ff00693          	li	a3,2047
2000326c:	00c7e8b3          	or	a7,a5,a2
20003270:	00375793          	srli	a5,a4,0x3
20003274:	e0d809e3          	beq	a6,a3,20003086 <__subdf3+0x1cc>
20003278:	40f2                	lw	ra,28(sp)
2000327a:	7ff87693          	andi	a3,a6,2047
2000327e:	07b2                	slli	a5,a5,0xc
20003280:	0015ff93          	andi	t6,a1,1
20003284:	01469713          	slli	a4,a3,0x14
20003288:	83b1                	srli	a5,a5,0xc
2000328a:	8fd9                	or	a5,a5,a4
2000328c:	01ff9693          	slli	a3,t6,0x1f
20003290:	8546                	mv	a0,a7
20003292:	00d7e5b3          	or	a1,a5,a3
20003296:	6105                	addi	sp,sp,32
20003298:	8082                	ret
2000329a:	8efd                	and	a3,a3,a5
2000329c:	ff8007b7          	lui	a5,0xff800
200032a0:	17fd                	addi	a5,a5,-1 # ff7fffff <__StackTop+0xdf77dfff>
200032a2:	8ff9                	and	a5,a5,a4
200032a4:	01d79713          	slli	a4,a5,0x1d
200032a8:	00335313          	srli	t1,t1,0x3
200032ac:	40f2                	lw	ra,28(sp)
200032ae:	006768b3          	or	a7,a4,t1
200032b2:	00979713          	slli	a4,a5,0x9
200032b6:	00c75793          	srli	a5,a4,0xc
200032ba:	01469713          	slli	a4,a3,0x14
200032be:	8fd9                	or	a5,a5,a4
200032c0:	01ff9693          	slli	a3,t6,0x1f
200032c4:	8546                	mv	a0,a7
200032c6:	00d7e5b3          	or	a1,a5,a3
200032ca:	6105                	addi	sp,sp,32
200032cc:	8082                	ret
200032ce:	85b6                	mv	a1,a3
200032d0:	4805                	li	a6,1
200032d2:	0726                	slli	a4,a4,0x9
200032d4:	8325                	srli	a4,a4,0x9
200032d6:	e0071ce3          	bnez	a4,200030ee <__subdf3+0x234>
200032da:	851a                	mv	a0,t1
200032dc:	c62e                	sw	a1,12(sp)
200032de:	c43a                	sw	a4,8(sp)
200032e0:	c242                	sw	a6,4(sp)
200032e2:	c01a                	sw	t1,0(sp)
200032e4:	25c5                	jal	200039c4 <__clzsi2>
200032e6:	01850693          	addi	a3,a0,24
200032ea:	467d                	li	a2,31
200032ec:	4302                	lw	t1,0(sp)
200032ee:	4812                	lw	a6,4(sp)
200032f0:	45b2                	lw	a1,12(sp)
200032f2:	4701                	li	a4,0
200032f4:	e0d65ae3          	bge	a2,a3,20003108 <__subdf3+0x24e>
200032f8:	ff850793          	addi	a5,a0,-8
200032fc:	00f317b3          	sll	a5,t1,a5
20003300:	1506cb63          	blt	a3,a6,20003456 <__subdf3+0x59c>
20003304:	41068333          	sub	t1,a3,a6
20003308:	00130693          	addi	a3,t1,1
2000330c:	44d65f63          	bge	a2,a3,2000376a <__subdf3+0x8b0>
20003310:	1305                	addi	t1,t1,-31
20003312:	02000613          	li	a2,32
20003316:	0067d333          	srl	t1,a5,t1
2000331a:	00c68c63          	beq	a3,a2,20003332 <__subdf3+0x478>
2000331e:	04000613          	li	a2,64
20003322:	40d606b3          	sub	a3,a2,a3
20003326:	00d797b3          	sll	a5,a5,a3
2000332a:	00f037b3          	snez	a5,a5
2000332e:	00f36333          	or	t1,t1,a5
20003332:	ec030ee3          	beqz	t1,2000320e <__subdf3+0x354>
20003336:	00737793          	andi	a5,t1,7
2000333a:	e0079ce3          	bnez	a5,20003152 <__subdf3+0x298>
2000333e:	8e9a                	mv	t4,t1
20003340:	4701                	li	a4,0
20003342:	bd49                	j	200031d4 <__subdf3+0x31a>
20003344:	0015ff93          	andi	t6,a1,1
20003348:	7ff00693          	li	a3,2047
2000334c:	4781                	li	a5,0
2000334e:	b9a1                	j	20002fa6 <__subdf3+0xec>
20003350:	050e                	slli	a0,a0,0x3
20003352:	810d                	srli	a0,a0,0x3
20003354:	01d71613          	slli	a2,a4,0x1d
20003358:	00a668b3          	or	a7,a2,a0
2000335c:	00375793          	srli	a5,a4,0x3
20003360:	b31d                	j	20003086 <__subdf3+0x1cc>
20003362:	00180693          	addi	a3,a6,1
20003366:	7fe6f893          	andi	a7,a3,2046
2000336a:	10089a63          	bnez	a7,2000347e <__subdf3+0x5c4>
2000336e:	01d766b3          	or	a3,a4,t4
20003372:	2c081863          	bnez	a6,20003642 <__subdf3+0x788>
20003376:	01c7e633          	or	a2,a5,t3
2000337a:	3a068c63          	beqz	a3,20003732 <__subdf3+0x878>
2000337e:	e4060be3          	beqz	a2,200031d4 <__subdf3+0x31a>
20003382:	9e76                	add	t3,t3,t4
20003384:	97ba                	add	a5,a5,a4
20003386:	01de3eb3          	sltu	t4,t3,t4
2000338a:	97f6                	add	a5,a5,t4
2000338c:	00879713          	slli	a4,a5,0x8
20003390:	3e074963          	bltz	a4,20003782 <__subdf3+0x8c8>
20003394:	00fe6733          	or	a4,t3,a5
20003398:	e6070be3          	beqz	a4,2000320e <__subdf3+0x354>
2000339c:	01d79713          	slli	a4,a5,0x1d
200033a0:	003e5e13          	srli	t3,t3,0x3
200033a4:	00ee68b3          	or	a7,t3,a4
200033a8:	838d                	srli	a5,a5,0x3
200033aa:	b5f9                	j	20003278 <__subdf3+0x3be>
200033ac:	41ce8333          	sub	t1,t4,t3
200033b0:	006eb533          	sltu	a0,t4,t1
200033b4:	40f70633          	sub	a2,a4,a5
200033b8:	8e09                	sub	a2,a2,a0
200033ba:	00861513          	slli	a0,a2,0x8
200033be:	10054263          	bltz	a0,200034c2 <__subdf3+0x608>
200033c2:	00c368b3          	or	a7,t1,a2
200033c6:	8732                	mv	a4,a2
200033c8:	f00897e3          	bnez	a7,200032d6 <__subdf3+0x41c>
200033cc:	4f81                	li	t6,0
200033ce:	4681                	li	a3,0
200033d0:	4781                	li	a5,0
200033d2:	bed1                	j	20002fa6 <__subdf3+0xec>
200033d4:	ff800737          	lui	a4,0xff800
200033d8:	177d                	addi	a4,a4,-1 # ff7fffff <__StackTop+0xdf77dfff>
200033da:	8f7d                	and	a4,a4,a5
200033dc:	00737793          	andi	a5,t1,7
200033e0:	40d80833          	sub	a6,a6,a3
200033e4:	b80798e3          	bnez	a5,20002f74 <__subdf3+0xba>
200033e8:	00335613          	srli	a2,t1,0x3
200033ec:	bda5                	j	20003264 <__subdf3+0x3aa>
200033ee:	8546                	mv	a0,a7
200033f0:	01d765b3          	or	a1,a4,t4
200033f4:	c1ed                	beqz	a1,200034d6 <__subdf3+0x61c>
200033f6:	fff50813          	addi	a6,a0,-1
200033fa:	24080b63          	beqz	a6,20003650 <__subdf3+0x796>
200033fe:	7ff00593          	li	a1,2047
20003402:	c6b508e3          	beq	a0,a1,20003072 <__subdf3+0x1b8>
20003406:	03800613          	li	a2,56
2000340a:	33065963          	bge	a2,a6,2000373c <__subdf3+0x882>
2000340e:	fffe0313          	addi	t1,t3,-1
20003412:	006e3e33          	sltu	t3,t3,t1
20003416:	41c78733          	sub	a4,a5,t3
2000341a:	00871613          	slli	a2,a4,0x8
2000341e:	008007b7          	lui	a5,0x800
20003422:	3a064163          	bltz	a2,200037c4 <__subdf3+0x90a>
20003426:	85b6                	mv	a1,a3
20003428:	882a                	mv	a6,a0
2000342a:	be91                	j	20002f7e <__subdf3+0xc4>
2000342c:	fe0f0693          	addi	a3,t5,-32
20003430:	02000613          	li	a2,32
20003434:	00d7d6b3          	srl	a3,a5,a3
20003438:	00cf0a63          	beq	t5,a2,2000344c <__subdf3+0x592>
2000343c:	04000613          	li	a2,64
20003440:	41e60633          	sub	a2,a2,t5
20003444:	00c797b3          	sll	a5,a5,a2
20003448:	00fe6e33          	or	t3,t3,a5
2000344c:	01c03333          	snez	t1,t3
20003450:	00d36333          	or	t1,t1,a3
20003454:	b619                	j	20002f5a <__subdf3+0xa0>
20003456:	ff800737          	lui	a4,0xff800
2000345a:	177d                	addi	a4,a4,-1 # ff7fffff <__StackTop+0xdf77dfff>
2000345c:	8ff9                	and	a5,a5,a4
2000345e:	01d79893          	slli	a7,a5,0x1d
20003462:	40d80833          	sub	a6,a6,a3
20003466:	838d                	srli	a5,a5,0x3
20003468:	bd01                	j	20003278 <__subdf3+0x3be>
2000346a:	00361713          	slli	a4,a2,0x3
2000346e:	00375693          	srli	a3,a4,0x3
20003472:	01d79713          	slli	a4,a5,0x1d
20003476:	00d768b3          	or	a7,a4,a3
2000347a:	838d                	srli	a5,a5,0x3
2000347c:	b129                	j	20003086 <__subdf3+0x1cc>
2000347e:	7ff00613          	li	a2,2047
20003482:	b2c680e3          	beq	a3,a2,20002fa2 <__subdf3+0xe8>
20003486:	9e76                	add	t3,t3,t4
20003488:	97ba                	add	a5,a5,a4
2000348a:	01de3eb3          	sltu	t4,t3,t4
2000348e:	001e5713          	srli	a4,t3,0x1
20003492:	97f6                	add	a5,a5,t4
20003494:	01f79313          	slli	t1,a5,0x1f
20003498:	00777613          	andi	a2,a4,7
2000349c:	00e36333          	or	t1,t1,a4
200034a0:	0017d713          	srli	a4,a5,0x1
200034a4:	32060563          	beqz	a2,200037ce <__subdf3+0x914>
200034a8:	8836                	mv	a6,a3
200034aa:	4511                	li	a0,4
200034ac:	00f37693          	andi	a3,t1,15
200034b0:	aca697e3          	bne	a3,a0,20002f7e <__subdf3+0xc4>
200034b4:	00335313          	srli	t1,t1,0x3
200034b8:	0776                	slli	a4,a4,0x1d
200034ba:	00e368b3          	or	a7,t1,a4
200034be:	8391                	srli	a5,a5,0x4
200034c0:	bb65                	j	20003278 <__subdf3+0x3be>
200034c2:	41de0eb3          	sub	t4,t3,t4
200034c6:	01de3e33          	sltu	t3,t3,t4
200034ca:	8f99                	sub	a5,a5,a4
200034cc:	8376                	mv	t1,t4
200034ce:	41c78733          	sub	a4,a5,t3
200034d2:	85b6                	mv	a1,a3
200034d4:	b509                	j	200032d6 <__subdf3+0x41c>
200034d6:	060e                	slli	a2,a2,0x3
200034d8:	820d                	srli	a2,a2,0x3
200034da:	85b6                	mv	a1,a3
200034dc:	882a                	mv	a6,a0
200034de:	873e                	mv	a4,a5
200034e0:	b351                	j	20003264 <__subdf3+0x3aa>
200034e2:	0e031b63          	bnez	t1,200035d8 <__subdf3+0x71e>
200034e6:	2c088663          	beqz	a7,200037b2 <__subdf3+0x8f8>
200034ea:	00361713          	slli	a4,a2,0x3
200034ee:	830d                	srli	a4,a4,0x3
200034f0:	01d79613          	slli	a2,a5,0x1d
200034f4:	85b6                	mv	a1,a3
200034f6:	00c768b3          	or	a7,a4,a2
200034fa:	838d                	srli	a5,a5,0x3
200034fc:	b669                	j	20003086 <__subdf3+0x1cc>
200034fe:	ca0f0be3          	beqz	t5,200031b4 <__subdf3+0x2fa>
20003502:	41088533          	sub	a0,a7,a6
20003506:	ee0805e3          	beqz	a6,200033f0 <__subdf3+0x536>
2000350a:	03800613          	li	a2,56
2000350e:	08a65463          	bge	a2,a0,20003596 <__subdf3+0x6dc>
20003512:	fffe0313          	addi	t1,t3,-1
20003516:	006e3e33          	sltu	t3,t3,t1
2000351a:	41c78733          	sub	a4,a5,t3
2000351e:	00871613          	slli	a2,a4,0x8
20003522:	008007b7          	lui	a5,0x800
20003526:	1e064263          	bltz	a2,2000370a <__subdf3+0x850>
2000352a:	85b6                	mv	a1,a3
2000352c:	8846                	mv	a6,a7
2000352e:	bc81                	j	20002f7e <__subdf3+0xc4>
20003530:	41ce8e33          	sub	t3,t4,t3
20003534:	40f707b3          	sub	a5,a4,a5
20003538:	01cebeb3          	sltu	t4,t4,t3
2000353c:	41d78733          	sub	a4,a5,t4
20003540:	00871793          	slli	a5,a4,0x8
20003544:	8372                	mv	t1,t3
20003546:	d807c5e3          	bltz	a5,200032d0 <__subdf3+0x416>
2000354a:	003e5e13          	srli	t3,t3,0x3
2000354e:	01d71613          	slli	a2,a4,0x1d
20003552:	00ce68b3          	or	a7,t3,a2
20003556:	00375793          	srli	a5,a4,0x3
2000355a:	4805                	li	a6,1
2000355c:	bb31                	j	20003278 <__subdf3+0x3be>
2000355e:	050e                	slli	a0,a0,0x3
20003560:	00355613          	srli	a2,a0,0x3
20003564:	b301                	j	20003264 <__subdf3+0x3aa>
20003566:	86c2                	mv	a3,a6
20003568:	4781                	li	a5,0
2000356a:	4881                	li	a7,0
2000356c:	bc2d                	j	20002fa6 <__subdf3+0xec>
2000356e:	fe0f0613          	addi	a2,t5,-32
20003572:	02000693          	li	a3,32
20003576:	00c7d633          	srl	a2,a5,a2
2000357a:	00df0a63          	beq	t5,a3,2000358e <__subdf3+0x6d4>
2000357e:	04000693          	li	a3,64
20003582:	41e686b3          	sub	a3,a3,t5
20003586:	00d797b3          	sll	a5,a5,a3
2000358a:	00fe6e33          	or	t3,t3,a5
2000358e:	01c036b3          	snez	a3,t3
20003592:	8ed1                	or	a3,a3,a2
20003594:	bc9d                	j	2000300a <__subdf3+0x150>
20003596:	00800637          	lui	a2,0x800
2000359a:	85b6                	mv	a1,a3
2000359c:	8f51                	or	a4,a4,a2
2000359e:	46fd                	li	a3,31
200035a0:	06a6cd63          	blt	a3,a0,2000361a <__subdf3+0x760>
200035a4:	02000693          	li	a3,32
200035a8:	8e89                	sub	a3,a3,a0
200035aa:	00d71333          	sll	t1,a4,a3
200035ae:	00de96b3          	sll	a3,t4,a3
200035b2:	00aedeb3          	srl	t4,t4,a0
200035b6:	00d036b3          	snez	a3,a3
200035ba:	01d36333          	or	t1,t1,t4
200035be:	00a75533          	srl	a0,a4,a0
200035c2:	00d36333          	or	t1,t1,a3
200035c6:	8f89                	sub	a5,a5,a0
200035c8:	406e0333          	sub	t1,t3,t1
200035cc:	006e3e33          	sltu	t3,t3,t1
200035d0:	41c78733          	sub	a4,a5,t3
200035d4:	8846                	mv	a6,a7
200035d6:	b279                	j	20002f64 <__subdf3+0xaa>
200035d8:	aa089be3          	bnez	a7,2000308e <__subdf3+0x1d4>
200035dc:	050e                	slli	a0,a0,0x3
200035de:	00355793          	srli	a5,a0,0x3
200035e2:	01d71613          	slli	a2,a4,0x1d
200035e6:	00c7e8b3          	or	a7,a5,a2
200035ea:	00375793          	srli	a5,a4,0x3
200035ee:	bc61                	j	20003086 <__subdf3+0x1cc>
200035f0:	d60f09e3          	beqz	t5,20003362 <__subdf3+0x4a8>
200035f4:	410886b3          	sub	a3,a7,a6
200035f8:	b80804e3          	beqz	a6,20003180 <__subdf3+0x2c6>
200035fc:	03800613          	li	a2,56
20003600:	0cd65663          	bge	a2,a3,200036cc <__subdf3+0x812>
20003604:	00879693          	slli	a3,a5,0x8
20003608:	001e0313          	addi	t1,t3,1
2000360c:	8846                	mv	a6,a7
2000360e:	00800737          	lui	a4,0x800
20003612:	a006c6e3          	bltz	a3,2000301e <__subdf3+0x164>
20003616:	873e                	mv	a4,a5
20003618:	b29d                	j	20002f7e <__subdf3+0xc4>
2000361a:	fe050693          	addi	a3,a0,-32
2000361e:	02000613          	li	a2,32
20003622:	00d756b3          	srl	a3,a4,a3
20003626:	00c50963          	beq	a0,a2,20003638 <__subdf3+0x77e>
2000362a:	04000613          	li	a2,64
2000362e:	8e09                	sub	a2,a2,a0
20003630:	00c71733          	sll	a4,a4,a2
20003634:	00eeeeb3          	or	t4,t4,a4
20003638:	01d03333          	snez	t1,t4
2000363c:	00d36333          	or	t1,t1,a3
20003640:	b761                	j	200035c8 <__subdf3+0x70e>
20003642:	e20684e3          	beqz	a3,2000346a <__subdf3+0x5b0>
20003646:	01c7ee33          	or	t3,a5,t3
2000364a:	a40e12e3          	bnez	t3,2000308e <__subdf3+0x1d4>
2000364e:	b779                	j	200035dc <__subdf3+0x722>
20003650:	41de0eb3          	sub	t4,t3,t4
20003654:	8f99                	sub	a5,a5,a4
20003656:	01de3e33          	sltu	t3,t3,t4
2000365a:	41c78733          	sub	a4,a5,t3
2000365e:	00871793          	slli	a5,a4,0x8
20003662:	8376                	mv	t1,t4
20003664:	c607c5e3          	bltz	a5,200032ce <__subdf3+0x414>
20003668:	003ede93          	srli	t4,t4,0x3
2000366c:	01d71613          	slli	a2,a4,0x1d
20003670:	85b6                	mv	a1,a3
20003672:	01d668b3          	or	a7,a2,t4
20003676:	00375793          	srli	a5,a4,0x3
2000367a:	4805                	li	a6,1
2000367c:	bef5                	j	20003278 <__subdf3+0x3be>
2000367e:	d40887e3          	beqz	a7,200033cc <__subdf3+0x512>
20003682:	873e                	mv	a4,a5
20003684:	8ef2                	mv	t4,t3
20003686:	85b6                	mv	a1,a3
20003688:	b6b1                	j	200031d4 <__subdf3+0x31a>
2000368a:	41ce8533          	sub	a0,t4,t3
2000368e:	00aeb833          	sltu	a6,t4,a0
20003692:	40f70633          	sub	a2,a4,a5
20003696:	41060633          	sub	a2,a2,a6
2000369a:	00861813          	slli	a6,a2,0x8
2000369e:	0c085b63          	bgez	a6,20003774 <__subdf3+0x8ba>
200036a2:	41de0eb3          	sub	t4,t3,t4
200036a6:	8f99                	sub	a5,a5,a4
200036a8:	01de3e33          	sltu	t3,t3,t4
200036ac:	41c78733          	sub	a4,a5,t3
200036b0:	00eee7b3          	or	a5,t4,a4
200036b4:	8376                	mv	t1,t4
200036b6:	85b6                	mv	a1,a3
200036b8:	b4078be3          	beqz	a5,2000320e <__subdf3+0x354>
200036bc:	00871793          	slli	a5,a4,0x8
200036c0:	1007df63          	bgez	a5,200037de <__subdf3+0x924>
200036c4:	0016ff93          	andi	t6,a3,1
200036c8:	4685                	li	a3,1
200036ca:	bec9                	j	2000329c <__subdf3+0x3e2>
200036cc:	00800637          	lui	a2,0x800
200036d0:	8f51                	or	a4,a4,a2
200036d2:	467d                	li	a2,31
200036d4:	06d64763          	blt	a2,a3,20003742 <__subdf3+0x888>
200036d8:	02000513          	li	a0,32
200036dc:	8d15                	sub	a0,a0,a3
200036de:	00a71633          	sll	a2,a4,a0
200036e2:	00ae9533          	sll	a0,t4,a0
200036e6:	00dedeb3          	srl	t4,t4,a3
200036ea:	00a03533          	snez	a0,a0
200036ee:	00d756b3          	srl	a3,a4,a3
200036f2:	01d66633          	or	a2,a2,t4
200036f6:	00a66733          	or	a4,a2,a0
200036fa:	97b6                	add	a5,a5,a3
200036fc:	9e3a                	add	t3,t3,a4
200036fe:	00ee3733          	sltu	a4,t3,a4
20003702:	973e                	add	a4,a4,a5
20003704:	8372                	mv	t1,t3
20003706:	8846                	mv	a6,a7
20003708:	b239                	j	20003016 <__subdf3+0x15c>
2000370a:	8846                	mv	a6,a7
2000370c:	85b6                	mv	a1,a3
2000370e:	fff78713          	addi	a4,a5,-1 # 7fffff <HeapSize+0x7ff7ff>
20003712:	537d                	li	t1,-1
20003714:	bae9                	j	200030ee <__subdf3+0x234>
20003716:	060e                	slli	a2,a2,0x3
20003718:	820d                	srli	a2,a2,0x3
2000371a:	8836                	mv	a6,a3
2000371c:	873e                	mv	a4,a5
2000371e:	b699                	j	20003264 <__subdf3+0x3aa>
20003720:	01d79713          	slli	a4,a5,0x1d
20003724:	003e5e13          	srli	t3,t3,0x3
20003728:	01c768b3          	or	a7,a4,t3
2000372c:	838d                	srli	a5,a5,0x3
2000372e:	4805                	li	a6,1
20003730:	b6a1                	j	20003278 <__subdf3+0x3be>
20003732:	ac060ee3          	beqz	a2,2000320e <__subdf3+0x354>
20003736:	873e                	mv	a4,a5
20003738:	8ef2                	mv	t4,t3
2000373a:	bc69                	j	200031d4 <__subdf3+0x31a>
2000373c:	85b6                	mv	a1,a3
2000373e:	8542                	mv	a0,a6
20003740:	bdb9                	j	2000359e <__subdf3+0x6e4>
20003742:	fe068613          	addi	a2,a3,-32
20003746:	02000513          	li	a0,32
2000374a:	00c75633          	srl	a2,a4,a2
2000374e:	00a68a63          	beq	a3,a0,20003762 <__subdf3+0x8a8>
20003752:	04000513          	li	a0,64
20003756:	40d506b3          	sub	a3,a0,a3
2000375a:	00d71733          	sll	a4,a4,a3
2000375e:	00eeeeb3          	or	t4,t4,a4
20003762:	01d03733          	snez	a4,t4
20003766:	8f51                	or	a4,a4,a2
20003768:	bf51                	j	200036fc <__subdf3+0x842>
2000376a:	02000613          	li	a2,32
2000376e:	8e15                	sub	a2,a2,a3
20003770:	4501                	li	a0,0
20003772:	b2d1                	j	20003136 <__subdf3+0x27c>
20003774:	00c568b3          	or	a7,a0,a2
20003778:	c4088ae3          	beqz	a7,200033cc <__subdf3+0x512>
2000377c:	8732                	mv	a4,a2
2000377e:	8eaa                	mv	t4,a0
20003780:	bc91                	j	200031d4 <__subdf3+0x31a>
20003782:	ff800737          	lui	a4,0xff800
20003786:	177d                	addi	a4,a4,-1 # ff7fffff <__StackTop+0xdf77dfff>
20003788:	8ff9                	and	a5,a5,a4
2000378a:	01d79713          	slli	a4,a5,0x1d
2000378e:	003e5e13          	srli	t3,t3,0x3
20003792:	01c768b3          	or	a7,a4,t3
20003796:	00979713          	slli	a4,a5,0x9
2000379a:	00c75793          	srli	a5,a4,0xc
2000379e:	4685                	li	a3,1
200037a0:	807ff06f          	j	20002fa6 <__subdf3+0xec>
200037a4:	828d                	srli	a3,a3,0x3
200037a6:	0776                	slli	a4,a4,0x1d
200037a8:	00d768b3          	or	a7,a4,a3
200037ac:	8391                	srli	a5,a5,0x4
200037ae:	4809                	li	a6,2
200037b0:	b4e1                	j	20003278 <__subdf3+0x3be>
200037b2:	4f81                	li	t6,0
200037b4:	7ff00693          	li	a3,2047
200037b8:	000807b7          	lui	a5,0x80
200037bc:	feaff06f          	j	20002fa6 <__subdf3+0xec>
200037c0:	86aa                	mv	a3,a0
200037c2:	bf01                	j	200036d2 <__subdf3+0x818>
200037c4:	882a                	mv	a6,a0
200037c6:	85b6                	mv	a1,a3
200037c8:	b205                	j	200030e8 <__subdf3+0x22e>
200037ca:	86ae                	mv	a3,a1
200037cc:	bdc5                	j	200036bc <__subdf3+0x802>
200037ce:	00335313          	srli	t1,t1,0x3
200037d2:	0776                	slli	a4,a4,0x1d
200037d4:	00e368b3          	or	a7,t1,a4
200037d8:	8391                	srli	a5,a5,0x4
200037da:	8836                	mv	a6,a3
200037dc:	bc71                	j	20003278 <__subdf3+0x3be>
200037de:	85b6                	mv	a1,a3
200037e0:	8e9a                	mv	t4,t1
200037e2:	bacd                	j	200031d4 <__subdf3+0x31a>

200037e4 <__unorddf2>:
200037e4:	0145d713          	srli	a4,a1,0x14
200037e8:	001007b7          	lui	a5,0x100
200037ec:	17fd                	addi	a5,a5,-1 # fffff <HeapSize+0xff7ff>
200037ee:	fff74713          	not	a4,a4
200037f2:	0146d813          	srli	a6,a3,0x14
200037f6:	8dfd                	and	a1,a1,a5
200037f8:	8ff5                	and	a5,a5,a3
200037fa:	01571693          	slli	a3,a4,0x15
200037fe:	7ff87813          	andi	a6,a6,2047
20003802:	ca99                	beqz	a3,20003818 <__unorddf2+0x34>
20003804:	7ff00713          	li	a4,2047
20003808:	4501                	li	a0,0
2000380a:	00e80363          	beq	a6,a4,20003810 <__unorddf2+0x2c>
2000380e:	8082                	ret
20003810:	8fd1                	or	a5,a5,a2
20003812:	00f03533          	snez	a0,a5
20003816:	8082                	ret
20003818:	8dc9                	or	a1,a1,a0
2000381a:	4505                	li	a0,1
2000381c:	d5e5                	beqz	a1,20003804 <__unorddf2+0x20>
2000381e:	8082                	ret

20003820 <__fixdfsi>:
20003820:	0145d793          	srli	a5,a1,0x14
20003824:	001006b7          	lui	a3,0x100
20003828:	fff68713          	addi	a4,a3,-1 # fffff <HeapSize+0xff7ff>
2000382c:	7ff7f793          	andi	a5,a5,2047
20003830:	3fe00613          	li	a2,1022
20003834:	8f6d                	and	a4,a4,a1
20003836:	81fd                	srli	a1,a1,0x1f
20003838:	00f65b63          	bge	a2,a5,2000384e <__fixdfsi+0x2e>
2000383c:	41d00613          	li	a2,1053
20003840:	00f65963          	bge	a2,a5,20003852 <__fixdfsi+0x32>
20003844:	80000537          	lui	a0,0x80000
20003848:	157d                	addi	a0,a0,-1 # 7fffffff <__StackTop+0x5ff7dfff>
2000384a:	952e                	add	a0,a0,a1
2000384c:	8082                	ret
2000384e:	4501                	li	a0,0
20003850:	8082                	ret
20003852:	41300613          	li	a2,1043
20003856:	8f55                	or	a4,a4,a3
20003858:	00f64a63          	blt	a2,a5,2000386c <__fixdfsi+0x4c>
2000385c:	8e1d                	sub	a2,a2,a5
2000385e:	00c75733          	srl	a4,a4,a2
20003862:	40e00533          	neg	a0,a4
20003866:	f5ed                	bnez	a1,20003850 <__fixdfsi+0x30>
20003868:	853a                	mv	a0,a4
2000386a:	8082                	ret
2000386c:	43300693          	li	a3,1075
20003870:	8e9d                	sub	a3,a3,a5
20003872:	bed78793          	addi	a5,a5,-1043
20003876:	00d55533          	srl	a0,a0,a3
2000387a:	00f71733          	sll	a4,a4,a5
2000387e:	8f49                	or	a4,a4,a0
20003880:	b7cd                	j	20003862 <__fixdfsi+0x42>

20003882 <__fixunsdfsi>:
20003882:	0145d793          	srli	a5,a1,0x14
20003886:	7ff7f793          	andi	a5,a5,2047
2000388a:	00100637          	lui	a2,0x100
2000388e:	fff60713          	addi	a4,a2,-1 # fffff <HeapSize+0xff7ff>
20003892:	3ff7a693          	slti	a3,a5,1023
20003896:	8f6d                	and	a4,a4,a1
20003898:	81fd                	srli	a1,a1,0x1f
2000389a:	e291                	bnez	a3,2000389e <__fixunsdfsi+0x1c>
2000389c:	c581                	beqz	a1,200038a4 <__fixunsdfsi+0x22>
2000389e:	4681                	li	a3,0
200038a0:	8536                	mv	a0,a3
200038a2:	8082                	ret
200038a4:	41e00593          	li	a1,1054
200038a8:	56fd                	li	a3,-1
200038aa:	fef5cbe3          	blt	a1,a5,200038a0 <__fixunsdfsi+0x1e>
200038ae:	41300693          	li	a3,1043
200038b2:	8f51                	or	a4,a4,a2
200038b4:	00f6de63          	bge	a3,a5,200038d0 <__fixunsdfsi+0x4e>
200038b8:	43300693          	li	a3,1075
200038bc:	8e9d                	sub	a3,a3,a5
200038be:	bed78793          	addi	a5,a5,-1043
200038c2:	00d55533          	srl	a0,a0,a3
200038c6:	00f71733          	sll	a4,a4,a5
200038ca:	00a766b3          	or	a3,a4,a0
200038ce:	bfc9                	j	200038a0 <__fixunsdfsi+0x1e>
200038d0:	8e9d                	sub	a3,a3,a5
200038d2:	00d756b3          	srl	a3,a4,a3
200038d6:	b7e9                	j	200038a0 <__fixunsdfsi+0x1e>

200038d8 <__floatsidf>:
200038d8:	c539                	beqz	a0,20003926 <__floatsidf+0x4e>
200038da:	41f55793          	srai	a5,a0,0x1f
200038de:	00a7c6b3          	xor	a3,a5,a0
200038e2:	8e9d                	sub	a3,a3,a5
200038e4:	1101                	addi	sp,sp,-32
200038e6:	01f55713          	srli	a4,a0,0x1f
200038ea:	8536                	mv	a0,a3
200038ec:	c636                	sw	a3,12(sp)
200038ee:	c43a                	sw	a4,8(sp)
200038f0:	ce06                	sw	ra,28(sp)
200038f2:	28c9                	jal	200039c4 <__clzsi2>
200038f4:	41e00793          	li	a5,1054
200038f8:	8f89                	sub	a5,a5,a0
200038fa:	4629                	li	a2,10
200038fc:	4722                	lw	a4,8(sp)
200038fe:	46b2                	lw	a3,12(sp)
20003900:	7ff7f793          	andi	a5,a5,2047
20003904:	02a65c63          	bge	a2,a0,2000393c <__floatsidf+0x64>
20003908:	1555                	addi	a0,a0,-11
2000390a:	00a69633          	sll	a2,a3,a0
2000390e:	40f2                	lw	ra,28(sp)
20003910:	0632                	slli	a2,a2,0xc
20003912:	8231                	srli	a2,a2,0xc
20003914:	07d2                	slli	a5,a5,0x14
20003916:	4681                	li	a3,0
20003918:	8fd1                	or	a5,a5,a2
2000391a:	077e                	slli	a4,a4,0x1f
2000391c:	8536                	mv	a0,a3
2000391e:	00e7e5b3          	or	a1,a5,a4
20003922:	6105                	addi	sp,sp,32
20003924:	8082                	ret
20003926:	4781                	li	a5,0
20003928:	4601                	li	a2,0
2000392a:	4701                	li	a4,0
2000392c:	07d2                	slli	a5,a5,0x14
2000392e:	4681                	li	a3,0
20003930:	8fd1                	or	a5,a5,a2
20003932:	077e                	slli	a4,a4,0x1f
20003934:	8536                	mv	a0,a3
20003936:	00e7e5b3          	or	a1,a5,a4
2000393a:	8082                	ret
2000393c:	462d                	li	a2,11
2000393e:	8e09                	sub	a2,a2,a0
20003940:	00c6d633          	srl	a2,a3,a2
20003944:	40f2                	lw	ra,28(sp)
20003946:	0632                	slli	a2,a2,0xc
20003948:	0555                	addi	a0,a0,21
2000394a:	8231                	srli	a2,a2,0xc
2000394c:	07d2                	slli	a5,a5,0x14
2000394e:	00a696b3          	sll	a3,a3,a0
20003952:	8fd1                	or	a5,a5,a2
20003954:	077e                	slli	a4,a4,0x1f
20003956:	8536                	mv	a0,a3
20003958:	00e7e5b3          	or	a1,a5,a4
2000395c:	6105                	addi	sp,sp,32
2000395e:	8082                	ret

20003960 <__floatunsidf>:
20003960:	c91d                	beqz	a0,20003996 <__floatunsidf+0x36>
20003962:	1101                	addi	sp,sp,-32
20003964:	ce06                	sw	ra,28(sp)
20003966:	c62a                	sw	a0,12(sp)
20003968:	28b1                	jal	200039c4 <__clzsi2>
2000396a:	41e00713          	li	a4,1054
2000396e:	8f09                	sub	a4,a4,a0
20003970:	46a9                	li	a3,10
20003972:	47b2                	lw	a5,12(sp)
20003974:	7ff77713          	andi	a4,a4,2047
20003978:	02a6d563          	bge	a3,a0,200039a2 <__floatunsidf+0x42>
2000397c:	1555                	addi	a0,a0,-11
2000397e:	00a796b3          	sll	a3,a5,a0
20003982:	40f2                	lw	ra,28(sp)
20003984:	06b2                	slli	a3,a3,0xc
20003986:	82b1                	srli	a3,a3,0xc
20003988:	4781                	li	a5,0
2000398a:	0752                	slli	a4,a4,0x14
2000398c:	853e                	mv	a0,a5
2000398e:	00d765b3          	or	a1,a4,a3
20003992:	6105                	addi	sp,sp,32
20003994:	8082                	ret
20003996:	4701                	li	a4,0
20003998:	4681                	li	a3,0
2000399a:	0752                	slli	a4,a4,0x14
2000399c:	00d765b3          	or	a1,a4,a3
200039a0:	8082                	ret
200039a2:	46ad                	li	a3,11
200039a4:	8e89                	sub	a3,a3,a0
200039a6:	40f2                	lw	ra,28(sp)
200039a8:	00d7d6b3          	srl	a3,a5,a3
200039ac:	01550613          	addi	a2,a0,21
200039b0:	06b2                	slli	a3,a3,0xc
200039b2:	82b1                	srli	a3,a3,0xc
200039b4:	00c797b3          	sll	a5,a5,a2
200039b8:	0752                	slli	a4,a4,0x14
200039ba:	853e                	mv	a0,a5
200039bc:	00d765b3          	or	a1,a4,a3
200039c0:	6105                	addi	sp,sp,32
200039c2:	8082                	ret

200039c4 <__clzsi2>:
200039c4:	67c1                	lui	a5,0x10
200039c6:	02f57663          	bgeu	a0,a5,200039f2 <__clzsi2+0x2e>
200039ca:	10053793          	sltiu	a5,a0,256
200039ce:	0017b793          	seqz	a5,a5
200039d2:	078e                	slli	a5,a5,0x3
200039d4:	02000713          	li	a4,32
200039d8:	8f1d                	sub	a4,a4,a5
200039da:	00f55533          	srl	a0,a0,a5
200039de:	00000797          	auipc	a5,0x0
200039e2:	09a78793          	addi	a5,a5,154 # 20003a78 <__clz_tab>
200039e6:	97aa                	add	a5,a5,a0
200039e8:	0007c503          	lbu	a0,0(a5)
200039ec:	40a70533          	sub	a0,a4,a0
200039f0:	8082                	ret
200039f2:	010007b7          	lui	a5,0x1000
200039f6:	02f57063          	bgeu	a0,a5,20003a16 <__clzsi2+0x52>
200039fa:	4741                	li	a4,16
200039fc:	87ba                	mv	a5,a4
200039fe:	00f55533          	srl	a0,a0,a5
20003a02:	00000797          	auipc	a5,0x0
20003a06:	07678793          	addi	a5,a5,118 # 20003a78 <__clz_tab>
20003a0a:	97aa                	add	a5,a5,a0
20003a0c:	0007c503          	lbu	a0,0(a5)
20003a10:	40a70533          	sub	a0,a4,a0
20003a14:	8082                	ret
20003a16:	47e1                	li	a5,24
20003a18:	00f55533          	srl	a0,a0,a5
20003a1c:	00000797          	auipc	a5,0x0
20003a20:	05c78793          	addi	a5,a5,92 # 20003a78 <__clz_tab>
20003a24:	97aa                	add	a5,a5,a0
20003a26:	0007c503          	lbu	a0,0(a5)
20003a2a:	4721                	li	a4,8
20003a2c:	40a70533          	sub	a0,a4,a0
20003a30:	8082                	ret
20003a32:	0000                	unimp
20003a34:	0000                	unimp
20003a36:	0000                	unimp
20003a38:	e890                	.insn	2, 0xe890
20003a3a:	ffff                	.insn	2, 0xffff
20003a3c:	e75e                	.insn	2, 0xe75e
20003a3e:	ffff                	.insn	2, 0xffff
20003a40:	e744                	.insn	2, 0xe744
20003a42:	ffff                	.insn	2, 0xffff
20003a44:	e862                	.insn	2, 0xe862
20003a46:	ffff                	.insn	2, 0xffff
20003a48:	e744                	.insn	2, 0xe744
20003a4a:	ffff                	.insn	2, 0xffff
20003a4c:	e77a                	.insn	2, 0xe77a
20003a4e:	ffff                	.insn	2, 0xffff
20003a50:	e744                	.insn	2, 0xe744
20003a52:	ffff                	.insn	2, 0xffff
20003a54:	e862                	.insn	2, 0xe862
20003a56:	ffff                	.insn	2, 0xffff
20003a58:	e75e                	.insn	2, 0xe75e
20003a5a:	ffff                	.insn	2, 0xffff
20003a5c:	e75e                	.insn	2, 0xe75e
20003a5e:	ffff                	.insn	2, 0xffff
20003a60:	e77a                	.insn	2, 0xe77a
20003a62:	ffff                	.insn	2, 0xffff
20003a64:	e862                	.insn	2, 0xe862
20003a66:	ffff                	.insn	2, 0xffff
20003a68:	e802                	.insn	2, 0xe802
20003a6a:	ffff                	.insn	2, 0xffff
20003a6c:	e802                	.insn	2, 0xe802
20003a6e:	ffff                	.insn	2, 0xffff
20003a70:	e802                	.insn	2, 0xe802
20003a72:	ffff                	.insn	2, 0xffff
20003a74:	e77a                	.insn	2, 0xe77a
20003a76:	ffff                	.insn	2, 0xffff

20003a78 <__clz_tab>:
20003a78:	0100 0202 0303 0303 0404 0404 0404 0404     ................
20003a88:	0505 0505 0505 0505 0505 0505 0505 0505     ................
20003a98:	0606 0606 0606 0606 0606 0606 0606 0606     ................
20003aa8:	0606 0606 0606 0606 0606 0606 0606 0606     ................
20003ab8:	0707 0707 0707 0707 0707 0707 0707 0707     ................
20003ac8:	0707 0707 0707 0707 0707 0707 0707 0707     ................
20003ad8:	0707 0707 0707 0707 0707 0707 0707 0707     ................
20003ae8:	0707 0707 0707 0707 0707 0707 0707 0707     ................
20003af8:	0808 0808 0808 0808 0808 0808 0808 0808     ................
20003b08:	0808 0808 0808 0808 0808 0808 0808 0808     ................
20003b18:	0808 0808 0808 0808 0808 0808 0808 0808     ................
20003b28:	0808 0808 0808 0808 0808 0808 0808 0808     ................
20003b38:	0808 0808 0808 0808 0808 0808 0808 0808     ................
20003b48:	0808 0808 0808 0808 0808 0808 0808 0808     ................
20003b58:	0808 0808 0808 0808 0808 0808 0808 0808     ................
20003b68:	0808 0808 0808 0808 0808 0808 0808 0808     ................

20003b78 <SECRET_KEY>:
20003b78:	7e2b 1615 ae28 a6d2 f7ab 8815 cf09 3c4f     +~..(.........O<

20003b88 <irq_handler_chain_slots>:
	...
20003b90:	0000                	unimp
20003b92:	0001                	nop
	...
20003b9c:	0000                	unimp
20003b9e:	0002                	c.slli64	zero
	...
20003ba8:	0000                	unimp
20003baa:	00000003          	lb	zero,0(zero) # 0 <next_slot_number-0x5>
	...
20003bb6:	00ff                	.short	0x00ff

20003bb8 <irq_handler_chain_first_slot>:
20003bb8:	b842                	.insn	2, 0xb842
20003bba:	00428093          	addi	ra,t0,4
20003bbe:	0002a283          	lw	t0,0(t0)
20003bc2:	8282                	jr	t0

20003bc4 <irq_handler_chain_remove_tail>:
20003bc4:	ff608513          	addi	a0,ra,-10
20003bc8:	efffe097          	auipc	ra,0xefffe
20003bcc:	da4080e7          	jalr	-604(ra) # 1000196c <irq_add_tail_to_free_list>
20003bd0:	be42                	.insn	2, 0xbe42
	...

20003bd4 <default_alarm_pool>:
	...
20003be8:	3f40 2000 0000 0000 0000 0000 0000 0000     @?. ............
	...

20003c00 <__VECTOR_TABLE>:
20003c00:	1a00006f          	j	20003da0 <__default_isrs_start>
	...
20003c0c:	1960006f          	j	20003da2 <isr_riscv_machine_soft_irq>
	...
20003c1c:	1840006f          	j	20003da0 <__default_isrs_start>
	...

20003c2c <isr_riscv_machine_external_irq>:
20003c2c:	715d                	addi	sp,sp,-80
20003c2e:	c006                	sw	ra,0(sp)
20003c30:	c216                	sw	t0,4(sp)
20003c32:	c41a                	sw	t1,8(sp)
20003c34:	c61e                	sw	t2,12(sp)
20003c36:	c82a                	sw	a0,16(sp)
20003c38:	ca2e                	sw	a1,20(sp)
20003c3a:	cc32                	sw	a2,24(sp)
20003c3c:	ce36                	sw	a3,28(sp)
20003c3e:	d03a                	sw	a4,32(sp)
20003c40:	d23e                	sw	a5,36(sp)
20003c42:	d442                	sw	a6,40(sp)
20003c44:	d646                	sw	a7,44(sp)
20003c46:	d872                	sw	t3,48(sp)
20003c48:	da76                	sw	t4,52(sp)
20003c4a:	dc7a                	sw	t5,56(sp)
20003c4c:	de7e                	sw	t6,60(sp)
20003c4e:	34102573          	.insn	4, 0x34102573
20003c52:	300025f3          	.insn	4, 0x300025f3
20003c56:	c0aa                	sw	a0,64(sp)
20003c58:	c2ae                	sw	a1,68(sp)

20003c5a <save_meicontext>:
20003c5a:	be516673          	.insn	4, 0xbe516673
20003c5e:	c4b2                	sw	a2,72(sp)

20003c60 <get_first_irq>:
20003c60:	be40e573          	.insn	4, 0xbe40e573
20003c64:	02054163          	bltz	a0,20003c86 <no_more_irqs>

20003c68 <dispatch_irq>:
20003c68:	30046073          	.insn	4, 0x30046073
20003c6c:	200045b7          	lui	a1,0x20004
20003c70:	95aa                	add	a1,a1,a0
20003c72:	cd05a583          	lw	a1,-816(a1) # 20003cd0 <__soft_vector_table>
20003c76:	000580e7          	jalr	a1
20003c7a:	30047073          	.insn	4, 0x30047073

20003c7e <get_next_irq>:
20003c7e:	be40e573          	.insn	4, 0xbe40e573
20003c82:	fe0553e3          	bgez	a0,20003c68 <dispatch_irq>

20003c86 <no_more_irqs>:
20003c86:	4506                	lw	a0,64(sp)
20003c88:	4596                	lw	a1,68(sp)
20003c8a:	4626                	lw	a2,72(sp)
20003c8c:	34151073          	.insn	4, 0x34151073
20003c90:	30059073          	.insn	4, 0x30059073
20003c94:	be561073          	.insn	4, 0xbe561073
20003c98:	4082                	lw	ra,0(sp)
20003c9a:	4292                	lw	t0,4(sp)
20003c9c:	4322                	lw	t1,8(sp)
20003c9e:	43b2                	lw	t2,12(sp)
20003ca0:	45d2                	lw	a1,20(sp)
20003ca2:	4662                	lw	a2,24(sp)
20003ca4:	46f2                	lw	a3,28(sp)
20003ca6:	5702                	lw	a4,32(sp)
20003ca8:	5792                	lw	a5,36(sp)
20003caa:	5822                	lw	a6,40(sp)
20003cac:	58b2                	lw	a7,44(sp)
20003cae:	5e42                	lw	t3,48(sp)
20003cb0:	5ed2                	lw	t4,52(sp)
20003cb2:	5f62                	lw	t5,56(sp)
20003cb4:	5ff2                	lw	t6,60(sp)

20003cb6 <check_irq_before_exit>:
20003cb6:	be402573          	.insn	4, 0xbe402573
20003cba:	fa0550e3          	bgez	a0,20003c5a <save_meicontext>
20003cbe:	4542                	lw	a0,16(sp)
20003cc0:	6161                	addi	sp,sp,80
20003cc2:	30200073          	mret
	...

20003cd0 <__soft_vector_table>:
20003cd0:	3da4                	.insn	2, 0x3da4
20003cd2:	2000                	.insn	2, 0x2000
20003cd4:	3da4                	.insn	2, 0x3da4
20003cd6:	2000                	.insn	2, 0x2000
20003cd8:	3da4                	.insn	2, 0x3da4
20003cda:	2000                	.insn	2, 0x2000
20003cdc:	3da4                	.insn	2, 0x3da4
20003cde:	2000                	.insn	2, 0x2000
20003ce0:	3da4                	.insn	2, 0x3da4
20003ce2:	2000                	.insn	2, 0x2000
20003ce4:	3da4                	.insn	2, 0x3da4
20003ce6:	2000                	.insn	2, 0x2000
20003ce8:	3da4                	.insn	2, 0x3da4
20003cea:	2000                	.insn	2, 0x2000
20003cec:	3da4                	.insn	2, 0x3da4
20003cee:	2000                	.insn	2, 0x2000
20003cf0:	3da4                	.insn	2, 0x3da4
20003cf2:	2000                	.insn	2, 0x2000
20003cf4:	3da4                	.insn	2, 0x3da4
20003cf6:	2000                	.insn	2, 0x2000
20003cf8:	3da4                	.insn	2, 0x3da4
20003cfa:	2000                	.insn	2, 0x2000
20003cfc:	3da4                	.insn	2, 0x3da4
20003cfe:	2000                	.insn	2, 0x2000
20003d00:	3da4                	.insn	2, 0x3da4
20003d02:	2000                	.insn	2, 0x2000
20003d04:	3da4                	.insn	2, 0x3da4
20003d06:	2000                	.insn	2, 0x2000
20003d08:	3da4                	.insn	2, 0x3da4
20003d0a:	2000                	.insn	2, 0x2000
20003d0c:	3da4                	.insn	2, 0x3da4
20003d0e:	2000                	.insn	2, 0x2000
20003d10:	3da4                	.insn	2, 0x3da4
20003d12:	2000                	.insn	2, 0x2000
20003d14:	3da4                	.insn	2, 0x3da4
20003d16:	2000                	.insn	2, 0x2000
20003d18:	3da4                	.insn	2, 0x3da4
20003d1a:	2000                	.insn	2, 0x2000
20003d1c:	3da4                	.insn	2, 0x3da4
20003d1e:	2000                	.insn	2, 0x2000
20003d20:	3da4                	.insn	2, 0x3da4
20003d22:	2000                	.insn	2, 0x2000
20003d24:	3da4                	.insn	2, 0x3da4
20003d26:	2000                	.insn	2, 0x2000
20003d28:	3da4                	.insn	2, 0x3da4
20003d2a:	2000                	.insn	2, 0x2000
20003d2c:	3da4                	.insn	2, 0x3da4
20003d2e:	2000                	.insn	2, 0x2000
20003d30:	3da4                	.insn	2, 0x3da4
20003d32:	2000                	.insn	2, 0x2000
20003d34:	3da4                	.insn	2, 0x3da4
20003d36:	2000                	.insn	2, 0x2000
20003d38:	3da4                	.insn	2, 0x3da4
20003d3a:	2000                	.insn	2, 0x2000
20003d3c:	3da4                	.insn	2, 0x3da4
20003d3e:	2000                	.insn	2, 0x2000
20003d40:	3da4                	.insn	2, 0x3da4
20003d42:	2000                	.insn	2, 0x2000
20003d44:	3da4                	.insn	2, 0x3da4
20003d46:	2000                	.insn	2, 0x2000
20003d48:	3da4                	.insn	2, 0x3da4
20003d4a:	2000                	.insn	2, 0x2000
20003d4c:	3da4                	.insn	2, 0x3da4
20003d4e:	2000                	.insn	2, 0x2000
20003d50:	3da4                	.insn	2, 0x3da4
20003d52:	2000                	.insn	2, 0x2000
20003d54:	3da4                	.insn	2, 0x3da4
20003d56:	2000                	.insn	2, 0x2000
20003d58:	3da4                	.insn	2, 0x3da4
20003d5a:	2000                	.insn	2, 0x2000
20003d5c:	3da4                	.insn	2, 0x3da4
20003d5e:	2000                	.insn	2, 0x2000
20003d60:	3da4                	.insn	2, 0x3da4
20003d62:	2000                	.insn	2, 0x2000
20003d64:	3da4                	.insn	2, 0x3da4
20003d66:	2000                	.insn	2, 0x2000
20003d68:	3da4                	.insn	2, 0x3da4
20003d6a:	2000                	.insn	2, 0x2000
20003d6c:	3da4                	.insn	2, 0x3da4
20003d6e:	2000                	.insn	2, 0x2000
20003d70:	3da4                	.insn	2, 0x3da4
20003d72:	2000                	.insn	2, 0x2000
20003d74:	3da4                	.insn	2, 0x3da4
20003d76:	2000                	.insn	2, 0x2000
20003d78:	3da4                	.insn	2, 0x3da4
20003d7a:	2000                	.insn	2, 0x2000
20003d7c:	3da4                	.insn	2, 0x3da4
20003d7e:	2000                	.insn	2, 0x2000
20003d80:	3da4                	.insn	2, 0x3da4
20003d82:	2000                	.insn	2, 0x2000
20003d84:	3da4                	.insn	2, 0x3da4
20003d86:	2000                	.insn	2, 0x2000
20003d88:	3da4                	.insn	2, 0x3da4
20003d8a:	2000                	.insn	2, 0x2000
20003d8c:	3da4                	.insn	2, 0x3da4
20003d8e:	2000                	.insn	2, 0x2000
20003d90:	3da4                	.insn	2, 0x3da4
20003d92:	2000                	.insn	2, 0x2000
20003d94:	3da4                	.insn	2, 0x3da4
20003d96:	2000                	.insn	2, 0x2000
20003d98:	3da4                	.insn	2, 0x3da4
20003d9a:	2000                	.insn	2, 0x2000
20003d9c:	3da4                	.insn	2, 0x3da4
20003d9e:	2000                	.insn	2, 0x2000

20003da0 <__default_isrs_start>:
20003da0:	9002                	ebreak

20003da2 <isr_riscv_machine_soft_irq>:
20003da2:	9002                	ebreak

20003da4 <__unhandled_user_irq>:
20003da4:	8109                	srli	a0,a0,0x2
20003da6:	9002                	ebreak

20003da8 <stdio_usb>:
20003da8:	4b5e 1000 47a2 1000 4abe 1000 4798 1000     ^K...G...J...G..
20003db8:	0000 0000 0100 0000                         ........

20003dc0 <_usbd_qdef>:
20003dc0:	4598 2000 0010 000c 0000 0000 0000 0000     .E. ............
	...

20003de0 <_impure_data>:
20003de0:	0000 0000 4250 2000 42b8 2000 4320 2000     ....PB. .B.  C. 
	...
20003e78:	0001 0000 0000 0000 330e abcd 1234 e66d     .........3..4.m.
20003e88:	deec 0005 000b 0000 0000 0000 0000 0000     ................
	...

20003f20 <striped_spin_lock_num>:
20003f20:	                                             .

20003f21 <_usbd_rhport>:
20003f21:	00ff                                         ...

20003f24 <_impure_ptr>:
20003f24:	3de0 2000                                   .=. 

20003f28 <__atexit_recursive_mutex>:
20003f28:	4f50 2000                                   PO. 

20003f2c <malloc_mutex>:
	...

20003f34 <print_mutex>:
	...
